
libc-test/runtest.exe:     file format elf64-littleriscv


Disassembly of section .text:

0000000000010120 <exit>:
   10120:	fe010113          	addi	sp,sp,-32
   10124:	00a13423          	sd	a0,8(sp)
   10128:	00113c23          	sd	ra,24(sp)
   1012c:	560010ef          	jal	ra,1168c <__funcs_on_exit>
   10130:	560010ef          	jal	ra,11690 <__libc_exit_fini>
   10134:	159070ef          	jal	ra,17a8c <__stdio_exit>
   10138:	00813503          	ld	a0,8(sp)
   1013c:	2c5040ef          	jal	ra,14c00 <_Exit>

0000000000010140 <main>:
   10140:	f1010113          	addi	sp,sp,-240
   10144:	0e813023          	sd	s0,224(sp)
   10148:	0c913c23          	sd	s1,216(sp)
   1014c:	00058413          	mv	s0,a1
   10150:	00050493          	mv	s1,a0
   10154:	0001a637          	lui	a2,0x1a
   10158:	0001a5b7          	lui	a1,0x1a
   1015c:	0001a537          	lui	a0,0x1a
   10160:	0d213823          	sd	s2,208(sp)
   10164:	46060613          	addi	a2,a2,1120 # 1a460 <__clzdi2+0x44>
   10168:	46858593          	addi	a1,a1,1128 # 1a468 <__clzdi2+0x4c>
   1016c:	47050513          	addi	a0,a0,1136 # 1a470 <__clzdi2+0x54>
   10170:	0001a937          	lui	s2,0x1a
   10174:	0d313423          	sd	s3,200(sp)
   10178:	0d413023          	sd	s4,192(sp)
   1017c:	0b513c23          	sd	s5,184(sp)
   10180:	0b613823          	sd	s6,176(sp)
   10184:	0b713423          	sd	s7,168(sp)
   10188:	0b813023          	sd	s8,160(sp)
   1018c:	0e113423          	sd	ra,232(sp)
   10190:	00500a13          	li	s4,5
   10194:	135000ef          	jal	ra,10ac8 <t_printf>
   10198:	68890913          	addi	s2,s2,1672 # 1a688 <__clzdi2+0x26c>
   1019c:	0001ab37          	lui	s6,0x1a
   101a0:	fff00a93          	li	s5,-1
   101a4:	07400b93          	li	s7,116
   101a8:	07700c13          	li	s8,119
   101ac:	4e8b0613          	addi	a2,s6,1256 # 1a4e8 <__clzdi2+0xcc>
   101b0:	00040593          	mv	a1,s0
   101b4:	00048513          	mv	a0,s1
   101b8:	159020ef          	jal	ra,12b10 <getopt>
   101bc:	00050793          	mv	a5,a0
   101c0:	03551263          	bne	a0,s5,101e4 <main+0xa4>
   101c4:	98c1a583          	lw	a1,-1652(gp) # 1d18c <optind>
   101c8:	0295ce63          	blt	a1,s1,10204 <main+0xc4>
   101cc:	00043583          	ld	a1,0(s0)
   101d0:	0001a537          	lui	a0,0x1a
   101d4:	49850513          	addi	a0,a0,1176 # 1a498 <__clzdi2+0x7c>
   101d8:	0f1000ef          	jal	ra,10ac8 <t_printf>
   101dc:	fff00513          	li	a0,-1
   101e0:	f41ff0ef          	jal	ra,10120 <exit>
   101e4:	01778863          	beq	a5,s7,101f4 <main+0xb4>
   101e8:	ff8792e3          	bne	a5,s8,101cc <main+0x8c>
   101ec:	a001b903          	ld	s2,-1536(gp) # 1d200 <optarg>
   101f0:	fbdff06f          	j	101ac <main+0x6c>
   101f4:	a001b503          	ld	a0,-1536(gp) # 1d200 <optarg>
   101f8:	1d1030ef          	jal	ra,13bc8 <atoi>
   101fc:	00050a13          	mv	s4,a0
   10200:	fadff06f          	j	101ac <main+0x6c>
   10204:	00359593          	slli	a1,a1,0x3
   10208:	02010513          	addi	a0,sp,32
   1020c:	00b40433          	add	s0,s0,a1
   10210:	1d4030ef          	jal	ra,133e4 <sigemptyset>
   10214:	01100593          	li	a1,17
   10218:	02010513          	addi	a0,sp,32
   1021c:	170030ef          	jal	ra,1338c <sigaddset>
   10220:	00000613          	li	a2,0
   10224:	02010593          	addi	a1,sp,32
   10228:	00000513          	li	a0,0
   1022c:	22c030ef          	jal	ra,13458 <sigprocmask>
   10230:	000105b7          	lui	a1,0x10
   10234:	5c458593          	addi	a1,a1,1476 # 105c4 <handler>
   10238:	01100513          	li	a0,17
   1023c:	1b4030ef          	jal	ra,133f0 <signal>
   10240:	008030ef          	jal	ra,13248 <fork>
   10244:	00050493          	mv	s1,a0
   10248:	04051e63          	bnez	a0,102a4 <main+0x164>
   1024c:	000195b7          	lui	a1,0x19
   10250:	00300513          	li	a0,3
   10254:	4b9000ef          	jal	ra,10f0c <t_setrlim>
   10258:	00094783          	lbu	a5,0(s2)
   1025c:	00078663          	beqz	a5,10268 <main+0x128>
   10260:	ff243c23          	sd	s2,-8(s0)
   10264:	ff840413          	addi	s0,s0,-8
   10268:	00043503          	ld	a0,0(s0)
   1026c:	00040593          	mv	a1,s0
   10270:	7a9020ef          	jal	ra,13218 <execv>
   10274:	00043583          	ld	a1,0(s0)
   10278:	00b13423          	sd	a1,8(sp)
   1027c:	3ac010ef          	jal	ra,11628 <__errno_location>
   10280:	00052503          	lw	a0,0(a0)
   10284:	3fc010ef          	jal	ra,11680 <strerror>
   10288:	00813583          	ld	a1,8(sp)
   1028c:	00050613          	mv	a2,a0
   10290:	0001a537          	lui	a0,0x1a
   10294:	4f050513          	addi	a0,a0,1264 # 1a4f0 <__clzdi2+0xd4>
   10298:	031000ef          	jal	ra,10ac8 <t_printf>
   1029c:	00100513          	li	a0,1
   102a0:	f41ff06f          	j	101e0 <main+0xa0>
   102a4:	00000993          	li	s3,0
   102a8:	05551063          	bne	a0,s5,102e8 <main+0x1a8>
   102ac:	00043583          	ld	a1,0(s0)
   102b0:	00100993          	li	s3,1
   102b4:	00b13423          	sd	a1,8(sp)
   102b8:	370010ef          	jal	ra,11628 <__errno_location>
   102bc:	00052503          	lw	a0,0(a0)
   102c0:	3c0010ef          	jal	ra,11680 <strerror>
   102c4:	00813583          	ld	a1,8(sp)
   102c8:	00050613          	mv	a2,a0
   102cc:	0001a537          	lui	a0,0x1a
   102d0:	52050513          	addi	a0,a0,1312 # 1a520 <__clzdi2+0x104>
   102d4:	7f4000ef          	jal	ra,10ac8 <t_printf>
   102d8:	00043583          	ld	a1,0(s0)
   102dc:	0001a537          	lui	a0,0x1a
   102e0:	55050513          	addi	a0,a0,1360 # 1a550 <__clzdi2+0x134>
   102e4:	7e4000ef          	jal	ra,10ac8 <t_printf>
   102e8:	01010613          	addi	a2,sp,16
   102ec:	00000593          	li	a1,0
   102f0:	02010513          	addi	a0,sp,32
   102f4:	00013c23          	sd	zero,24(sp)
   102f8:	01413823          	sd	s4,16(sp)
   102fc:	194030ef          	jal	ra,13490 <sigtimedwait>
   10300:	fff00793          	li	a5,-1
   10304:	00000a93          	li	s5,0
   10308:	08f51063          	bne	a0,a5,10388 <main+0x248>
   1030c:	31c010ef          	jal	ra,11628 <__errno_location>
   10310:	00050a13          	mv	s4,a0
   10314:	00052503          	lw	a0,0(a0)
   10318:	00b00793          	li	a5,11
   1031c:	00100a93          	li	s5,1
   10320:	02f50663          	beq	a0,a5,1034c <main+0x20c>
   10324:	00043583          	ld	a1,0(s0)
   10328:	00100993          	li	s3,1
   1032c:	00000a93          	li	s5,0
   10330:	00b13423          	sd	a1,8(sp)
   10334:	34c010ef          	jal	ra,11680 <strerror>
   10338:	00813583          	ld	a1,8(sp)
   1033c:	00050613          	mv	a2,a0
   10340:	0001a537          	lui	a0,0x1a
   10344:	56850513          	addi	a0,a0,1384 # 1a568 <__clzdi2+0x14c>
   10348:	780000ef          	jal	ra,10ac8 <t_printf>
   1034c:	00900593          	li	a1,9
   10350:	00048513          	mv	a0,s1
   10354:	014030ef          	jal	ra,13368 <kill>
   10358:	fff00793          	li	a5,-1
   1035c:	02f51663          	bne	a0,a5,10388 <main+0x248>
   10360:	00043583          	ld	a1,0(s0)
   10364:	000a2503          	lw	a0,0(s4)
   10368:	00100993          	li	s3,1
   1036c:	00b13423          	sd	a1,8(sp)
   10370:	310010ef          	jal	ra,11680 <strerror>
   10374:	00813583          	ld	a1,8(sp)
   10378:	00050613          	mv	a2,a0
   1037c:	0001a537          	lui	a0,0x1a
   10380:	5a050513          	addi	a0,a0,1440 # 1a5a0 <__clzdi2+0x184>
   10384:	744000ef          	jal	ra,10ac8 <t_printf>
   10388:	00000613          	li	a2,0
   1038c:	01010593          	addi	a1,sp,16
   10390:	00048513          	mv	a0,s1
   10394:	745020ef          	jal	ra,132d8 <waitpid>
   10398:	04950063          	beq	a0,s1,103d8 <main+0x298>
   1039c:	00043583          	ld	a1,0(s0)
   103a0:	00100993          	li	s3,1
   103a4:	00b13423          	sd	a1,8(sp)
   103a8:	280010ef          	jal	ra,11628 <__errno_location>
   103ac:	00052503          	lw	a0,0(a0)
   103b0:	2d0010ef          	jal	ra,11680 <strerror>
   103b4:	00813583          	ld	a1,8(sp)
   103b8:	00050613          	mv	a2,a0
   103bc:	0001a537          	lui	a0,0x1a
   103c0:	5d050513          	addi	a0,a0,1488 # 1a5d0 <__clzdi2+0x1b4>
   103c4:	704000ef          	jal	ra,10ac8 <t_printf>
   103c8:	00043583          	ld	a1,0(s0)
   103cc:	0001a537          	lui	a0,0x1a
   103d0:	55050513          	addi	a0,a0,1360 # 1a550 <__clzdi2+0x134>
   103d4:	6f4000ef          	jal	ra,10ac8 <t_printf>
   103d8:	01012603          	lw	a2,16(sp)
   103dc:	07f67513          	andi	a0,a2,127
   103e0:	06051463          	bnez	a0,10448 <main+0x308>
   103e4:	4086561b          	sraiw	a2,a2,0x8
   103e8:	0ff67613          	andi	a2,a2,255
   103ec:	0a060a63          	beqz	a2,104a0 <main+0x360>
   103f0:	00043583          	ld	a1,0(s0)
   103f4:	0001a537          	lui	a0,0x1a
   103f8:	60050513          	addi	a0,a0,1536 # 1a600 <__clzdi2+0x1e4>
   103fc:	6cc000ef          	jal	ra,10ac8 <t_printf>
   10400:	00043603          	ld	a2,0(s0)
   10404:	0001a537          	lui	a0,0x1a
   10408:	00090593          	mv	a1,s2
   1040c:	66850513          	addi	a0,a0,1640 # 1a668 <__clzdi2+0x24c>
   10410:	6b8000ef          	jal	ra,10ac8 <t_printf>
   10414:	0e813083          	ld	ra,232(sp)
   10418:	0e013403          	ld	s0,224(sp)
   1041c:	0d813483          	ld	s1,216(sp)
   10420:	0d013903          	ld	s2,208(sp)
   10424:	0c813983          	ld	s3,200(sp)
   10428:	0c013a03          	ld	s4,192(sp)
   1042c:	0b813a83          	ld	s5,184(sp)
   10430:	0b013b03          	ld	s6,176(sp)
   10434:	0a813b83          	ld	s7,168(sp)
   10438:	0a013c03          	ld	s8,160(sp)
   1043c:	00100513          	li	a0,1
   10440:	0f010113          	addi	sp,sp,240
   10444:	00008067          	ret
   10448:	00043583          	ld	a1,0(s0)
   1044c:	000a8a63          	beqz	s5,10460 <main+0x320>
   10450:	0001a537          	lui	a0,0x1a
   10454:	61850513          	addi	a0,a0,1560 # 1a618 <__clzdi2+0x1fc>
   10458:	670000ef          	jal	ra,10ac8 <t_printf>
   1045c:	fa5ff06f          	j	10400 <main+0x2c0>
   10460:	03061613          	slli	a2,a2,0x30
   10464:	03065613          	srli	a2,a2,0x30
   10468:	fff6061b          	addiw	a2,a2,-1
   1046c:	0fe00793          	li	a5,254
   10470:	02c7e263          	bltu	a5,a2,10494 <main+0x354>
   10474:	00b13423          	sd	a1,8(sp)
   10478:	665030ef          	jal	ra,142dc <strsignal>
   1047c:	00813583          	ld	a1,8(sp)
   10480:	00050613          	mv	a2,a0
   10484:	0001a537          	lui	a0,0x1a
   10488:	63050513          	addi	a0,a0,1584 # 1a630 <__clzdi2+0x214>
   1048c:	63c000ef          	jal	ra,10ac8 <t_printf>
   10490:	f71ff06f          	j	10400 <main+0x2c0>
   10494:	0001a537          	lui	a0,0x1a
   10498:	64850513          	addi	a0,a0,1608 # 1a648 <__clzdi2+0x22c>
   1049c:	fbdff06f          	j	10458 <main+0x318>
   104a0:	f60990e3          	bnez	s3,10400 <main+0x2c0>
   104a4:	0001a537          	lui	a0,0x1a
   104a8:	66050513          	addi	a0,a0,1632 # 1a660 <__clzdi2+0x244>
   104ac:	61c000ef          	jal	ra,10ac8 <t_printf>
   104b0:	f51ff06f          	j	10400 <main+0x2c0>

00000000000104b4 <_start>:
   104b4:	0000d197          	auipc	gp,0xd
   104b8:	34c18193          	addi	gp,gp,844 # 1d800 <__global_pointer$>
   104bc:	00010513          	mv	a0,sp
   104c0:	00000593          	li	a1,0
   104c4:	ff017113          	andi	sp,sp,-16
   104c8:	0040006f          	j	104cc <_start_c>

00000000000104cc <_start_c>:
   104cc:	00052583          	lw	a1,0(a0)
   104d0:	00011737          	lui	a4,0x11
   104d4:	000116b7          	lui	a3,0x11
   104d8:	00850613          	addi	a2,a0,8
   104dc:	00010537          	lui	a0,0x10
   104e0:	00000793          	li	a5,0
   104e4:	68c70713          	addi	a4,a4,1676 # 1168c <__funcs_on_exit>
   104e8:	37c68693          	addi	a3,a3,892 # 1137c <_init>
   104ec:	14050513          	addi	a0,a0,320 # 10140 <main>
   104f0:	0e00106f          	j	115d0 <__libc_start_main>

00000000000104f4 <deregister_tm_clones>:
   104f4:	8e818713          	addi	a4,gp,-1816 # 1d0e8 <__TMC_END__>
   104f8:	8e818793          	addi	a5,gp,-1816 # 1d0e8 <__TMC_END__>
   104fc:	00e78a63          	beq	a5,a4,10510 <deregister_tm_clones+0x1c>
   10500:	00000793          	li	a5,0
   10504:	00078663          	beqz	a5,10510 <deregister_tm_clones+0x1c>
   10508:	8e818513          	addi	a0,gp,-1816 # 1d0e8 <__TMC_END__>
   1050c:	00078067          	jr	a5
   10510:	00008067          	ret

0000000000010514 <register_tm_clones>:
   10514:	8e818593          	addi	a1,gp,-1816 # 1d0e8 <__TMC_END__>
   10518:	8e818793          	addi	a5,gp,-1816 # 1d0e8 <__TMC_END__>
   1051c:	40f585b3          	sub	a1,a1,a5
   10520:	4035d593          	srai	a1,a1,0x3
   10524:	00200793          	li	a5,2
   10528:	02f5c5b3          	div	a1,a1,a5
   1052c:	00058a63          	beqz	a1,10540 <register_tm_clones+0x2c>
   10530:	00000793          	li	a5,0
   10534:	00078663          	beqz	a5,10540 <register_tm_clones+0x2c>
   10538:	8e818513          	addi	a0,gp,-1816 # 1d0e8 <__TMC_END__>
   1053c:	00078067          	jr	a5
   10540:	00008067          	ret

0000000000010544 <__do_global_dtors_aux>:
   10544:	a901c703          	lbu	a4,-1392(gp) # 1d290 <completed.1>
   10548:	04071463          	bnez	a4,10590 <__do_global_dtors_aux+0x4c>
   1054c:	ff010113          	addi	sp,sp,-16
   10550:	00813023          	sd	s0,0(sp)
   10554:	00113423          	sd	ra,8(sp)
   10558:	00078413          	mv	s0,a5
   1055c:	f99ff0ef          	jal	ra,104f4 <deregister_tm_clones>
   10560:	00000793          	li	a5,0
   10564:	00078a63          	beqz	a5,10578 <__do_global_dtors_aux+0x34>
   10568:	0001c537          	lui	a0,0x1c
   1056c:	ea050513          	addi	a0,a0,-352 # 1bea0 <__FRAME_END__>
   10570:	00000097          	auipc	ra,0x0
   10574:	000000e7          	jalr	zero # 0 <exit-0x10120>
   10578:	00100793          	li	a5,1
   1057c:	00813083          	ld	ra,8(sp)
   10580:	a8f18823          	sb	a5,-1392(gp) # 1d290 <completed.1>
   10584:	00013403          	ld	s0,0(sp)
   10588:	01010113          	addi	sp,sp,16
   1058c:	00008067          	ret
   10590:	00008067          	ret

0000000000010594 <frame_dummy>:
   10594:	00000793          	li	a5,0
   10598:	02078463          	beqz	a5,105c0 <frame_dummy+0x2c>
   1059c:	0001c537          	lui	a0,0x1c
   105a0:	ff010113          	addi	sp,sp,-16
   105a4:	a9818593          	addi	a1,gp,-1384 # 1d298 <object.0>
   105a8:	ea050513          	addi	a0,a0,-352 # 1bea0 <__FRAME_END__>
   105ac:	00113423          	sd	ra,8(sp)
   105b0:	00000097          	auipc	ra,0x0
   105b4:	000000e7          	jalr	zero # 0 <exit-0x10120>
   105b8:	00813083          	ld	ra,8(sp)
   105bc:	01010113          	addi	sp,sp,16
   105c0:	f55ff06f          	j	10514 <register_tm_clones>

00000000000105c4 <handler>:
   105c4:	00008067          	ret

00000000000105c8 <t_fdfill>:
   105c8:	fe010113          	addi	sp,sp,-32
   105cc:	00100513          	li	a0,1
   105d0:	00813823          	sd	s0,16(sp)
   105d4:	00113c23          	sd	ra,24(sp)
   105d8:	00913423          	sd	s1,8(sp)
   105dc:	2d0040ef          	jal	ra,148ac <dup>
   105e0:	fff00793          	li	a5,-1
   105e4:	00100413          	li	s0,1
   105e8:	02f51463          	bne	a0,a5,10610 <t_fdfill+0x48>
   105ec:	03c010ef          	jal	ra,11628 <__errno_location>
   105f0:	00052703          	lw	a4,0(a0)
   105f4:	01800793          	li	a5,24
   105f8:	02f70463          	beq	a4,a5,10620 <t_fdfill+0x58>
   105fc:	0001a537          	lui	a0,0x1a
   10600:	00000593          	li	a1,0
   10604:	69050513          	addi	a0,a0,1680 # 1a690 <__clzdi2+0x274>
   10608:	0d0010ef          	jal	ra,116d8 <open>
   1060c:	00050413          	mv	s0,a0
   10610:	fff00493          	li	s1,-1
   10614:	00040513          	mv	a0,s0
   10618:	294040ef          	jal	ra,148ac <dup>
   1061c:	fe951ce3          	bne	a0,s1,10614 <t_fdfill+0x4c>
   10620:	01813083          	ld	ra,24(sp)
   10624:	01013403          	ld	s0,16(sp)
   10628:	00813483          	ld	s1,8(sp)
   1062c:	02010113          	addi	sp,sp,32
   10630:	00008067          	ret

0000000000010634 <t_memfill>:
   10634:	ff010113          	addi	sp,sp,-16
   10638:	00000613          	li	a2,0
   1063c:	00000593          	li	a1,0
   10640:	00000513          	li	a0,0
   10644:	00813023          	sd	s0,0(sp)
   10648:	00113423          	sd	ra,8(sp)
   1064c:	245000ef          	jal	ra,11090 <t_vmfill>
   10650:	00000413          	li	s0,0
   10654:	02055263          	bgez	a0,10678 <t_memfill+0x44>
   10658:	7d1000ef          	jal	ra,11628 <__errno_location>
   1065c:	00052503          	lw	a0,0(a0)
   10660:	fff00413          	li	s0,-1
   10664:	01c010ef          	jal	ra,11680 <strerror>
   10668:	00050593          	mv	a1,a0
   1066c:	0001a537          	lui	a0,0x1a
   10670:	6a050513          	addi	a0,a0,1696 # 1a6a0 <__clzdi2+0x284>
   10674:	454000ef          	jal	ra,10ac8 <t_printf>
   10678:	00000593          	li	a1,0
   1067c:	00200513          	li	a0,2
   10680:	08d000ef          	jal	ra,10f0c <t_setrlim>
   10684:	02054463          	bltz	a0,106ac <t_memfill+0x78>
   10688:	02041263          	bnez	s0,106ac <t_memfill+0x78>
   1068c:	00100513          	li	a0,1
   10690:	4a9010ef          	jal	ra,12338 <malloc>
   10694:	fe051ce3          	bnez	a0,1068c <t_memfill+0x58>
   10698:	00813083          	ld	ra,8(sp)
   1069c:	00040513          	mv	a0,s0
   106a0:	00013403          	ld	s0,0(sp)
   106a4:	01010113          	addi	sp,sp,16
   106a8:	00008067          	ret
   106ac:	fff00413          	li	s0,-1
   106b0:	fe9ff06f          	j	10698 <t_memfill+0x64>

00000000000106b4 <eulpf>:
   106b4:	0175551b          	srliw	a0,a0,0x17
   106b8:	0ff57513          	andi	a0,a0,255
   106bc:	00051463          	bnez	a0,106c4 <eulpf+0x10>
   106c0:	00100513          	li	a0,1
   106c4:	f6a5051b          	addiw	a0,a0,-150
   106c8:	00008067          	ret

00000000000106cc <eulp>:
   106cc:	03455513          	srli	a0,a0,0x34
   106d0:	7ff57513          	andi	a0,a0,2047
   106d4:	00051463          	bnez	a0,106dc <eulp+0x10>
   106d8:	00100513          	li	a0,1
   106dc:	bcd5051b          	addiw	a0,a0,-1075
   106e0:	00008067          	ret

00000000000106e4 <eulpl>:
   106e4:	00000513          	li	a0,0
   106e8:	00008067          	ret

00000000000106ec <ulperrf>:
   106ec:	fe010113          	addi	sp,sp,-32
   106f0:	00a12423          	sw	a0,8(sp)
   106f4:	00812703          	lw	a4,8(sp)
   106f8:	800007b7          	lui	a5,0x80000
   106fc:	fff7c793          	not	a5,a5
   10700:	f00607d3          	fmv.w.x	fa5,a2
   10704:	00813823          	sd	s0,16(sp)
   10708:	00113c23          	sd	ra,24(sp)
   1070c:	00f77633          	and	a2,a4,a5
   10710:	7f8006b7          	lui	a3,0x7f800
   10714:	00058413          	mv	s0,a1
   10718:	00c6fc63          	bgeu	a3,a2,10730 <ulperrf+0x44>
   1071c:	0087f7b3          	and	a5,a5,s0
   10720:	0007879b          	sext.w	a5,a5
   10724:	0af6f663          	bgeu	a3,a5,107d0 <ulperrf+0xe4>
   10728:	f00007d3          	fmv.w.x	fa5,zero
   1072c:	0240006f          	j	10750 <ulperrf+0x64>
   10730:	00812707          	flw	fa4,8(sp)
   10734:	f00586d3          	fmv.w.x	fa3,a1
   10738:	a0d727d3          	feq.s	a5,fa4,fa3
   1073c:	02078463          	beqz	a5,10764 <ulperrf+0x78>
   10740:	01f7571b          	srliw	a4,a4,0x1f
   10744:	01f4541b          	srliw	s0,s0,0x1f
   10748:	00870463          	beq	a4,s0,10750 <ulperrf+0x64>
   1074c:	9481a787          	flw	fa5,-1720(gp) # 1d148 <__SDATA_BEGIN__+0x40>
   10750:	01813083          	ld	ra,24(sp)
   10754:	01013403          	ld	s0,16(sp)
   10758:	e0078553          	fmv.x.w	a0,fa5
   1075c:	02010113          	addi	sp,sp,32
   10760:	00008067          	ret
   10764:	02d61663          	bne	a2,a3,10790 <ulperrf+0xa4>
   10768:	94c1a503          	lw	a0,-1716(gp) # 1d14c <__SDATA_BEGIN__+0x44>
   1076c:	00812583          	lw	a1,8(sp)
   10770:	00f12627          	fsw	fa5,12(sp)
   10774:	20c020ef          	jal	ra,12980 <copysignf>
   10778:	f00407d3          	fmv.w.x	fa5,s0
   1077c:	9501a707          	flw	fa4,-1712(gp) # 1d150 <__SDATA_BEGIN__+0x48>
   10780:	00a12423          	sw	a0,8(sp)
   10784:	10e7f7d3          	fmul.s	fa5,fa5,fa4
   10788:	e0078453          	fmv.x.w	s0,fa5
   1078c:	00c12787          	flw	fa5,12(sp)
   10790:	00040513          	mv	a0,s0
   10794:	00f12627          	fsw	fa5,12(sp)
   10798:	f1dff0ef          	jal	ra,106b4 <eulpf>
   1079c:	00812787          	flw	fa5,8(sp)
   107a0:	f0040753          	fmv.w.x	fa4,s0
   107a4:	40a005bb          	negw	a1,a0
   107a8:	08e7f753          	fsub.s	fa4,fa5,fa4
   107ac:	420707d3          	fcvt.d.s	fa5,fa4
   107b0:	e2078553          	fmv.x.d	a0,fa5
   107b4:	1e0020ef          	jal	ra,12994 <scalbn>
   107b8:	00c12787          	flw	fa5,12(sp)
   107bc:	f2050753          	fmv.d.x	fa4,a0
   107c0:	420787d3          	fcvt.d.s	fa5,fa5
   107c4:	02e7f7d3          	fadd.d	fa5,fa5,fa4
   107c8:	4017f7d3          	fcvt.s.d	fa5,fa5
   107cc:	f85ff06f          	j	10750 <ulperrf+0x64>
   107d0:	00812707          	flw	fa4,8(sp)
   107d4:	f00586d3          	fmv.w.x	fa3,a1
   107d8:	a0d727d3          	feq.s	a5,fa4,fa3
   107dc:	fa078ae3          	beqz	a5,10790 <ulperrf+0xa4>
   107e0:	f61ff06f          	j	10740 <ulperrf+0x54>

00000000000107e4 <ulperr>:
   107e4:	fff00793          	li	a5,-1
   107e8:	fe010113          	addi	sp,sp,-32
   107ec:	0017d793          	srli	a5,a5,0x1
   107f0:	7ff00713          	li	a4,2047
   107f4:	f0060753          	fmv.w.x	fa4,a2
   107f8:	00813823          	sd	s0,16(sp)
   107fc:	00113c23          	sd	ra,24(sp)
   10800:	00a7f633          	and	a2,a5,a0
   10804:	03471713          	slli	a4,a4,0x34
   10808:	00058413          	mv	s0,a1
   1080c:	00050693          	mv	a3,a0
   10810:	00c77a63          	bgeu	a4,a2,10824 <ulperr+0x40>
   10814:	00f5f7b3          	and	a5,a1,a5
   10818:	0af77663          	bgeu	a4,a5,108c4 <ulperr+0xe0>
   1081c:	f0000753          	fmv.w.x	fa4,zero
   10820:	0240006f          	j	10844 <ulperr+0x60>
   10824:	f20507d3          	fmv.d.x	fa5,a0
   10828:	f20586d3          	fmv.d.x	fa3,a1
   1082c:	a2d7a7d3          	feq.d	a5,fa5,fa3
   10830:	02078463          	beqz	a5,10858 <ulperr+0x74>
   10834:	0006a693          	slti	a3,a3,0
   10838:	00042413          	slti	s0,s0,0
   1083c:	00868463          	beq	a3,s0,10844 <ulperr+0x60>
   10840:	9481a707          	flw	fa4,-1720(gp) # 1d148 <__SDATA_BEGIN__+0x40>
   10844:	01813083          	ld	ra,24(sp)
   10848:	01013403          	ld	s0,16(sp)
   1084c:	e0070553          	fmv.x.w	a0,fa4
   10850:	02010113          	addi	sp,sp,32
   10854:	00008067          	ret
   10858:	02e61463          	bne	a2,a4,10880 <ulperr+0x9c>
   1085c:	00050593          	mv	a1,a0
   10860:	9081b503          	ld	a0,-1784(gp) # 1d108 <__SDATA_BEGIN__>
   10864:	00e12027          	fsw	fa4,0(sp)
   10868:	104020ef          	jal	ra,1296c <copysign>
   1086c:	f2040753          	fmv.d.x	fa4,s0
   10870:	9101b787          	fld	fa5,-1776(gp) # 1d110 <__SDATA_BEGIN__+0x8>
   10874:	12f777d3          	fmul.d	fa5,fa4,fa5
   10878:	00012707          	flw	fa4,0(sp)
   1087c:	e2078453          	fmv.x.d	s0,fa5
   10880:	f20507d3          	fmv.d.x	fa5,a0
   10884:	00e12627          	fsw	fa4,12(sp)
   10888:	f2040753          	fmv.d.x	fa4,s0
   1088c:	00040513          	mv	a0,s0
   10890:	0ae7f7d3          	fsub.d	fa5,fa5,fa4
   10894:	00f13027          	fsd	fa5,0(sp)
   10898:	e35ff0ef          	jal	ra,106cc <eulp>
   1089c:	00013787          	fld	fa5,0(sp)
   108a0:	40a005bb          	negw	a1,a0
   108a4:	e2078553          	fmv.x.d	a0,fa5
   108a8:	0ec020ef          	jal	ra,12994 <scalbn>
   108ac:	00c12707          	flw	fa4,12(sp)
   108b0:	f20507d3          	fmv.d.x	fa5,a0
   108b4:	42070753          	fcvt.d.s	fa4,fa4
   108b8:	02f77753          	fadd.d	fa4,fa4,fa5
   108bc:	40177753          	fcvt.s.d	fa4,fa4
   108c0:	f85ff06f          	j	10844 <ulperr+0x60>
   108c4:	f20507d3          	fmv.d.x	fa5,a0
   108c8:	f20586d3          	fmv.d.x	fa3,a1
   108cc:	a2d7a7d3          	feq.d	a5,fa5,fa3
   108d0:	fa0788e3          	beqz	a5,10880 <ulperr+0x9c>
   108d4:	f61ff06f          	j	10834 <ulperr+0x50>

00000000000108d8 <ulperrl>:
   108d8:	9481a503          	lw	a0,-1720(gp) # 1d148 <__SDATA_BEGIN__+0x40>
   108dc:	00008067          	ret

00000000000108e0 <estr>:
   108e0:	fa010113          	addi	sp,sp,-96
   108e4:	04913423          	sd	s1,72(sp)
   108e8:	0001a4b7          	lui	s1,0x1a
   108ec:	03413823          	sd	s4,48(sp)
   108f0:	03513423          	sd	s5,40(sp)
   108f4:	03613023          	sd	s6,32(sp)
   108f8:	76048493          	addi	s1,s1,1888 # 1a760 <eflags>
   108fc:	0001aab7          	lui	s5,0x1a
   10900:	0001ab37          	lui	s6,0x1a
   10904:	04813823          	sd	s0,80(sp)
   10908:	05213023          	sd	s2,64(sp)
   1090c:	03313c23          	sd	s3,56(sp)
   10910:	01813823          	sd	s8,16(sp)
   10914:	01913423          	sd	s9,8(sp)
   10918:	04113c23          	sd	ra,88(sp)
   1091c:	01713c23          	sd	s7,24(sp)
   10920:	00050993          	mv	s3,a0
   10924:	05048c13          	addi	s8,s1,80
   10928:	00000413          	li	s0,0
   1092c:	ac818913          	addi	s2,gp,-1336 # 1d2c8 <buf.0>
   10930:	0001acb7          	lui	s9,0x1a
   10934:	6d0a8a93          	addi	s5,s5,1744 # 1a6d0 <__clzdi2+0x2b4>
   10938:	688b0b13          	addi	s6,s6,1672 # 1a688 <__clzdi2+0x26c>
   1093c:	0004ab83          	lw	s7,0(s1)
   10940:	013bf7b3          	and	a5,s7,s3
   10944:	02078463          	beqz	a5,1096c <estr+0x8c>
   10948:	000a8613          	mv	a2,s5
   1094c:	00041463          	bnez	s0,10954 <estr+0x74>
   10950:	000b0613          	mv	a2,s6
   10954:	0084b683          	ld	a3,8(s1)
   10958:	00090513          	mv	a0,s2
   1095c:	6e0c8593          	addi	a1,s9,1760 # 1a6e0 <__clzdi2+0x2c4>
   10960:	074030ef          	jal	ra,139d4 <sprintf>
   10964:	00a90933          	add	s2,s2,a0
   10968:	008be433          	or	s0,s7,s0
   1096c:	01048493          	addi	s1,s1,16
   10970:	fd8496e3          	bne	s1,s8,1093c <estr+0x5c>
   10974:	03340663          	beq	s0,s3,109a0 <estr+0xc0>
   10978:	06041e63          	bnez	s0,109f4 <estr+0x114>
   1097c:	0001a637          	lui	a2,0x1a
   10980:	68860613          	addi	a2,a2,1672 # 1a688 <__clzdi2+0x26c>
   10984:	fff44693          	not	a3,s0
   10988:	0001a5b7          	lui	a1,0x1a
   1098c:	00090513          	mv	a0,s2
   10990:	0136f6b3          	and	a3,a3,s3
   10994:	6e858593          	addi	a1,a1,1768 # 1a6e8 <__clzdi2+0x2cc>
   10998:	03c030ef          	jal	ra,139d4 <sprintf>
   1099c:	00a90933          	add	s2,s2,a0
   109a0:	06099063          	bnez	s3,10a00 <estr+0x120>
   109a4:	0001a637          	lui	a2,0x1a
   109a8:	6d860613          	addi	a2,a2,1752 # 1a6d8 <__clzdi2+0x2bc>
   109ac:	0001a5b7          	lui	a1,0x1a
   109b0:	00090513          	mv	a0,s2
   109b4:	6f058593          	addi	a1,a1,1776 # 1a6f0 <__clzdi2+0x2d4>
   109b8:	01c030ef          	jal	ra,139d4 <sprintf>
   109bc:	05813083          	ld	ra,88(sp)
   109c0:	05013403          	ld	s0,80(sp)
   109c4:	04813483          	ld	s1,72(sp)
   109c8:	04013903          	ld	s2,64(sp)
   109cc:	03813983          	ld	s3,56(sp)
   109d0:	02813a83          	ld	s5,40(sp)
   109d4:	02013b03          	ld	s6,32(sp)
   109d8:	01813b83          	ld	s7,24(sp)
   109dc:	01013c03          	ld	s8,16(sp)
   109e0:	00813c83          	ld	s9,8(sp)
   109e4:	ac818513          	addi	a0,gp,-1336 # 1d2c8 <buf.0>
   109e8:	03013a03          	ld	s4,48(sp)
   109ec:	06010113          	addi	sp,sp,96
   109f0:	00008067          	ret
   109f4:	0001a637          	lui	a2,0x1a
   109f8:	6d060613          	addi	a2,a2,1744 # 1a6d0 <__clzdi2+0x2b4>
   109fc:	f89ff06f          	j	10984 <estr+0xa4>
   10a00:	0001a637          	lui	a2,0x1a
   10a04:	68860613          	addi	a2,a2,1672 # 1a688 <__clzdi2+0x26c>
   10a08:	fa5ff06f          	j	109ac <estr+0xcc>

0000000000010a0c <rstr>:
   10a0c:	00300793          	li	a5,3
   10a10:	02a7e063          	bltu	a5,a0,10a30 <rstr+0x24>
   10a14:	02051513          	slli	a0,a0,0x20
   10a18:	0001a7b7          	lui	a5,0x1a
   10a1c:	76078793          	addi	a5,a5,1888 # 1a760 <eflags>
   10a20:	01d55513          	srli	a0,a0,0x1d
   10a24:	00a78533          	add	a0,a5,a0
   10a28:	05053503          	ld	a0,80(a0)
   10a2c:	00008067          	ret
   10a30:	0001a537          	lui	a0,0x1a
   10a34:	6f850513          	addi	a0,a0,1784 # 1a6f8 <__clzdi2+0x2dc>
   10a38:	00008067          	ret

0000000000010a3c <t_pathrel>:
   10a3c:	fd010113          	addi	sp,sp,-48
   10a40:	02813023          	sd	s0,32(sp)
   10a44:	00913c23          	sd	s1,24(sp)
   10a48:	00050413          	mv	s0,a0
   10a4c:	00058493          	mv	s1,a1
   10a50:	00060513          	mv	a0,a2
   10a54:	02f00593          	li	a1,47
   10a58:	00d13423          	sd	a3,8(sp)
   10a5c:	02113423          	sd	ra,40(sp)
   10a60:	00c13023          	sd	a2,0(sp)
   10a64:	045030ef          	jal	ra,142a8 <strrchr>
   10a68:	00813683          	ld	a3,8(sp)
   10a6c:	04050263          	beqz	a0,10ab0 <t_pathrel+0x74>
   10a70:	00013703          	ld	a4,0(sp)
   10a74:	0001a637          	lui	a2,0x1a
   10a78:	00068793          	mv	a5,a3
   10a7c:	7d060613          	addi	a2,a2,2000 # 1a7d0 <CSWTCH.18+0x20>
   10a80:	40e506bb          	subw	a3,a0,a4
   10a84:	00048593          	mv	a1,s1
   10a88:	00040513          	mv	a0,s0
   10a8c:	715020ef          	jal	ra,139a0 <snprintf>
   10a90:	00956463          	bltu	a0,s1,10a98 <t_pathrel+0x5c>
   10a94:	00000413          	li	s0,0
   10a98:	02813083          	ld	ra,40(sp)
   10a9c:	00040513          	mv	a0,s0
   10aa0:	02013403          	ld	s0,32(sp)
   10aa4:	01813483          	ld	s1,24(sp)
   10aa8:	03010113          	addi	sp,sp,48
   10aac:	00008067          	ret
   10ab0:	0001a637          	lui	a2,0x1a
   10ab4:	7d860613          	addi	a2,a2,2008 # 1a7d8 <CSWTCH.18+0x28>
   10ab8:	00048593          	mv	a1,s1
   10abc:	00040513          	mv	a0,s0
   10ac0:	6e1020ef          	jal	ra,139a0 <snprintf>
   10ac4:	fcdff06f          	j	10a90 <t_pathrel+0x54>

0000000000010ac8 <t_printf>:
   10ac8:	da010113          	addi	sp,sp,-608
   10acc:	22b13423          	sd	a1,552(sp)
   10ad0:	22c13823          	sd	a2,560(sp)
   10ad4:	22d13c23          	sd	a3,568(sp)
   10ad8:	00050613          	mv	a2,a0
   10adc:	24e13023          	sd	a4,576(sp)
   10ae0:	24f13423          	sd	a5,584(sp)
   10ae4:	00100713          	li	a4,1
   10ae8:	22810693          	addi	a3,sp,552
   10aec:	20000593          	li	a1,512
   10af0:	01010513          	addi	a0,sp,16
   10af4:	20113c23          	sd	ra,536(sp)
   10af8:	25013823          	sd	a6,592(sp)
   10afc:	25113c23          	sd	a7,600(sp)
   10b00:	9ae1a023          	sw	a4,-1632(gp) # 1d1a0 <t_status>
   10b04:	00d13423          	sd	a3,8(sp)
   10b08:	7e1020ef          	jal	ra,13ae8 <vsnprintf>
   10b0c:	00000613          	li	a2,0
   10b10:	02054663          	bltz	a0,10b3c <t_printf+0x74>
   10b14:	1ff00793          	li	a5,511
   10b18:	00050613          	mv	a2,a0
   10b1c:	02a7d063          	bge	a5,a0,10b3c <t_printf+0x74>
   10b20:	00a00793          	li	a5,10
   10b24:	20f107a3          	sb	a5,527(sp)
   10b28:	02e00793          	li	a5,46
   10b2c:	20f10723          	sb	a5,526(sp)
   10b30:	20f106a3          	sb	a5,525(sp)
   10b34:	20f10623          	sb	a5,524(sp)
   10b38:	20000613          	li	a2,512
   10b3c:	01010593          	addi	a1,sp,16
   10b40:	00100513          	li	a0,1
   10b44:	58d030ef          	jal	ra,148d0 <write>
   10b48:	21813083          	ld	ra,536(sp)
   10b4c:	0005051b          	sext.w	a0,a0
   10b50:	26010113          	addi	sp,sp,608
   10b54:	00008067          	ret

0000000000010b58 <rand64>:
   10b58:	9801b503          	ld	a0,-1664(gp) # 1d180 <seed>
   10b5c:	9181b783          	ld	a5,-1768(gp) # 1d118 <__SDATA_BEGIN__+0x10>
   10b60:	02f50533          	mul	a0,a0,a5
   10b64:	00150513          	addi	a0,a0,1
   10b68:	02f507b3          	mul	a5,a0,a5
   10b6c:	02055513          	srli	a0,a0,0x20
   10b70:	02051513          	slli	a0,a0,0x20
   10b74:	00178793          	addi	a5,a5,1
   10b78:	98f1b023          	sd	a5,-1664(gp) # 1d180 <seed>
   10b7c:	0207d793          	srli	a5,a5,0x20
   10b80:	00f56533          	or	a0,a0,a5
   10b84:	00008067          	ret

0000000000010b88 <t_randseed>:
   10b88:	98a1b023          	sd	a0,-1664(gp) # 1d180 <seed>
   10b8c:	00008067          	ret

0000000000010b90 <t_randn>:
   10b90:	fe010113          	addi	sp,sp,-32
   10b94:	00813823          	sd	s0,16(sp)
   10b98:	fff00413          	li	s0,-1
   10b9c:	02a47433          	remu	s0,s0,a0
   10ba0:	00913423          	sd	s1,8(sp)
   10ba4:	00113c23          	sd	ra,24(sp)
   10ba8:	00050493          	mv	s1,a0
   10bac:	fff44413          	not	s0,s0
   10bb0:	fa9ff0ef          	jal	ra,10b58 <rand64>
   10bb4:	fe857ee3          	bgeu	a0,s0,10bb0 <t_randn+0x20>
   10bb8:	01813083          	ld	ra,24(sp)
   10bbc:	01013403          	ld	s0,16(sp)
   10bc0:	02957533          	remu	a0,a0,s1
   10bc4:	00813483          	ld	s1,8(sp)
   10bc8:	02010113          	addi	sp,sp,32
   10bcc:	00008067          	ret

0000000000010bd0 <shuffle2>:
   10bd0:	fd010113          	addi	sp,sp,-48
   10bd4:	00913c23          	sd	s1,24(sp)
   10bd8:	00361493          	slli	s1,a2,0x3
   10bdc:	02813023          	sd	s0,32(sp)
   10be0:	01213823          	sd	s2,16(sp)
   10be4:	01313423          	sd	s3,8(sp)
   10be8:	01413023          	sd	s4,0(sp)
   10bec:	02113423          	sd	ra,40(sp)
   10bf0:	00050993          	mv	s3,a0
   10bf4:	00058a13          	mv	s4,a1
   10bf8:	00060413          	mv	s0,a2
   10bfc:	00068913          	mv	s2,a3
   10c00:	009504b3          	add	s1,a0,s1
   10c04:	02041263          	bnez	s0,10c28 <shuffle2+0x58>
   10c08:	02813083          	ld	ra,40(sp)
   10c0c:	02013403          	ld	s0,32(sp)
   10c10:	01813483          	ld	s1,24(sp)
   10c14:	01013903          	ld	s2,16(sp)
   10c18:	00813983          	ld	s3,8(sp)
   10c1c:	00013a03          	ld	s4,0(sp)
   10c20:	03010113          	addi	sp,sp,48
   10c24:	00008067          	ret
   10c28:	01240533          	add	a0,s0,s2
   10c2c:	f65ff0ef          	jal	ra,10b90 <t_randn>
   10c30:	ff84b703          	ld	a4,-8(s1)
   10c34:	03257263          	bgeu	a0,s2,10c58 <shuffle2+0x88>
   10c38:	00351793          	slli	a5,a0,0x3
   10c3c:	00fa07b3          	add	a5,s4,a5
   10c40:	0007b683          	ld	a3,0(a5)
   10c44:	fff40413          	addi	s0,s0,-1
   10c48:	ff848493          	addi	s1,s1,-8
   10c4c:	00d4b023          	sd	a3,0(s1)
   10c50:	00e7b023          	sd	a4,0(a5)
   10c54:	fb1ff06f          	j	10c04 <shuffle2+0x34>
   10c58:	412507b3          	sub	a5,a0,s2
   10c5c:	00379793          	slli	a5,a5,0x3
   10c60:	00f987b3          	add	a5,s3,a5
   10c64:	fddff06f          	j	10c40 <shuffle2+0x70>

0000000000010c68 <t_randint>:
   10c68:	ff010113          	addi	sp,sp,-16
   10c6c:	40a585b3          	sub	a1,a1,a0
   10c70:	00813023          	sd	s0,0(sp)
   10c74:	00113423          	sd	ra,8(sp)
   10c78:	00050413          	mv	s0,a0
   10c7c:	00158513          	addi	a0,a1,1
   10c80:	00051a63          	bnez	a0,10c94 <t_randint+0x2c>
   10c84:	00013403          	ld	s0,0(sp)
   10c88:	00813083          	ld	ra,8(sp)
   10c8c:	01010113          	addi	sp,sp,16
   10c90:	ec9ff06f          	j	10b58 <rand64>
   10c94:	efdff0ef          	jal	ra,10b90 <t_randn>
   10c98:	00813083          	ld	ra,8(sp)
   10c9c:	00850533          	add	a0,a0,s0
   10ca0:	00013403          	ld	s0,0(sp)
   10ca4:	01010113          	addi	sp,sp,16
   10ca8:	00008067          	ret

0000000000010cac <t_shuffle>:
   10cac:	00058613          	mv	a2,a1
   10cb0:	00000693          	li	a3,0
   10cb4:	00000593          	li	a1,0
   10cb8:	f19ff06f          	j	10bd0 <shuffle2>

0000000000010cbc <t_randrange>:
   10cbc:	00058793          	mv	a5,a1
   10cc0:	00000593          	li	a1,0
   10cc4:	00f59463          	bne	a1,a5,10ccc <t_randrange+0x10>
   10cc8:	fe5ff06f          	j	10cac <t_shuffle>
   10ccc:	00359713          	slli	a4,a1,0x3
   10cd0:	00e50733          	add	a4,a0,a4
   10cd4:	00b73023          	sd	a1,0(a4)
   10cd8:	00158593          	addi	a1,a1,1
   10cdc:	fe9ff06f          	j	10cc4 <t_randrange+0x8>

0000000000010ce0 <t_choose>:
   10ce0:	02b57c63          	bgeu	a0,a1,10d18 <t_choose+0x38>
   10ce4:	fff00513          	li	a0,-1
   10ce8:	00008067          	ret
   10cec:	fff00513          	li	a0,-1
   10cf0:	04813083          	ld	ra,72(sp)
   10cf4:	04013403          	ld	s0,64(sp)
   10cf8:	03813483          	ld	s1,56(sp)
   10cfc:	03013903          	ld	s2,48(sp)
   10d00:	02813983          	ld	s3,40(sp)
   10d04:	02013a03          	ld	s4,32(sp)
   10d08:	01813a83          	ld	s5,24(sp)
   10d0c:	01013b03          	ld	s6,16(sp)
   10d10:	05010113          	addi	sp,sp,80
   10d14:	00008067          	ret
   10d18:	fb010113          	addi	sp,sp,-80
   10d1c:	04813023          	sd	s0,64(sp)
   10d20:	02913c23          	sd	s1,56(sp)
   10d24:	03213823          	sd	s2,48(sp)
   10d28:	04113423          	sd	ra,72(sp)
   10d2c:	03313423          	sd	s3,40(sp)
   10d30:	03413023          	sd	s4,32(sp)
   10d34:	01513c23          	sd	s5,24(sp)
   10d38:	01613823          	sd	s6,16(sp)
   10d3c:	00f00793          	li	a5,15
   10d40:	00050493          	mv	s1,a0
   10d44:	00058413          	mv	s0,a1
   10d48:	00060913          	mv	s2,a2
   10d4c:	02a7ec63          	bltu	a5,a0,10d84 <t_choose+0xa4>
   10d50:	00041663          	bnez	s0,10d5c <t_choose+0x7c>
   10d54:	00000513          	li	a0,0
   10d58:	f99ff06f          	j	10cf0 <t_choose+0x10>
   10d5c:	00048513          	mv	a0,s1
   10d60:	fff48993          	addi	s3,s1,-1
   10d64:	e2dff0ef          	jal	ra,10b90 <t_randn>
   10d68:	00857a63          	bgeu	a0,s0,10d7c <t_choose+0x9c>
   10d6c:	fff40413          	addi	s0,s0,-1
   10d70:	00341793          	slli	a5,s0,0x3
   10d74:	00f907b3          	add	a5,s2,a5
   10d78:	0137b023          	sd	s3,0(a5)
   10d7c:	00098493          	mv	s1,s3
   10d80:	fd1ff06f          	j	10d50 <t_choose+0x70>
   10d84:	00700793          	li	a5,7
   10d88:	04b7e663          	bltu	a5,a1,10dd4 <t_choose+0xf4>
   10d8c:	00000993          	li	s3,0
   10d90:	0340006f          	j	10dc4 <t_choose+0xe4>
   10d94:	00399a13          	slli	s4,s3,0x3
   10d98:	00048513          	mv	a0,s1
   10d9c:	df5ff0ef          	jal	ra,10b90 <t_randn>
   10da0:	01490a33          	add	s4,s2,s4
   10da4:	00aa3023          	sd	a0,0(s4)
   10da8:	00000793          	li	a5,0
   10dac:	00379713          	slli	a4,a5,0x3
   10db0:	00e90733          	add	a4,s2,a4
   10db4:	00073703          	ld	a4,0(a4)
   10db8:	00e51a63          	bne	a0,a4,10dcc <t_choose+0xec>
   10dbc:	00f99463          	bne	s3,a5,10dc4 <t_choose+0xe4>
   10dc0:	00198993          	addi	s3,s3,1
   10dc4:	fc89e8e3          	bltu	s3,s0,10d94 <t_choose+0xb4>
   10dc8:	f8dff06f          	j	10d54 <t_choose+0x74>
   10dcc:	00178793          	addi	a5,a5,1
   10dd0:	fddff06f          	j	10dac <t_choose+0xcc>
   10dd4:	00500793          	li	a5,5
   10dd8:	02f587b3          	mul	a5,a1,a5
   10ddc:	04f56e63          	bltu	a0,a5,10e38 <t_choose+0x158>
   10de0:	00159793          	slli	a5,a1,0x1
   10de4:	01000a13          	li	s4,16
   10de8:	0cfa6c63          	bltu	s4,a5,10ec0 <t_choose+0x1e0>
   10dec:	00800593          	li	a1,8
   10df0:	000a0513          	mv	a0,s4
   10df4:	051010ef          	jal	ra,12644 <calloc>
   10df8:	00050993          	mv	s3,a0
   10dfc:	ee0508e3          	beqz	a0,10cec <t_choose+0xc>
   10e00:	00000a93          	li	s5,0
   10e04:	fffa0b13          	addi	s6,s4,-1
   10e08:	0c8a9063          	bne	s5,s0,10ec8 <t_choose+0x1e8>
   10e0c:	00000793          	li	a5,0
   10e10:	07478863          	beq	a5,s4,10e80 <t_choose+0x1a0>
   10e14:	00379713          	slli	a4,a5,0x3
   10e18:	00e98733          	add	a4,s3,a4
   10e1c:	00073703          	ld	a4,0(a4)
   10e20:	00070863          	beqz	a4,10e30 <t_choose+0x150>
   10e24:	fff70713          	addi	a4,a4,-1
   10e28:	00e93023          	sd	a4,0(s2)
   10e2c:	00890913          	addi	s2,s2,8
   10e30:	00178793          	addi	a5,a5,1
   10e34:	fddff06f          	j	10e10 <t_choose+0x130>
   10e38:	40b50633          	sub	a2,a0,a1
   10e3c:	00361513          	slli	a0,a2,0x3
   10e40:	00c13423          	sd	a2,8(sp)
   10e44:	4f4010ef          	jal	ra,12338 <malloc>
   10e48:	00050993          	mv	s3,a0
   10e4c:	ea0500e3          	beqz	a0,10cec <t_choose+0xc>
   10e50:	00813603          	ld	a2,8(sp)
   10e54:	00000793          	li	a5,0
   10e58:	02879a63          	bne	a5,s0,10e8c <t_choose+0x1ac>
   10e5c:	00098713          	mv	a4,s3
   10e60:	00040793          	mv	a5,s0
   10e64:	02979e63          	bne	a5,s1,10ea0 <t_choose+0x1c0>
   10e68:	04c47463          	bgeu	s0,a2,10eb0 <t_choose+0x1d0>
   10e6c:	00060693          	mv	a3,a2
   10e70:	00098593          	mv	a1,s3
   10e74:	00040613          	mv	a2,s0
   10e78:	00090513          	mv	a0,s2
   10e7c:	d55ff0ef          	jal	ra,10bd0 <shuffle2>
   10e80:	00098513          	mv	a0,s3
   10e84:	09d010ef          	jal	ra,12720 <free>
   10e88:	ecdff06f          	j	10d54 <t_choose+0x74>
   10e8c:	00379713          	slli	a4,a5,0x3
   10e90:	00e90733          	add	a4,s2,a4
   10e94:	00f73023          	sd	a5,0(a4)
   10e98:	00178793          	addi	a5,a5,1
   10e9c:	fbdff06f          	j	10e58 <t_choose+0x178>
   10ea0:	00f73023          	sd	a5,0(a4)
   10ea4:	00178793          	addi	a5,a5,1
   10ea8:	00870713          	addi	a4,a4,8
   10eac:	fb9ff06f          	j	10e64 <t_choose+0x184>
   10eb0:	00040693          	mv	a3,s0
   10eb4:	00090593          	mv	a1,s2
   10eb8:	00098513          	mv	a0,s3
   10ebc:	fc1ff06f          	j	10e7c <t_choose+0x19c>
   10ec0:	001a1a13          	slli	s4,s4,0x1
   10ec4:	f25ff06f          	j	10de8 <t_choose+0x108>
   10ec8:	00048513          	mv	a0,s1
   10ecc:	cc5ff0ef          	jal	ra,10b90 <t_randn>
   10ed0:	00150513          	addi	a0,a0,1
   10ed4:	016577b3          	and	a5,a0,s6
   10ed8:	00100693          	li	a3,1
   10edc:	00379713          	slli	a4,a5,0x3
   10ee0:	00e98733          	add	a4,s3,a4
   10ee4:	00073603          	ld	a2,0(a4)
   10ee8:	00061863          	bnez	a2,10ef8 <t_choose+0x218>
   10eec:	00a73023          	sd	a0,0(a4)
   10ef0:	001a8a93          	addi	s5,s5,1
   10ef4:	f15ff06f          	j	10e08 <t_choose+0x128>
   10ef8:	fcc508e3          	beq	a0,a2,10ec8 <t_choose+0x1e8>
   10efc:	00f687b3          	add	a5,a3,a5
   10f00:	00fb77b3          	and	a5,s6,a5
   10f04:	00168693          	addi	a3,a3,1 # 7f800001 <__BSS_END__+0x7f7e2351>
   10f08:	fd5ff06f          	j	10edc <t_choose+0x1fc>

0000000000010f0c <t_setrlim>:
   10f0c:	fd010113          	addi	sp,sp,-48
   10f10:	02813023          	sd	s0,32(sp)
   10f14:	00058413          	mv	s0,a1
   10f18:	00010593          	mv	a1,sp
   10f1c:	01213823          	sd	s2,16(sp)
   10f20:	02113423          	sd	ra,40(sp)
   10f24:	00913c23          	sd	s1,24(sp)
   10f28:	00050913          	mv	s2,a0
   10f2c:	661010ef          	jal	ra,12d8c <getrlimit>
   10f30:	04050263          	beqz	a0,10f74 <t_setrlim+0x68>
   10f34:	6f4000ef          	jal	ra,11628 <__errno_location>
   10f38:	00052503          	lw	a0,0(a0)
   10f3c:	744000ef          	jal	ra,11680 <strerror>
   10f40:	00050613          	mv	a2,a0
   10f44:	0001a537          	lui	a0,0x1a
   10f48:	00090593          	mv	a1,s2
   10f4c:	7e050513          	addi	a0,a0,2016 # 1a7e0 <CSWTCH.18+0x30>
   10f50:	b79ff0ef          	jal	ra,10ac8 <t_printf>
   10f54:	fff00493          	li	s1,-1
   10f58:	02813083          	ld	ra,40(sp)
   10f5c:	02013403          	ld	s0,32(sp)
   10f60:	01013903          	ld	s2,16(sp)
   10f64:	00048513          	mv	a0,s1
   10f68:	01813483          	ld	s1,24(sp)
   10f6c:	03010113          	addi	sp,sp,48
   10f70:	00008067          	ret
   10f74:	00813783          	ld	a5,8(sp)
   10f78:	fc87eee3          	bltu	a5,s0,10f54 <t_setrlim+0x48>
   10f7c:	00050493          	mv	s1,a0
   10f80:	00879663          	bne	a5,s0,10f8c <t_setrlim+0x80>
   10f84:	00013783          	ld	a5,0(sp)
   10f88:	fcf408e3          	beq	s0,a5,10f58 <t_setrlim+0x4c>
   10f8c:	00010593          	mv	a1,sp
   10f90:	00090513          	mv	a0,s2
   10f94:	00813423          	sd	s0,8(sp)
   10f98:	00813023          	sd	s0,0(sp)
   10f9c:	709010ef          	jal	ra,12ea4 <setrlimit>
   10fa0:	fa050ce3          	beqz	a0,10f58 <t_setrlim+0x4c>
   10fa4:	684000ef          	jal	ra,11628 <__errno_location>
   10fa8:	00052503          	lw	a0,0(a0)
   10fac:	6d4000ef          	jal	ra,11680 <strerror>
   10fb0:	00050693          	mv	a3,a0
   10fb4:	0001b537          	lui	a0,0x1b
   10fb8:	00040613          	mv	a2,s0
   10fbc:	00090593          	mv	a1,s2
   10fc0:	81050513          	addi	a0,a0,-2032 # 1a810 <CSWTCH.18+0x60>
   10fc4:	b05ff0ef          	jal	ra,10ac8 <t_printf>
   10fc8:	f8dff06f          	j	10f54 <t_setrlim+0x48>

0000000000010fcc <t_setutf8>:
   10fcc:	0001b5b7          	lui	a1,0x1b
   10fd0:	ff010113          	addi	sp,sp,-16
   10fd4:	84858593          	addi	a1,a1,-1976 # 1a848 <CSWTCH.18+0x98>
   10fd8:	00000513          	li	a0,0
   10fdc:	00813023          	sd	s0,0(sp)
   10fe0:	00113423          	sd	ra,8(sp)
   10fe4:	13d000ef          	jal	ra,11920 <setlocale>
   10fe8:	0001b437          	lui	s0,0x1b
   10fec:	04051e63          	bnez	a0,11048 <t_setutf8+0x7c>
   10ff0:	0001b5b7          	lui	a1,0x1b
   10ff4:	85058593          	addi	a1,a1,-1968 # 1a850 <CSWTCH.18+0xa0>
   10ff8:	129000ef          	jal	ra,11920 <setlocale>
   10ffc:	04051663          	bnez	a0,11048 <t_setutf8+0x7c>
   11000:	0001b5b7          	lui	a1,0x1b
   11004:	86058593          	addi	a1,a1,-1952 # 1a860 <CSWTCH.18+0xb0>
   11008:	119000ef          	jal	ra,11920 <setlocale>
   1100c:	02051e63          	bnez	a0,11048 <t_setutf8+0x7c>
   11010:	0001b5b7          	lui	a1,0x1b
   11014:	87058593          	addi	a1,a1,-1936 # 1a870 <CSWTCH.18+0xc0>
   11018:	109000ef          	jal	ra,11920 <setlocale>
   1101c:	02051663          	bnez	a0,11048 <t_setutf8+0x7c>
   11020:	0001b5b7          	lui	a1,0x1b
   11024:	88058593          	addi	a1,a1,-1920 # 1a880 <CSWTCH.18+0xd0>
   11028:	0f9000ef          	jal	ra,11920 <setlocale>
   1102c:	00051e63          	bnez	a0,11048 <t_setutf8+0x7c>
   11030:	89040593          	addi	a1,s0,-1904 # 1a890 <CSWTCH.18+0xe0>
   11034:	0ed000ef          	jal	ra,11920 <setlocale>
   11038:	00051863          	bnez	a0,11048 <t_setutf8+0x7c>
   1103c:	0001a5b7          	lui	a1,0x1a
   11040:	68858593          	addi	a1,a1,1672 # 1a688 <__clzdi2+0x26c>
   11044:	0dd000ef          	jal	ra,11920 <setlocale>
   11048:	00e00513          	li	a0,14
   1104c:	0c9000ef          	jal	ra,11914 <__nl_langinfo>
   11050:	89040593          	addi	a1,s0,-1904
   11054:	1d4030ef          	jal	ra,14228 <strcmp>
   11058:	02050463          	beqz	a0,11080 <t_setutf8+0xb4>
   1105c:	00e00513          	li	a0,14
   11060:	0b5000ef          	jal	ra,11914 <__nl_langinfo>
   11064:	00013403          	ld	s0,0(sp)
   11068:	00813083          	ld	ra,8(sp)
   1106c:	00050593          	mv	a1,a0
   11070:	0001b537          	lui	a0,0x1b
   11074:	89850513          	addi	a0,a0,-1896 # 1a898 <CSWTCH.18+0xe8>
   11078:	01010113          	addi	sp,sp,16
   1107c:	a4dff06f          	j	10ac8 <t_printf>
   11080:	00813083          	ld	ra,8(sp)
   11084:	00013403          	ld	s0,0(sp)
   11088:	01010113          	addi	sp,sp,16
   1108c:	00008067          	ret

0000000000011090 <t_vmfill>:
   11090:	fb010113          	addi	sp,sp,-80
   11094:	02913c23          	sd	s1,56(sp)
   11098:	fff00493          	li	s1,-1
   1109c:	03213823          	sd	s2,48(sp)
   110a0:	03313423          	sd	s3,40(sp)
   110a4:	03413023          	sd	s4,32(sp)
   110a8:	01513c23          	sd	s5,24(sp)
   110ac:	04113423          	sd	ra,72(sp)
   110b0:	04813023          	sd	s0,64(sp)
   110b4:	01613823          	sd	s6,16(sp)
   110b8:	01713423          	sd	s7,8(sp)
   110bc:	01813023          	sd	s8,0(sp)
   110c0:	00050993          	mv	s3,a0
   110c4:	00058a13          	mv	s4,a1
   110c8:	00060a93          	mv	s5,a2
   110cc:	00000913          	li	s2,0
   110d0:	03f49493          	slli	s1,s1,0x3f
   110d4:	00090b1b          	sext.w	s6,s2
   110d8:	00048413          	mv	s0,s1
   110dc:	00048b93          	mv	s7,s1
   110e0:	01e00513          	li	a0,30
   110e4:	0e4000ef          	jal	ra,111c8 <sysconf>
   110e8:	04abfe63          	bgeu	s7,a0,11144 <t_vmfill+0xb4>
   110ec:	01e00513          	li	a0,30
   110f0:	0d8000ef          	jal	ra,111c8 <sysconf>
   110f4:	40a007b3          	neg	a5,a0
   110f8:	0087f433          	and	s0,a5,s0
   110fc:	08040c63          	beqz	s0,11194 <t_vmfill+0x104>
   11100:	00000793          	li	a5,0
   11104:	fff00713          	li	a4,-1
   11108:	02200693          	li	a3,34
   1110c:	00000613          	li	a2,0
   11110:	00040593          	mv	a1,s0
   11114:	00000513          	li	a0,0
   11118:	60d010ef          	jal	ra,12f24 <__mmap>
   1111c:	fff00793          	li	a5,-1
   11120:	06f50863          	beq	a0,a5,11190 <t_vmfill+0x100>
   11124:	015b5c63          	bge	s6,s5,1113c <t_vmfill+0xac>
   11128:	00391793          	slli	a5,s2,0x3
   1112c:	00f98733          	add	a4,s3,a5
   11130:	00a73023          	sd	a0,0(a4)
   11134:	00fa07b3          	add	a5,s4,a5
   11138:	0087b023          	sd	s0,0(a5)
   1113c:	00190913          	addi	s2,s2,1
   11140:	f95ff06f          	j	110d4 <t_vmfill+0x44>
   11144:	00000793          	li	a5,0
   11148:	fff00713          	li	a4,-1
   1114c:	02200693          	li	a3,34
   11150:	00000613          	li	a2,0
   11154:	00040593          	mv	a1,s0
   11158:	00000513          	li	a0,0
   1115c:	5c9010ef          	jal	ra,12f24 <__mmap>
   11160:	fff00793          	li	a5,-1
   11164:	001bdc13          	srli	s8,s7,0x1
   11168:	00f51863          	bne	a0,a5,11178 <t_vmfill+0xe8>
   1116c:	41840433          	sub	s0,s0,s8
   11170:	000c0b93          	mv	s7,s8
   11174:	f6dff06f          	j	110e0 <t_vmfill+0x50>
   11178:	00040593          	mv	a1,s0
   1117c:	705010ef          	jal	ra,13080 <__munmap>
   11180:	01741463          	bne	s0,s7,11188 <t_vmfill+0xf8>
   11184:	00040493          	mv	s1,s0
   11188:	01840433          	add	s0,s0,s8
   1118c:	fe5ff06f          	j	11170 <t_vmfill+0xe0>
   11190:	fff00b13          	li	s6,-1
   11194:	04813083          	ld	ra,72(sp)
   11198:	04013403          	ld	s0,64(sp)
   1119c:	03813483          	ld	s1,56(sp)
   111a0:	03013903          	ld	s2,48(sp)
   111a4:	02813983          	ld	s3,40(sp)
   111a8:	02013a03          	ld	s4,32(sp)
   111ac:	01813a83          	ld	s5,24(sp)
   111b0:	00813b83          	ld	s7,8(sp)
   111b4:	00013c03          	ld	s8,0(sp)
   111b8:	000b0513          	mv	a0,s6
   111bc:	01013b03          	ld	s6,16(sp)
   111c0:	05010113          	addi	sp,sp,80
   111c4:	00008067          	ret

00000000000111c8 <sysconf>:
   111c8:	e7010113          	addi	sp,sp,-400
   111cc:	18113423          	sd	ra,392(sp)
   111d0:	18813023          	sd	s0,384(sp)
   111d4:	16913c23          	sd	s1,376(sp)
   111d8:	0f800793          	li	a5,248
   111dc:	02a7e063          	bltu	a5,a0,111fc <sysconf+0x34>
   111e0:	0001b737          	lui	a4,0x1b
   111e4:	00151793          	slli	a5,a0,0x1
   111e8:	91070713          	addi	a4,a4,-1776 # 1a910 <values.0>
   111ec:	00f707b3          	add	a5,a4,a5
   111f0:	00050413          	mv	s0,a0
   111f4:	00079503          	lh	a0,0(a5)
   111f8:	02051463          	bnez	a0,11220 <sysconf+0x58>
   111fc:	42c000ef          	jal	ra,11628 <__errno_location>
   11200:	01600793          	li	a5,22
   11204:	00f52023          	sw	a5,0(a0)
   11208:	fff00513          	li	a0,-1
   1120c:	18813083          	ld	ra,392(sp)
   11210:	18013403          	ld	s0,384(sp)
   11214:	17813483          	ld	s1,376(sp)
   11218:	19010113          	addi	sp,sp,400
   1121c:	00008067          	ret
   11220:	fff00493          	li	s1,-1
   11224:	0005071b          	sext.w	a4,a0
   11228:	fe9552e3          	bge	a0,s1,1120c <sysconf+0x44>
   1122c:	f0000793          	li	a5,-256
   11230:	02f75863          	bge	a4,a5,11260 <sysconf+0x98>
   11234:	03251513          	slli	a0,a0,0x32
   11238:	00010593          	mv	a1,sp
   1123c:	03255513          	srli	a0,a0,0x32
   11240:	34d010ef          	jal	ra,12d8c <getrlimit>
   11244:	00013783          	ld	a5,0(sp)
   11248:	fff00513          	li	a0,-1
   1124c:	fc9780e3          	beq	a5,s1,1120c <sysconf+0x44>
   11250:	00078513          	mv	a0,a5
   11254:	fa07dce3          	bgez	a5,1120c <sysconf+0x44>
   11258:	0014d513          	srli	a0,s1,0x1
   1125c:	fb1ff06f          	j	1120c <sysconf+0x44>
   11260:	fff5079b          	addiw	a5,a0,-1
   11264:	0ff7f793          	andi	a5,a5,255
   11268:	00a00713          	li	a4,10
   1126c:	faf760e3          	bltu	a4,a5,1120c <sysconf+0x44>
   11270:	0001b737          	lui	a4,0x1b
   11274:	00279793          	slli	a5,a5,0x2
   11278:	8e070713          	addi	a4,a4,-1824 # 1a8e0 <CSWTCH.18+0x130>
   1127c:	00e787b3          	add	a5,a5,a4
   11280:	0007a783          	lw	a5,0(a5)
   11284:	00078067          	jr	a5
   11288:	00020537          	lui	a0,0x20
   1128c:	f81ff06f          	j	1120c <sysconf+0x44>
   11290:	00008537          	lui	a0,0x8
   11294:	f79ff06f          	j	1120c <sysconf+0x44>
   11298:	c001b503          	ld	a0,-1024(gp) # 1d400 <__libc+0x38>
   1129c:	f71ff06f          	j	1120c <sysconf+0x44>
   112a0:	80000537          	lui	a0,0x80000
   112a4:	fff54513          	not	a0,a0
   112a8:	f65ff06f          	j	1120c <sysconf+0x44>
   112ac:	00100793          	li	a5,1
   112b0:	07800613          	li	a2,120
   112b4:	00000593          	li	a1,0
   112b8:	00810513          	addi	a0,sp,8
   112bc:	00f13023          	sd	a5,0(sp)
   112c0:	5cd020ef          	jal	ra,1408c <memset>
   112c4:	07b00893          	li	a7,123
   112c8:	00000513          	li	a0,0
   112cc:	08000593          	li	a1,128
   112d0:	00010613          	mv	a2,sp
   112d4:	00000073          	ecall
   112d8:	00000713          	li	a4,0
   112dc:	00000513          	li	a0,0
   112e0:	08000613          	li	a2,128
   112e4:	17010793          	addi	a5,sp,368
   112e8:	00e786b3          	add	a3,a5,a4
   112ec:	e906c783          	lbu	a5,-368(a3)
   112f0:	00079863          	bnez	a5,11300 <sysconf+0x138>
   112f4:	0017071b          	addiw	a4,a4,1
   112f8:	fec716e3          	bne	a4,a2,112e4 <sysconf+0x11c>
   112fc:	f11ff06f          	j	1120c <sysconf+0x44>
   11300:	fff7859b          	addiw	a1,a5,-1
   11304:	00b7f7b3          	and	a5,a5,a1
   11308:	e8f68823          	sb	a5,-368(a3)
   1130c:	0015051b          	addiw	a0,a0,1
   11310:	fd5ff06f          	j	112e4 <sysconf+0x11c>
   11314:	00010513          	mv	a0,sp
   11318:	4b4000ef          	jal	ra,117cc <__lsysinfo>
   1131c:	06812783          	lw	a5,104(sp)
   11320:	00079663          	bnez	a5,1132c <sysconf+0x164>
   11324:	00100793          	li	a5,1
   11328:	06f12423          	sw	a5,104(sp)
   1132c:	05500793          	li	a5,85
   11330:	02f41463          	bne	s0,a5,11358 <sysconf+0x190>
   11334:	02013783          	ld	a5,32(sp)
   11338:	06816503          	lwu	a0,104(sp)
   1133c:	02f50533          	mul	a0,a0,a5
   11340:	c001b783          	ld	a5,-1024(gp) # 1d400 <__libc+0x38>
   11344:	02f55533          	divu	a0,a0,a5
   11348:	ec0552e3          	bgez	a0,1120c <sysconf+0x44>
   1134c:	fff00513          	li	a0,-1
   11350:	00155513          	srli	a0,a0,0x1
   11354:	eb9ff06f          	j	1120c <sysconf+0x44>
   11358:	02813503          	ld	a0,40(sp)
   1135c:	03813783          	ld	a5,56(sp)
   11360:	00f507b3          	add	a5,a0,a5
   11364:	fd5ff06f          	j	11338 <sysconf+0x170>
   11368:	00000513          	li	a0,0
   1136c:	ea1ff06f          	j	1120c <sysconf+0x44>
   11370:	00031537          	lui	a0,0x31
   11374:	06950513          	addi	a0,a0,105 # 31069 <__BSS_END__+0x133b9>
   11378:	e95ff06f          	j	1120c <sysconf+0x44>

000000000001137c <_init>:
   1137c:	00008067          	ret

0000000000011380 <__init_ssp>:
   11380:	00008067          	ret

0000000000011384 <__init_libc>:
   11384:	e8010113          	addi	sp,sp,-384
   11388:	17213023          	sd	s2,352(sp)
   1138c:	03010913          	addi	s2,sp,48
   11390:	16813823          	sd	s0,368(sp)
   11394:	16913423          	sd	s1,360(sp)
   11398:	00058413          	mv	s0,a1
   1139c:	00050493          	mv	s1,a0 // s1 <- argc
   113a0:	13000613          	li	a2,304
   113a4:	00000593          	li	a1,0
   113a8:	00090513          	mv	a0,s2
   113ac:	16113c23          	sd	ra,376(sp)
   113b0:	4dd020ef          	jal	ra,1408c <memset>
   113b4:	a291b823          	sd	s1,-1488(gp) # 1d230 <__environ>
   113b8:	00000513          	li	a0,0
   113bc:	00351793          	slli	a5,a0,0x3
   113c0:	00f487b3          	add	a5,s1,a5
   113c4:	0007b783          	ld	a5,0(a5)
   113c8:	00150513          	addi	a0,a0,1
   113cc:	fe0798e3          	bnez	a5,113bc <__init_libc+0x38>
   113d0:	00351513          	slli	a0,a0,0x3
   113d4:	00a48533          	add	a0,s1,a0 //a0 <- argc + 8
   113d8:	bc818793          	addi	a5,gp,-1080 # 1d3c8 <__libc>
   113dc:	00a7b823          	sd	a0,16(a5)
   113e0:	bc818493          	addi	s1,gp,-1080 # 1d3c8 <__libc>
   113e4:	02500713          	li	a4,37
   113e8:	00053783          	ld	a5,0(a0) // 0+a0 == argc + 8;
   113ec:	0e079e63          	bnez	a5,114e8 <__init_libc+0x164>
   113f0:	0b013703          	ld	a4,176(sp)
   113f4:	9ae1b823          	sd	a4,-1616(gp) # 1d1b0 <__hwcap>
   113f8:	13013783          	ld	a5,304(sp)
   113fc:	00078463          	beqz	a5,11404 <__init_libc+0x80>
   11400:	9af1b423          	sd	a5,-1624(gp) # 1d1a8 <__sysinfo>
   11404:	06013783          	ld	a5,96(sp)
   11408:	02f4bc23          	sd	a5,56(s1)
   1140c:	00041a63          	bnez	s0,11420 <__init_libc+0x9c>
   11410:	12813403          	ld	s0,296(sp)
   11414:	00041663          	bnez	s0,11420 <__init_libc+0x9c>
   11418:	0001a437          	lui	s0,0x1a
   1141c:	68840413          	addi	s0,s0,1672 # 1a688 <__clzdi2+0x26c>
   11420:	9c81b023          	sd	s0,-1600(gp) # 1d1c0 <__progname_full>
   11424:	9a81bc23          	sd	s0,-1608(gp) # 1d1b8 <__progname>
   11428:	02f00693          	li	a3,47
   1142c:	00140413          	addi	s0,s0,1
   11430:	fff44703          	lbu	a4,-1(s0)
   11434:	0c071a63          	bnez	a4,11508 <__init_libc+0x184>
   11438:	00090513          	mv	a0,s2
   1143c:	628030ef          	jal	ra,14a64 <__init_tls>
   11440:	0f813503          	ld	a0,248(sp)
   11444:	f3dff0ef          	jal	ra,11380 <__init_ssp>
   11448:	08813703          	ld	a4,136(sp)
   1144c:	09013783          	ld	a5,144(sp)
   11450:	00f71c63          	bne	a4,a5,11468 <__init_libc+0xe4>
   11454:	09813703          	ld	a4,152(sp)
   11458:	0a013783          	ld	a5,160(sp)
   1145c:	00f71663          	bne	a4,a5,11468 <__init_libc+0xe4>
   11460:	0e813783          	ld	a5,232(sp)
   11464:	0c078263          	beqz	a5,11528 <__init_libc+0x1a4>
   11468:	02013023          	sd	zero,32(sp)
   1146c:	00100793          	li	a5,1
   11470:	02013423          	sd	zero,40(sp)
   11474:	02f12023          	sw	a5,32(sp)
   11478:	00200793          	li	a5,2
   1147c:	00013c23          	sd	zero,24(sp)
   11480:	02f12423          	sw	a5,40(sp)
   11484:	00013423          	sd	zero,8(sp)
   11488:	00013823          	sd	zero,16(sp)
   1148c:	04900893          	li	a7,73
   11490:	01810513          	addi	a0,sp,24
   11494:	00300593          	li	a1,3
   11498:	00810613          	addi	a2,sp,8
   1149c:	00000693          	li	a3,0
   114a0:	00800713          	li	a4,8
   114a4:	00000073          	ecall
   114a8:	0005051b          	sext.w	a0,a0
   114ac:	01810793          	addi	a5,sp,24
   114b0:	02054863          	bltz	a0,114e0 <__init_libc+0x15c>
   114b4:	00008637          	lui	a2,0x8
   114b8:	0001a6b7          	lui	a3,0x1a
   114bc:	00260613          	addi	a2,a2,2 # 8002 <exit-0x811e>
   114c0:	0067d703          	lhu	a4,6(a5)
   114c4:	02077713          	andi	a4,a4,32
   114c8:	04070863          	beqz	a4,11518 <__init_libc+0x194>
   114cc:	03800893          	li	a7,56
   114d0:	f9c00513          	li	a0,-100
   114d4:	69068593          	addi	a1,a3,1680 # 1a690 <__clzdi2+0x274>
   114d8:	00000073          	ecall
   114dc:	02055e63          	bgez	a0,11518 <__init_libc+0x194>
   114e0:	00000023          	sb	zero,0(zero) # 0 <exit-0x10120>
   114e4:	00100073          	ebreak
   114e8:	00f76c63          	bltu	a4,a5,11500 <__init_libc+0x17c>
   114ec:	16010693          	addi	a3,sp,352
   114f0:	00379793          	slli	a5,a5,0x3
   114f4:	00f687b3          	add	a5,a3,a5
   114f8:	00853683          	ld	a3,8(a0)
   114fc:	ecd7b823          	sd	a3,-304(a5)
   11500:	01050513          	addi	a0,a0,16
   11504:	ee5ff06f          	j	113e8 <__init_libc+0x64>
   11508:	00d71463          	bne	a4,a3,11510 <__init_libc+0x18c>
   1150c:	9a81bc23          	sd	s0,-1608(gp) # 1d1b8 <__progname>
   11510:	00140413          	addi	s0,s0,1
   11514:	f1dff06f          	j	11430 <__init_libc+0xac>
   11518:	00878793          	addi	a5,a5,8
   1151c:	faf912e3          	bne	s2,a5,114c0 <__init_libc+0x13c>
   11520:	00100793          	li	a5,1
   11524:	00f4a423          	sw	a5,8(s1)
   11528:	17813083          	ld	ra,376(sp)
   1152c:	17013403          	ld	s0,368(sp)
   11530:	16813483          	ld	s1,360(sp)
   11534:	16013903          	ld	s2,352(sp)
   11538:	18010113          	addi	sp,sp,384
   1153c:	00008067          	ret

0000000000011540 <__libc_start_init>:
   11540:	fe010113          	addi	sp,sp,-32
   11544:	00813823          	sd	s0,16(sp)
   11548:	00913423          	sd	s1,8(sp)
   1154c:	0001d437          	lui	s0,0x1d
   11550:	0001d4b7          	lui	s1,0x1d
   11554:	00113c23          	sd	ra,24(sp)
   11558:	ff040413          	addi	s0,s0,-16 # 1cff0 <__frame_dummy_init_array_entry>
   1155c:	e21ff0ef          	jal	ra,1137c <_init>
   11560:	ff848493          	addi	s1,s1,-8 # 1cff8 <__do_global_dtors_aux_fini_array_entry>
   11564:	00946c63          	bltu	s0,s1,1157c <__libc_start_init+0x3c>
   11568:	01813083          	ld	ra,24(sp)
   1156c:	01013403          	ld	s0,16(sp)
   11570:	00813483          	ld	s1,8(sp)
   11574:	02010113          	addi	sp,sp,32
   11578:	00008067          	ret
   1157c:	00043783          	ld	a5,0(s0)
   11580:	00840413          	addi	s0,s0,8
   11584:	000780e7          	jalr	a5
   11588:	fddff06f          	j	11564 <__libc_start_init+0x24>

000000000001158c <libc_start_main_stage2>:
   1158c:	fd010113          	addi	sp,sp,-48
   11590:	02813023          	sd	s0,32(sp)
   11594:	00158413          	addi	s0,a1,1
   11598:	00341413          	slli	s0,s0,0x3
   1159c:	02113423          	sd	ra,40(sp)
   115a0:	00913c23          	sd	s1,24(sp)
   115a4:	01213823          	sd	s2,16(sp)
   115a8:	00058493          	mv	s1,a1
   115ac:	00050913          	mv	s2,a0
   115b0:	00860433          	add	s0,a2,s0
   115b4:	00c13423          	sd	a2,8(sp)
   115b8:	f89ff0ef          	jal	ra,11540 <__libc_start_init>
   115bc:	00813583          	ld	a1,8(sp)
   115c0:	00040613          	mv	a2,s0
   115c4:	00048513          	mv	a0,s1
   115c8:	000900e7          	jalr	s2
   115cc:	b55fe0ef          	jal	ra,10120 <exit>

00000000000115d0 <__libc_start_main>:
   115d0:	fd010113          	addi	sp,sp,-48
   115d4:	02813023          	sd	s0,32(sp)
   115d8:	00913c23          	sd	s1,24(sp)
   115dc:	00058413          	mv	s0,a1
   115e0:	00050493          	mv	s1,a0
   115e4:	00158513          	addi	a0,a1,1
   115e8:	00063583          	ld	a1,0(a2)
   115ec:	00351513          	slli	a0,a0,0x3
   115f0:	00a60533          	add	a0,a2,a0
   115f4:	02113423          	sd	ra,40(sp)
   115f8:	00c13423          	sd	a2,8(sp)
   115fc:	d89ff0ef          	jal	ra,11384 <__init_libc>
   11600:	000117b7          	lui	a5,0x11
   11604:	58c78793          	addi	a5,a5,1420 # 1158c <libc_start_main_stage2>
   11608:	00040593          	mv	a1,s0
   1160c:	02013403          	ld	s0,32(sp)
   11610:	00813603          	ld	a2,8(sp)
   11614:	02813083          	ld	ra,40(sp)
   11618:	00048513          	mv	a0,s1
   1161c:	01813483          	ld	s1,24(sp)
   11620:	03010113          	addi	sp,sp,48
   11624:	00078067          	jr	a5

0000000000011628 <__errno_location>:
   11628:	00020513          	mv	a0,tp
   1162c:	f5c50513          	addi	a0,a0,-164
   11630:	00008067          	ret

0000000000011634 <__strerror_l>:
   11634:	0001b6b7          	lui	a3,0x1b
   11638:	00000793          	li	a5,0
   1163c:	b0868693          	addi	a3,a3,-1272 # 1ab08 <errid>
   11640:	00f68633          	add	a2,a3,a5
   11644:	00064603          	lbu	a2,0(a2)
   11648:	0007871b          	sext.w	a4,a5
   1164c:	00060663          	beqz	a2,11658 <__strerror_l+0x24>
   11650:	00178793          	addi	a5,a5,1
   11654:	fea616e3          	bne	a2,a0,11640 <__strerror_l+0xc>
   11658:	0001b537          	lui	a0,0x1b
   1165c:	b6850513          	addi	a0,a0,-1176 # 1ab68 <errmsg>
   11660:	0140006f          	j	11674 <__strerror_l+0x40>
   11664:	00054783          	lbu	a5,0(a0)
   11668:	00150513          	addi	a0,a0,1
   1166c:	fe079ce3          	bnez	a5,11664 <__strerror_l+0x30>
   11670:	fff7071b          	addiw	a4,a4,-1
   11674:	fe0718e3          	bnez	a4,11664 <__strerror_l+0x30>
   11678:	0285b583          	ld	a1,40(a1)
   1167c:	1780006f          	j	117f4 <__lctrans>

0000000000011680 <strerror>:
   11680:	00020793          	mv	a5,tp
   11684:	fd07b583          	ld	a1,-48(a5)
   11688:	fadff06f          	j	11634 <__strerror_l>

000000000001168c <__funcs_on_exit>:
   1168c:	00008067          	ret

0000000000011690 <__libc_exit_fini>:
   11690:	fe010113          	addi	sp,sp,-32
   11694:	00813823          	sd	s0,16(sp)
   11698:	00913423          	sd	s1,8(sp)
   1169c:	0001d437          	lui	s0,0x1d
   116a0:	0001d4b7          	lui	s1,0x1d
   116a4:	00113c23          	sd	ra,24(sp)
   116a8:	00040413          	mv	s0,s0
   116ac:	ff848493          	addi	s1,s1,-8 # 1cff8 <__do_global_dtors_aux_fini_array_entry>
   116b0:	0084ec63          	bltu	s1,s0,116c8 <__libc_exit_fini+0x38>
   116b4:	01013403          	ld	s0,16(sp)
   116b8:	01813083          	ld	ra,24(sp)
   116bc:	00813483          	ld	s1,8(sp)
   116c0:	02010113          	addi	sp,sp,32
   116c4:	fc9ff06f          	j	1168c <__funcs_on_exit>
   116c8:	ff843783          	ld	a5,-8(s0) # 1cff8 <__do_global_dtors_aux_fini_array_entry>
   116cc:	ff840413          	addi	s0,s0,-8
   116d0:	000780e7          	jalr	a5
   116d4:	fddff06f          	j	116b0 <__libc_exit_fini+0x20>

00000000000116d8 <open>:
   116d8:	fb010113          	addi	sp,sp,-80
   116dc:	00813823          	sd	s0,16(sp)
   116e0:	02f13c23          	sd	a5,56(sp)
   116e4:	00113c23          	sd	ra,24(sp)
   116e8:	02c13023          	sd	a2,32(sp)
   116ec:	02d13423          	sd	a3,40(sp)
   116f0:	02e13823          	sd	a4,48(sp)
   116f4:	05013023          	sd	a6,64(sp)
   116f8:	05113423          	sd	a7,72(sp)
   116fc:	0405f793          	andi	a5,a1,64
   11700:	00058413          	mv	s0,a1
   11704:	00079c63          	bnez	a5,1171c <open+0x44>
   11708:	004107b7          	lui	a5,0x410
   1170c:	00f5f7b3          	and	a5,a1,a5
   11710:	004106b7          	lui	a3,0x410
   11714:	00000713          	li	a4,0
   11718:	00d79863          	bne	a5,a3,11728 <open+0x50>
   1171c:	02012703          	lw	a4,32(sp)
   11720:	02010793          	addi	a5,sp,32
   11724:	00f13423          	sd	a5,8(sp)
   11728:	02071713          	slli	a4,a4,0x20
   1172c:	000086b7          	lui	a3,0x8
   11730:	00000793          	li	a5,0
   11734:	00050613          	mv	a2,a0
   11738:	00000813          	li	a6,0
   1173c:	02075713          	srli	a4,a4,0x20
   11740:	00d466b3          	or	a3,s0,a3
   11744:	f9c00593          	li	a1,-100
   11748:	03800513          	li	a0,56
   1174c:	55d020ef          	jal	ra,144a8 <__syscall_cp>
   11750:	0005079b          	sext.w	a5,a0
   11754:	0207c263          	bltz	a5,11778 <open+0xa0>
   11758:	01345413          	srli	s0,s0,0x13
   1175c:	00147413          	andi	s0,s0,1
   11760:	00040c63          	beqz	s0,11778 <open+0xa0>
   11764:	01900893          	li	a7,25
   11768:	00078513          	mv	a0,a5
   1176c:	00200593          	li	a1,2
   11770:	00100613          	li	a2,1
   11774:	00000073          	ecall
   11778:	00078513          	mv	a0,a5
   1177c:	018000ef          	jal	ra,11794 <__syscall_ret>
   11780:	01813083          	ld	ra,24(sp)
   11784:	01013403          	ld	s0,16(sp)
   11788:	0005051b          	sext.w	a0,a0
   1178c:	05010113          	addi	sp,sp,80
   11790:	00008067          	ret

0000000000011794 <__syscall_ret>:
   11794:	ff010113          	addi	sp,sp,-16
   11798:	00813023          	sd	s0,0(sp)
   1179c:	00113423          	sd	ra,8(sp)
   117a0:	fffff7b7          	lui	a5,0xfffff
   117a4:	00050413          	mv	s0,a0
   117a8:	00a7fa63          	bgeu	a5,a0,117bc <__syscall_ret+0x28>
   117ac:	e7dff0ef          	jal	ra,11628 <__errno_location>
   117b0:	4080043b          	negw	s0,s0
   117b4:	00852023          	sw	s0,0(a0)
   117b8:	fff00513          	li	a0,-1
   117bc:	00813083          	ld	ra,8(sp)
   117c0:	00013403          	ld	s0,0(sp)
   117c4:	01010113          	addi	sp,sp,16
   117c8:	00008067          	ret

00000000000117cc <__lsysinfo>:
   117cc:	ff010113          	addi	sp,sp,-16
   117d0:	00113423          	sd	ra,8(sp)
   117d4:	0b300893          	li	a7,179
   117d8:	00000073          	ecall
   117dc:	fb9ff0ef          	jal	ra,11794 <__syscall_ret>
   117e0:	00813083          	ld	ra,8(sp)
   117e4:	0005051b          	sext.w	a0,a0
   117e8:	01010113          	addi	sp,sp,16
   117ec:	00008067          	ret

00000000000117f0 <dummy>:
   117f0:	00008067          	ret

00000000000117f4 <__lctrans>:
   117f4:	4240306f          	j	14c18 <__lctrans_impl>

00000000000117f8 <__lctrans_cur>:
   117f8:	00020793          	mv	a5,tp
   117fc:	fd07b783          	ld	a5,-48(a5) # ffffffffffffefd0 <__BSS_END__+0xfffffffffffe1320>
   11800:	0287b583          	ld	a1,40(a5)
   11804:	4140306f          	j	14c18 <__lctrans_impl>

0000000000011808 <__nl_langinfo_l>:
   11808:	00010737          	lui	a4,0x10
   1180c:	fff70613          	addi	a2,a4,-1 # ffff <exit-0x121>
   11810:	00e00813          	li	a6,14
   11814:	41055793          	srai	a5,a0,0x10
   11818:	00c576b3          	and	a3,a0,a2
   1181c:	01051c63          	bne	a0,a6,11834 <__nl_langinfo_l+0x2c>
   11820:	0005b783          	ld	a5,0(a1)
   11824:	0c079c63          	bnez	a5,118fc <__nl_langinfo_l+0xf4>
   11828:	0001b537          	lui	a0,0x1b
   1182c:	29050513          	addi	a0,a0,656 # 1b290 <errmsg+0x728>
   11830:	00008067          	ret
   11834:	02c69263          	bne	a3,a2,11858 <__nl_langinfo_l+0x50>
   11838:	00500713          	li	a4,5
   1183c:	02f74863          	blt	a4,a5,1186c <__nl_langinfo_l+0x64>
   11840:	00379793          	slli	a5,a5,0x3
   11844:	00f587b3          	add	a5,a1,a5
   11848:	0007b503          	ld	a0,0(a5)
   1184c:	0a050e63          	beqz	a0,11908 <__nl_langinfo_l+0x100>
   11850:	01050513          	addi	a0,a0,16
   11854:	00008067          	ret
   11858:	00200613          	li	a2,2
   1185c:	06c78c63          	beq	a5,a2,118d4 <__nl_langinfo_l+0xcc>
   11860:	00f64c63          	blt	a2,a5,11878 <__nl_langinfo_l+0x70>
   11864:	00100613          	li	a2,1
   11868:	02c78c63          	beq	a5,a2,118a0 <__nl_langinfo_l+0x98>
   1186c:	0001a537          	lui	a0,0x1a
   11870:	68850513          	addi	a0,a0,1672 # 1a688 <__clzdi2+0x26c>
   11874:	00008067          	ret
   11878:	00400613          	li	a2,4
   1187c:	fec788e3          	beq	a5,a2,1186c <__nl_langinfo_l+0x64>
   11880:	00500613          	li	a2,5
   11884:	fec794e3          	bne	a5,a2,1186c <__nl_langinfo_l+0x64>
   11888:	ffc70713          	addi	a4,a4,-4
   1188c:	00e57533          	and	a0,a0,a4
   11890:	fc051ee3          	bnez	a0,1186c <__nl_langinfo_l+0x64>
   11894:	0001b537          	lui	a0,0x1b
   11898:	29850513          	addi	a0,a0,664 # 1b298 <c_messages>
   1189c:	0140006f          	j	118b0 <__nl_langinfo_l+0xa8>
   118a0:	ffe70713          	addi	a4,a4,-2
   118a4:	00e57533          	and	a0,a0,a4
   118a8:	fc0512e3          	bnez	a0,1186c <__nl_langinfo_l+0x64>
   118ac:	95818513          	addi	a0,gp,-1704 # 1d158 <c_numeric>
   118b0:	02069c63          	bnez	a3,118e8 <__nl_langinfo_l+0xe0>
   118b4:	00100713          	li	a4,1
   118b8:	fae78ee3          	beq	a5,a4,11874 <__nl_langinfo_l+0x6c>
   118bc:	00054703          	lbu	a4,0(a0)
   118c0:	fa070ae3          	beqz	a4,11874 <__nl_langinfo_l+0x6c>
   118c4:	00379793          	slli	a5,a5,0x3
   118c8:	00f587b3          	add	a5,a1,a5
   118cc:	0007b583          	ld	a1,0(a5)
   118d0:	f25ff06f          	j	117f4 <__lctrans>
   118d4:	03100713          	li	a4,49
   118d8:	f8d74ae3          	blt	a4,a3,1186c <__nl_langinfo_l+0x64>
   118dc:	0001b537          	lui	a0,0x1b
   118e0:	2b050513          	addi	a0,a0,688 # 1b2b0 <c_time>
   118e4:	fcdff06f          	j	118b0 <__nl_langinfo_l+0xa8>
   118e8:	00054703          	lbu	a4,0(a0)
   118ec:	00150513          	addi	a0,a0,1
   118f0:	fe071ce3          	bnez	a4,118e8 <__nl_langinfo_l+0xe0>
   118f4:	fff6869b          	addiw	a3,a3,-1
   118f8:	fb9ff06f          	j	118b0 <__nl_langinfo_l+0xa8>
   118fc:	0001b537          	lui	a0,0x1b
   11900:	89050513          	addi	a0,a0,-1904 # 1a890 <CSWTCH.18+0xe0>
   11904:	00008067          	ret
   11908:	0001b537          	lui	a0,0x1b
   1190c:	28850513          	addi	a0,a0,648 # 1b288 <errmsg+0x720>
   11910:	00008067          	ret

0000000000011914 <__nl_langinfo>:
   11914:	00020793          	mv	a5,tp
   11918:	fd07b583          	ld	a1,-48(a5)
   1191c:	eedff06f          	j	11808 <__nl_langinfo_l>

0000000000011920 <setlocale>:
   11920:	f5010113          	addi	sp,sp,-176
   11924:	09413023          	sd	s4,128(sp)
   11928:	0a113423          	sd	ra,168(sp)
   1192c:	0a813023          	sd	s0,160(sp)
   11930:	08913c23          	sd	s1,152(sp)
   11934:	09213823          	sd	s2,144(sp)
   11938:	09313423          	sd	s3,136(sp)
   1193c:	07513c23          	sd	s5,120(sp)
   11940:	07613823          	sd	s6,112(sp)
   11944:	07713423          	sd	s7,104(sp)
   11948:	07813023          	sd	s8,96(sp)
   1194c:	05913c23          	sd	s9,88(sp)
   11950:	05a13823          	sd	s10,80(sp)
   11954:	00600a13          	li	s4,6
   11958:	0aaa6263          	bltu	s4,a0,119fc <setlocale+0xdc>
   1195c:	00050413          	mv	s0,a0
   11960:	9c818513          	addi	a0,gp,-1592 # 1d1c8 <lock.0>
   11964:	00058493          	mv	s1,a1
   11968:	00098913          	mv	s2,s3
   1196c:	1ad020ef          	jal	ra,14318 <__lock>
   11970:	17441e63          	bne	s0,s4,11aec <setlocale+0x1cc>
   11974:	0a048863          	beqz	s1,11a24 <setlocale+0x104>
   11978:	0001b7b7          	lui	a5,0x1b
   1197c:	3f07b783          	ld	a5,1008(a5) # 1b3f0 <c_time+0x140>
   11980:	02010a93          	addi	s5,sp,32
   11984:	00013823          	sd	zero,16(sp)
   11988:	00f13423          	sd	a5,8(sp)
   1198c:	00013c23          	sd	zero,24(sp)
   11990:	00000a13          	li	s4,0
   11994:	000a8b13          	mv	s6,s5
   11998:	01700c13          	li	s8,23
   1199c:	fff00c93          	li	s9,-1
   119a0:	00600b93          	li	s7,6
   119a4:	03b00593          	li	a1,59
   119a8:	00048513          	mv	a0,s1
   119ac:	7d8020ef          	jal	ra,14184 <__strchrnul>
   119b0:	409509b3          	sub	s3,a0,s1
   119b4:	00050413          	mv	s0,a0
   119b8:	033c4663          	blt	s8,s3,119e4 <setlocale+0xc4>
   119bc:	00098613          	mv	a2,s3
   119c0:	00048593          	mv	a1,s1
   119c4:	00810513          	addi	a0,sp,8
   119c8:	280020ef          	jal	ra,13c48 <memcpy>
   119cc:	05010793          	addi	a5,sp,80
   119d0:	013789b3          	add	s3,a5,s3
   119d4:	fa098c23          	sb	zero,-72(s3)
   119d8:	00044783          	lbu	a5,0(s0)
   119dc:	00078463          	beqz	a5,119e4 <setlocale+0xc4>
   119e0:	00140493          	addi	s1,s0,1
   119e4:	00810593          	addi	a1,sp,8
   119e8:	000a0513          	mv	a0,s4
   119ec:	270030ef          	jal	ra,14c5c <__get_locale>
   119f0:	01951a63          	bne	a0,s9,11a04 <setlocale+0xe4>
   119f4:	9c818513          	addi	a0,gp,-1592 # 1d1c8 <lock.0>
   119f8:	219020ef          	jal	ra,14410 <__unlock>
   119fc:	00000413          	li	s0,0
   11a00:	0b00006f          	j	11ab0 <setlocale+0x190>
   11a04:	00aab023          	sd	a0,0(s5)
   11a08:	001a0a1b          	addiw	s4,s4,1
   11a0c:	008a8a93          	addi	s5,s5,8
   11a10:	f97a1ae3          	bne	s4,s7,119a4 <setlocale+0x84>
   11a14:	03000613          	li	a2,48
   11a18:	000b0593          	mv	a1,s6
   11a1c:	c0818513          	addi	a0,gp,-1016 # 1d408 <__libc+0x40>
   11a20:	228020ef          	jal	ra,13c48 <memcpy>
   11a24:	bc818a13          	addi	s4,gp,-1080 # 1d3c8 <__libc>
   11a28:	0001bc37          	lui	s8,0x1b
   11a2c:	c3818993          	addi	s3,gp,-968 # 1d438 <buf>
   11a30:	030a0c93          	addi	s9,s4,48
   11a34:	00000b93          	li	s7,0
   11a38:	bc818b13          	addi	s6,gp,-1080 # 1d3c8 <__libc>
   11a3c:	c3818a93          	addi	s5,gp,-968 # 1d438 <buf>
   11a40:	288c0c13          	addi	s8,s8,648 # 1b288 <errmsg+0x720>
   11a44:	03b00d13          	li	s10,59
   11a48:	040a3783          	ld	a5,64(s4)
   11a4c:	040b3703          	ld	a4,64(s6)
   11a50:	00f71463          	bne	a4,a5,11a58 <setlocale+0x138>
   11a54:	001b8b9b          	addiw	s7,s7,1
   11a58:	000c0413          	mv	s0,s8
   11a5c:	00078463          	beqz	a5,11a64 <setlocale+0x144>
   11a60:	01078413          	addi	s0,a5,16
   11a64:	00040513          	mv	a0,s0
   11a68:	7e4020ef          	jal	ra,1424c <strlen>
   11a6c:	00050493          	mv	s1,a0
   11a70:	00050613          	mv	a2,a0
   11a74:	00040593          	mv	a1,s0
   11a78:	00098513          	mv	a0,s3
   11a7c:	1cc020ef          	jal	ra,13c48 <memcpy>
   11a80:	009987b3          	add	a5,s3,s1
   11a84:	01a78023          	sb	s10,0(a5)
   11a88:	00148493          	addi	s1,s1,1
   11a8c:	008a0a13          	addi	s4,s4,8
   11a90:	009989b3          	add	s3,s3,s1
   11a94:	fb4c9ae3          	bne	s9,s4,11a48 <setlocale+0x128>
   11a98:	fe098fa3          	sb	zero,-1(s3)
   11a9c:	9c818513          	addi	a0,gp,-1592 # 1d1c8 <lock.0>
   11aa0:	171020ef          	jal	ra,14410 <__unlock>
   11aa4:	00600793          	li	a5,6
   11aa8:	00fb8463          	beq	s7,a5,11ab0 <setlocale+0x190>
   11aac:	000a8413          	mv	s0,s5
   11ab0:	0a813083          	ld	ra,168(sp)
   11ab4:	00040513          	mv	a0,s0
   11ab8:	0a013403          	ld	s0,160(sp)
   11abc:	09813483          	ld	s1,152(sp)
   11ac0:	09013903          	ld	s2,144(sp)
   11ac4:	08813983          	ld	s3,136(sp)
   11ac8:	08013a03          	ld	s4,128(sp)
   11acc:	07813a83          	ld	s5,120(sp)
   11ad0:	07013b03          	ld	s6,112(sp)
   11ad4:	06813b83          	ld	s7,104(sp)
   11ad8:	06013c03          	ld	s8,96(sp)
   11adc:	05813c83          	ld	s9,88(sp)
   11ae0:	05013d03          	ld	s10,80(sp)
   11ae4:	0b010113          	addi	sp,sp,176
   11ae8:	00008067          	ret
   11aec:	04048863          	beqz	s1,11b3c <setlocale+0x21c>
   11af0:	00048593          	mv	a1,s1
   11af4:	00040513          	mv	a0,s0
   11af8:	164030ef          	jal	ra,14c5c <__get_locale>
   11afc:	fff00793          	li	a5,-1
   11b00:	00f51663          	bne	a0,a5,11b0c <setlocale+0x1ec>
   11b04:	9c818513          	addi	a0,gp,-1592 # 1d1c8 <lock.0>
   11b08:	ef1ff06f          	j	119f8 <setlocale+0xd8>
   11b0c:	00840413          	addi	s0,s0,8
   11b10:	00341413          	slli	s0,s0,0x3
   11b14:	bc818793          	addi	a5,gp,-1080 # 1d3c8 <__libc>
   11b18:	00878433          	add	s0,a5,s0
   11b1c:	00a43023          	sd	a0,0(s0)
   11b20:	01050413          	addi	s0,a0,16
   11b24:	00051663          	bnez	a0,11b30 <setlocale+0x210>
   11b28:	0001b437          	lui	s0,0x1b
   11b2c:	28840413          	addi	s0,s0,648 # 1b288 <errmsg+0x720>
   11b30:	9c818513          	addi	a0,gp,-1592 # 1d1c8 <lock.0>
   11b34:	0dd020ef          	jal	ra,14410 <__unlock>
   11b38:	f79ff06f          	j	11ab0 <setlocale+0x190>
   11b3c:	00840413          	addi	s0,s0,8
   11b40:	00341413          	slli	s0,s0,0x3
   11b44:	bc818793          	addi	a5,gp,-1080 # 1d3c8 <__libc>
   11b48:	00878433          	add	s0,a5,s0
   11b4c:	00043503          	ld	a0,0(s0)
   11b50:	fd1ff06f          	j	11b20 <setlocale+0x200>

0000000000011b54 <__simple_malloc>:
   11b54:	fb010113          	addi	sp,sp,-80
   11b58:	02913c23          	sd	s1,56(sp)
   11b5c:	01513c23          	sd	s5,24(sp)
   11b60:	04113423          	sd	ra,72(sp)
   11b64:	04813023          	sd	s0,64(sp)
   11b68:	03213823          	sd	s2,48(sp)
   11b6c:	03313423          	sd	s3,40(sp)
   11b70:	03413023          	sd	s4,32(sp)
   11b74:	00050a93          	mv	s5,a0
   11b78:	00100493          	li	s1,1
   11b7c:	00050463          	beqz	a0,11b84 <__simple_malloc+0x30>
   11b80:	00050493          	mv	s1,a0
   11b84:	00500793          	li	a5,5
   11b88:	00100413          	li	s0,1
   11b8c:	08946263          	bltu	s0,s1,11c10 <__simple_malloc+0xbc>
   11b90:	9e018513          	addi	a0,gp,-1568 # 1d1e0 <lock.0>
   11b94:	784020ef          	jal	ra,14318 <__lock>
   11b98:	9d01b703          	ld	a4,-1584(gp) # 1d1d0 <cur.1>
   11b9c:	fff00793          	li	a5,-1
   11ba0:	03f79793          	slli	a5,a5,0x3f
   11ba4:	40e009b3          	neg	s3,a4
   11ba8:	fff40413          	addi	s0,s0,-1
   11bac:	00f78793          	addi	a5,a5,15
   11bb0:	0089f9b3          	and	s3,s3,s0
   11bb4:	9d018913          	addi	s2,gp,-1584 # 1d1d0 <cur.1>
   11bb8:	0757f463          	bgeu	a5,s5,11c20 <__simple_malloc+0xcc>
   11bbc:	9d81b783          	ld	a5,-1576(gp) # 1d1d8 <end.2>
   11bc0:	9d818a93          	addi	s5,gp,-1576 # 1d1d8 <end.2>
   11bc4:	40e787b3          	sub	a5,a5,a4
   11bc8:	0897f063          	bgeu	a5,s1,11c48 <__simple_malloc+0xf4>
   11bcc:	00810513          	addi	a0,sp,8
   11bd0:	00913423          	sd	s1,8(sp)
   11bd4:	3b4030ef          	jal	ra,14f88 <__expand_heap>
   11bd8:	00050413          	mv	s0,a0
   11bdc:	04051663          	bnez	a0,11c28 <__simple_malloc+0xd4>
   11be0:	9e018513          	addi	a0,gp,-1568 # 1d1e0 <lock.0>
   11be4:	02d020ef          	jal	ra,14410 <__unlock>
   11be8:	04813083          	ld	ra,72(sp)
   11bec:	00040513          	mv	a0,s0
   11bf0:	04013403          	ld	s0,64(sp)
   11bf4:	03813483          	ld	s1,56(sp)
   11bf8:	03013903          	ld	s2,48(sp)
   11bfc:	02813983          	ld	s3,40(sp)
   11c00:	02013a03          	ld	s4,32(sp)
   11c04:	01813a83          	ld	s5,24(sp)
   11c08:	05010113          	addi	sp,sp,80
   11c0c:	00008067          	ret
   11c10:	fff7879b          	addiw	a5,a5,-1
   11c14:	f6078ee3          	beqz	a5,11b90 <__simple_malloc+0x3c>
   11c18:	00141413          	slli	s0,s0,0x1
   11c1c:	f71ff06f          	j	11b8c <__simple_malloc+0x38>
   11c20:	013484b3          	add	s1,s1,s3
   11c24:	f99ff06f          	j	11bbc <__simple_malloc+0x68>
   11c28:	000ab783          	ld	a5,0(s5)
   11c2c:	00a78863          	beq	a5,a0,11c3c <__simple_malloc+0xe8>
   11c30:	413484b3          	sub	s1,s1,s3
   11c34:	00a93023          	sd	a0,0(s2)
   11c38:	00000993          	li	s3,0
   11c3c:	00813503          	ld	a0,8(sp)
   11c40:	00a40433          	add	s0,s0,a0
   11c44:	008ab023          	sd	s0,0(s5)
   11c48:	00093783          	ld	a5,0(s2)
   11c4c:	01378433          	add	s0,a5,s3
   11c50:	009787b3          	add	a5,a5,s1
   11c54:	00f93023          	sd	a5,0(s2)
   11c58:	f89ff06f          	j	11be0 <__simple_malloc+0x8c>

0000000000011c5c <__simple_calloc>:
   11c5c:	00058663          	beqz	a1,11c68 <__simple_calloc+0xc>
   11c60:	02b537b3          	mulhu	a5,a0,a1
   11c64:	00079663          	bnez	a5,11c70 <__simple_calloc+0x14>
   11c68:	02a58533          	mul	a0,a1,a0
   11c6c:	ee9ff06f          	j	11b54 <__simple_malloc>
   11c70:	ff010113          	addi	sp,sp,-16
   11c74:	00113423          	sd	ra,8(sp)
   11c78:	9b1ff0ef          	jal	ra,11628 <__errno_location>
   11c7c:	00813083          	ld	ra,8(sp)
   11c80:	00c00793          	li	a5,12
   11c84:	00f52023          	sw	a5,0(a0)
   11c88:	00000513          	li	a0,0
   11c8c:	01010113          	addi	sp,sp,16
   11c90:	00008067          	ret

0000000000011c94 <bin_index>:
   11c94:	00555793          	srli	a5,a0,0x5
   11c98:	fff78793          	addi	a5,a5,-1
   11c9c:	02000713          	li	a4,32
   11ca0:	00f76663          	bltu	a4,a5,11cac <bin_index+0x18>
   11ca4:	0007851b          	sext.w	a0,a5
   11ca8:	00008067          	ret
   11cac:	1ff00713          	li	a4,511
   11cb0:	00f76e63          	bltu	a4,a5,11ccc <bin_index+0x38>
   11cb4:	0001b737          	lui	a4,0x1b
   11cb8:	40870713          	addi	a4,a4,1032 # 1b408 <bin_tab>
   11cbc:	0037d793          	srli	a5,a5,0x3
   11cc0:	00f707b3          	add	a5,a4,a5
   11cc4:	ffc7c503          	lbu	a0,-4(a5)
   11cc8:	00008067          	ret
   11ccc:	00002737          	lui	a4,0x2
   11cd0:	c0070713          	addi	a4,a4,-1024 # 1c00 <exit-0xe520>
   11cd4:	03f00513          	li	a0,63
   11cd8:	00f76e63          	bltu	a4,a5,11cf4 <bin_index+0x60>
   11cdc:	0001b737          	lui	a4,0x1b
   11ce0:	0077d793          	srli	a5,a5,0x7
   11ce4:	40870713          	addi	a4,a4,1032 # 1b408 <bin_tab>
   11ce8:	00f707b3          	add	a5,a4,a5
   11cec:	ffc7c503          	lbu	a0,-4(a5)
   11cf0:	0105051b          	addiw	a0,a0,16
   11cf4:	00008067          	ret

0000000000011cf8 <adjust_size>:
   11cf8:	c001b603          	ld	a2,-1024(gp) # 1d400 <__libc+0x38>
   11cfc:	00053783          	ld	a5,0(a0)
   11d00:	fbf00713          	li	a4,-65
   11d04:	00175713          	srli	a4,a4,0x1
   11d08:	fff78693          	addi	a3,a5,-1
   11d0c:	40c70733          	sub	a4,a4,a2
   11d10:	02d77e63          	bgeu	a4,a3,11d4c <adjust_size+0x54>
   11d14:	02078463          	beqz	a5,11d3c <adjust_size+0x44>
   11d18:	ff010113          	addi	sp,sp,-16
   11d1c:	00113423          	sd	ra,8(sp)
   11d20:	909ff0ef          	jal	ra,11628 <__errno_location>
   11d24:	00813083          	ld	ra,8(sp)
   11d28:	00c00793          	li	a5,12
   11d2c:	00f52023          	sw	a5,0(a0)
   11d30:	fff00513          	li	a0,-1
   11d34:	01010113          	addi	sp,sp,16
   11d38:	00008067          	ret
   11d3c:	02000793          	li	a5,32
   11d40:	00f53023          	sd	a5,0(a0)
   11d44:	00000513          	li	a0,0
   11d48:	00008067          	ret
   11d4c:	02f78793          	addi	a5,a5,47
   11d50:	fe07f793          	andi	a5,a5,-32
   11d54:	fedff06f          	j	11d40 <adjust_size+0x48>

0000000000011d58 <lock>:
   11d58:	bc818793          	addi	a5,gp,-1080 # 1d3c8 <__libc>
   11d5c:	00c7a783          	lw	a5,12(a5)
   11d60:	0007879b          	sext.w	a5,a5
   11d64:	06078c63          	beqz	a5,11ddc <lock+0x84>
   11d68:	fe010113          	addi	sp,sp,-32
   11d6c:	00813823          	sd	s0,16(sp)
   11d70:	00913423          	sd	s1,8(sp)
   11d74:	01213023          	sd	s2,0(sp)
   11d78:	00113c23          	sd	ra,24(sp)
   11d7c:	00050413          	mv	s0,a0
   11d80:	00100493          	li	s1,1
   11d84:	00450913          	addi	s2,a0,4
   11d88:	00042783          	lw	a5,0(s0)
   11d8c:	0007879b          	sext.w	a5,a5
   11d90:	1604272f          	lr.w.aqrl	a4,(s0)
   11d94:	00f71663          	bne	a4,a5,11da0 <lock+0x48>
   11d98:	1e9426af          	sc.w.aqrl	a3,s1,(s0)
   11d9c:	fe069ae3          	bnez	a3,11d90 <lock+0x38>
   11da0:	0007071b          	sext.w	a4,a4
   11da4:	fee792e3          	bne	a5,a4,11d88 <lock+0x30>
   11da8:	00079e63          	bnez	a5,11dc4 <lock+0x6c>
   11dac:	01813083          	ld	ra,24(sp)
   11db0:	01013403          	ld	s0,16(sp)
   11db4:	00813483          	ld	s1,8(sp)
   11db8:	00013903          	ld	s2,0(sp)
   11dbc:	02010113          	addi	sp,sp,32
   11dc0:	00008067          	ret
   11dc4:	00100693          	li	a3,1
   11dc8:	00100613          	li	a2,1
   11dcc:	00090593          	mv	a1,s2
   11dd0:	00040513          	mv	a0,s0
   11dd4:	700020ef          	jal	ra,144d4 <__wait>
   11dd8:	fb1ff06f          	j	11d88 <lock+0x30>
   11ddc:	00008067          	ret

0000000000011de0 <lock_bin>:
   11de0:	fe010113          	addi	sp,sp,-32
   11de4:	00913423          	sd	s1,8(sp)
   11de8:	01800493          	li	s1,24
   11dec:	029504b3          	mul	s1,a0,s1
   11df0:	00813823          	sd	s0,16(sp)
   11df4:	cc818413          	addi	s0,gp,-824 # 1d4c8 <mal>
   11df8:	00113c23          	sd	ra,24(sp)
   11dfc:	00848513          	addi	a0,s1,8
   11e00:	00a40533          	add	a0,s0,a0
   11e04:	f55ff0ef          	jal	ra,11d58 <lock>
   11e08:	00940533          	add	a0,s0,s1
   11e0c:	01053783          	ld	a5,16(a0)
   11e10:	00079663          	bnez	a5,11e1c <lock_bin+0x3c>
   11e14:	00a53c23          	sd	a0,24(a0)
   11e18:	00a53823          	sd	a0,16(a0)
   11e1c:	01813083          	ld	ra,24(sp)
   11e20:	01013403          	ld	s0,16(sp)
   11e24:	00813483          	ld	s1,8(sp)
   11e28:	02010113          	addi	sp,sp,32
   11e2c:	00008067          	ret

0000000000011e30 <unlock>:
   11e30:	00052703          	lw	a4,0(a0)
   11e34:	00050793          	mv	a5,a0
   11e38:	0007071b          	sext.w	a4,a4
   11e3c:	04070063          	beqz	a4,11e7c <unlock+0x4c>
   11e40:	0330000f          	fence	rw,rw
   11e44:	00052023          	sw	zero,0(a0)
   11e48:	0330000f          	fence	rw,rw
   11e4c:	00452703          	lw	a4,4(a0)
   11e50:	0007071b          	sext.w	a4,a4
   11e54:	02070463          	beqz	a4,11e7c <unlock+0x4c>
   11e58:	06200893          	li	a7,98
   11e5c:	08100593          	li	a1,129
   11e60:	00100613          	li	a2,1
   11e64:	00000073          	ecall
   11e68:	fda00713          	li	a4,-38
   11e6c:	00e51863          	bne	a0,a4,11e7c <unlock+0x4c>
   11e70:	00078513          	mv	a0,a5
   11e74:	00100593          	li	a1,1
   11e78:	00000073          	ecall
   11e7c:	00008067          	ret

0000000000011e80 <unbin>:
   11e80:	01853703          	ld	a4,24(a0)
   11e84:	01053783          	ld	a5,16(a0)
   11e88:	08f71063          	bne	a4,a5,11f08 <unbin+0x88>
   11e8c:	00100793          	li	a5,1
   11e90:	00b797b3          	sll	a5,a5,a1
   11e94:	fff7c793          	not	a5,a5
   11e98:	0007881b          	sext.w	a6,a5
   11e9c:	fff00713          	li	a4,-1
   11ea0:	02e80663          	beq	a6,a4,11ecc <unbin+0x4c>
   11ea4:	cc818693          	addi	a3,gp,-824 # 1d4c8 <mal>
   11ea8:	0006a703          	lw	a4,0(a3) # 8000 <exit-0x8120>
   11eac:	0007071b          	sext.w	a4,a4
   11eb0:	00e875b3          	and	a1,a6,a4
   11eb4:	1606a62f          	lr.w.aqrl	a2,(a3)
   11eb8:	00e61663          	bne	a2,a4,11ec4 <unbin+0x44>
   11ebc:	1eb6a8af          	sc.w.aqrl	a7,a1,(a3)
   11ec0:	fe089ae3          	bnez	a7,11eb4 <unbin+0x34>
   11ec4:	0006061b          	sext.w	a2,a2
   11ec8:	fec710e3          	bne	a4,a2,11ea8 <unbin+0x28>
   11ecc:	4207d793          	srai	a5,a5,0x20
   11ed0:	fff00713          	li	a4,-1
   11ed4:	02e78a63          	beq	a5,a4,11f08 <unbin+0x88>
   11ed8:	cc818693          	addi	a3,gp,-824 # 1d4c8 <mal>
   11edc:	0007879b          	sext.w	a5,a5
   11ee0:	00468593          	addi	a1,a3,4
   11ee4:	0046a703          	lw	a4,4(a3)
   11ee8:	0007071b          	sext.w	a4,a4
   11eec:	00e7f833          	and	a6,a5,a4
   11ef0:	1605a62f          	lr.w.aqrl	a2,(a1)
   11ef4:	00e61663          	bne	a2,a4,11f00 <unbin+0x80>
   11ef8:	1f05a8af          	sc.w.aqrl	a7,a6,(a1)
   11efc:	fe089ae3          	bnez	a7,11ef0 <unbin+0x70>
   11f00:	0006061b          	sext.w	a2,a2
   11f04:	fec710e3          	bne	a4,a2,11ee4 <unbin+0x64>
   11f08:	01853703          	ld	a4,24(a0)
   11f0c:	01053783          	ld	a5,16(a0)
   11f10:	00f73823          	sd	a5,16(a4)
   11f14:	00e7bc23          	sd	a4,24(a5)
   11f18:	00853783          	ld	a5,8(a0)
   11f1c:	0017e713          	ori	a4,a5,1
   11f20:	ffe7f793          	andi	a5,a5,-2
   11f24:	00e53423          	sd	a4,8(a0)
   11f28:	00f50533          	add	a0,a0,a5
   11f2c:	00053783          	ld	a5,0(a0)
   11f30:	0017e793          	ori	a5,a5,1
   11f34:	00f53023          	sd	a5,0(a0)
   11f38:	00008067          	ret

0000000000011f3c <alloc_rev>:
   11f3c:	fc010113          	addi	sp,sp,-64
   11f40:	01313c23          	sd	s3,24(sp)
   11f44:	02913423          	sd	s1,40(sp)
   11f48:	01413823          	sd	s4,16(sp)
   11f4c:	02113c23          	sd	ra,56(sp)
   11f50:	02813823          	sd	s0,48(sp)
   11f54:	03213023          	sd	s2,32(sp)
   11f58:	00050493          	mv	s1,a0
   11f5c:	cc818993          	addi	s3,gp,-824 # 1d4c8 <mal>
   11f60:	01800a13          	li	s4,24
   11f64:	0004b903          	ld	s2,0(s1)
   11f68:	00197793          	andi	a5,s2,1
   11f6c:	00078663          	beqz	a5,11f78 <alloc_rev+0x3c>
   11f70:	00000513          	li	a0,0
   11f74:	0440006f          	j	11fb8 <alloc_rev+0x7c>
   11f78:	00090513          	mv	a0,s2
   11f7c:	d19ff0ef          	jal	ra,11c94 <bin_index>
   11f80:	00a13423          	sd	a0,8(sp)
   11f84:	e5dff0ef          	jal	ra,11de0 <lock_bin>
   11f88:	00813583          	ld	a1,8(sp)
   11f8c:	0004b783          	ld	a5,0(s1)
   11f90:	03458433          	mul	s0,a1,s4
   11f94:	00840413          	addi	s0,s0,8
   11f98:	00898433          	add	s0,s3,s0
   11f9c:	03279e63          	bne	a5,s2,11fd8 <alloc_rev+0x9c>
   11fa0:	ffe7f793          	andi	a5,a5,-2
   11fa4:	40f48533          	sub	a0,s1,a5
   11fa8:	ed9ff0ef          	jal	ra,11e80 <unbin>
   11fac:	00040513          	mv	a0,s0
   11fb0:	e81ff0ef          	jal	ra,11e30 <unlock>
   11fb4:	00100513          	li	a0,1
   11fb8:	03813083          	ld	ra,56(sp)
   11fbc:	03013403          	ld	s0,48(sp)
   11fc0:	02813483          	ld	s1,40(sp)
   11fc4:	02013903          	ld	s2,32(sp)
   11fc8:	01813983          	ld	s3,24(sp)
   11fcc:	01013a03          	ld	s4,16(sp)
   11fd0:	04010113          	addi	sp,sp,64
   11fd4:	00008067          	ret
   11fd8:	00040513          	mv	a0,s0
   11fdc:	e55ff0ef          	jal	ra,11e30 <unlock>
   11fe0:	f85ff06f          	j	11f64 <alloc_rev+0x28>

0000000000011fe4 <alloc_fwd>:
   11fe4:	fc010113          	addi	sp,sp,-64
   11fe8:	01313c23          	sd	s3,24(sp)
   11fec:	02913423          	sd	s1,40(sp)
   11ff0:	01413823          	sd	s4,16(sp)
   11ff4:	02113c23          	sd	ra,56(sp)
   11ff8:	02813823          	sd	s0,48(sp)
   11ffc:	03213023          	sd	s2,32(sp)
   12000:	00050493          	mv	s1,a0
   12004:	cc818993          	addi	s3,gp,-824 # 1d4c8 <mal>
   12008:	01800a13          	li	s4,24
   1200c:	0084b903          	ld	s2,8(s1)
   12010:	00197793          	andi	a5,s2,1
   12014:	00078663          	beqz	a5,12020 <alloc_fwd+0x3c>
   12018:	00000513          	li	a0,0
   1201c:	0400006f          	j	1205c <alloc_fwd+0x78>
   12020:	00090513          	mv	a0,s2
   12024:	c71ff0ef          	jal	ra,11c94 <bin_index>
   12028:	00a13423          	sd	a0,8(sp)
   1202c:	db5ff0ef          	jal	ra,11de0 <lock_bin>
   12030:	00813583          	ld	a1,8(sp)
   12034:	0084b783          	ld	a5,8(s1)
   12038:	03458433          	mul	s0,a1,s4
   1203c:	00840413          	addi	s0,s0,8
   12040:	00898433          	add	s0,s3,s0
   12044:	03279c63          	bne	a5,s2,1207c <alloc_fwd+0x98>
   12048:	00048513          	mv	a0,s1
   1204c:	e35ff0ef          	jal	ra,11e80 <unbin>
   12050:	00040513          	mv	a0,s0
   12054:	dddff0ef          	jal	ra,11e30 <unlock>
   12058:	00100513          	li	a0,1
   1205c:	03813083          	ld	ra,56(sp)
   12060:	03013403          	ld	s0,48(sp)
   12064:	02813483          	ld	s1,40(sp)
   12068:	02013903          	ld	s2,32(sp)
   1206c:	01813983          	ld	s3,24(sp)
   12070:	01013a03          	ld	s4,16(sp)
   12074:	04010113          	addi	sp,sp,64
   12078:	00008067          	ret
   1207c:	00040513          	mv	a0,s0
   12080:	db1ff0ef          	jal	ra,11e30 <unlock>
   12084:	f89ff06f          	j	1200c <alloc_fwd+0x28>

0000000000012088 <__bin_chunk>:
   12088:	00853783          	ld	a5,8(a0)
   1208c:	f8010113          	addi	sp,sp,-128
   12090:	03713c23          	sd	s7,56(sp)
   12094:	ffe7fb93          	andi	s7,a5,-2
   12098:	06913423          	sd	s1,104(sp)
   1209c:	017504b3          	add	s1,a0,s7
   120a0:	0004b703          	ld	a4,0(s1)
   120a4:	06113c23          	sd	ra,120(sp)
   120a8:	06813823          	sd	s0,112(sp)
   120ac:	07213023          	sd	s2,96(sp)
   120b0:	05313c23          	sd	s3,88(sp)
   120b4:	05413823          	sd	s4,80(sp)
   120b8:	05513423          	sd	s5,72(sp)
   120bc:	05613023          	sd	s6,64(sp)
   120c0:	03813823          	sd	s8,48(sp)
   120c4:	03913423          	sd	s9,40(sp)
   120c8:	03a13023          	sd	s10,32(sp)
   120cc:	01b13c23          	sd	s11,24(sp)
   120d0:	00e78663          	beq	a5,a4,120dc <__bin_chunk+0x54>
   120d4:	00000023          	sb	zero,0(zero) # 0 <exit-0x10120>
   120d8:	00100073          	ebreak
   120dc:	cc818913          	addi	s2,gp,-824 # 1d4c8 <mal>
   120e0:	00050413          	mv	s0,a0
   120e4:	000b8a13          	mv	s4,s7
   120e8:	00000a93          	li	s5,0
   120ec:	60890c13          	addi	s8,s2,1544
   120f0:	01800d13          	li	s10,24
   120f4:	00028cb7          	lui	s9,0x28
   120f8:	00043783          	ld	a5,0(s0)
   120fc:	0084b703          	ld	a4,8(s1)
   12100:	00e7f7b3          	and	a5,a5,a4
   12104:	0017f793          	andi	a5,a5,1
   12108:	04078c63          	beqz	a5,12160 <__bin_chunk+0xd8>
   1210c:	001a6793          	ori	a5,s4,1
   12110:	00f43423          	sd	a5,8(s0)
   12114:	00f4b023          	sd	a5,0(s1)
   12118:	000a0513          	mv	a0,s4
   1211c:	b79ff0ef          	jal	ra,11c94 <bin_index>
   12120:	00050d93          	mv	s11,a0
   12124:	cbdff0ef          	jal	ra,11de0 <lock_bin>
   12128:	000c0513          	mv	a0,s8
   1212c:	c2dff0ef          	jal	ra,11d58 <lock>
   12130:	03ad86b3          	mul	a3,s11,s10
   12134:	00043783          	ld	a5,0(s0)
   12138:	0084b703          	ld	a4,8(s1)
   1213c:	00e7f7b3          	and	a5,a5,a4
   12140:	0017f793          	andi	a5,a5,1
   12144:	00868993          	addi	s3,a3,8
   12148:	013909b3          	add	s3,s2,s3
   1214c:	08079063          	bnez	a5,121cc <__bin_chunk+0x144>
   12150:	000c0513          	mv	a0,s8
   12154:	cddff0ef          	jal	ra,11e30 <unlock>
   12158:	00098513          	mv	a0,s3
   1215c:	cd5ff0ef          	jal	ra,11e30 <unlock>
   12160:	00040513          	mv	a0,s0
   12164:	dd9ff0ef          	jal	ra,11f3c <alloc_rev>
   12168:	02050863          	beqz	a0,12198 <__bin_chunk+0x110>
   1216c:	00043783          	ld	a5,0(s0)
   12170:	ffe7f793          	andi	a5,a5,-2
   12174:	40f40433          	sub	s0,s0,a5
   12178:	00843783          	ld	a5,8(s0)
   1217c:	ffe7f793          	andi	a5,a5,-2
   12180:	00fb8733          	add	a4,s7,a5
   12184:	00fa0a33          	add	s4,s4,a5
   12188:	00ecf863          	bgeu	s9,a4,12198 <__bin_chunk+0x110>
   1218c:	00f74733          	xor	a4,a4,a5
   12190:	00e7f463          	bgeu	a5,a4,12198 <__bin_chunk+0x110>
   12194:	00100a93          	li	s5,1
   12198:	00048513          	mv	a0,s1
   1219c:	e49ff0ef          	jal	ra,11fe4 <alloc_fwd>
   121a0:	f4050ce3          	beqz	a0,120f8 <__bin_chunk+0x70>
   121a4:	0084b783          	ld	a5,8(s1)
   121a8:	ffe7f793          	andi	a5,a5,-2
   121ac:	00fb8733          	add	a4,s7,a5
   121b0:	00fa0a33          	add	s4,s4,a5
   121b4:	00ecf863          	bgeu	s9,a4,121c4 <__bin_chunk+0x13c>
   121b8:	00f74733          	xor	a4,a4,a5
   121bc:	00e7f463          	bgeu	a5,a4,121c4 <__bin_chunk+0x13c>
   121c0:	00100a93          	li	s5,1
   121c4:	00f484b3          	add	s1,s1,a5
   121c8:	f31ff06f          	j	120f8 <__bin_chunk+0x70>
   121cc:	00093783          	ld	a5,0(s2)
   121d0:	01b7d7b3          	srl	a5,a5,s11
   121d4:	0017f793          	andi	a5,a5,1
   121d8:	0a078863          	beqz	a5,12288 <__bin_chunk+0x200>
   121dc:	01443423          	sd	s4,8(s0)
   121e0:	2d018513          	addi	a0,gp,720 # 1dad0 <__global_pointer$+0x2d0>
   121e4:	0144b023          	sd	s4,0(s1)
   121e8:	00d13423          	sd	a3,8(sp)
   121ec:	c45ff0ef          	jal	ra,11e30 <unlock>
   121f0:	01800513          	li	a0,24
   121f4:	02ad8db3          	mul	s11,s11,a0
   121f8:	00813683          	ld	a3,8(sp)
   121fc:	00d906b3          	add	a3,s2,a3
   12200:	00d43823          	sd	a3,16(s0)
   12204:	01b90933          	add	s2,s2,s11
   12208:	01893783          	ld	a5,24(s2)
   1220c:	00f43c23          	sd	a5,24(s0)
   12210:	0086bc23          	sd	s0,24(a3)
   12214:	01843783          	ld	a5,24(s0)
   12218:	0087b823          	sd	s0,16(a5)
   1221c:	020a8663          	beqz	s5,12248 <__bin_chunk+0x1c0>
   12220:	c001b503          	ld	a0,-1024(gp) # 1d400 <__libc+0x38>
   12224:	fe048493          	addi	s1,s1,-32
   12228:	00400613          	li	a2,4
   1222c:	40a005b3          	neg	a1,a0
   12230:	01f50513          	addi	a0,a0,31
   12234:	00a40533          	add	a0,s0,a0
   12238:	00b57533          	and	a0,a0,a1
   1223c:	00b4f5b3          	and	a1,s1,a1
   12240:	40a585b3          	sub	a1,a1,a0
   12244:	4b9000ef          	jal	ra,12efc <__madvise>
   12248:	07013403          	ld	s0,112(sp)
   1224c:	07813083          	ld	ra,120(sp)
   12250:	06813483          	ld	s1,104(sp)
   12254:	06013903          	ld	s2,96(sp)
   12258:	05013a03          	ld	s4,80(sp)
   1225c:	04813a83          	ld	s5,72(sp)
   12260:	04013b03          	ld	s6,64(sp)
   12264:	03813b83          	ld	s7,56(sp)
   12268:	03013c03          	ld	s8,48(sp)
   1226c:	02813c83          	ld	s9,40(sp)
   12270:	02013d03          	ld	s10,32(sp)
   12274:	01813d83          	ld	s11,24(sp)
   12278:	00098513          	mv	a0,s3
   1227c:	05813983          	ld	s3,88(sp)
   12280:	08010113          	addi	sp,sp,128
   12284:	badff06f          	j	11e30 <unlock>
   12288:	00100793          	li	a5,1
   1228c:	01b797b3          	sll	a5,a5,s11
   12290:	0007851b          	sext.w	a0,a5
   12294:	02051e63          	bnez	a0,122d0 <__bin_chunk+0x248>
   12298:	4207d793          	srai	a5,a5,0x20
   1229c:	f40780e3          	beqz	a5,121dc <__bin_chunk+0x154>
   122a0:	0007879b          	sext.w	a5,a5
   122a4:	00490593          	addi	a1,s2,4
   122a8:	00492703          	lw	a4,4(s2)
   122ac:	0007071b          	sext.w	a4,a4
   122b0:	00e7e533          	or	a0,a5,a4
   122b4:	1605a62f          	lr.w.aqrl	a2,(a1)
   122b8:	00e61663          	bne	a2,a4,122c4 <__bin_chunk+0x23c>
   122bc:	1ea5a82f          	sc.w.aqrl	a6,a0,(a1)
   122c0:	fe081ae3          	bnez	a6,122b4 <__bin_chunk+0x22c>
   122c4:	0006061b          	sext.w	a2,a2
   122c8:	fec710e3          	bne	a4,a2,122a8 <__bin_chunk+0x220>
   122cc:	f11ff06f          	j	121dc <__bin_chunk+0x154>
   122d0:	00092703          	lw	a4,0(s2)
   122d4:	0007071b          	sext.w	a4,a4
   122d8:	00e565b3          	or	a1,a0,a4
   122dc:	1609262f          	lr.w.aqrl	a2,(s2)
   122e0:	00e61663          	bne	a2,a4,122ec <__bin_chunk+0x264>
   122e4:	1eb9282f          	sc.w.aqrl	a6,a1,(s2)
   122e8:	fe081ae3          	bnez	a6,122dc <__bin_chunk+0x254>
   122ec:	0006061b          	sext.w	a2,a2
   122f0:	fec710e3          	bne	a4,a2,122d0 <__bin_chunk+0x248>
   122f4:	fa5ff06f          	j	12298 <__bin_chunk+0x210>

00000000000122f8 <trim>:
   122f8:	00853783          	ld	a5,8(a0)
   122fc:	00050713          	mv	a4,a0
   12300:	ffe7f793          	andi	a5,a5,-2
   12304:	ff078693          	addi	a3,a5,-16
   12308:	02d5f663          	bgeu	a1,a3,12334 <trim+0x3c>
   1230c:	00b50533          	add	a0,a0,a1
   12310:	0015e693          	ori	a3,a1,1
   12314:	40b785b3          	sub	a1,a5,a1
   12318:	0015e593          	ori	a1,a1,1
   1231c:	00d53023          	sd	a3,0(a0)
   12320:	00b53423          	sd	a1,8(a0)
   12324:	00f707b3          	add	a5,a4,a5
   12328:	00b7b023          	sd	a1,0(a5)
   1232c:	00d73423          	sd	a3,8(a4)
   12330:	d59ff06f          	j	12088 <__bin_chunk>
   12334:	00008067          	ret

0000000000012338 <malloc>:
   12338:	f9010113          	addi	sp,sp,-112
   1233c:	00a13423          	sd	a0,8(sp)
   12340:	00810513          	addi	a0,sp,8
   12344:	06113423          	sd	ra,104(sp)
   12348:	06813023          	sd	s0,96(sp)
   1234c:	04913c23          	sd	s1,88(sp)
   12350:	05213823          	sd	s2,80(sp)
   12354:	05313423          	sd	s3,72(sp)
   12358:	05413023          	sd	s4,64(sp)
   1235c:	03513c23          	sd	s5,56(sp)
   12360:	03613823          	sd	s6,48(sp)
   12364:	03713423          	sd	s7,40(sp)
   12368:	03813023          	sd	s8,32(sp)
   1236c:	98dff0ef          	jal	ra,11cf8 <adjust_size>
   12370:	02055e63          	bgez	a0,123ac <malloc+0x74>
   12374:	00000413          	li	s0,0
   12378:	06813083          	ld	ra,104(sp)
   1237c:	00040513          	mv	a0,s0
   12380:	06013403          	ld	s0,96(sp)
   12384:	05813483          	ld	s1,88(sp)
   12388:	05013903          	ld	s2,80(sp)
   1238c:	04813983          	ld	s3,72(sp)
   12390:	04013a03          	ld	s4,64(sp)
   12394:	03813a83          	ld	s5,56(sp)
   12398:	03013b03          	ld	s6,48(sp)
   1239c:	02813b83          	ld	s7,40(sp)
   123a0:	02013c03          	ld	s8,32(sp)
   123a4:	07010113          	addi	sp,sp,112
   123a8:	00008067          	ret
   123ac:	00813783          	ld	a5,8(sp)
   123b0:	00038737          	lui	a4,0x38
   123b4:	04f77a63          	bgeu	a4,a5,12408 <malloc+0xd0>
   123b8:	c001b583          	ld	a1,-1024(gp) # 1d400 <__libc+0x38>
   123bc:	02200693          	li	a3,34
   123c0:	fff00713          	li	a4,-1
   123c4:	00b78433          	add	s0,a5,a1
   123c8:	00f40413          	addi	s0,s0,15
   123cc:	40b005b3          	neg	a1,a1
   123d0:	00b47433          	and	s0,s0,a1
   123d4:	00000793          	li	a5,0
   123d8:	00300613          	li	a2,3
   123dc:	00040593          	mv	a1,s0
   123e0:	00000513          	li	a0,0
   123e4:	341000ef          	jal	ra,12f24 <__mmap>
   123e8:	fff00793          	li	a5,-1
   123ec:	f8f504e3          	beq	a0,a5,12374 <malloc+0x3c>
   123f0:	ff040413          	addi	s0,s0,-16
   123f4:	01000793          	li	a5,16
   123f8:	00853c23          	sd	s0,24(a0)
   123fc:	00f53823          	sd	a5,16(a0)
   12400:	02050413          	addi	s0,a0,32
   12404:	f75ff06f          	j	12378 <malloc+0x40>
   12408:	0057d793          	srli	a5,a5,0x5
   1240c:	fff78493          	addi	s1,a5,-1
   12410:	02000713          	li	a4,32
   12414:	06976263          	bltu	a4,s1,12478 <malloc+0x140>
   12418:	0004849b          	sext.w	s1,s1
   1241c:	9201bb03          	ld	s6,-1760(gp) # 1d120 <__SDATA_BEGIN__+0x18>
   12420:	fff00993          	li	s3,-1
   12424:	0001ba37          	lui	s4,0x1b
   12428:	009999b3          	sll	s3,s3,s1
   1242c:	cc818c13          	addi	s8,gp,-824 # 1d4c8 <mal>
   12430:	448a0a13          	addi	s4,s4,1096 # 1b448 <debruijn64.0>
   12434:	01800a93          	li	s5,24
   12438:	000c3783          	ld	a5,0(s8)
   1243c:	0137f733          	and	a4,a5,s3
   12440:	10071c63          	bnez	a4,12558 <malloc+0x220>
   12444:	00813783          	ld	a5,8(sp)
   12448:	9f018513          	addi	a0,gp,-1552 # 1d1f0 <heap_lock.2>
   1244c:	02078793          	addi	a5,a5,32
   12450:	00f13c23          	sd	a5,24(sp)
   12454:	905ff0ef          	jal	ra,11d58 <lock>
   12458:	01810513          	addi	a0,sp,24
   1245c:	32d020ef          	jal	ra,14f88 <__expand_heap>
   12460:	00050413          	mv	s0,a0
   12464:	00048513          	mv	a0,s1
   12468:	04041663          	bnez	s0,124b4 <malloc+0x17c>
   1246c:	9f018513          	addi	a0,gp,-1552 # 1d1f0 <heap_lock.2>
   12470:	9c1ff0ef          	jal	ra,11e30 <unlock>
   12474:	f05ff06f          	j	12378 <malloc+0x40>
   12478:	0001b737          	lui	a4,0x1b
   1247c:	ffe78793          	addi	a5,a5,-2
   12480:	1ff00693          	li	a3,511
   12484:	40870713          	addi	a4,a4,1032 # 1b408 <bin_tab>
   12488:	00f6ec63          	bltu	a3,a5,124a0 <malloc+0x168>
   1248c:	0037d793          	srli	a5,a5,0x3
   12490:	00f707b3          	add	a5,a4,a5
   12494:	ffc7c483          	lbu	s1,-4(a5)
   12498:	0014849b          	addiw	s1,s1,1
   1249c:	f81ff06f          	j	1241c <malloc+0xe4>
   124a0:	0077d793          	srli	a5,a5,0x7
   124a4:	00f707b3          	add	a5,a4,a5
   124a8:	ffc7c483          	lbu	s1,-4(a5)
   124ac:	0114849b          	addiw	s1,s1,17
   124b0:	f6dff06f          	j	1241c <malloc+0xe4>
   124b4:	9e81b483          	ld	s1,-1560(gp) # 1d1e8 <end.1>
   124b8:	9e818713          	addi	a4,gp,-1560 # 1d1e8 <end.1>
   124bc:	00940e63          	beq	s0,s1,124d8 <malloc+0x1a0>
   124c0:	01813783          	ld	a5,24(sp)
   124c4:	02040493          	addi	s1,s0,32
   124c8:	fe078793          	addi	a5,a5,-32
   124cc:	00f13c23          	sd	a5,24(sp)
   124d0:	00100793          	li	a5,1
   124d4:	00f43823          	sd	a5,16(s0)
   124d8:	01813783          	ld	a5,24(sp)
   124dc:	9f018513          	addi	a0,gp,-1552 # 1d1f0 <heap_lock.2>
   124e0:	ff048413          	addi	s0,s1,-16
   124e4:	00f486b3          	add	a3,s1,a5
   124e8:	00d73023          	sd	a3,0(a4)
   124ec:	0017e793          	ori	a5,a5,1
   124f0:	00100713          	li	a4,1
   124f4:	fef6b823          	sd	a5,-16(a3)
   124f8:	fee6bc23          	sd	a4,-8(a3)
   124fc:	fef4bc23          	sd	a5,-8(s1)
   12500:	931ff0ef          	jal	ra,11e30 <unlock>
   12504:	00040513          	mv	a0,s0
   12508:	a35ff0ef          	jal	ra,11f3c <alloc_rev>
   1250c:	02050c63          	beqz	a0,12544 <malloc+0x20c>
   12510:	ff04b783          	ld	a5,-16(s1)
   12514:	ff84b683          	ld	a3,-8(s1)
   12518:	ffe7f793          	andi	a5,a5,-2
   1251c:	40f407b3          	sub	a5,s0,a5
   12520:	0087b703          	ld	a4,8(a5)
   12524:	ffe77713          	andi	a4,a4,-2
   12528:	00d70733          	add	a4,a4,a3
   1252c:	00e7b423          	sd	a4,8(a5)
   12530:	ff84b503          	ld	a0,-8(s1)
   12534:	ffe57513          	andi	a0,a0,-2
   12538:	00a40433          	add	s0,s0,a0
   1253c:	00e43023          	sd	a4,0(s0)
   12540:	00078413          	mv	s0,a5
   12544:	00813583          	ld	a1,8(sp)
   12548:	00040513          	mv	a0,s0
   1254c:	01040413          	addi	s0,s0,16
   12550:	da9ff0ef          	jal	ra,122f8 <trim>
   12554:	e25ff06f          	j	12378 <malloc+0x40>
   12558:	40e007b3          	neg	a5,a4
   1255c:	00e7f7b3          	and	a5,a5,a4
   12560:	036787b3          	mul	a5,a5,s6
   12564:	03a7d793          	srli	a5,a5,0x3a
   12568:	00fa07b3          	add	a5,s4,a5
   1256c:	0007cb83          	lbu	s7,0(a5)
   12570:	000b891b          	sext.w	s2,s7
   12574:	00090513          	mv	a0,s2
   12578:	869ff0ef          	jal	ra,11de0 <lock_bin>
   1257c:	035907b3          	mul	a5,s2,s5
   12580:	00fc07b3          	add	a5,s8,a5
   12584:	0107b403          	ld	s0,16(a5)
   12588:	035b87b3          	mul	a5,s7,s5
   1258c:	00878b93          	addi	s7,a5,8
   12590:	00fc07b3          	add	a5,s8,a5
   12594:	017c0bb3          	add	s7,s8,s7
   12598:	0af40063          	beq	s0,a5,12638 <malloc+0x300>
   1259c:	02700793          	li	a5,39
   125a0:	0327d663          	bge	a5,s2,125cc <malloc+0x294>
   125a4:	0024849b          	addiw	s1,s1,2
   125a8:	00813983          	ld	s3,8(sp)
   125ac:	0324c863          	blt	s1,s2,125dc <malloc+0x2a4>
   125b0:	03f00793          	li	a5,63
   125b4:	00f91c63          	bne	s2,a5,125cc <malloc+0x294>
   125b8:	00843483          	ld	s1,8(s0)
   125bc:	000387b7          	lui	a5,0x38
   125c0:	ffe4f493          	andi	s1,s1,-2
   125c4:	41348733          	sub	a4,s1,s3
   125c8:	00e7ee63          	bltu	a5,a4,125e4 <malloc+0x2ac>
   125cc:	00090593          	mv	a1,s2
   125d0:	00040513          	mv	a0,s0
   125d4:	8adff0ef          	jal	ra,11e80 <unbin>
   125d8:	0540006f          	j	1262c <malloc+0x2f4>
   125dc:	00843483          	ld	s1,8(s0)
   125e0:	ffe4f493          	andi	s1,s1,-2
   125e4:	41348a33          	sub	s4,s1,s3
   125e8:	000a0513          	mv	a0,s4
   125ec:	ea8ff0ef          	jal	ra,11c94 <bin_index>
   125f0:	fca91ee3          	bne	s2,a0,125cc <malloc+0x294>
   125f4:	01843703          	ld	a4,24(s0)
   125f8:	01043683          	ld	a3,16(s0)
   125fc:	013407b3          	add	a5,s0,s3
   12600:	00e7bc23          	sd	a4,24(a5) # 38018 <__BSS_END__+0x1a368>
   12604:	00d7b823          	sd	a3,16(a5)
   12608:	00f73823          	sd	a5,16(a4)
   1260c:	0107b703          	ld	a4,16(a5)
   12610:	0019e993          	ori	s3,s3,1
   12614:	009404b3          	add	s1,s0,s1
   12618:	00f73c23          	sd	a5,24(a4)
   1261c:	0137b023          	sd	s3,0(a5)
   12620:	0147b423          	sd	s4,8(a5)
   12624:	0144b023          	sd	s4,0(s1)
   12628:	01343423          	sd	s3,8(s0)
   1262c:	000b8513          	mv	a0,s7
   12630:	801ff0ef          	jal	ra,11e30 <unlock>
   12634:	f11ff06f          	j	12544 <malloc+0x20c>
   12638:	000b8513          	mv	a0,s7
   1263c:	ff4ff0ef          	jal	ra,11e30 <unlock>
   12640:	df9ff06f          	j	12438 <malloc+0x100>

0000000000012644 <calloc>:
   12644:	fd010113          	addi	sp,sp,-48
   12648:	02113423          	sd	ra,40(sp)
   1264c:	02813023          	sd	s0,32(sp)
   12650:	00913c23          	sd	s1,24(sp)
   12654:	02058a63          	beqz	a1,12688 <calloc+0x44>
   12658:	02b537b3          	mulhu	a5,a0,a1
   1265c:	02078663          	beqz	a5,12688 <calloc+0x44>
   12660:	fc9fe0ef          	jal	ra,11628 <__errno_location>
   12664:	00c00793          	li	a5,12
   12668:	00f52023          	sw	a5,0(a0)
   1266c:	00000413          	li	s0,0
   12670:	02813083          	ld	ra,40(sp)
   12674:	00040513          	mv	a0,s0
   12678:	02013403          	ld	s0,32(sp)
   1267c:	01813483          	ld	s1,24(sp)
   12680:	03010113          	addi	sp,sp,48
   12684:	00008067          	ret
   12688:	02a58633          	mul	a2,a1,a0
   1268c:	00060513          	mv	a0,a2
   12690:	00c13423          	sd	a2,8(sp)
   12694:	ca5ff0ef          	jal	ra,12338 <malloc>
   12698:	00050413          	mv	s0,a0
   1269c:	fc050ae3          	beqz	a0,12670 <calloc+0x2c>
   126a0:	9e41a783          	lw	a5,-1564(gp) # 1d1e4 <__malloc_replaced>
   126a4:	00813603          	ld	a2,8(sp)
   126a8:	04079e63          	bnez	a5,12704 <calloc+0xc0>
   126ac:	ff853783          	ld	a5,-8(a0)
   126b0:	0017f793          	andi	a5,a5,1
   126b4:	fa078ee3          	beqz	a5,12670 <calloc+0x2c>
   126b8:	c001b483          	ld	s1,-1024(gp) # 1d400 <__libc+0x38>
   126bc:	04966463          	bltu	a2,s1,12704 <calloc+0xc0>
   126c0:	00c50533          	add	a0,a0,a2
   126c4:	fff48613          	addi	a2,s1,-1
   126c8:	00c57633          	and	a2,a0,a2
   126cc:	40c50533          	sub	a0,a0,a2
   126d0:	00000593          	li	a1,0
   126d4:	1b9010ef          	jal	ra,1408c <memset>
   126d8:	40850633          	sub	a2,a0,s0
   126dc:	02966463          	bltu	a2,s1,12704 <calloc+0xc0>
   126e0:	00048613          	mv	a2,s1
   126e4:	fe0604e3          	beqz	a2,126cc <calloc+0x88>
   126e8:	ff853783          	ld	a5,-8(a0)
   126ec:	ff053703          	ld	a4,-16(a0)
   126f0:	00e7e7b3          	or	a5,a5,a4
   126f4:	fc079ce3          	bnez	a5,126cc <calloc+0x88>
   126f8:	ff060613          	addi	a2,a2,-16
   126fc:	ff050513          	addi	a0,a0,-16
   12700:	fe5ff06f          	j	126e4 <calloc+0xa0>
   12704:	00040513          	mv	a0,s0
   12708:	02013403          	ld	s0,32(sp)
   1270c:	02813083          	ld	ra,40(sp)
   12710:	01813483          	ld	s1,24(sp)
   12714:	00000593          	li	a1,0
   12718:	03010113          	addi	sp,sp,48
   1271c:	1710106f          	j	1408c <memset>

0000000000012720 <free>:
   12720:	00050793          	mv	a5,a0
   12724:	02050e63          	beqz	a0,12760 <free+0x40>
   12728:	ff87b583          	ld	a1,-8(a5)
   1272c:	ff050513          	addi	a0,a0,-16
   12730:	0015f713          	andi	a4,a1,1
   12734:	02071463          	bnez	a4,1275c <free+0x3c>
   12738:	ff07b783          	ld	a5,-16(a5)
   1273c:	ffe5f593          	andi	a1,a1,-2
   12740:	40f50533          	sub	a0,a0,a5
   12744:	00f585b3          	add	a1,a1,a5
   12748:	0017f793          	andi	a5,a5,1
   1274c:	00078663          	beqz	a5,12758 <free+0x38>
   12750:	00000023          	sb	zero,0(zero) # 0 <exit-0x10120>
   12754:	00100073          	ebreak
   12758:	1290006f          	j	13080 <__munmap>
   1275c:	92dff06f          	j	12088 <__bin_chunk>
   12760:	00008067          	ret

0000000000012764 <realloc>:
   12764:	fa010113          	addi	sp,sp,-96
   12768:	04113c23          	sd	ra,88(sp)
   1276c:	04813823          	sd	s0,80(sp)
   12770:	04913423          	sd	s1,72(sp)
   12774:	05213023          	sd	s2,64(sp)
   12778:	03313c23          	sd	s3,56(sp)
   1277c:	03413823          	sd	s4,48(sp)
   12780:	03513423          	sd	s5,40(sp)
   12784:	03613023          	sd	s6,32(sp)
   12788:	01713c23          	sd	s7,24(sp)
   1278c:	00b13423          	sd	a1,8(sp)
   12790:	04051063          	bnez	a0,127d0 <realloc+0x6c>
   12794:	00058513          	mv	a0,a1
   12798:	ba1ff0ef          	jal	ra,12338 <malloc>
   1279c:	00050413          	mv	s0,a0
   127a0:	05813083          	ld	ra,88(sp)
   127a4:	00040513          	mv	a0,s0
   127a8:	05013403          	ld	s0,80(sp)
   127ac:	04813483          	ld	s1,72(sp)
   127b0:	04013903          	ld	s2,64(sp)
   127b4:	03813983          	ld	s3,56(sp)
   127b8:	03013a03          	ld	s4,48(sp)
   127bc:	02813a83          	ld	s5,40(sp)
   127c0:	02013b03          	ld	s6,32(sp)
   127c4:	01813b83          	ld	s7,24(sp)
   127c8:	06010113          	addi	sp,sp,96
   127cc:	00008067          	ret
   127d0:	00050413          	mv	s0,a0
   127d4:	00810513          	addi	a0,sp,8
   127d8:	d20ff0ef          	jal	ra,11cf8 <adjust_size>
   127dc:	00055663          	bgez	a0,127e8 <realloc+0x84>
   127e0:	00000413          	li	s0,0
   127e4:	fbdff06f          	j	127a0 <realloc+0x3c>
   127e8:	ff843783          	ld	a5,-8(s0)
   127ec:	ff040b13          	addi	s6,s0,-16
   127f0:	0017f713          	andi	a4,a5,1
   127f4:	ffe7f993          	andi	s3,a5,-2
   127f8:	0a071a63          	bnez	a4,128ac <realloc+0x148>
   127fc:	ff043a03          	ld	s4,-16(s0)
   12800:	00813503          	ld	a0,8(sp)
   12804:	001a7793          	andi	a5,s4,1
   12808:	014985b3          	add	a1,s3,s4
   1280c:	01450bb3          	add	s7,a0,s4
   12810:	00078663          	beqz	a5,1281c <realloc+0xb8>
   12814:	00000023          	sb	zero,0(zero) # 0 <exit-0x10120>
   12818:	00100073          	ebreak
   1281c:	bc818713          	addi	a4,gp,-1080 # 1d3c8 <__libc>
   12820:	03873703          	ld	a4,56(a4)
   12824:	bc818a93          	addi	s5,gp,-1080 # 1d3c8 <__libc>
   12828:	04ebf063          	bgeu	s7,a4,12868 <realloc+0x104>
   1282c:	ff050513          	addi	a0,a0,-16
   12830:	00b13023          	sd	a1,0(sp)
   12834:	b05ff0ef          	jal	ra,12338 <malloc>
   12838:	00013583          	ld	a1,0(sp)
   1283c:	00050913          	mv	s2,a0
   12840:	02050463          	beqz	a0,12868 <realloc+0x104>
   12844:	00813983          	ld	s3,8(sp)
   12848:	00040593          	mv	a1,s0
   1284c:	ff098613          	addi	a2,s3,-16
   12850:	00090513          	mv	a0,s2
   12854:	3f4010ef          	jal	ra,13c48 <memcpy>
   12858:	00040513          	mv	a0,s0
   1285c:	ec5ff0ef          	jal	ra,12720 <free>
   12860:	00090413          	mv	s0,s2
   12864:	f3dff06f          	j	127a0 <realloc+0x3c>
   12868:	038ab603          	ld	a2,56(s5)
   1286c:	fff60493          	addi	s1,a2,-1
   12870:	017484b3          	add	s1,s1,s7
   12874:	40c00633          	neg	a2,a2
   12878:	009674b3          	and	s1,a2,s1
   1287c:	f29582e3          	beq	a1,s1,127a0 <realloc+0x3c>
   12880:	00100693          	li	a3,1
   12884:	00048613          	mv	a2,s1
   12888:	414b0533          	sub	a0,s6,s4
   1288c:	764000ef          	jal	ra,12ff0 <__mremap>
   12890:	fff00793          	li	a5,-1
   12894:	06f50663          	beq	a0,a5,12900 <realloc+0x19c>
   12898:	01450433          	add	s0,a0,s4
   1289c:	414484b3          	sub	s1,s1,s4
   128a0:	00943423          	sd	s1,8(s0)
   128a4:	01040413          	addi	s0,s0,16
   128a8:	ef9ff06f          	j	127a0 <realloc+0x3c>
   128ac:	013b04b3          	add	s1,s6,s3
   128b0:	0004b703          	ld	a4,0(s1)
   128b4:	f6e790e3          	bne	a5,a4,12814 <realloc+0xb0>
   128b8:	00813783          	ld	a5,8(sp)
   128bc:	00098913          	mv	s2,s3
   128c0:	02f9f063          	bgeu	s3,a5,128e0 <realloc+0x17c>
   128c4:	00048513          	mv	a0,s1
   128c8:	f1cff0ef          	jal	ra,11fe4 <alloc_fwd>
   128cc:	00050a63          	beqz	a0,128e0 <realloc+0x17c>
   128d0:	0084b783          	ld	a5,8(s1)
   128d4:	ffe7f793          	andi	a5,a5,-2
   128d8:	01378933          	add	s2,a5,s3
   128dc:	00f484b3          	add	s1,s1,a5
   128e0:	00196793          	ori	a5,s2,1
   128e4:	00813583          	ld	a1,8(sp)
   128e8:	fef43c23          	sd	a5,-8(s0)
   128ec:	00f4b023          	sd	a5,0(s1)
   128f0:	00b96863          	bltu	s2,a1,12900 <realloc+0x19c>
   128f4:	000b0513          	mv	a0,s6
   128f8:	a01ff0ef          	jal	ra,122f8 <trim>
   128fc:	ea5ff06f          	j	127a0 <realloc+0x3c>
   12900:	00813503          	ld	a0,8(sp)
   12904:	ff050513          	addi	a0,a0,-16
   12908:	a31ff0ef          	jal	ra,12338 <malloc>
   1290c:	00050913          	mv	s2,a0
   12910:	f2051ce3          	bnez	a0,12848 <realloc+0xe4>
   12914:	ecdff06f          	j	127e0 <realloc+0x7c>

0000000000012918 <__malloc_donate>:
   12918:	ff000793          	li	a5,-16
   1291c:	40a787b3          	sub	a5,a5,a0
   12920:	01f5f713          	andi	a4,a1,31
   12924:	01f7f793          	andi	a5,a5,31
   12928:	01070713          	addi	a4,a4,16
   1292c:	40a586b3          	sub	a3,a1,a0
   12930:	00f70733          	add	a4,a4,a5
   12934:	02d77a63          	bgeu	a4,a3,12968 <__malloc_donate+0x50>
   12938:	fe05f593          	andi	a1,a1,-32
   1293c:	00100693          	li	a3,1
   12940:	01078713          	addi	a4,a5,16
   12944:	00e50733          	add	a4,a0,a4
   12948:	fed5bc23          	sd	a3,-8(a1)
   1294c:	fed73823          	sd	a3,-16(a4)
   12950:	40e586b3          	sub	a3,a1,a4
   12954:	0016e693          	ori	a3,a3,1
   12958:	fed5b823          	sd	a3,-16(a1)
   1295c:	fed73c23          	sd	a3,-8(a4)
   12960:	00f50533          	add	a0,a0,a5
   12964:	f24ff06f          	j	12088 <__bin_chunk>
   12968:	00008067          	ret

000000000001296c <copysign>:
   1296c:	f20507d3          	fmv.d.x	fa5,a0
   12970:	f2058753          	fmv.d.x	fa4,a1
   12974:	22e787d3          	fsgnj.d	fa5,fa5,fa4
   12978:	e2078553          	fmv.x.d	a0,fa5
   1297c:	00008067          	ret

0000000000012980 <copysignf>:
   12980:	f00507d3          	fmv.w.x	fa5,a0
   12984:	f0058753          	fmv.w.x	fa4,a1
   12988:	20e787d3          	fsgnj.s	fa5,fa5,fa4
   1298c:	e0078553          	fmv.x.w	a0,fa5
   12990:	00008067          	ret

0000000000012994 <scalbn>:
   12994:	3ff00713          	li	a4,1023
   12998:	f20507d3          	fmv.d.x	fa5,a0
   1299c:	04b75063          	bge	a4,a1,129dc <scalbn+0x48>
   129a0:	9081b707          	fld	fa4,-1784(gp) # 1d108 <__SDATA_BEGIN__>
   129a4:	c015879b          	addiw	a5,a1,-1023
   129a8:	12e7f7d3          	fmul.d	fa5,fa5,fa4
   129ac:	00f75c63          	bge	a4,a5,129c4 <scalbn+0x30>
   129b0:	8025869b          	addiw	a3,a1,-2046
   129b4:	12e7f7d3          	fmul.d	fa5,fa5,fa4
   129b8:	00068793          	mv	a5,a3
   129bc:	00d75463          	bge	a4,a3,129c4 <scalbn+0x30>
   129c0:	3ff00793          	li	a5,1023
   129c4:	3ff7879b          	addiw	a5,a5,1023
   129c8:	03479793          	slli	a5,a5,0x34
   129cc:	f2078753          	fmv.d.x	fa4,a5
   129d0:	12e7f7d3          	fmul.d	fa5,fa5,fa4
   129d4:	e2078553          	fmv.x.d	a0,fa5
   129d8:	00008067          	ret
   129dc:	c0200713          	li	a4,-1022
   129e0:	00058793          	mv	a5,a1
   129e4:	fee5d0e3          	bge	a1,a4,129c4 <scalbn+0x30>
   129e8:	9281b707          	fld	fa4,-1752(gp) # 1d128 <__SDATA_BEGIN__+0x20>
   129ec:	3c95879b          	addiw	a5,a1,969
   129f0:	12e7f7d3          	fmul.d	fa5,fa5,fa4
   129f4:	fce7d8e3          	bge	a5,a4,129c4 <scalbn+0x30>
   129f8:	7925869b          	addiw	a3,a1,1938
   129fc:	12e7f7d3          	fmul.d	fa5,fa5,fa4
   12a00:	00068793          	mv	a5,a3
   12a04:	fce6d0e3          	bge	a3,a4,129c4 <scalbn+0x30>
   12a08:	c0200793          	li	a5,-1022
   12a0c:	fb9ff06f          	j	129c4 <scalbn+0x30>

0000000000012a10 <__getopt_msg>:
   12a10:	fc010113          	addi	sp,sp,-64
   12a14:	01513423          	sd	s5,8(sp)
   12a18:	00050a93          	mv	s5,a0
   12a1c:	00058513          	mv	a0,a1
   12a20:	02813823          	sd	s0,48(sp)
   12a24:	02913423          	sd	s1,40(sp)
   12a28:	03213023          	sd	s2,32(sp)
   12a2c:	01313c23          	sd	s3,24(sp)
   12a30:	01413823          	sd	s4,16(sp)
   12a34:	02113c23          	sd	ra,56(sp)
   12a38:	00060a13          	mv	s4,a2
   12a3c:	00068913          	mv	s2,a3
   12a40:	0001d437          	lui	s0,0x1d
   12a44:	db5fe0ef          	jal	ra,117f8 <__lctrans_cur>
   12a48:	00040793          	mv	a5,s0
   12a4c:	08c7a783          	lw	a5,140(a5)
   12a50:	00050993          	mv	s3,a0
   12a54:	00000493          	li	s1,0
   12a58:	0007879b          	sext.w	a5,a5
   12a5c:	0007c863          	bltz	a5,12a6c <__getopt_msg+0x5c>
   12a60:	00040513          	mv	a0,s0
   12a64:	2a1000ef          	jal	ra,13504 <__lockfile>
   12a68:	00050493          	mv	s1,a0
   12a6c:	00040593          	mv	a1,s0
   12a70:	000a8513          	mv	a0,s5
   12a74:	3c5000ef          	jal	ra,13638 <fputs>
   12a78:	04054463          	bltz	a0,12ac0 <__getopt_msg+0xb0>
   12a7c:	00098513          	mv	a0,s3
   12a80:	7cc010ef          	jal	ra,1424c <strlen>
   12a84:	00050593          	mv	a1,a0
   12a88:	00040693          	mv	a3,s0
   12a8c:	00100613          	li	a2,1
   12a90:	00098513          	mv	a0,s3
   12a94:	505000ef          	jal	ra,13798 <fwrite>
   12a98:	02050463          	beqz	a0,12ac0 <__getopt_msg+0xb0>
   12a9c:	00040693          	mv	a3,s0
   12aa0:	00090613          	mv	a2,s2
   12aa4:	00100593          	li	a1,1
   12aa8:	000a0513          	mv	a0,s4
   12aac:	4ed000ef          	jal	ra,13798 <fwrite>
   12ab0:	01251863          	bne	a0,s2,12ac0 <__getopt_msg+0xb0>
   12ab4:	00040593          	mv	a1,s0
   12ab8:	00a00513          	li	a0,10
   12abc:	67d000ef          	jal	ra,13938 <putc>
   12ac0:	02048663          	beqz	s1,12aec <__getopt_msg+0xdc>
   12ac4:	00040513          	mv	a0,s0
   12ac8:	03013403          	ld	s0,48(sp)
   12acc:	03813083          	ld	ra,56(sp)
   12ad0:	02813483          	ld	s1,40(sp)
   12ad4:	02013903          	ld	s2,32(sp)
   12ad8:	01813983          	ld	s3,24(sp)
   12adc:	01013a03          	ld	s4,16(sp)
   12ae0:	00813a83          	ld	s5,8(sp)
   12ae4:	04010113          	addi	sp,sp,64
   12ae8:	2f10006f          	j	135d8 <__unlockfile>
   12aec:	03813083          	ld	ra,56(sp)
   12af0:	03013403          	ld	s0,48(sp)
   12af4:	02813483          	ld	s1,40(sp)
   12af8:	02013903          	ld	s2,32(sp)
   12afc:	01813983          	ld	s3,24(sp)
   12b00:	01013a03          	ld	s4,16(sp)
   12b04:	00813a83          	ld	s5,8(sp)
   12b08:	04010113          	addi	sp,sp,64
   12b0c:	00008067          	ret

0000000000012b10 <getopt>:
   12b10:	fa010113          	addi	sp,sp,-96
   12b14:	04813823          	sd	s0,80(sp)
   12b18:	98c1a703          	lw	a4,-1652(gp) # 1d18c <optind>
   12b1c:	04913423          	sd	s1,72(sp)
   12b20:	03413823          	sd	s4,48(sp)
   12b24:	03513423          	sd	s5,40(sp)
   12b28:	04113c23          	sd	ra,88(sp)
   12b2c:	05213023          	sd	s2,64(sp)
   12b30:	03313c23          	sd	s3,56(sp)
   12b34:	03613023          	sd	s6,32(sp)
   12b38:	00050a93          	mv	s5,a0
   12b3c:	00058a13          	mv	s4,a1
   12b40:	00060493          	mv	s1,a2
   12b44:	98c18413          	addi	s0,gp,-1652 # 1d18c <optind>
   12b48:	9fc18793          	addi	a5,gp,-1540 # 1d1fc <__optreset>
   12b4c:	00070663          	beqz	a4,12b58 <getopt+0x48>
   12b50:	0007a703          	lw	a4,0(a5)
   12b54:	00070a63          	beqz	a4,12b68 <getopt+0x58>
   12b58:	0007a023          	sw	zero,0(a5)
   12b5c:	9e01ac23          	sw	zero,-1544(gp) # 1d1f8 <__optpos>
   12b60:	00100793          	li	a5,1
   12b64:	00f42023          	sw	a5,0(s0) # 1d000 <__stderr_FILE>
   12b68:	00042783          	lw	a5,0(s0)
   12b6c:	fff00513          	li	a0,-1
   12b70:	0357dc63          	bge	a5,s5,12ba8 <getopt+0x98>
   12b74:	00379713          	slli	a4,a5,0x3
   12b78:	00ea0733          	add	a4,s4,a4
   12b7c:	00073703          	ld	a4,0(a4)
   12b80:	02070463          	beqz	a4,12ba8 <getopt+0x98>
   12b84:	00074683          	lbu	a3,0(a4)
   12b88:	02d00613          	li	a2,45
   12b8c:	04c68263          	beq	a3,a2,12bd0 <getopt+0xc0>
   12b90:	0004c683          	lbu	a3,0(s1)
   12b94:	00c69a63          	bne	a3,a2,12ba8 <getopt+0x98>
   12b98:	0017879b          	addiw	a5,a5,1
   12b9c:	00f42023          	sw	a5,0(s0)
   12ba0:	a0e1b023          	sd	a4,-1536(gp) # 1d200 <optarg>
   12ba4:	00100513          	li	a0,1
   12ba8:	05813083          	ld	ra,88(sp)
   12bac:	05013403          	ld	s0,80(sp)
   12bb0:	04813483          	ld	s1,72(sp)
   12bb4:	04013903          	ld	s2,64(sp)
   12bb8:	03813983          	ld	s3,56(sp)
   12bbc:	03013a03          	ld	s4,48(sp)
   12bc0:	02813a83          	ld	s5,40(sp)
   12bc4:	02013b03          	ld	s6,32(sp)
   12bc8:	06010113          	addi	sp,sp,96
   12bcc:	00008067          	ret
   12bd0:	00174603          	lbu	a2,1(a4)
   12bd4:	fff00513          	li	a0,-1
   12bd8:	fc0608e3          	beqz	a2,12ba8 <getopt+0x98>
   12bdc:	00d61c63          	bne	a2,a3,12bf4 <getopt+0xe4>
   12be0:	00274683          	lbu	a3,2(a4)
   12be4:	00069863          	bnez	a3,12bf4 <getopt+0xe4>
   12be8:	0017879b          	addiw	a5,a5,1
   12bec:	00f42023          	sw	a5,0(s0)
   12bf0:	fb9ff06f          	j	12ba8 <getopt+0x98>
   12bf4:	9f81a783          	lw	a5,-1544(gp) # 1d1f8 <__optpos>
   12bf8:	9f818913          	addi	s2,gp,-1544 # 1d1f8 <__optpos>
   12bfc:	00079663          	bnez	a5,12c08 <getopt+0xf8>
   12c00:	00100793          	li	a5,1
   12c04:	00f92023          	sw	a5,0(s2)
   12c08:	00092583          	lw	a1,0(s2)
   12c0c:	00400613          	li	a2,4
   12c10:	01810513          	addi	a0,sp,24
   12c14:	00b705b3          	add	a1,a4,a1
   12c18:	4a0000ef          	jal	ra,130b8 <mbtowc>
   12c1c:	00050693          	mv	a3,a0
   12c20:	00055a63          	bgez	a0,12c34 <getopt+0x124>
   12c24:	000107b7          	lui	a5,0x10
   12c28:	ffd78793          	addi	a5,a5,-3 # fffd <exit-0x123>
   12c2c:	00f12c23          	sw	a5,24(sp)
   12c30:	00100693          	li	a3,1
   12c34:	00042703          	lw	a4,0(s0)
   12c38:	00371793          	slli	a5,a4,0x3
   12c3c:	00fa07b3          	add	a5,s4,a5
   12c40:	0007b603          	ld	a2,0(a5)
   12c44:	00092783          	lw	a5,0(s2)
   12c48:	00d785bb          	addw	a1,a5,a3
   12c4c:	00f60b33          	add	s6,a2,a5
   12c50:	00b92023          	sw	a1,0(s2)
   12c54:	00b60633          	add	a2,a2,a1
   12c58:	00064783          	lbu	a5,0(a2)
   12c5c:	00079863          	bnez	a5,12c6c <getopt+0x15c>
   12c60:	0017071b          	addiw	a4,a4,1
   12c64:	00e42023          	sw	a4,0(s0)
   12c68:	00092023          	sw	zero,0(s2)
   12c6c:	0004c783          	lbu	a5,0(s1)
   12c70:	fd57879b          	addiw	a5,a5,-43
   12c74:	0fd7f793          	andi	a5,a5,253
   12c78:	00079463          	bnez	a5,12c80 <getopt+0x170>
   12c7c:	00148493          	addi	s1,s1,1
   12c80:	00012e23          	sw	zero,28(sp)
   12c84:	00000993          	li	s3,0
   12c88:	00400613          	li	a2,4
   12c8c:	013485b3          	add	a1,s1,s3
   12c90:	01c10513          	addi	a0,sp,28
   12c94:	00d13423          	sd	a3,8(sp)
   12c98:	420000ef          	jal	ra,130b8 <mbtowc>
   12c9c:	01c12783          	lw	a5,28(sp)
   12ca0:	00813683          	ld	a3,8(sp)
   12ca4:	00a05c63          	blez	a0,12cbc <getopt+0x1ac>
   12ca8:	00a989bb          	addw	s3,s3,a0
   12cac:	01812603          	lw	a2,24(sp)
   12cb0:	0007871b          	sext.w	a4,a5
   12cb4:	fcc71ae3          	bne	a4,a2,12c88 <getopt+0x178>
   12cb8:	00c0006f          	j	12cc4 <getopt+0x1b4>
   12cbc:	0019899b          	addiw	s3,s3,1
   12cc0:	fe0516e3          	bnez	a0,12cac <getopt+0x19c>
   12cc4:	01812503          	lw	a0,24(sp)
   12cc8:	0007879b          	sext.w	a5,a5
   12ccc:	00a79663          	bne	a5,a0,12cd8 <getopt+0x1c8>
   12cd0:	03a00793          	li	a5,58
   12cd4:	02f51e63          	bne	a0,a5,12d10 <getopt+0x200>
   12cd8:	a0a1a423          	sw	a0,-1528(gp) # 1d208 <optopt>
   12cdc:	0004c703          	lbu	a4,0(s1)
   12ce0:	03a00793          	li	a5,58
   12ce4:	00f71663          	bne	a4,a5,12cf0 <getopt+0x1e0>
   12ce8:	03f00513          	li	a0,63
   12cec:	ebdff06f          	j	12ba8 <getopt+0x98>
   12cf0:	9881a783          	lw	a5,-1656(gp) # 1d188 <opterr>
   12cf4:	fe078ae3          	beqz	a5,12ce8 <getopt+0x1d8>
   12cf8:	0001b5b7          	lui	a1,0x1b
   12cfc:	000b0613          	mv	a2,s6
   12d00:	48858593          	addi	a1,a1,1160 # 1b488 <debruijn64.0+0x40>
   12d04:	000a3503          	ld	a0,0(s4)
   12d08:	d09ff0ef          	jal	ra,12a10 <__getopt_msg>
   12d0c:	fddff06f          	j	12ce8 <getopt+0x1d8>
   12d10:	013489b3          	add	s3,s1,s3
   12d14:	0009c583          	lbu	a1,0(s3)
   12d18:	e8f598e3          	bne	a1,a5,12ba8 <getopt+0x98>
   12d1c:	a001b023          	sd	zero,-1536(gp) # 1d200 <optarg>
   12d20:	0019c803          	lbu	a6,1(s3)
   12d24:	00092603          	lw	a2,0(s2)
   12d28:	a0018713          	addi	a4,gp,-1536 # 1d200 <optarg>
   12d2c:	00b81463          	bne	a6,a1,12d34 <getopt+0x224>
   12d30:	02060463          	beqz	a2,12d58 <getopt+0x248>
   12d34:	00042783          	lw	a5,0(s0)
   12d38:	0017859b          	addiw	a1,a5,1
   12d3c:	00379793          	slli	a5,a5,0x3
   12d40:	00fa07b3          	add	a5,s4,a5
   12d44:	0007b783          	ld	a5,0(a5)
   12d48:	00b42023          	sw	a1,0(s0)
   12d4c:	00092023          	sw	zero,0(s2)
   12d50:	00c787b3          	add	a5,a5,a2
   12d54:	00f73023          	sd	a5,0(a4)
   12d58:	00042783          	lw	a5,0(s0)
   12d5c:	e4fad6e3          	bge	s5,a5,12ba8 <getopt+0x98>
   12d60:	a0a1a423          	sw	a0,-1528(gp) # 1d208 <optopt>
   12d64:	0004c703          	lbu	a4,0(s1)
   12d68:	03a00793          	li	a5,58
   12d6c:	03a00513          	li	a0,58
   12d70:	e2f70ce3          	beq	a4,a5,12ba8 <getopt+0x98>
   12d74:	9881a783          	lw	a5,-1656(gp) # 1d188 <opterr>
   12d78:	f60788e3          	beqz	a5,12ce8 <getopt+0x1d8>
   12d7c:	0001b5b7          	lui	a1,0x1b
   12d80:	000b0613          	mv	a2,s6
   12d84:	4a058593          	addi	a1,a1,1184 # 1b4a0 <debruijn64.0+0x58>
   12d88:	f7dff06f          	j	12d04 <getopt+0x1f4>

0000000000012d8c <getrlimit>:
   12d8c:	fd010113          	addi	sp,sp,-48
   12d90:	00913c23          	sd	s1,24(sp)
   12d94:	01213823          	sd	s2,16(sp)
   12d98:	00058493          	mv	s1,a1
   12d9c:	00050913          	mv	s2,a0
   12da0:	02113423          	sd	ra,40(sp)
   12da4:	02813023          	sd	s0,32(sp)
   12da8:	10500893          	li	a7,261
   12dac:	00000513          	li	a0,0
   12db0:	00090593          	mv	a1,s2
   12db4:	00000613          	li	a2,0
   12db8:	00048693          	mv	a3,s1
   12dbc:	00000073          	ecall
   12dc0:	9d5fe0ef          	jal	ra,11794 <__syscall_ret>
   12dc4:	0005041b          	sext.w	s0,a0
   12dc8:	02041263          	bnez	s0,12dec <getrlimit+0x60>
   12dcc:	00000413          	li	s0,0
   12dd0:	02813083          	ld	ra,40(sp)
   12dd4:	00040513          	mv	a0,s0
   12dd8:	02013403          	ld	s0,32(sp)
   12ddc:	01813483          	ld	s1,24(sp)
   12de0:	01013903          	ld	s2,16(sp)
   12de4:	03010113          	addi	sp,sp,48
   12de8:	00008067          	ret
   12dec:	83dfe0ef          	jal	ra,11628 <__errno_location>
   12df0:	00052703          	lw	a4,0(a0)
   12df4:	02600793          	li	a5,38
   12df8:	fcf71ce3          	bne	a4,a5,12dd0 <getrlimit+0x44>
   12dfc:	0a300893          	li	a7,163
   12e00:	00090513          	mv	a0,s2
   12e04:	00010593          	mv	a1,sp
   12e08:	00000073          	ecall
   12e0c:	989fe0ef          	jal	ra,11794 <__syscall_ret>
   12e10:	fff00413          	li	s0,-1
   12e14:	fa054ee3          	bltz	a0,12dd0 <getrlimit+0x44>
   12e18:	00013783          	ld	a5,0(sp)
   12e1c:	00f4b023          	sd	a5,0(s1)
   12e20:	00813783          	ld	a5,8(sp)
   12e24:	00f4b423          	sd	a5,8(s1)
   12e28:	fa5ff06f          	j	12dcc <getrlimit+0x40>

0000000000012e2c <do_setrlimit>:
   12e2c:	00c52783          	lw	a5,12(a0)
   12e30:	06f04863          	bgtz	a5,12ea0 <do_setrlimit+0x74>
   12e34:	00053603          	ld	a2,0(a0)
   12e38:	00852583          	lw	a1,8(a0)
   12e3c:	00050713          	mv	a4,a0
   12e40:	10500893          	li	a7,261
   12e44:	00000513          	li	a0,0
   12e48:	00000693          	li	a3,0
   12e4c:	00000073          	ecall
   12e50:	fda00693          	li	a3,-38
   12e54:	0005079b          	sext.w	a5,a0
   12e58:	02d79e63          	bne	a5,a3,12e94 <do_setrlimit+0x68>
   12e5c:	00063783          	ld	a5,0(a2)
   12e60:	ff010113          	addi	sp,sp,-16
   12e64:	00058513          	mv	a0,a1
   12e68:	00f13023          	sd	a5,0(sp)
   12e6c:	00863783          	ld	a5,8(a2)
   12e70:	0a400893          	li	a7,164
   12e74:	00010593          	mv	a1,sp
   12e78:	00f13423          	sd	a5,8(sp)
   12e7c:	00000073          	ecall
   12e80:	0005079b          	sext.w	a5,a0
   12e84:	40f007bb          	negw	a5,a5
   12e88:	00f72623          	sw	a5,12(a4)
   12e8c:	01010113          	addi	sp,sp,16
   12e90:	00008067          	ret
   12e94:	40f007bb          	negw	a5,a5
   12e98:	00f72623          	sw	a5,12(a4)
   12e9c:	00008067          	ret
   12ea0:	00008067          	ret

0000000000012ea4 <setrlimit>:
   12ea4:	fe010113          	addi	sp,sp,-32
   12ea8:	00a12423          	sw	a0,8(sp)
   12eac:	00013537          	lui	a0,0x13
   12eb0:	00b13023          	sd	a1,0(sp)
   12eb4:	fff00793          	li	a5,-1
   12eb8:	00010593          	mv	a1,sp
   12ebc:	e2c50513          	addi	a0,a0,-468 # 12e2c <do_setrlimit>
   12ec0:	00813823          	sd	s0,16(sp)
   12ec4:	00113c23          	sd	ra,24(sp)
   12ec8:	00f12623          	sw	a5,12(sp)
   12ecc:	7d8010ef          	jal	ra,146a4 <__synccall>
   12ed0:	00c12403          	lw	s0,12(sp)
   12ed4:	00040a63          	beqz	s0,12ee8 <setrlimit+0x44>
   12ed8:	00805663          	blez	s0,12ee4 <setrlimit+0x40>
   12edc:	f4cfe0ef          	jal	ra,11628 <__errno_location>
   12ee0:	00852023          	sw	s0,0(a0)
   12ee4:	fff00413          	li	s0,-1
   12ee8:	01813083          	ld	ra,24(sp)
   12eec:	00040513          	mv	a0,s0
   12ef0:	01013403          	ld	s0,16(sp)
   12ef4:	02010113          	addi	sp,sp,32
   12ef8:	00008067          	ret

0000000000012efc <__madvise>:
   12efc:	ff010113          	addi	sp,sp,-16
   12f00:	00113423          	sd	ra,8(sp)
   12f04:	0e900893          	li	a7,233
   12f08:	00000073          	ecall
   12f0c:	889fe0ef          	jal	ra,11794 <__syscall_ret>
   12f10:	00813083          	ld	ra,8(sp)
   12f14:	0005051b          	sext.w	a0,a0
   12f18:	01010113          	addi	sp,sp,16
   12f1c:	00008067          	ret

0000000000012f20 <__vm_wait>:
   12f20:	00008067          	ret

0000000000012f24 <__mmap>:
   12f24:	fc010113          	addi	sp,sp,-64
   12f28:	02813823          	sd	s0,48(sp)
   12f2c:	02113c23          	sd	ra,56(sp)
   12f30:	00068413          	mv	s0,a3
   12f34:	02913423          	sd	s1,40(sp)
   12f38:	03479693          	slli	a3,a5,0x34
   12f3c:	02068463          	beqz	a3,12f64 <__mmap+0x40>
   12f40:	ee8fe0ef          	jal	ra,11628 <__errno_location>
   12f44:	01600793          	li	a5,22
   12f48:	03813083          	ld	ra,56(sp)
   12f4c:	03013403          	ld	s0,48(sp)
   12f50:	00f52023          	sw	a5,0(a0)
   12f54:	02813483          	ld	s1,40(sp)
   12f58:	fff00513          	li	a0,-1
   12f5c:	04010113          	addi	sp,sp,64
   12f60:	00008067          	ret
   12f64:	ffd00693          	li	a3,-3
   12f68:	0016d693          	srli	a3,a3,0x1
   12f6c:	00b6f863          	bgeu	a3,a1,12f7c <__mmap+0x58>
   12f70:	eb8fe0ef          	jal	ra,11628 <__errno_location>
   12f74:	00c00793          	li	a5,12
   12f78:	fd1ff06f          	j	12f48 <__mmap+0x24>
   12f7c:	01047693          	andi	a3,s0,16
   12f80:	00050493          	mv	s1,a0
   12f84:	02068463          	beqz	a3,12fac <__mmap+0x88>
   12f88:	00f13c23          	sd	a5,24(sp)
   12f8c:	00e13823          	sd	a4,16(sp)
   12f90:	00c13423          	sd	a2,8(sp)
   12f94:	00b13023          	sd	a1,0(sp)
   12f98:	f89ff0ef          	jal	ra,12f20 <__vm_wait>
   12f9c:	01813783          	ld	a5,24(sp)
   12fa0:	01013703          	ld	a4,16(sp)
   12fa4:	00813603          	ld	a2,8(sp)
   12fa8:	00013583          	ld	a1,0(sp)
   12fac:	0de00893          	li	a7,222
   12fb0:	00048513          	mv	a0,s1
   12fb4:	00040693          	mv	a3,s0
   12fb8:	00000073          	ecall
   12fbc:	fff00793          	li	a5,-1
   12fc0:	00f51c63          	bne	a0,a5,12fd8 <__mmap+0xb4>
   12fc4:	00049a63          	bnez	s1,12fd8 <__mmap+0xb4>
   12fc8:	03047413          	andi	s0,s0,48
   12fcc:	02000793          	li	a5,32
   12fd0:	00f41463          	bne	s0,a5,12fd8 <__mmap+0xb4>
   12fd4:	ff400513          	li	a0,-12
   12fd8:	03013403          	ld	s0,48(sp)
   12fdc:	03813083          	ld	ra,56(sp)
   12fe0:	02813483          	ld	s1,40(sp)
   12fe4:	04010113          	addi	sp,sp,64
   12fe8:	facfe06f          	j	11794 <__syscall_ret>

0000000000012fec <dummy>:
   12fec:	00008067          	ret

0000000000012ff0 <__mremap>:
   12ff0:	fa010113          	addi	sp,sp,-96
   12ff4:	04f13423          	sd	a5,72(sp)
   12ff8:	ffd00793          	li	a5,-3
   12ffc:	02113c23          	sd	ra,56(sp)
   13000:	04e13023          	sd	a4,64(sp)
   13004:	05013823          	sd	a6,80(sp)
   13008:	05113c23          	sd	a7,88(sp)
   1300c:	0017d793          	srli	a5,a5,0x1
   13010:	02c7f063          	bgeu	a5,a2,13030 <__mremap+0x40>
   13014:	e14fe0ef          	jal	ra,11628 <__errno_location>
   13018:	00c00793          	li	a5,12
   1301c:	00f52023          	sw	a5,0(a0)
   13020:	fff00513          	li	a0,-1
   13024:	03813083          	ld	ra,56(sp)
   13028:	06010113          	addi	sp,sp,96
   1302c:	00008067          	ret
   13030:	0026f793          	andi	a5,a3,2
   13034:	00000713          	li	a4,0
   13038:	02078a63          	beqz	a5,1306c <__mremap+0x7c>
   1303c:	00d13c23          	sd	a3,24(sp)
   13040:	00c13823          	sd	a2,16(sp)
   13044:	00b13423          	sd	a1,8(sp)
   13048:	00a13023          	sd	a0,0(sp)
   1304c:	ed5ff0ef          	jal	ra,12f20 <__vm_wait>
   13050:	04013703          	ld	a4,64(sp)
   13054:	01813683          	ld	a3,24(sp)
   13058:	01013603          	ld	a2,16(sp)
   1305c:	00813583          	ld	a1,8(sp)
   13060:	00013503          	ld	a0,0(sp)
   13064:	04010793          	addi	a5,sp,64
   13068:	02f13423          	sd	a5,40(sp)
   1306c:	0d800893          	li	a7,216
   13070:	00000073          	ecall
   13074:	f20fe0ef          	jal	ra,11794 <__syscall_ret>
   13078:	fadff06f          	j	13024 <__mremap+0x34>

000000000001307c <dummy>:
   1307c:	00008067          	ret

0000000000013080 <__munmap>:
   13080:	fe010113          	addi	sp,sp,-32
   13084:	00113c23          	sd	ra,24(sp)
   13088:	00a13423          	sd	a0,8(sp)
   1308c:	00b13023          	sd	a1,0(sp)
   13090:	e91ff0ef          	jal	ra,12f20 <__vm_wait>
   13094:	00813503          	ld	a0,8(sp)
   13098:	00013583          	ld	a1,0(sp)
   1309c:	0d700893          	li	a7,215
   130a0:	00000073          	ecall
   130a4:	ef0fe0ef          	jal	ra,11794 <__syscall_ret>
   130a8:	01813083          	ld	ra,24(sp)
   130ac:	0005051b          	sext.w	a0,a0
   130b0:	02010113          	addi	sp,sp,32
   130b4:	00008067          	ret

00000000000130b8 <mbtowc>:
   130b8:	14058c63          	beqz	a1,13210 <mbtowc+0x158>
   130bc:	fe010113          	addi	sp,sp,-32
   130c0:	00113c23          	sd	ra,24(sp)
   130c4:	12060c63          	beqz	a2,131fc <mbtowc+0x144>
   130c8:	00051463          	bnez	a0,130d0 <mbtowc+0x18>
   130cc:	00c10513          	addi	a0,sp,12
   130d0:	0005c783          	lbu	a5,0(a1)
   130d4:	0187971b          	slliw	a4,a5,0x18
   130d8:	4187571b          	sraiw	a4,a4,0x18
   130dc:	00074e63          	bltz	a4,130f8 <mbtowc+0x40>
   130e0:	0007879b          	sext.w	a5,a5
   130e4:	00f52023          	sw	a5,0(a0)
   130e8:	00f03533          	snez	a0,a5
   130ec:	01813083          	ld	ra,24(sp)
   130f0:	02010113          	addi	sp,sp,32
   130f4:	00008067          	ret
   130f8:	00020693          	mv	a3,tp
   130fc:	fd06b683          	ld	a3,-48(a3)
   13100:	0006b683          	ld	a3,0(a3)
   13104:	00069e63          	bnez	a3,13120 <mbtowc+0x68>
   13108:	0000e7b7          	lui	a5,0xe
   1310c:	fff78793          	addi	a5,a5,-1 # dfff <exit-0x2121>
   13110:	00f77733          	and	a4,a4,a5
   13114:	00e52023          	sw	a4,0(a0)
   13118:	00100513          	li	a0,1
   1311c:	fd1ff06f          	j	130ec <mbtowc+0x34>
   13120:	f3e7879b          	addiw	a5,a5,-194
   13124:	0007869b          	sext.w	a3,a5
   13128:	03200713          	li	a4,50
   1312c:	0cd76863          	bltu	a4,a3,131fc <mbtowc+0x144>
   13130:	0001b737          	lui	a4,0x1b
   13134:	02079793          	slli	a5,a5,0x20
   13138:	7d070713          	addi	a4,a4,2000 # 1b7d0 <__fsmu8>
   1313c:	01e7d793          	srli	a5,a5,0x1e
   13140:	00f707b3          	add	a5,a4,a5
   13144:	0007a703          	lw	a4,0(a5)
   13148:	00300793          	li	a5,3
   1314c:	00c7ec63          	bltu	a5,a2,13164 <mbtowc+0xac>
   13150:	00600793          	li	a5,6
   13154:	02c787bb          	mulw	a5,a5,a2
   13158:	ffa7879b          	addiw	a5,a5,-6
   1315c:	00f717bb          	sllw	a5,a4,a5
   13160:	0807ce63          	bltz	a5,131fc <mbtowc+0x144>
   13164:	0015c783          	lbu	a5,1(a1)
   13168:	41a7569b          	sraiw	a3,a4,0x1a
   1316c:	0037d61b          	srliw	a2,a5,0x3
   13170:	00c686bb          	addw	a3,a3,a2
   13174:	ff06061b          	addiw	a2,a2,-16
   13178:	00c6e6b3          	or	a3,a3,a2
   1317c:	ff86f693          	andi	a3,a3,-8
   13180:	0006869b          	sext.w	a3,a3
   13184:	06069c63          	bnez	a3,131fc <mbtowc+0x144>
   13188:	0067169b          	slliw	a3,a4,0x6
   1318c:	f807871b          	addiw	a4,a5,-128
   13190:	00d76733          	or	a4,a4,a3
   13194:	0007069b          	sext.w	a3,a4
   13198:	0006c863          	bltz	a3,131a8 <mbtowc+0xf0>
   1319c:	00d52023          	sw	a3,0(a0)
   131a0:	00200513          	li	a0,2
   131a4:	f49ff06f          	j	130ec <mbtowc+0x34>
   131a8:	0025c783          	lbu	a5,2(a1)
   131ac:	03f00613          	li	a2,63
   131b0:	f807879b          	addiw	a5,a5,-128
   131b4:	0007871b          	sext.w	a4,a5
   131b8:	04e66263          	bltu	a2,a4,131fc <mbtowc+0x144>
   131bc:	0066971b          	slliw	a4,a3,0x6
   131c0:	00e7e7b3          	or	a5,a5,a4
   131c4:	0007871b          	sext.w	a4,a5
   131c8:	00074863          	bltz	a4,131d8 <mbtowc+0x120>
   131cc:	00e52023          	sw	a4,0(a0)
   131d0:	00300513          	li	a0,3
   131d4:	f19ff06f          	j	130ec <mbtowc+0x34>
   131d8:	0035c783          	lbu	a5,3(a1)
   131dc:	f807869b          	addiw	a3,a5,-128
   131e0:	0006879b          	sext.w	a5,a3
   131e4:	00f66c63          	bltu	a2,a5,131fc <mbtowc+0x144>
   131e8:	0067179b          	slliw	a5,a4,0x6
   131ec:	00d7e7b3          	or	a5,a5,a3
   131f0:	00f52023          	sw	a5,0(a0)
   131f4:	00400513          	li	a0,4
   131f8:	ef5ff06f          	j	130ec <mbtowc+0x34>
   131fc:	c2cfe0ef          	jal	ra,11628 <__errno_location>
   13200:	05400793          	li	a5,84
   13204:	00f52023          	sw	a5,0(a0)
   13208:	fff00513          	li	a0,-1
   1320c:	ee1ff06f          	j	130ec <mbtowc+0x34>
   13210:	00000513          	li	a0,0
   13214:	00008067          	ret

0000000000013218 <execv>:
   13218:	a301b603          	ld	a2,-1488(gp) # 1d230 <__environ>
   1321c:	0040006f          	j	13220 <execve>

0000000000013220 <execve>:
   13220:	ff010113          	addi	sp,sp,-16
   13224:	00113423          	sd	ra,8(sp)
   13228:	0dd00893          	li	a7,221
   1322c:	00000073          	ecall
   13230:	d64fe0ef          	jal	ra,11794 <__syscall_ret>
   13234:	00813083          	ld	ra,8(sp)
   13238:	0005051b          	sext.w	a0,a0
   1323c:	01010113          	addi	sp,sp,16
   13240:	00008067          	ret

0000000000013244 <__fork_handler>:
   13244:	00008067          	ret

0000000000013248 <fork>:
   13248:	f7010113          	addi	sp,sp,-144
   1324c:	fff00513          	li	a0,-1
   13250:	08113423          	sd	ra,136(sp)
   13254:	08813023          	sd	s0,128(sp)
   13258:	fedff0ef          	jal	ra,13244 <__fork_handler>
   1325c:	00010513          	mv	a0,sp
   13260:	0b4000ef          	jal	ra,13314 <__block_all_sigs>
   13264:	0dc00893          	li	a7,220
   13268:	01100513          	li	a0,17
   1326c:	00000593          	li	a1,0
   13270:	00000073          	ecall
   13274:	0005041b          	sext.w	s0,a0
   13278:	02041a63          	bnez	s0,132ac <fork+0x64>
   1327c:	00020793          	mv	a5,tp
   13280:	0b200893          	li	a7,178
   13284:	f2078713          	addi	a4,a5,-224
   13288:	00000073          	ecall
   1328c:	fc07b023          	sd	zero,-64(a5)
   13290:	f4a7ac23          	sw	a0,-168(a5)
   13294:	fa07bc23          	sd	zero,-72(a5)
   13298:	f2e7b823          	sd	a4,-208(a5)
   1329c:	f2e7bc23          	sd	a4,-200(a5)
   132a0:	a201ac23          	sw	zero,-1480(gp) # 1d238 <__thread_list_lock>
   132a4:	bc818793          	addi	a5,gp,-1080 # 1d3c8 <__libc>
   132a8:	0007a623          	sw	zero,12(a5)
   132ac:	00010513          	mv	a0,sp
   132b0:	09c000ef          	jal	ra,1334c <__restore_sigs>
   132b4:	00143513          	seqz	a0,s0
   132b8:	f8dff0ef          	jal	ra,13244 <__fork_handler>
   132bc:	00040513          	mv	a0,s0
   132c0:	cd4fe0ef          	jal	ra,11794 <__syscall_ret>
   132c4:	08813083          	ld	ra,136(sp)
   132c8:	08013403          	ld	s0,128(sp)
   132cc:	0005051b          	sext.w	a0,a0
   132d0:	09010113          	addi	sp,sp,144
   132d4:	00008067          	ret

00000000000132d8 <waitpid>:
   132d8:	ff010113          	addi	sp,sp,-16
   132dc:	00060693          	mv	a3,a2
   132e0:	00000813          	li	a6,0
   132e4:	00058613          	mv	a2,a1
   132e8:	00000793          	li	a5,0
   132ec:	00050593          	mv	a1,a0
   132f0:	00000713          	li	a4,0
   132f4:	10400513          	li	a0,260
   132f8:	00113423          	sd	ra,8(sp)
   132fc:	1ac010ef          	jal	ra,144a8 <__syscall_cp>
   13300:	c94fe0ef          	jal	ra,11794 <__syscall_ret>
   13304:	00813083          	ld	ra,8(sp)
   13308:	0005051b          	sext.w	a0,a0
   1330c:	01010113          	addi	sp,sp,16
   13310:	00008067          	ret

0000000000013314 <__block_all_sigs>:
   13314:	00050613          	mv	a2,a0
   13318:	08700893          	li	a7,135
   1331c:	00000513          	li	a0,0
   13320:	96018593          	addi	a1,gp,-1696 # 1d160 <all_mask>
   13324:	00800693          	li	a3,8
   13328:	00000073          	ecall
   1332c:	00008067          	ret

0000000000013330 <__block_app_sigs>:
   13330:	00050613          	mv	a2,a0
   13334:	08700893          	li	a7,135
   13338:	00000513          	li	a0,0
   1333c:	96818593          	addi	a1,gp,-1688 # 1d168 <app_mask>
   13340:	00800693          	li	a3,8
   13344:	00000073          	ecall
   13348:	00008067          	ret

000000000001334c <__restore_sigs>:
   1334c:	00050593          	mv	a1,a0
   13350:	08700893          	li	a7,135
   13354:	00200513          	li	a0,2
   13358:	00000613          	li	a2,0
   1335c:	00800693          	li	a3,8
   13360:	00000073          	ecall
   13364:	00008067          	ret

0000000000013368 <kill>:
   13368:	ff010113          	addi	sp,sp,-16
   1336c:	00113423          	sd	ra,8(sp)
   13370:	08100893          	li	a7,129
   13374:	00000073          	ecall
   13378:	c1cfe0ef          	jal	ra,11794 <__syscall_ret>
   1337c:	00813083          	ld	ra,8(sp)
   13380:	0005051b          	sext.w	a0,a0
   13384:	01010113          	addi	sp,sp,16
   13388:	00008067          	ret

000000000001338c <sigaddset>:
   1338c:	fff5871b          	addiw	a4,a1,-1
   13390:	03f00793          	li	a5,63
   13394:	00e7e863          	bltu	a5,a4,133a4 <sigaddset+0x18>
   13398:	fe05859b          	addiw	a1,a1,-32
   1339c:	00200793          	li	a5,2
   133a0:	02b7e463          	bltu	a5,a1,133c8 <sigaddset+0x3c>
   133a4:	ff010113          	addi	sp,sp,-16
   133a8:	00113423          	sd	ra,8(sp)
   133ac:	a7cfe0ef          	jal	ra,11628 <__errno_location>
   133b0:	00813083          	ld	ra,8(sp)
   133b4:	01600793          	li	a5,22
   133b8:	00f52023          	sw	a5,0(a0)
   133bc:	fff00513          	li	a0,-1
   133c0:	01010113          	addi	sp,sp,16
   133c4:	00008067          	ret
   133c8:	00100793          	li	a5,1
   133cc:	00e79733          	sll	a4,a5,a4
   133d0:	00053783          	ld	a5,0(a0)
   133d4:	00e7e7b3          	or	a5,a5,a4
   133d8:	00f53023          	sd	a5,0(a0)
   133dc:	00000513          	li	a0,0
   133e0:	00008067          	ret

00000000000133e4 <sigemptyset>:
   133e4:	00053023          	sd	zero,0(a0)
   133e8:	00000513          	li	a0,0
   133ec:	00008067          	ret

00000000000133f0 <signal>:
   133f0:	eb010113          	addi	sp,sp,-336
   133f4:	14813023          	sd	s0,320(sp)
   133f8:	12913c23          	sd	s1,312(sp)
   133fc:	00050413          	mv	s0,a0
   13400:	00058493          	mv	s1,a1
   13404:	09000613          	li	a2,144
   13408:	00000593          	li	a1,0
   1340c:	0a010513          	addi	a0,sp,160
   13410:	14113423          	sd	ra,328(sp)
   13414:	479000ef          	jal	ra,1408c <memset>
   13418:	100007b7          	lui	a5,0x10000
   1341c:	00010613          	mv	a2,sp
   13420:	09810593          	addi	a1,sp,152
   13424:	00040513          	mv	a0,s0
   13428:	08913c23          	sd	s1,152(sp)
   1342c:	12f12023          	sw	a5,288(sp)
   13430:	6e1010ef          	jal	ra,15310 <__sigaction>
   13434:	00054e63          	bltz	a0,13450 <signal+0x60>
   13438:	00013503          	ld	a0,0(sp)
   1343c:	14813083          	ld	ra,328(sp)
   13440:	14013403          	ld	s0,320(sp)
   13444:	13813483          	ld	s1,312(sp)
   13448:	15010113          	addi	sp,sp,336
   1344c:	00008067          	ret
   13450:	fff00513          	li	a0,-1
   13454:	fe9ff06f          	j	1343c <signal+0x4c>

0000000000013458 <sigprocmask>:
   13458:	ff010113          	addi	sp,sp,-16
   1345c:	00813023          	sd	s0,0(sp)
   13460:	00113423          	sd	ra,8(sp)
   13464:	164010ef          	jal	ra,145c8 <pthread_sigmask>
   13468:	00050413          	mv	s0,a0
   1346c:	00050863          	beqz	a0,1347c <sigprocmask+0x24>
   13470:	9b8fe0ef          	jal	ra,11628 <__errno_location>
   13474:	00852023          	sw	s0,0(a0)
   13478:	fff00413          	li	s0,-1
   1347c:	00813083          	ld	ra,8(sp)
   13480:	00040513          	mv	a0,s0
   13484:	00013403          	ld	s0,0(sp)
   13488:	01010113          	addi	sp,sp,16
   1348c:	00008067          	ret

0000000000013490 <sigtimedwait>:
   13490:	fd010113          	addi	sp,sp,-48
   13494:	02813023          	sd	s0,32(sp)
   13498:	00913c23          	sd	s1,24(sp)
   1349c:	01213823          	sd	s2,16(sp)
   134a0:	01313423          	sd	s3,8(sp)
   134a4:	02113423          	sd	ra,40(sp)
   134a8:	00050413          	mv	s0,a0
   134ac:	00058493          	mv	s1,a1
   134b0:	00060913          	mv	s2,a2
   134b4:	ffc00993          	li	s3,-4
   134b8:	00000813          	li	a6,0
   134bc:	00000793          	li	a5,0
   134c0:	00800713          	li	a4,8
   134c4:	00090693          	mv	a3,s2
   134c8:	00048613          	mv	a2,s1
   134cc:	00040593          	mv	a1,s0
   134d0:	08900513          	li	a0,137
   134d4:	7d5000ef          	jal	ra,144a8 <__syscall_cp>
   134d8:	0005051b          	sext.w	a0,a0
   134dc:	fd350ee3          	beq	a0,s3,134b8 <sigtimedwait+0x28>
   134e0:	ab4fe0ef          	jal	ra,11794 <__syscall_ret>
   134e4:	02813083          	ld	ra,40(sp)
   134e8:	02013403          	ld	s0,32(sp)
   134ec:	01813483          	ld	s1,24(sp)
   134f0:	01013903          	ld	s2,16(sp)
   134f4:	00813983          	ld	s3,8(sp)
   134f8:	0005051b          	sext.w	a0,a0
   134fc:	03010113          	addi	sp,sp,48
   13500:	00008067          	ret

0000000000013504 <__lockfile>:
   13504:	08c52783          	lw	a5,140(a0)
   13508:	0007879b          	sext.w	a5,a5
   1350c:	00020713          	mv	a4,tp
   13510:	c00006b7          	lui	a3,0xc0000
   13514:	f5872703          	lw	a4,-168(a4)
   13518:	fff68693          	addi	a3,a3,-1 # ffffffffbfffffff <__BSS_END__+0xffffffffbffe234f>
   1351c:	00d7f7b3          	and	a5,a5,a3
   13520:	0ae78863          	beq	a5,a4,135d0 <__lockfile+0xcc>
   13524:	08c50793          	addi	a5,a0,140
   13528:	00000613          	li	a2,0
   1352c:	1607a6af          	lr.w.aqrl	a3,(a5)
   13530:	00c69663          	bne	a3,a2,1353c <__lockfile+0x38>
   13534:	1ee7a5af          	sc.w.aqrl	a1,a4,(a5)
   13538:	fe059ae3          	bnez	a1,1352c <__lockfile+0x28>
   1353c:	0006869b          	sext.w	a3,a3
   13540:	02068863          	beqz	a3,13570 <__lockfile+0x6c>
   13544:	40000837          	lui	a6,0x40000
   13548:	01076733          	or	a4,a4,a6
   1354c:	00000313          	li	t1,0
   13550:	0007071b          	sext.w	a4,a4
   13554:	fda00e13          	li	t3,-38
   13558:	1607a6af          	lr.w.aqrl	a3,(a5)
   1355c:	00669663          	bne	a3,t1,13568 <__lockfile+0x64>
   13560:	1ee7a62f          	sc.w.aqrl	a2,a4,(a5)
   13564:	fe061ae3          	bnez	a2,13558 <__lockfile+0x54>
   13568:	0006869b          	sext.w	a3,a3
   1356c:	00069663          	bnez	a3,13578 <__lockfile+0x74>
   13570:	00100513          	li	a0,1
   13574:	00008067          	ret
   13578:	0106f5b3          	and	a1,a3,a6
   1357c:	0106e633          	or	a2,a3,a6
   13580:	0005859b          	sext.w	a1,a1
   13584:	0006061b          	sext.w	a2,a2
   13588:	02058663          	beqz	a1,135b4 <__lockfile+0xb0>
   1358c:	06200893          	li	a7,98
   13590:	00078513          	mv	a0,a5
   13594:	08000593          	li	a1,128
   13598:	00000693          	li	a3,0
   1359c:	00000073          	ecall
   135a0:	fbc51ce3          	bne	a0,t3,13558 <__lockfile+0x54>
   135a4:	00078513          	mv	a0,a5
   135a8:	00000593          	li	a1,0
   135ac:	00000073          	ecall
   135b0:	fa9ff06f          	j	13558 <__lockfile+0x54>
   135b4:	1607a5af          	lr.w.aqrl	a1,(a5)
   135b8:	00d59663          	bne	a1,a3,135c4 <__lockfile+0xc0>
   135bc:	1ec7a52f          	sc.w.aqrl	a0,a2,(a5)
   135c0:	fe051ae3          	bnez	a0,135b4 <__lockfile+0xb0>
   135c4:	0005859b          	sext.w	a1,a1
   135c8:	f8d598e3          	bne	a1,a3,13558 <__lockfile+0x54>
   135cc:	fc1ff06f          	j	1358c <__lockfile+0x88>
   135d0:	00000513          	li	a0,0
   135d4:	00008067          	ret

00000000000135d8 <__unlockfile>:
   135d8:	08c50713          	addi	a4,a0,140
   135dc:	00000613          	li	a2,0
   135e0:	08c52783          	lw	a5,140(a0)
   135e4:	0007879b          	sext.w	a5,a5
   135e8:	160726af          	lr.w.aqrl	a3,(a4)
   135ec:	00f69663          	bne	a3,a5,135f8 <__unlockfile+0x20>
   135f0:	1ec725af          	sc.w.aqrl	a1,a2,(a4)
   135f4:	fe059ae3          	bnez	a1,135e8 <__unlockfile+0x10>
   135f8:	0006869b          	sext.w	a3,a3
   135fc:	fed792e3          	bne	a5,a3,135e0 <__unlockfile+0x8>
   13600:	01e7d793          	srli	a5,a5,0x1e
   13604:	0017f793          	andi	a5,a5,1
   13608:	02078663          	beqz	a5,13634 <__unlockfile+0x5c>
   1360c:	06200893          	li	a7,98
   13610:	00070513          	mv	a0,a4
   13614:	08100593          	li	a1,129
   13618:	00100613          	li	a2,1
   1361c:	00000073          	ecall
   13620:	fda00793          	li	a5,-38
   13624:	00f51863          	bne	a0,a5,13634 <__unlockfile+0x5c>
   13628:	00070513          	mv	a0,a4
   1362c:	00100593          	li	a1,1
   13630:	00000073          	ecall
   13634:	00008067          	ret

0000000000013638 <fputs>:
   13638:	fd010113          	addi	sp,sp,-48
   1363c:	02113423          	sd	ra,40(sp)
   13640:	02813023          	sd	s0,32(sp)
   13644:	00913c23          	sd	s1,24(sp)
   13648:	00b13423          	sd	a1,8(sp)
   1364c:	00050493          	mv	s1,a0
   13650:	3fd000ef          	jal	ra,1424c <strlen>
   13654:	00813683          	ld	a3,8(sp)
   13658:	00050413          	mv	s0,a0
   1365c:	00050613          	mv	a2,a0
   13660:	00100593          	li	a1,1
   13664:	00048513          	mv	a0,s1
   13668:	130000ef          	jal	ra,13798 <fwrite>
   1366c:	02813083          	ld	ra,40(sp)
   13670:	40850533          	sub	a0,a0,s0
   13674:	02013403          	ld	s0,32(sp)
   13678:	00a03533          	snez	a0,a0
   1367c:	01813483          	ld	s1,24(sp)
   13680:	40a00533          	neg	a0,a0
   13684:	03010113          	addi	sp,sp,48
   13688:	00008067          	ret

000000000001368c <__fwritex>:
   1368c:	02063783          	ld	a5,32(a2)
   13690:	fd010113          	addi	sp,sp,-48
   13694:	02813023          	sd	s0,32(sp)
   13698:	01213823          	sd	s2,16(sp)
   1369c:	01313423          	sd	s3,8(sp)
   136a0:	02113423          	sd	ra,40(sp)
   136a4:	00913c23          	sd	s1,24(sp)
   136a8:	00050993          	mv	s3,a0
   136ac:	00058913          	mv	s2,a1
   136b0:	00060413          	mv	s0,a2
   136b4:	04078063          	beqz	a5,136f4 <__fwritex+0x68>
   136b8:	02043783          	ld	a5,32(s0)
   136bc:	02843703          	ld	a4,40(s0)
   136c0:	40e787b3          	sub	a5,a5,a4
   136c4:	0527f263          	bgeu	a5,s2,13708 <__fwritex+0x7c>
   136c8:	04843783          	ld	a5,72(s0)
   136cc:	00040513          	mv	a0,s0
   136d0:	02013403          	ld	s0,32(sp)
   136d4:	02813083          	ld	ra,40(sp)
   136d8:	01813483          	ld	s1,24(sp)
   136dc:	00090613          	mv	a2,s2
   136e0:	00098593          	mv	a1,s3
   136e4:	01013903          	ld	s2,16(sp)
   136e8:	00813983          	ld	s3,8(sp)
   136ec:	03010113          	addi	sp,sp,48
   136f0:	00078067          	jr	a5 # 10000000 <__BSS_END__+0xffe2350>
   136f4:	00060513          	mv	a0,a2
   136f8:	629010ef          	jal	ra,15520 <__towrite>
   136fc:	fa050ee3          	beqz	a0,136b8 <__fwritex+0x2c>
   13700:	00000513          	li	a0,0
   13704:	0340006f          	j	13738 <__fwritex+0xac>
   13708:	09042783          	lw	a5,144(s0)
   1370c:	00090493          	mv	s1,s2
   13710:	00a00713          	li	a4,10
   13714:	0407d263          	bgez	a5,13758 <__fwritex+0xcc>
   13718:	02843503          	ld	a0,40(s0)
   1371c:	00048613          	mv	a2,s1
   13720:	00098593          	mv	a1,s3
   13724:	524000ef          	jal	ra,13c48 <memcpy>
   13728:	02843603          	ld	a2,40(s0)
   1372c:	00090513          	mv	a0,s2
   13730:	009604b3          	add	s1,a2,s1
   13734:	02943423          	sd	s1,40(s0)
   13738:	02813083          	ld	ra,40(sp)
   1373c:	02013403          	ld	s0,32(sp)
   13740:	01813483          	ld	s1,24(sp)
   13744:	01013903          	ld	s2,16(sp)
   13748:	00813983          	ld	s3,8(sp)
   1374c:	03010113          	addi	sp,sp,48
   13750:	00008067          	ret
   13754:	00078493          	mv	s1,a5
   13758:	02048c63          	beqz	s1,13790 <__fwritex+0x104>
   1375c:	fff48793          	addi	a5,s1,-1
   13760:	00f986b3          	add	a3,s3,a5
   13764:	0006c683          	lbu	a3,0(a3)
   13768:	fee696e3          	bne	a3,a4,13754 <__fwritex+0xc8>
   1376c:	04843783          	ld	a5,72(s0)
   13770:	00048613          	mv	a2,s1
   13774:	00098593          	mv	a1,s3
   13778:	00040513          	mv	a0,s0
   1377c:	000780e7          	jalr	a5
   13780:	fa956ce3          	bltu	a0,s1,13738 <__fwritex+0xac>
   13784:	009989b3          	add	s3,s3,s1
   13788:	409904b3          	sub	s1,s2,s1
   1378c:	f8dff06f          	j	13718 <__fwritex+0x8c>
   13790:	00090493          	mv	s1,s2
   13794:	f85ff06f          	j	13718 <__fwritex+0x8c>

0000000000013798 <fwrite>:
   13798:	fc010113          	addi	sp,sp,-64
   1379c:	02813823          	sd	s0,48(sp)
   137a0:	02913423          	sd	s1,40(sp)
   137a4:	03213023          	sd	s2,32(sp)
   137a8:	01313c23          	sd	s3,24(sp)
   137ac:	01513423          	sd	s5,8(sp)
   137b0:	02113c23          	sd	ra,56(sp)
   137b4:	01413823          	sd	s4,16(sp)
   137b8:	02c58ab3          	mul	s5,a1,a2
   137bc:	00050993          	mv	s3,a0
   137c0:	00058913          	mv	s2,a1
   137c4:	00068493          	mv	s1,a3
   137c8:	00000413          	li	s0,0
   137cc:	00058463          	beqz	a1,137d4 <fwrite+0x3c>
   137d0:	00060413          	mv	s0,a2
   137d4:	08c4a783          	lw	a5,140(s1)
   137d8:	00000a13          	li	s4,0
   137dc:	0007879b          	sext.w	a5,a5
   137e0:	0007c863          	bltz	a5,137f0 <fwrite+0x58>
   137e4:	00048513          	mv	a0,s1
   137e8:	d1dff0ef          	jal	ra,13504 <__lockfile>
   137ec:	00050a13          	mv	s4,a0
   137f0:	00098513          	mv	a0,s3
   137f4:	00048613          	mv	a2,s1
   137f8:	000a8593          	mv	a1,s5
   137fc:	e91ff0ef          	jal	ra,1368c <__fwritex>
   13800:	00050993          	mv	s3,a0
   13804:	000a0663          	beqz	s4,13810 <fwrite+0x78>
   13808:	00048513          	mv	a0,s1
   1380c:	dcdff0ef          	jal	ra,135d8 <__unlockfile>
   13810:	013a8463          	beq	s5,s3,13818 <fwrite+0x80>
   13814:	0329d433          	divu	s0,s3,s2
   13818:	03813083          	ld	ra,56(sp)
   1381c:	00040513          	mv	a0,s0
   13820:	03013403          	ld	s0,48(sp)
   13824:	02813483          	ld	s1,40(sp)
   13828:	02013903          	ld	s2,32(sp)
   1382c:	01813983          	ld	s3,24(sp)
   13830:	01013a03          	ld	s4,16(sp)
   13834:	00813a83          	ld	s5,8(sp)
   13838:	04010113          	addi	sp,sp,64
   1383c:	00008067          	ret

0000000000013840 <locking_putc>:
   13840:	fe010113          	addi	sp,sp,-32
   13844:	400007b7          	lui	a5,0x40000
   13848:	00813823          	sd	s0,16(sp)
   1384c:	00913423          	sd	s1,8(sp)
   13850:	01213023          	sd	s2,0(sp)
   13854:	00113c23          	sd	ra,24(sp)
   13858:	00050913          	mv	s2,a0
   1385c:	00058413          	mv	s0,a1
   13860:	08c58493          	addi	s1,a1,140
   13864:	00000693          	li	a3,0
   13868:	fff78793          	addi	a5,a5,-1 # 3fffffff <__BSS_END__+0x3ffe234f>
   1386c:	1604a72f          	lr.w.aqrl	a4,(s1)
   13870:	00d71663          	bne	a4,a3,1387c <locking_putc+0x3c>
   13874:	1ef4a62f          	sc.w.aqrl	a2,a5,(s1)
   13878:	fe061ae3          	bnez	a2,1386c <locking_putc+0x2c>
   1387c:	0007079b          	sext.w	a5,a4
   13880:	00078663          	beqz	a5,1388c <locking_putc+0x4c>
   13884:	00058513          	mv	a0,a1
   13888:	c7dff0ef          	jal	ra,13504 <__lockfile>
   1388c:	09042783          	lw	a5,144(s0)
   13890:	0ff97713          	andi	a4,s2,255
   13894:	08e78863          	beq	a5,a4,13924 <locking_putc+0xe4>
   13898:	02843783          	ld	a5,40(s0)
   1389c:	02043683          	ld	a3,32(s0)
   138a0:	08d78263          	beq	a5,a3,13924 <locking_putc+0xe4>
   138a4:	00178693          	addi	a3,a5,1
   138a8:	02d43423          	sd	a3,40(s0)
   138ac:	01278023          	sb	s2,0(a5)
   138b0:	00000613          	li	a2,0
   138b4:	08c42783          	lw	a5,140(s0)
   138b8:	0007879b          	sext.w	a5,a5
   138bc:	1604a6af          	lr.w.aqrl	a3,(s1)
   138c0:	00f69663          	bne	a3,a5,138cc <locking_putc+0x8c>
   138c4:	1ec4a5af          	sc.w.aqrl	a1,a2,(s1)
   138c8:	fe059ae3          	bnez	a1,138bc <locking_putc+0x7c>
   138cc:	0006869b          	sext.w	a3,a3
   138d0:	fed792e3          	bne	a5,a3,138b4 <locking_putc+0x74>
   138d4:	01e7d793          	srli	a5,a5,0x1e
   138d8:	0017f793          	andi	a5,a5,1
   138dc:	02078663          	beqz	a5,13908 <locking_putc+0xc8>
   138e0:	06200893          	li	a7,98
   138e4:	00048513          	mv	a0,s1
   138e8:	08100593          	li	a1,129
   138ec:	00100613          	li	a2,1
   138f0:	00000073          	ecall
   138f4:	fda00793          	li	a5,-38
   138f8:	00f51863          	bne	a0,a5,13908 <locking_putc+0xc8>
   138fc:	00048513          	mv	a0,s1
   13900:	00100593          	li	a1,1
   13904:	00000073          	ecall
   13908:	01813083          	ld	ra,24(sp)
   1390c:	01013403          	ld	s0,16(sp)
   13910:	00813483          	ld	s1,8(sp)
   13914:	00013903          	ld	s2,0(sp)
   13918:	00070513          	mv	a0,a4
   1391c:	02010113          	addi	sp,sp,32
   13920:	00008067          	ret
   13924:	00070593          	mv	a1,a4
   13928:	00040513          	mv	a0,s0
   1392c:	225010ef          	jal	ra,15350 <__overflow>
   13930:	00050713          	mv	a4,a0
   13934:	f7dff06f          	j	138b0 <locking_putc+0x70>

0000000000013938 <putc>:
   13938:	08c5a703          	lw	a4,140(a1)
   1393c:	00058793          	mv	a5,a1
   13940:	0007071b          	sext.w	a4,a4
   13944:	02074063          	bltz	a4,13964 <putc+0x2c>
   13948:	02070e63          	beqz	a4,13984 <putc+0x4c>
   1394c:	00020693          	mv	a3,tp
   13950:	f586a603          	lw	a2,-168(a3)
   13954:	c00006b7          	lui	a3,0xc0000
   13958:	fff68693          	addi	a3,a3,-1 # ffffffffbfffffff <__BSS_END__+0xffffffffbffe234f>
   1395c:	00d77733          	and	a4,a4,a3
   13960:	02e61263          	bne	a2,a4,13984 <putc+0x4c>
   13964:	0907a703          	lw	a4,144(a5)
   13968:	0ff57593          	andi	a1,a0,255
   1396c:	00b70863          	beq	a4,a1,1397c <putc+0x44>
   13970:	0287b703          	ld	a4,40(a5)
   13974:	0207b683          	ld	a3,32(a5)
   13978:	00d71a63          	bne	a4,a3,1398c <putc+0x54>
   1397c:	00078513          	mv	a0,a5
   13980:	1d10106f          	j	15350 <__overflow>
   13984:	00078593          	mv	a1,a5
   13988:	eb9ff06f          	j	13840 <locking_putc>
   1398c:	00170693          	addi	a3,a4,1
   13990:	02d7b423          	sd	a3,40(a5)
   13994:	00a70023          	sb	a0,0(a4)
   13998:	00058513          	mv	a0,a1
   1399c:	00008067          	ret

00000000000139a0 <snprintf>:
   139a0:	fb010113          	addi	sp,sp,-80
   139a4:	02d13423          	sd	a3,40(sp)
   139a8:	02810693          	addi	a3,sp,40
   139ac:	00113c23          	sd	ra,24(sp)
   139b0:	02e13823          	sd	a4,48(sp)
   139b4:	02f13c23          	sd	a5,56(sp)
   139b8:	05013023          	sd	a6,64(sp)
   139bc:	05113423          	sd	a7,72(sp)
   139c0:	00d13423          	sd	a3,8(sp)
   139c4:	124000ef          	jal	ra,13ae8 <vsnprintf>
   139c8:	01813083          	ld	ra,24(sp)
   139cc:	05010113          	addi	sp,sp,80
   139d0:	00008067          	ret

00000000000139d4 <sprintf>:
   139d4:	fb010113          	addi	sp,sp,-80
   139d8:	02c13023          	sd	a2,32(sp)
   139dc:	02010613          	addi	a2,sp,32
   139e0:	00113c23          	sd	ra,24(sp)
   139e4:	02d13423          	sd	a3,40(sp)
   139e8:	02e13823          	sd	a4,48(sp)
   139ec:	02f13c23          	sd	a5,56(sp)
   139f0:	05013023          	sd	a6,64(sp)
   139f4:	05113423          	sd	a7,72(sp)
   139f8:	00c13423          	sd	a2,8(sp)
   139fc:	1b8000ef          	jal	ra,13bb4 <vsprintf>
   13a00:	01813083          	ld	ra,24(sp)
   13a04:	05010113          	addi	sp,sp,80
   13a08:	00008067          	ret

0000000000013a0c <sn_write>:
   13a0c:	fd010113          	addi	sp,sp,-48
   13a10:	02813023          	sd	s0,32(sp)
   13a14:	09853403          	ld	s0,152(a0)
   13a18:	01213823          	sd	s2,16(sp)
   13a1c:	01413023          	sd	s4,0(sp)
   13a20:	02853903          	ld	s2,40(a0)
   13a24:	00058a13          	mv	s4,a1
   13a28:	03853583          	ld	a1,56(a0)
   13a2c:	00843783          	ld	a5,8(s0)
   13a30:	00913c23          	sd	s1,24(sp)
   13a34:	01313423          	sd	s3,8(sp)
   13a38:	02113423          	sd	ra,40(sp)
   13a3c:	40b90933          	sub	s2,s2,a1
   13a40:	00050493          	mv	s1,a0
   13a44:	00060993          	mv	s3,a2
   13a48:	0127f463          	bgeu	a5,s2,13a50 <sn_write+0x44>
   13a4c:	00078913          	mv	s2,a5
   13a50:	02090463          	beqz	s2,13a78 <sn_write+0x6c>
   13a54:	00043503          	ld	a0,0(s0)
   13a58:	00090613          	mv	a2,s2
   13a5c:	1ec000ef          	jal	ra,13c48 <memcpy>
   13a60:	00043783          	ld	a5,0(s0)
   13a64:	012787b3          	add	a5,a5,s2
   13a68:	00f43023          	sd	a5,0(s0)
   13a6c:	00843783          	ld	a5,8(s0)
   13a70:	412787b3          	sub	a5,a5,s2
   13a74:	00f43423          	sd	a5,8(s0)
   13a78:	00843903          	ld	s2,8(s0)
   13a7c:	0129f463          	bgeu	s3,s2,13a84 <sn_write+0x78>
   13a80:	00098913          	mv	s2,s3
   13a84:	02090663          	beqz	s2,13ab0 <sn_write+0xa4>
   13a88:	00043503          	ld	a0,0(s0)
   13a8c:	00090613          	mv	a2,s2
   13a90:	000a0593          	mv	a1,s4
   13a94:	1b4000ef          	jal	ra,13c48 <memcpy>
   13a98:	00043783          	ld	a5,0(s0)
   13a9c:	012787b3          	add	a5,a5,s2
   13aa0:	00f43023          	sd	a5,0(s0)
   13aa4:	00843783          	ld	a5,8(s0)
   13aa8:	412787b3          	sub	a5,a5,s2
   13aac:	00f43423          	sd	a5,8(s0)
   13ab0:	00043783          	ld	a5,0(s0)
   13ab4:	00098513          	mv	a0,s3
   13ab8:	00078023          	sb	zero,0(a5)
   13abc:	0584b783          	ld	a5,88(s1)
   13ac0:	02813083          	ld	ra,40(sp)
   13ac4:	02013403          	ld	s0,32(sp)
   13ac8:	02f4bc23          	sd	a5,56(s1)
   13acc:	02f4b423          	sd	a5,40(s1)
   13ad0:	01013903          	ld	s2,16(sp)
   13ad4:	01813483          	ld	s1,24(sp)
   13ad8:	00813983          	ld	s3,8(sp)
   13adc:	00013a03          	ld	s4,0(sp)
   13ae0:	03010113          	addi	sp,sp,48
   13ae4:	00008067          	ret

0000000000013ae8 <vsnprintf>:
   13ae8:	ec010113          	addi	sp,sp,-320
   13aec:	12813823          	sd	s0,304(sp)
   13af0:	12913423          	sd	s1,296(sp)
   13af4:	13213023          	sd	s2,288(sp)
   13af8:	11313c23          	sd	s3,280(sp)
   13afc:	12113c23          	sd	ra,312(sp)
   13b00:	00058413          	mv	s0,a1
   13b04:	00060913          	mv	s2,a2
   13b08:	00068993          	mv	s3,a3
   13b0c:	01010493          	addi	s1,sp,16
   13b10:	00058463          	beqz	a1,13b18 <vsnprintf+0x30>
   13b14:	00050493          	mv	s1,a0
   13b18:	00913c23          	sd	s1,24(sp)
   13b1c:	00000793          	li	a5,0
   13b20:	00040463          	beqz	s0,13b28 <vsnprintf+0x40>
   13b24:	fff40793          	addi	a5,s0,-1
   13b28:	0e800613          	li	a2,232
   13b2c:	00000593          	li	a1,0
   13b30:	02810513          	addi	a0,sp,40
   13b34:	02f13023          	sd	a5,32(sp)
   13b38:	554000ef          	jal	ra,1408c <memset>
   13b3c:	000147b7          	lui	a5,0x14
   13b40:	a0c78793          	addi	a5,a5,-1524 # 13a0c <sn_write>
   13b44:	06f13823          	sd	a5,112(sp)
   13b48:	00810793          	addi	a5,sp,8
   13b4c:	08f13023          	sd	a5,128(sp)
   13b50:	fff00793          	li	a5,-1
   13b54:	0af12a23          	sw	a5,180(sp)
   13b58:	0af12c23          	sw	a5,184(sp)
   13b5c:	01810793          	addi	a5,sp,24
   13b60:	0cf13023          	sd	a5,192(sp)
   13b64:	800007b7          	lui	a5,0x80000
   13b68:	fff7c793          	not	a5,a5
   13b6c:	0287f863          	bgeu	a5,s0,13b9c <vsnprintf+0xb4>
   13b70:	ab9fd0ef          	jal	ra,11628 <__errno_location>
   13b74:	04b00793          	li	a5,75
   13b78:	00f52023          	sw	a5,0(a0)
   13b7c:	fff00513          	li	a0,-1
   13b80:	13813083          	ld	ra,312(sp)
   13b84:	13013403          	ld	s0,304(sp)
   13b88:	12813483          	ld	s1,296(sp)
   13b8c:	12013903          	ld	s2,288(sp)
   13b90:	11813983          	ld	s3,280(sp)
   13b94:	14010113          	addi	sp,sp,320
   13b98:	00008067          	ret
   13b9c:	00048023          	sb	zero,0(s1)
   13ba0:	00098613          	mv	a2,s3
   13ba4:	00090593          	mv	a1,s2
   13ba8:	02810513          	addi	a0,sp,40
   13bac:	5f4030ef          	jal	ra,171a0 <vfprintf>
   13bb0:	fd1ff06f          	j	13b80 <vsnprintf+0x98>

0000000000013bb4 <vsprintf>:
   13bb4:	00060693          	mv	a3,a2
   13bb8:	00058613          	mv	a2,a1
   13bbc:	800005b7          	lui	a1,0x80000
   13bc0:	fff5c593          	not	a1,a1
   13bc4:	f25ff06f          	j	13ae8 <vsnprintf>

0000000000013bc8 <atoi>:
   13bc8:	00050793          	mv	a5,a0
   13bcc:	02000593          	li	a1,32
   13bd0:	00400693          	li	a3,4
   13bd4:	0007c703          	lbu	a4,0(a5) # ffffffff80000000 <__BSS_END__+0xffffffff7ffe2350>
   13bd8:	02b70c63          	beq	a4,a1,13c10 <atoi+0x48>
   13bdc:	ff77061b          	addiw	a2,a4,-9
   13be0:	02c6f863          	bgeu	a3,a2,13c10 <atoi+0x48>
   13be4:	02b00693          	li	a3,43
   13be8:	02d70863          	beq	a4,a3,13c18 <atoi+0x50>
   13bec:	02d00613          	li	a2,45
   13bf0:	00000693          	li	a3,0
   13bf4:	00c71663          	bne	a4,a2,13c00 <atoi+0x38>
   13bf8:	00100693          	li	a3,1
   13bfc:	00178793          	addi	a5,a5,1
   13c00:	00000513          	li	a0,0
   13c04:	00900613          	li	a2,9
   13c08:	00a00813          	li	a6,10
   13c0c:	0200006f          	j	13c2c <atoi+0x64>
   13c10:	00178793          	addi	a5,a5,1
   13c14:	fc1ff06f          	j	13bd4 <atoi+0xc>
   13c18:	00000693          	li	a3,0
   13c1c:	fe1ff06f          	j	13bfc <atoi+0x34>
   13c20:	02a8053b          	mulw	a0,a6,a0
   13c24:	00178793          	addi	a5,a5,1
   13c28:	40e5053b          	subw	a0,a0,a4
   13c2c:	0007c703          	lbu	a4,0(a5)
   13c30:	fd07059b          	addiw	a1,a4,-48
   13c34:	00058713          	mv	a4,a1
   13c38:	feb674e3          	bgeu	a2,a1,13c20 <atoi+0x58>
   13c3c:	00069463          	bnez	a3,13c44 <atoi+0x7c>
   13c40:	40a0053b          	negw	a0,a0
   13c44:	00008067          	ret

0000000000013c48 <memcpy>:
   13c48:	00050793          	mv	a5,a0
   13c4c:	0035f713          	andi	a4,a1,3
   13c50:	00070463          	beqz	a4,13c58 <memcpy+0x10>
   13c54:	02061063          	bnez	a2,13c74 <memcpy+0x2c>
   13c58:	0037f693          	andi	a3,a5,3
   13c5c:	0e069463          	bnez	a3,13d44 <memcpy+0xfc>
   13c60:	00058713          	mv	a4,a1
   13c64:	00078693          	mv	a3,a5
   13c68:	00c58333          	add	t1,a1,a2
   13c6c:	00f00813          	li	a6,15
   13c70:	0440006f          	j	13cb4 <memcpy+0x6c>
   13c74:	0005c703          	lbu	a4,0(a1) # ffffffff80000000 <__BSS_END__+0xffffffff7ffe2350>
   13c78:	00158593          	addi	a1,a1,1
   13c7c:	00178793          	addi	a5,a5,1
   13c80:	fff60613          	addi	a2,a2,-1
   13c84:	fee78fa3          	sb	a4,-1(a5)
   13c88:	fc5ff06f          	j	13c4c <memcpy+0x4>
   13c8c:	00072883          	lw	a7,0(a4)
   13c90:	01068693          	addi	a3,a3,16
   13c94:	01070713          	addi	a4,a4,16
   13c98:	ff16a823          	sw	a7,-16(a3)
   13c9c:	ff472883          	lw	a7,-12(a4)
   13ca0:	ff16aa23          	sw	a7,-12(a3)
   13ca4:	ff872883          	lw	a7,-8(a4)
   13ca8:	ff16ac23          	sw	a7,-8(a3)
   13cac:	ffc72883          	lw	a7,-4(a4)
   13cb0:	ff16ae23          	sw	a7,-4(a3)
   13cb4:	40e308b3          	sub	a7,t1,a4
   13cb8:	fd186ae3          	bltu	a6,a7,13c8c <memcpy+0x44>
   13cbc:	00465713          	srli	a4,a2,0x4
   13cc0:	ff000693          	li	a3,-16
   13cc4:	02d706b3          	mul	a3,a4,a3
   13cc8:	00471713          	slli	a4,a4,0x4
   13ccc:	00e787b3          	add	a5,a5,a4
   13cd0:	00e585b3          	add	a1,a1,a4
   13cd4:	00c686b3          	add	a3,a3,a2
   13cd8:	00867613          	andi	a2,a2,8
   13cdc:	00060e63          	beqz	a2,13cf8 <memcpy+0xb0>
   13ce0:	0005a703          	lw	a4,0(a1)
   13ce4:	00878793          	addi	a5,a5,8
   13ce8:	00858593          	addi	a1,a1,8
   13cec:	fee7ac23          	sw	a4,-8(a5)
   13cf0:	ffc5a703          	lw	a4,-4(a1)
   13cf4:	fee7ae23          	sw	a4,-4(a5)
   13cf8:	0046f713          	andi	a4,a3,4
   13cfc:	00070a63          	beqz	a4,13d10 <memcpy+0xc8>
   13d00:	0005a703          	lw	a4,0(a1)
   13d04:	00478793          	addi	a5,a5,4
   13d08:	00458593          	addi	a1,a1,4
   13d0c:	fee7ae23          	sw	a4,-4(a5)
   13d10:	0026f713          	andi	a4,a3,2
   13d14:	00070e63          	beqz	a4,13d30 <memcpy+0xe8>
   13d18:	0005c703          	lbu	a4,0(a1)
   13d1c:	00278793          	addi	a5,a5,2
   13d20:	00258593          	addi	a1,a1,2
   13d24:	fee78f23          	sb	a4,-2(a5)
   13d28:	fff5c703          	lbu	a4,-1(a1)
   13d2c:	fee78fa3          	sb	a4,-1(a5)
   13d30:	0016f693          	andi	a3,a3,1
   13d34:	20068e63          	beqz	a3,13f50 <memcpy+0x308>
   13d38:	0005c703          	lbu	a4,0(a1)
   13d3c:	00e78023          	sb	a4,0(a5)
   13d40:	2100006f          	j	13f50 <memcpy+0x308>
   13d44:	01f00713          	li	a4,31
   13d48:	0cc77863          	bgeu	a4,a2,13e18 <memcpy+0x1d0>
   13d4c:	00200313          	li	t1,2
   13d50:	0005c703          	lbu	a4,0(a1)
   13d54:	0005a803          	lw	a6,0(a1)
   13d58:	00c788b3          	add	a7,a5,a2
   13d5c:	1e668c63          	beq	a3,t1,13f54 <memcpy+0x30c>
   13d60:	00300313          	li	t1,3
   13d64:	28668863          	beq	a3,t1,13ff4 <memcpy+0x3ac>
   13d68:	00e78023          	sb	a4,0(a5)
   13d6c:	0015c703          	lbu	a4,1(a1)
   13d70:	00358e13          	addi	t3,a1,3
   13d74:	00378313          	addi	t1,a5,3
   13d78:	00e780a3          	sb	a4,1(a5)
   13d7c:	0025c703          	lbu	a4,2(a1)
   13d80:	01000e93          	li	t4,16
   13d84:	00e78123          	sb	a4,2(a5)
   13d88:	000e0713          	mv	a4,t3
   13d8c:	00030793          	mv	a5,t1
   13d90:	00172683          	lw	a3,1(a4)
   13d94:	0188581b          	srliw	a6,a6,0x18
   13d98:	01078793          	addi	a5,a5,16
   13d9c:	0086959b          	slliw	a1,a3,0x8
   13da0:	00b86833          	or	a6,a6,a1
   13da4:	00572583          	lw	a1,5(a4)
   13da8:	ff07a823          	sw	a6,-16(a5)
   13dac:	0186d69b          	srliw	a3,a3,0x18
   13db0:	0085981b          	slliw	a6,a1,0x8
   13db4:	0106e6b3          	or	a3,a3,a6
   13db8:	fed7aa23          	sw	a3,-12(a5)
   13dbc:	00972683          	lw	a3,9(a4)
   13dc0:	0185d59b          	srliw	a1,a1,0x18
   13dc4:	01070713          	addi	a4,a4,16
   13dc8:	0086981b          	slliw	a6,a3,0x8
   13dcc:	0105e5b3          	or	a1,a1,a6
   13dd0:	ffd72803          	lw	a6,-3(a4)
   13dd4:	feb7ac23          	sw	a1,-8(a5)
   13dd8:	0186d69b          	srliw	a3,a3,0x18
   13ddc:	0088159b          	slliw	a1,a6,0x8
   13de0:	00b6e6b3          	or	a3,a3,a1
   13de4:	fed7ae23          	sw	a3,-4(a5)
   13de8:	40f886b3          	sub	a3,a7,a5
   13dec:	fadee2e3          	bltu	t4,a3,13d90 <memcpy+0x148>
   13df0:	fec60713          	addi	a4,a2,-20
   13df4:	00475713          	srli	a4,a4,0x4
   13df8:	00170793          	addi	a5,a4,1
   13dfc:	00479793          	slli	a5,a5,0x4
   13e00:	00fe05b3          	add	a1,t3,a5
   13e04:	fed60613          	addi	a2,a2,-19
   13e08:	00f307b3          	add	a5,t1,a5
   13e0c:	ff000693          	li	a3,-16
   13e10:	02d70733          	mul	a4,a4,a3
   13e14:	00c70633          	add	a2,a4,a2
   13e18:	01067713          	andi	a4,a2,16
   13e1c:	08070663          	beqz	a4,13ea8 <memcpy+0x260>
   13e20:	0005c703          	lbu	a4,0(a1)
   13e24:	01078793          	addi	a5,a5,16
   13e28:	01058593          	addi	a1,a1,16
   13e2c:	fee78823          	sb	a4,-16(a5)
   13e30:	ff15c703          	lbu	a4,-15(a1)
   13e34:	fee788a3          	sb	a4,-15(a5)
   13e38:	ff25c703          	lbu	a4,-14(a1)
   13e3c:	fee78923          	sb	a4,-14(a5)
   13e40:	ff35c703          	lbu	a4,-13(a1)
   13e44:	fee789a3          	sb	a4,-13(a5)
   13e48:	ff45c703          	lbu	a4,-12(a1)
   13e4c:	fee78a23          	sb	a4,-12(a5)
   13e50:	ff55c703          	lbu	a4,-11(a1)
   13e54:	fee78aa3          	sb	a4,-11(a5)
   13e58:	ff65c703          	lbu	a4,-10(a1)
   13e5c:	fee78b23          	sb	a4,-10(a5)
   13e60:	ff75c703          	lbu	a4,-9(a1)
   13e64:	fee78ba3          	sb	a4,-9(a5)
   13e68:	ff85c703          	lbu	a4,-8(a1)
   13e6c:	fee78c23          	sb	a4,-8(a5)
   13e70:	ff95c703          	lbu	a4,-7(a1)
   13e74:	fee78ca3          	sb	a4,-7(a5)
   13e78:	ffa5c703          	lbu	a4,-6(a1)
   13e7c:	fee78d23          	sb	a4,-6(a5)
   13e80:	ffb5c703          	lbu	a4,-5(a1)
   13e84:	fee78da3          	sb	a4,-5(a5)
   13e88:	ffc5c703          	lbu	a4,-4(a1)
   13e8c:	fee78e23          	sb	a4,-4(a5)
   13e90:	ffd5c703          	lbu	a4,-3(a1)
   13e94:	fee78ea3          	sb	a4,-3(a5)
   13e98:	ffe5c703          	lbu	a4,-2(a1)
   13e9c:	fee78f23          	sb	a4,-2(a5)
   13ea0:	fff5c703          	lbu	a4,-1(a1)
   13ea4:	fee78fa3          	sb	a4,-1(a5)
   13ea8:	00867713          	andi	a4,a2,8
   13eac:	04070663          	beqz	a4,13ef8 <memcpy+0x2b0>
   13eb0:	0005c703          	lbu	a4,0(a1)
   13eb4:	00878793          	addi	a5,a5,8
   13eb8:	00858593          	addi	a1,a1,8
   13ebc:	fee78c23          	sb	a4,-8(a5)
   13ec0:	ff95c703          	lbu	a4,-7(a1)
   13ec4:	fee78ca3          	sb	a4,-7(a5)
   13ec8:	ffa5c703          	lbu	a4,-6(a1)
   13ecc:	fee78d23          	sb	a4,-6(a5)
   13ed0:	ffb5c703          	lbu	a4,-5(a1)
   13ed4:	fee78da3          	sb	a4,-5(a5)
   13ed8:	ffc5c703          	lbu	a4,-4(a1)
   13edc:	fee78e23          	sb	a4,-4(a5)
   13ee0:	ffd5c703          	lbu	a4,-3(a1)
   13ee4:	fee78ea3          	sb	a4,-3(a5)
   13ee8:	ffe5c703          	lbu	a4,-2(a1)
   13eec:	fee78f23          	sb	a4,-2(a5)
   13ef0:	fff5c703          	lbu	a4,-1(a1)
   13ef4:	fee78fa3          	sb	a4,-1(a5)
   13ef8:	00467713          	andi	a4,a2,4
   13efc:	02070663          	beqz	a4,13f28 <memcpy+0x2e0>
   13f00:	0005c703          	lbu	a4,0(a1)
   13f04:	00478793          	addi	a5,a5,4
   13f08:	00458593          	addi	a1,a1,4
   13f0c:	fee78e23          	sb	a4,-4(a5)
   13f10:	ffd5c703          	lbu	a4,-3(a1)
   13f14:	fee78ea3          	sb	a4,-3(a5)
   13f18:	ffe5c703          	lbu	a4,-2(a1)
   13f1c:	fee78f23          	sb	a4,-2(a5)
   13f20:	fff5c703          	lbu	a4,-1(a1)
   13f24:	fee78fa3          	sb	a4,-1(a5)
   13f28:	00267713          	andi	a4,a2,2
   13f2c:	00070e63          	beqz	a4,13f48 <memcpy+0x300>
   13f30:	0005c703          	lbu	a4,0(a1)
   13f34:	00278793          	addi	a5,a5,2
   13f38:	00258593          	addi	a1,a1,2
   13f3c:	fee78f23          	sb	a4,-2(a5)
   13f40:	fff5c703          	lbu	a4,-1(a1)
   13f44:	fee78fa3          	sb	a4,-1(a5)
   13f48:	00167613          	andi	a2,a2,1
   13f4c:	de0616e3          	bnez	a2,13d38 <memcpy+0xf0>
   13f50:	00008067          	ret
   13f54:	00e78023          	sb	a4,0(a5)
   13f58:	0015c703          	lbu	a4,1(a1)
   13f5c:	00258e13          	addi	t3,a1,2
   13f60:	00278313          	addi	t1,a5,2
   13f64:	00e780a3          	sb	a4,1(a5)
   13f68:	01100e93          	li	t4,17
   13f6c:	000e0713          	mv	a4,t3
   13f70:	00030793          	mv	a5,t1
   13f74:	00272683          	lw	a3,2(a4)
   13f78:	0108581b          	srliw	a6,a6,0x10
   13f7c:	01078793          	addi	a5,a5,16
   13f80:	0106959b          	slliw	a1,a3,0x10
   13f84:	00b86833          	or	a6,a6,a1
   13f88:	00672583          	lw	a1,6(a4)
   13f8c:	ff07a823          	sw	a6,-16(a5)
   13f90:	0106d69b          	srliw	a3,a3,0x10
   13f94:	0105981b          	slliw	a6,a1,0x10
   13f98:	0106e6b3          	or	a3,a3,a6
   13f9c:	fed7aa23          	sw	a3,-12(a5)
   13fa0:	00a72683          	lw	a3,10(a4)
   13fa4:	0105d59b          	srliw	a1,a1,0x10
   13fa8:	01070713          	addi	a4,a4,16
   13fac:	0106981b          	slliw	a6,a3,0x10
   13fb0:	0105e5b3          	or	a1,a1,a6
   13fb4:	ffe72803          	lw	a6,-2(a4)
   13fb8:	feb7ac23          	sw	a1,-8(a5)
   13fbc:	0106d69b          	srliw	a3,a3,0x10
   13fc0:	0108159b          	slliw	a1,a6,0x10
   13fc4:	00b6e6b3          	or	a3,a3,a1
   13fc8:	fed7ae23          	sw	a3,-4(a5)
   13fcc:	40f886b3          	sub	a3,a7,a5
   13fd0:	fadee2e3          	bltu	t4,a3,13f74 <memcpy+0x32c>
   13fd4:	fec60713          	addi	a4,a2,-20
   13fd8:	00475713          	srli	a4,a4,0x4
   13fdc:	00170793          	addi	a5,a4,1
   13fe0:	00479793          	slli	a5,a5,0x4
   13fe4:	00fe05b3          	add	a1,t3,a5
   13fe8:	fee60613          	addi	a2,a2,-18
   13fec:	00f307b3          	add	a5,t1,a5
   13ff0:	e1dff06f          	j	13e0c <memcpy+0x1c4>
   13ff4:	00158593          	addi	a1,a1,1
   13ff8:	00178313          	addi	t1,a5,1
   13ffc:	00e78023          	sb	a4,0(a5)
   14000:	01200e13          	li	t3,18
   14004:	00058713          	mv	a4,a1
   14008:	00030793          	mv	a5,t1
   1400c:	00372683          	lw	a3,3(a4)
   14010:	0088581b          	srliw	a6,a6,0x8
   14014:	01078793          	addi	a5,a5,16
   14018:	01869e9b          	slliw	t4,a3,0x18
   1401c:	01d86833          	or	a6,a6,t4
   14020:	ff07a823          	sw	a6,-16(a5)
   14024:	00772803          	lw	a6,7(a4)
   14028:	0086d69b          	srliw	a3,a3,0x8
   1402c:	01070713          	addi	a4,a4,16
   14030:	01881e9b          	slliw	t4,a6,0x18
   14034:	01d6e6b3          	or	a3,a3,t4
   14038:	fed7aa23          	sw	a3,-12(a5)
   1403c:	ffb72683          	lw	a3,-5(a4)
   14040:	0088581b          	srliw	a6,a6,0x8
   14044:	01869e9b          	slliw	t4,a3,0x18
   14048:	01d86833          	or	a6,a6,t4
   1404c:	ff07ac23          	sw	a6,-8(a5)
   14050:	fff72803          	lw	a6,-1(a4)
   14054:	0086d69b          	srliw	a3,a3,0x8
   14058:	01881e9b          	slliw	t4,a6,0x18
   1405c:	01d6e6b3          	or	a3,a3,t4
   14060:	fed7ae23          	sw	a3,-4(a5)
   14064:	40f886b3          	sub	a3,a7,a5
   14068:	fade62e3          	bltu	t3,a3,1400c <memcpy+0x3c4>
   1406c:	fec60713          	addi	a4,a2,-20
   14070:	00475713          	srli	a4,a4,0x4
   14074:	00170793          	addi	a5,a4,1
   14078:	00479793          	slli	a5,a5,0x4
   1407c:	00f585b3          	add	a1,a1,a5
   14080:	fef60613          	addi	a2,a2,-17
   14084:	00f307b3          	add	a5,t1,a5
   14088:	d85ff06f          	j	13e0c <memcpy+0x1c4>

000000000001408c <memset>:
   1408c:	0c060e63          	beqz	a2,14168 <memset+0xdc>
   14090:	0ff5f793          	andi	a5,a1,255
   14094:	00f50023          	sb	a5,0(a0)
   14098:	00c50733          	add	a4,a0,a2
   1409c:	fef70fa3          	sb	a5,-1(a4)
   140a0:	00200693          	li	a3,2
   140a4:	0cc6f263          	bgeu	a3,a2,14168 <memset+0xdc>
   140a8:	00f500a3          	sb	a5,1(a0)
   140ac:	00f50123          	sb	a5,2(a0)
   140b0:	fef70f23          	sb	a5,-2(a4)
   140b4:	fef70ea3          	sb	a5,-3(a4)
   140b8:	00600693          	li	a3,6
   140bc:	0ac6f663          	bgeu	a3,a2,14168 <memset+0xdc>
   140c0:	00f501a3          	sb	a5,3(a0)
   140c4:	fef70e23          	sb	a5,-4(a4)
   140c8:	00800693          	li	a3,8
   140cc:	08c6fe63          	bgeu	a3,a2,14168 <memset+0xdc>
   140d0:	40a00733          	neg	a4,a0
   140d4:	00377713          	andi	a4,a4,3
   140d8:	00e507b3          	add	a5,a0,a4
   140dc:	40e60633          	sub	a2,a2,a4
   140e0:	01010737          	lui	a4,0x1010
   140e4:	1017071b          	addiw	a4,a4,257
   140e8:	0ff5f593          	andi	a1,a1,255
   140ec:	02e585bb          	mulw	a1,a1,a4
   140f0:	ffc67613          	andi	a2,a2,-4
   140f4:	00c78733          	add	a4,a5,a2
   140f8:	00b7a023          	sw	a1,0(a5)
   140fc:	feb72e23          	sw	a1,-4(a4) # 100fffc <__BSS_END__+0xff234c>
   14100:	06c6f463          	bgeu	a3,a2,14168 <memset+0xdc>
   14104:	00b7a223          	sw	a1,4(a5)
   14108:	00b7a423          	sw	a1,8(a5)
   1410c:	feb72a23          	sw	a1,-12(a4)
   14110:	feb72c23          	sw	a1,-8(a4)
   14114:	01800693          	li	a3,24
   14118:	04c6f863          	bgeu	a3,a2,14168 <memset+0xdc>
   1411c:	00b7a623          	sw	a1,12(a5)
   14120:	00b7a823          	sw	a1,16(a5)
   14124:	00b7aa23          	sw	a1,20(a5)
   14128:	00b7ac23          	sw	a1,24(a5)
   1412c:	feb72223          	sw	a1,-28(a4)
   14130:	feb72423          	sw	a1,-24(a4)
   14134:	feb72623          	sw	a1,-20(a4)
   14138:	feb72823          	sw	a1,-16(a4)
   1413c:	02059693          	slli	a3,a1,0x20
   14140:	0047f713          	andi	a4,a5,4
   14144:	01870713          	addi	a4,a4,24
   14148:	0206d693          	srli	a3,a3,0x20
   1414c:	02059593          	slli	a1,a1,0x20
   14150:	00e78733          	add	a4,a5,a4
   14154:	00c78633          	add	a2,a5,a2
   14158:	00d5e5b3          	or	a1,a1,a3
   1415c:	01f00793          	li	a5,31
   14160:	40e606b3          	sub	a3,a2,a4
   14164:	00d7e463          	bltu	a5,a3,1416c <memset+0xe0>
   14168:	00008067          	ret
   1416c:	00b73023          	sd	a1,0(a4)
   14170:	00b73423          	sd	a1,8(a4)
   14174:	00b73823          	sd	a1,16(a4)
   14178:	00b73c23          	sd	a1,24(a4)
   1417c:	02070713          	addi	a4,a4,32
   14180:	fe1ff06f          	j	14160 <memset+0xd4>

0000000000014184 <__strchrnul>:
   14184:	ff010113          	addi	sp,sp,-16
   14188:	00813023          	sd	s0,0(sp)
   1418c:	00113423          	sd	ra,8(sp)
   14190:	0ff5f593          	andi	a1,a1,255
   14194:	00050413          	mv	s0,a0
   14198:	02059863          	bnez	a1,141c8 <__strchrnul+0x44>
   1419c:	0b0000ef          	jal	ra,1424c <strlen>
   141a0:	00a40433          	add	s0,s0,a0
   141a4:	00813083          	ld	ra,8(sp)
   141a8:	00040513          	mv	a0,s0
   141ac:	00013403          	ld	s0,0(sp)
   141b0:	01010113          	addi	sp,sp,16
   141b4:	00008067          	ret
   141b8:	00044783          	lbu	a5,0(s0)
   141bc:	fe0784e3          	beqz	a5,141a4 <__strchrnul+0x20>
   141c0:	feb782e3          	beq	a5,a1,141a4 <__strchrnul+0x20>
   141c4:	00140413          	addi	s0,s0,1
   141c8:	00747793          	andi	a5,s0,7
   141cc:	fe0796e3          	bnez	a5,141b8 <__strchrnul+0x34>
   141d0:	9301b603          	ld	a2,-1744(gp) # 1d130 <__SDATA_BEGIN__+0x28>
   141d4:	9381b503          	ld	a0,-1736(gp) # 1d138 <__SDATA_BEGIN__+0x30>
   141d8:	02c58633          	mul	a2,a1,a2
   141dc:	9401b803          	ld	a6,-1728(gp) # 1d140 <__SDATA_BEGIN__+0x38>
   141e0:	00043703          	ld	a4,0(s0)
   141e4:	00c746b3          	xor	a3,a4,a2
   141e8:	00a707b3          	add	a5,a4,a0
   141ec:	fff74713          	not	a4,a4
   141f0:	00e7f7b3          	and	a5,a5,a4
   141f4:	00a68733          	add	a4,a3,a0
   141f8:	fff6c693          	not	a3,a3
   141fc:	00d776b3          	and	a3,a4,a3
   14200:	00d7e7b3          	or	a5,a5,a3
   14204:	0107f7b3          	and	a5,a5,a6
   14208:	00078c63          	beqz	a5,14220 <__strchrnul+0x9c>
   1420c:	00044783          	lbu	a5,0(s0)
   14210:	f8078ae3          	beqz	a5,141a4 <__strchrnul+0x20>
   14214:	f8b788e3          	beq	a5,a1,141a4 <__strchrnul+0x20>
   14218:	00140413          	addi	s0,s0,1
   1421c:	ff1ff06f          	j	1420c <__strchrnul+0x88>
   14220:	00840413          	addi	s0,s0,8
   14224:	fbdff06f          	j	141e0 <__strchrnul+0x5c>

0000000000014228 <strcmp>:
   14228:	00054783          	lbu	a5,0(a0)
   1422c:	0005c703          	lbu	a4,0(a1)
   14230:	00e79463          	bne	a5,a4,14238 <strcmp+0x10>
   14234:	00079663          	bnez	a5,14240 <strcmp+0x18>
   14238:	40e7853b          	subw	a0,a5,a4
   1423c:	00008067          	ret
   14240:	00150513          	addi	a0,a0,1
   14244:	00158593          	addi	a1,a1,1
   14248:	fe1ff06f          	j	14228 <strcmp>

000000000001424c <strlen>:
   1424c:	00050793          	mv	a5,a0
   14250:	0077f713          	andi	a4,a5,7
   14254:	02071a63          	bnez	a4,14288 <strlen+0x3c>
   14258:	9381b583          	ld	a1,-1736(gp) # 1d138 <__SDATA_BEGIN__+0x30>
   1425c:	9401b603          	ld	a2,-1728(gp) # 1d140 <__SDATA_BEGIN__+0x38>
   14260:	0007b683          	ld	a3,0(a5)
   14264:	00b68733          	add	a4,a3,a1
   14268:	fff6c693          	not	a3,a3
   1426c:	00d77733          	and	a4,a4,a3
   14270:	00c77733          	and	a4,a4,a2
   14274:	02070663          	beqz	a4,142a0 <strlen+0x54>
   14278:	0007c703          	lbu	a4,0(a5)
   1427c:	00070a63          	beqz	a4,14290 <strlen+0x44>
   14280:	00178793          	addi	a5,a5,1
   14284:	ff5ff06f          	j	14278 <strlen+0x2c>
   14288:	0007c703          	lbu	a4,0(a5)
   1428c:	00071663          	bnez	a4,14298 <strlen+0x4c>
   14290:	40a78533          	sub	a0,a5,a0
   14294:	00008067          	ret
   14298:	00178793          	addi	a5,a5,1
   1429c:	fb5ff06f          	j	14250 <strlen+0x4>
   142a0:	00878793          	addi	a5,a5,8
   142a4:	fbdff06f          	j	14260 <strlen+0x14>

00000000000142a8 <strrchr>:
   142a8:	fe010113          	addi	sp,sp,-32
   142ac:	00813823          	sd	s0,16(sp)
   142b0:	00113c23          	sd	ra,24(sp)
   142b4:	00050413          	mv	s0,a0
   142b8:	00b13423          	sd	a1,8(sp)
   142bc:	f91ff0ef          	jal	ra,1424c <strlen>
   142c0:	00150613          	addi	a2,a0,1
   142c4:	00040513          	mv	a0,s0
   142c8:	01013403          	ld	s0,16(sp)
   142cc:	00813583          	ld	a1,8(sp)
   142d0:	01813083          	ld	ra,24(sp)
   142d4:	02010113          	addi	sp,sp,32
   142d8:	0400306f          	j	17318 <__memrchr>

00000000000142dc <strsignal>:
   142dc:	fff5069b          	addiw	a3,a0,-1
   142e0:	03f00713          	li	a4,63
   142e4:	00050793          	mv	a5,a0
   142e8:	00d77463          	bgeu	a4,a3,142f0 <strsignal+0x14>
   142ec:	00000793          	li	a5,0
   142f0:	0001b537          	lui	a0,0x1b
   142f4:	4c050513          	addi	a0,a0,1216 # 1b4c0 <strings>
   142f8:	fff00713          	li	a4,-1
   142fc:	fff7879b          	addiw	a5,a5,-1
   14300:	00e79463          	bne	a5,a4,14308 <strsignal+0x2c>
   14304:	cf4fd06f          	j	117f8 <__lctrans_cur>
   14308:	00054683          	lbu	a3,0(a0)
   1430c:	00150513          	addi	a0,a0,1
   14310:	fe069ce3          	bnez	a3,14308 <strsignal+0x2c>
   14314:	fe9ff06f          	j	142fc <strsignal+0x20>

0000000000014318 <__lock>:
   14318:	bc818793          	addi	a5,gp,-1080 # 1d3c8 <__libc>
   1431c:	00c7a783          	lw	a5,12(a5)
   14320:	00050713          	mv	a4,a0
   14324:	0007879b          	sext.w	a5,a5
   14328:	0e078263          	beqz	a5,1440c <__lock+0xf4>
   1432c:	800006b7          	lui	a3,0x80000
   14330:	00168693          	addi	a3,a3,1 # ffffffff80000001 <__BSS_END__+0xffffffff7ffe2351>
   14334:	00000613          	li	a2,0
   14338:	160527af          	lr.w.aqrl	a5,(a0)
   1433c:	00c79663          	bne	a5,a2,14348 <__lock+0x30>
   14340:	1ed525af          	sc.w.aqrl	a1,a3,(a0)
   14344:	fe059ae3          	bnez	a1,14338 <__lock+0x20>
   14348:	0007879b          	sext.w	a5,a5
   1434c:	0c078063          	beqz	a5,1440c <__lock+0xf4>
   14350:	80000537          	lui	a0,0x80000
   14354:	00a00593          	li	a1,10
   14358:	fff54513          	not	a0,a0
   1435c:	00078613          	mv	a2,a5
   14360:	0007d463          	bgez	a5,14368 <__lock+0x50>
   14364:	00f5063b          	addw	a2,a0,a5
   14368:	00c6883b          	addw	a6,a3,a2
   1436c:	160727af          	lr.w.aqrl	a5,(a4)
   14370:	00c79663          	bne	a5,a2,1437c <__lock+0x64>
   14374:	1f0728af          	sc.w.aqrl	a7,a6,(a4)
   14378:	fe089ae3          	bnez	a7,1436c <__lock+0x54>
   1437c:	0007879b          	sext.w	a5,a5
   14380:	08f60663          	beq	a2,a5,1440c <__lock+0xf4>
   14384:	fff5859b          	addiw	a1,a1,-1
   14388:	fc059ae3          	bnez	a1,1435c <__lock+0x44>
   1438c:	00072783          	lw	a5,0(a4)
   14390:	0007861b          	sext.w	a2,a5
   14394:	0017879b          	addiw	a5,a5,1
   14398:	160726af          	lr.w.aqrl	a3,(a4)
   1439c:	00c69663          	bne	a3,a2,143a8 <__lock+0x90>
   143a0:	1ef725af          	sc.w.aqrl	a1,a5,(a4)
   143a4:	fe059ae3          	bnez	a1,14398 <__lock+0x80>
   143a8:	0006869b          	sext.w	a3,a3
   143ac:	fed610e3          	bne	a2,a3,1438c <__lock+0x74>
   143b0:	80000837          	lui	a6,0x80000
   143b4:	fda00313          	li	t1,-38
   143b8:	fff84e13          	not	t3,a6
   143bc:	00078693          	mv	a3,a5
   143c0:	0207d863          	bgez	a5,143f0 <__lock+0xd8>
   143c4:	06200893          	li	a7,98
   143c8:	00070513          	mv	a0,a4
   143cc:	08000593          	li	a1,128
   143d0:	00078613          	mv	a2,a5
   143d4:	00000693          	li	a3,0
   143d8:	00000073          	ecall
   143dc:	00651863          	bne	a0,t1,143ec <__lock+0xd4>
   143e0:	00070513          	mv	a0,a4
   143e4:	00000593          	li	a1,0
   143e8:	00000073          	ecall
   143ec:	00fe06bb          	addw	a3,t3,a5
   143f0:	00d8063b          	addw	a2,a6,a3
   143f4:	160727af          	lr.w.aqrl	a5,(a4)
   143f8:	00d79663          	bne	a5,a3,14404 <__lock+0xec>
   143fc:	1ec725af          	sc.w.aqrl	a1,a2,(a4)
   14400:	fe059ae3          	bnez	a1,143f4 <__lock+0xdc>
   14404:	0007879b          	sext.w	a5,a5
   14408:	faf69ae3          	bne	a3,a5,143bc <__lock+0xa4>
   1440c:	00008067          	ret

0000000000014410 <__unlock>:
   14410:	00052703          	lw	a4,0(a0) # ffffffff80000000 <__BSS_END__+0xffffffff7ffe2350>
   14414:	00050793          	mv	a5,a0
   14418:	0007071b          	sext.w	a4,a4
   1441c:	06075263          	bgez	a4,14480 <__unlock+0x70>
   14420:	800005b7          	lui	a1,0x80000
   14424:	fff5c593          	not	a1,a1
   14428:	0007a703          	lw	a4,0(a5)
   1442c:	0007069b          	sext.w	a3,a4
   14430:	00b7073b          	addw	a4,a4,a1
   14434:	1607a62f          	lr.w.aqrl	a2,(a5)
   14438:	00d61663          	bne	a2,a3,14444 <__unlock+0x34>
   1443c:	1ee7a52f          	sc.w.aqrl	a0,a4,(a5)
   14440:	fe051ae3          	bnez	a0,14434 <__unlock+0x24>
   14444:	0006071b          	sext.w	a4,a2
   14448:	fee690e3          	bne	a3,a4,14428 <__unlock+0x18>
   1444c:	80000737          	lui	a4,0x80000
   14450:	00170713          	addi	a4,a4,1 # ffffffff80000001 <__BSS_END__+0xffffffff7ffe2351>
   14454:	02e68663          	beq	a3,a4,14480 <__unlock+0x70>
   14458:	06200893          	li	a7,98
   1445c:	00078513          	mv	a0,a5
   14460:	08100593          	li	a1,129
   14464:	00100613          	li	a2,1
   14468:	00000073          	ecall
   1446c:	fda00713          	li	a4,-38
   14470:	00e51863          	bne	a0,a4,14480 <__unlock+0x70>
   14474:	00078513          	mv	a0,a5
   14478:	00100593          	li	a1,1
   1447c:	00000073          	ecall
   14480:	00008067          	ret

0000000000014484 <__syscall_cp_c>:
   14484:	00050893          	mv	a7,a0
   14488:	00058513          	mv	a0,a1
   1448c:	00060593          	mv	a1,a2
   14490:	00068613          	mv	a2,a3
   14494:	00070693          	mv	a3,a4
   14498:	00078713          	mv	a4,a5
   1449c:	00080793          	mv	a5,a6
   144a0:	00000073          	ecall
   144a4:	00008067          	ret

00000000000144a8 <__syscall_cp>:
   144a8:	fddff06f          	j	14484 <__syscall_cp_c>

00000000000144ac <a_fetch_add.isra.0>:
   144ac:	00052783          	lw	a5,0(a0)
   144b0:	0007869b          	sext.w	a3,a5
   144b4:	00b787bb          	addw	a5,a5,a1
   144b8:	1605272f          	lr.w.aqrl	a4,(a0)
   144bc:	00d71663          	bne	a4,a3,144c8 <a_fetch_add.isra.0+0x1c>
   144c0:	1ef5262f          	sc.w.aqrl	a2,a5,(a0)
   144c4:	fe061ae3          	bnez	a2,144b8 <a_fetch_add.isra.0+0xc>
   144c8:	0007079b          	sext.w	a5,a4
   144cc:	fef690e3          	bne	a3,a5,144ac <a_fetch_add.isra.0>
   144d0:	00008067          	ret

00000000000144d4 <__wait>:
   144d4:	fd010113          	addi	sp,sp,-48
   144d8:	02813023          	sd	s0,32(sp)
   144dc:	00913c23          	sd	s1,24(sp)
   144e0:	01213823          	sd	s2,16(sp)
   144e4:	01313423          	sd	s3,8(sp)
   144e8:	02113423          	sd	ra,40(sp)
   144ec:	00050493          	mv	s1,a0
   144f0:	00058413          	mv	s0,a1
   144f4:	00060913          	mv	s2,a2
   144f8:	00068993          	mv	s3,a3
   144fc:	00068463          	beqz	a3,14504 <__wait+0x30>
   14500:	08000993          	li	s3,128
   14504:	06500713          	li	a4,101
   14508:	0140006f          	j	1451c <__wait+0x48>
   1450c:	0004a783          	lw	a5,0(s1)
   14510:	0007879b          	sext.w	a5,a5
   14514:	09279c63          	bne	a5,s2,145ac <__wait+0xd8>
   14518:	0330000f          	fence	rw,rw
   1451c:	fff7071b          	addiw	a4,a4,-1
   14520:	02070263          	beqz	a4,14544 <__wait+0x70>
   14524:	fe0404e3          	beqz	s0,1450c <__wait+0x38>
   14528:	00042783          	lw	a5,0(s0)
   1452c:	0007879b          	sext.w	a5,a5
   14530:	fc078ee3          	beqz	a5,1450c <__wait+0x38>
   14534:	00100593          	li	a1,1
   14538:	00040513          	mv	a0,s0
   1453c:	f71ff0ef          	jal	ra,144ac <a_fetch_add.isra.0>
   14540:	0080006f          	j	14548 <__wait+0x74>
   14544:	fe0418e3          	bnez	s0,14534 <__wait+0x60>
   14548:	fda00713          	li	a4,-38
   1454c:	0004a783          	lw	a5,0(s1)
   14550:	0007879b          	sext.w	a5,a5
   14554:	03278663          	beq	a5,s2,14580 <__wait+0xac>
   14558:	04040a63          	beqz	s0,145ac <__wait+0xd8>
   1455c:	00040513          	mv	a0,s0
   14560:	02013403          	ld	s0,32(sp)
   14564:	02813083          	ld	ra,40(sp)
   14568:	01813483          	ld	s1,24(sp)
   1456c:	01013903          	ld	s2,16(sp)
   14570:	00813983          	ld	s3,8(sp)
   14574:	fff00593          	li	a1,-1
   14578:	03010113          	addi	sp,sp,48
   1457c:	f31ff06f          	j	144ac <a_fetch_add.isra.0>
   14580:	06200893          	li	a7,98
   14584:	00048513          	mv	a0,s1
   14588:	00098593          	mv	a1,s3
   1458c:	00090613          	mv	a2,s2
   14590:	00000693          	li	a3,0
   14594:	00000073          	ecall
   14598:	fae51ae3          	bne	a0,a4,1454c <__wait+0x78>
   1459c:	00048513          	mv	a0,s1
   145a0:	00000593          	li	a1,0
   145a4:	00000073          	ecall
   145a8:	fa5ff06f          	j	1454c <__wait+0x78>
   145ac:	02813083          	ld	ra,40(sp)
   145b0:	02013403          	ld	s0,32(sp)
   145b4:	01813483          	ld	s1,24(sp)
   145b8:	01013903          	ld	s2,16(sp)
   145bc:	00813983          	ld	s3,8(sp)
   145c0:	03010113          	addi	sp,sp,48
   145c4:	00008067          	ret

00000000000145c8 <pthread_sigmask>:
   145c8:	00058863          	beqz	a1,145d8 <pthread_sigmask+0x10>
   145cc:	00200713          	li	a4,2
   145d0:	01600793          	li	a5,22
   145d4:	02a76a63          	bltu	a4,a0,14608 <pthread_sigmask+0x40>
   145d8:	08700893          	li	a7,135
   145dc:	00800693          	li	a3,8
   145e0:	00000073          	ecall
   145e4:	40a007bb          	negw	a5,a0
   145e8:	02079063          	bnez	a5,14608 <pthread_sigmask+0x40>
   145ec:	00060e63          	beqz	a2,14608 <pthread_sigmask+0x40>
   145f0:	00063683          	ld	a3,0(a2)
   145f4:	ff900713          	li	a4,-7
   145f8:	01f71713          	slli	a4,a4,0x1f
   145fc:	fff70713          	addi	a4,a4,-1
   14600:	00e6f733          	and	a4,a3,a4
   14604:	00e63023          	sd	a4,0(a2)
   14608:	00078513          	mv	a0,a5
   1460c:	00008067          	ret

0000000000014610 <dummy>:
   14610:	00008067          	ret

0000000000014614 <handler>:
   14614:	00020793          	mv	a5,tp
   14618:	f587a703          	lw	a4,-168(a5)
   1461c:	a281a783          	lw	a5,-1496(gp) # 1d228 <target_tid>
   14620:	06f71e63          	bne	a4,a5,1469c <handler+0x88>
   14624:	fd010113          	addi	sp,sp,-48
   14628:	02113423          	sd	ra,40(sp)
   1462c:	02813023          	sd	s0,32(sp)
   14630:	00913c23          	sd	s1,24(sp)
   14634:	01213823          	sd	s2,16(sp)
   14638:	01313423          	sd	s3,8(sp)
   1463c:	fedfc0ef          	jal	ra,11628 <__errno_location>
   14640:	00052983          	lw	s3,0(a0)
   14644:	00050413          	mv	s0,a0
   14648:	2d818513          	addi	a0,gp,728 # 1dad8 <caller_sem>
   1464c:	5cd020ef          	jal	ra,17418 <sem_post>
   14650:	2f818513          	addi	a0,gp,760 # 1daf8 <target_sem>
   14654:	679020ef          	jal	ra,174cc <sem_wait>
   14658:	a201b503          	ld	a0,-1504(gp) # 1d220 <context>
   1465c:	a181b783          	ld	a5,-1512(gp) # 1d218 <callback>
   14660:	000780e7          	jalr	a5
   14664:	2d818513          	addi	a0,gp,728 # 1dad8 <caller_sem>
   14668:	5b1020ef          	jal	ra,17418 <sem_post>
   1466c:	2f818513          	addi	a0,gp,760 # 1daf8 <target_sem>
   14670:	65d020ef          	jal	ra,174cc <sem_wait>
   14674:	2d818513          	addi	a0,gp,728 # 1dad8 <caller_sem>
   14678:	5a1020ef          	jal	ra,17418 <sem_post>
   1467c:	02813083          	ld	ra,40(sp)
   14680:	01342023          	sw	s3,0(s0)
   14684:	02013403          	ld	s0,32(sp)
   14688:	01813483          	ld	s1,24(sp)
   1468c:	01013903          	ld	s2,16(sp)
   14690:	00813983          	ld	s3,8(sp)
   14694:	03010113          	addi	sp,sp,48
   14698:	00008067          	ret
   1469c:	00008067          	ret

00000000000146a0 <__tl_lock>:
   146a0:	00008067          	ret

00000000000146a4 <__synccall>:
   146a4:	e8010113          	addi	sp,sp,-384
   146a8:	16913423          	sd	s1,360(sp)
   146ac:	15513423          	sd	s5,328(sp)
   146b0:	00050493          	mv	s1,a0
   146b4:	00058a93          	mv	s5,a1
   146b8:	09000613          	li	a2,144
   146bc:	00000593          	li	a1,0
   146c0:	09010513          	addi	a0,sp,144
   146c4:	16113c23          	sd	ra,376(sp)
   146c8:	16813823          	sd	s0,368(sp)
   146cc:	17213023          	sd	s2,352(sp)
   146d0:	15313c23          	sd	s3,344(sp)
   146d4:	15413823          	sd	s4,336(sp)
   146d8:	15613023          	sd	s6,320(sp)
   146dc:	13713c23          	sd	s7,312(sp)
   146e0:	13813823          	sd	s8,304(sp)
   146e4:	13913423          	sd	s9,296(sp)
   146e8:	9a5ff0ef          	jal	ra,1408c <memset>
   146ec:	000147b7          	lui	a5,0x14
   146f0:	61478793          	addi	a5,a5,1556 # 14614 <handler>
   146f4:	08f13423          	sd	a5,136(sp)
   146f8:	100007b7          	lui	a5,0x10000
   146fc:	10f12823          	sw	a5,272(sp)
   14700:	00020a13          	mv	s4,tp
   14704:	00810513          	addi	a0,sp,8
   14708:	c29fe0ef          	jal	ra,13330 <__block_app_sigs>
   1470c:	f95ff0ef          	jal	ra,146a0 <__tl_lock>
   14710:	00000513          	li	a0,0
   14714:	c01fe0ef          	jal	ra,13314 <__block_all_sigs>
   14718:	00410593          	addi	a1,sp,4
   1471c:	00100513          	li	a0,1
   14720:	46d020ef          	jal	ra,1738c <__pthread_setcancelstate>
   14724:	00000613          	li	a2,0
   14728:	00000593          	li	a1,0
   1472c:	2f818513          	addi	a0,gp,760 # 1daf8 <target_sem>
   14730:	4a5020ef          	jal	ra,173d4 <sem_init>
   14734:	00000613          	li	a2,0
   14738:	00000593          	li	a1,0
   1473c:	2d818513          	addi	a0,gp,728 # 1dad8 <caller_sem>
   14740:	495020ef          	jal	ra,173d4 <sem_init>
   14744:	bc818793          	addi	a5,gp,-1080 # 1d3c8 <__libc>
   14748:	00c7a403          	lw	s0,12(a5) # 1000000c <__BSS_END__+0xffe235c>
   1474c:	0004041b          	sext.w	s0,s0
   14750:	0a040063          	beqz	s0,147f0 <__synccall+0x14c>
   14754:	08000613          	li	a2,128
   14758:	fff00593          	li	a1,-1
   1475c:	09010513          	addi	a0,sp,144
   14760:	a091bc23          	sd	s1,-1512(gp) # 1d218 <callback>
   14764:	a351b023          	sd	s5,-1504(gp) # 1d220 <context>
   14768:	925ff0ef          	jal	ra,1408c <memset>
   1476c:	00000613          	li	a2,0
   14770:	08810593          	addi	a1,sp,136
   14774:	02200513          	li	a0,34
   14778:	f20a0b93          	addi	s7,s4,-224
   1477c:	1b1000ef          	jal	ra,1512c <__libc_sigaction>
   14780:	f38a3a03          	ld	s4,-200(s4)
   14784:	00000413          	li	s0,0
   14788:	a1818b13          	addi	s6,gp,-1512 # 1d218 <callback>
   1478c:	00b00c93          	li	s9,11
   14790:	a2818793          	addi	a5,gp,-1496 # 1d228 <target_tid>
   14794:	037a0c63          	beq	s4,s7,147cc <__synccall+0x128>
   14798:	038a2703          	lw	a4,56(s4)
   1479c:	00e7a023          	sw	a4,0(a5)
   147a0:	038a2503          	lw	a0,56(s4)
   147a4:	08200893          	li	a7,130
   147a8:	02200593          	li	a1,34
   147ac:	00000073          	ecall
   147b0:	40a0053b          	negw	a0,a0
   147b4:	ff9506e3          	beq	a0,s9,147a0 <__synccall+0xfc>
   147b8:	0a050663          	beqz	a0,14864 <__synccall+0x1c0>
   147bc:	000144b7          	lui	s1,0x14
   147c0:	61048713          	addi	a4,s1,1552 # 14610 <dummy>
   147c4:	00eb3023          	sd	a4,0(s6)
   147c8:	61048493          	addi	s1,s1,1552
   147cc:	0007a023          	sw	zero,0(a5)
   147d0:	00000a13          	li	s4,0
   147d4:	0a8a1263          	bne	s4,s0,14878 <__synccall+0x1d4>
   147d8:	00100793          	li	a5,1
   147dc:	00000613          	li	a2,0
   147e0:	08810593          	addi	a1,sp,136
   147e4:	02200513          	li	a0,34
   147e8:	08f13423          	sd	a5,136(sp)
   147ec:	141000ef          	jal	ra,1512c <__libc_sigaction>
   147f0:	000a8513          	mv	a0,s5
   147f4:	000480e7          	jalr	s1
   147f8:	00000493          	li	s1,0
   147fc:	08849a63          	bne	s1,s0,14890 <__synccall+0x1ec>
   14800:	00000493          	li	s1,0
   14804:	2d818513          	addi	a0,gp,728 # 1dad8 <caller_sem>
   14808:	08849c63          	bne	s1,s0,148a0 <__synccall+0x1fc>
   1480c:	3c1020ef          	jal	ra,173cc <sem_destroy>
   14810:	2f818513          	addi	a0,gp,760 # 1daf8 <target_sem>
   14814:	3b9020ef          	jal	ra,173cc <sem_destroy>
   14818:	00412503          	lw	a0,4(sp)
   1481c:	00000593          	li	a1,0
   14820:	36d020ef          	jal	ra,1738c <__pthread_setcancelstate>
   14824:	e7dff0ef          	jal	ra,146a0 <__tl_lock>
   14828:	00810513          	addi	a0,sp,8
   1482c:	b21fe0ef          	jal	ra,1334c <__restore_sigs>
   14830:	17813083          	ld	ra,376(sp)
   14834:	17013403          	ld	s0,368(sp)
   14838:	16813483          	ld	s1,360(sp)
   1483c:	16013903          	ld	s2,352(sp)
   14840:	15813983          	ld	s3,344(sp)
   14844:	15013a03          	ld	s4,336(sp)
   14848:	14813a83          	ld	s5,328(sp)
   1484c:	14013b03          	ld	s6,320(sp)
   14850:	13813b83          	ld	s7,312(sp)
   14854:	13013c03          	ld	s8,304(sp)
   14858:	12813c83          	ld	s9,296(sp)
   1485c:	18010113          	addi	sp,sp,384
   14860:	00008067          	ret
   14864:	2d818513          	addi	a0,gp,728 # 1dad8 <caller_sem>
   14868:	465020ef          	jal	ra,174cc <sem_wait>
   1486c:	0014041b          	addiw	s0,s0,1
   14870:	018a3a03          	ld	s4,24(s4)
   14874:	f1dff06f          	j	14790 <__synccall+0xec>
   14878:	2f818513          	addi	a0,gp,760 # 1daf8 <target_sem>
   1487c:	39d020ef          	jal	ra,17418 <sem_post>
   14880:	2d818513          	addi	a0,gp,728 # 1dad8 <caller_sem>
   14884:	449020ef          	jal	ra,174cc <sem_wait>
   14888:	001a0a1b          	addiw	s4,s4,1
   1488c:	f49ff06f          	j	147d4 <__synccall+0x130>
   14890:	2f818513          	addi	a0,gp,760 # 1daf8 <target_sem>
   14894:	385020ef          	jal	ra,17418 <sem_post>
   14898:	0014849b          	addiw	s1,s1,1
   1489c:	f61ff06f          	j	147fc <__synccall+0x158>
   148a0:	42d020ef          	jal	ra,174cc <sem_wait>
   148a4:	0014849b          	addiw	s1,s1,1
   148a8:	f5dff06f          	j	14804 <__synccall+0x160>

00000000000148ac <dup>:
   148ac:	ff010113          	addi	sp,sp,-16
   148b0:	00113423          	sd	ra,8(sp)
   148b4:	01700893          	li	a7,23
   148b8:	00000073          	ecall
   148bc:	ed9fc0ef          	jal	ra,11794 <__syscall_ret>
   148c0:	00813083          	ld	ra,8(sp)
   148c4:	0005051b          	sext.w	a0,a0
   148c8:	01010113          	addi	sp,sp,16
   148cc:	00008067          	ret

00000000000148d0 <write>:
   148d0:	ff010113          	addi	sp,sp,-16
   148d4:	00060693          	mv	a3,a2
   148d8:	00000813          	li	a6,0
   148dc:	00058613          	mv	a2,a1
   148e0:	00000793          	li	a5,0
   148e4:	00050593          	mv	a1,a0
   148e8:	00000713          	li	a4,0
   148ec:	04000513          	li	a0,64
   148f0:	00113423          	sd	ra,8(sp)
   148f4:	bb5ff0ef          	jal	ra,144a8 <__syscall_cp>
   148f8:	00813083          	ld	ra,8(sp)
   148fc:	01010113          	addi	sp,sp,16
   14900:	e95fc06f          	j	11794 <__syscall_ret>

0000000000014904 <__init_tp>:
   14904:	ff010113          	addi	sp,sp,-16
   14908:	00813023          	sd	s0,0(sp)
   1490c:	00113423          	sd	ra,8(sp)
   14910:	00050413          	mv	s0,a0
   14914:	00a53023          	sd	a0,0(a0)
   14918:	0e050513          	addi	a0,a0,224
   1491c:	2a5020ef          	jal	ra,173c0 <__set_thread_area>
   14920:	04054e63          	bltz	a0,1497c <__init_tp+0x78>
   14924:	00051663          	bnez	a0,14930 <__init_tp+0x2c>
   14928:	00100713          	li	a4,1
   1492c:	bce1a423          	sw	a4,-1080(gp) # 1d3c8 <__libc>
   14930:	00100793          	li	a5,1
   14934:	04f42023          	sw	a5,64(s0)
   14938:	06000893          	li	a7,96
   1493c:	a3818513          	addi	a0,gp,-1480 # 1d238 <__thread_list_lock>
   14940:	00000073          	ecall
   14944:	c0818793          	addi	a5,gp,-1016 # 1d408 <__libc+0x40>
   14948:	0af43823          	sd	a5,176(s0)
   1494c:	09040793          	addi	a5,s0,144
   14950:	08f43823          	sd	a5,144(s0)
   14954:	9a81b783          	ld	a5,-1624(gp) # 1d1a8 <__sysinfo>
   14958:	02a42c23          	sw	a0,56(s0)
   1495c:	00843823          	sd	s0,16(s0)
   14960:	02f43023          	sd	a5,32(s0)
   14964:	00843c23          	sd	s0,24(s0)
   14968:	00000513          	li	a0,0
   1496c:	00813083          	ld	ra,8(sp)
   14970:	00013403          	ld	s0,0(sp)
   14974:	01010113          	addi	sp,sp,16
   14978:	00008067          	ret
   1497c:	fff00513          	li	a0,-1
   14980:	fedff06f          	j	1496c <__init_tp+0x68>

0000000000014984 <__copy_tls>:
   14984:	fc010113          	addi	sp,sp,-64
   14988:	bc818713          	addi	a4,gp,-1080 # 1d3c8 <__libc>
   1498c:	03073683          	ld	a3,48(a4)
   14990:	02913423          	sd	s1,40(sp)
   14994:	02073483          	ld	s1,32(a4)
   14998:	02813823          	sd	s0,48(sp)
   1499c:	02873403          	ld	s0,40(a4)
   149a0:	00369693          	slli	a3,a3,0x3
   149a4:	ff848493          	addi	s1,s1,-8
   149a8:	40d484b3          	sub	s1,s1,a3
   149ac:	f2000693          	li	a3,-224
   149b0:	fff40413          	addi	s0,s0,-1
   149b4:	40a686b3          	sub	a3,a3,a0
   149b8:	03213023          	sd	s2,32(sp)
   149bc:	00d47433          	and	s0,s0,a3
   149c0:	01873903          	ld	s2,24(a4)
   149c4:	01513423          	sd	s5,8(sp)
   149c8:	009504b3          	add	s1,a0,s1
   149cc:	00850433          	add	s0,a0,s0
   149d0:	00001ab7          	lui	s5,0x1
   149d4:	01313c23          	sd	s3,24(sp)
   149d8:	01413823          	sd	s4,16(sp)
   149dc:	01613023          	sd	s6,0(sp)
   149e0:	02113c23          	sd	ra,56(sp)
   149e4:	0e040b13          	addi	s6,s0,224
   149e8:	00848a13          	addi	s4,s1,8
   149ec:	bc818993          	addi	s3,gp,-1080 # 1d3c8 <__libc>
   149f0:	800a8a93          	addi	s5,s5,-2048 # 800 <exit-0xf920>
   149f4:	04091063          	bnez	s2,14a34 <__copy_tls+0xb0>
   149f8:	0309b783          	ld	a5,48(s3)
   149fc:	03813083          	ld	ra,56(sp)
   14a00:	00040513          	mv	a0,s0
   14a04:	00f4b023          	sd	a5,0(s1)
   14a08:	0c943c23          	sd	s1,216(s0)
   14a0c:	00943423          	sd	s1,8(s0)
   14a10:	03013403          	ld	s0,48(sp)
   14a14:	02813483          	ld	s1,40(sp)
   14a18:	02013903          	ld	s2,32(sp)
   14a1c:	01813983          	ld	s3,24(sp)
   14a20:	01013a03          	ld	s4,16(sp)
   14a24:	00813a83          	ld	s5,8(sp)
   14a28:	00013b03          	ld	s6,0(sp)
   14a2c:	04010113          	addi	sp,sp,64
   14a30:	00008067          	ret
   14a34:	02893783          	ld	a5,40(s2)
   14a38:	00893583          	ld	a1,8(s2)
   14a3c:	008a0a13          	addi	s4,s4,8
   14a40:	00fb07b3          	add	a5,s6,a5
   14a44:	015787b3          	add	a5,a5,s5
   14a48:	fefa3c23          	sd	a5,-8(s4)
   14a4c:	02893503          	ld	a0,40(s2)
   14a50:	01093603          	ld	a2,16(s2)
   14a54:	00ab0533          	add	a0,s6,a0
   14a58:	9f0ff0ef          	jal	ra,13c48 <memcpy>
   14a5c:	00093903          	ld	s2,0(s2)
   14a60:	f95ff06f          	j	149f4 <__copy_tls+0x70>

0000000000014a64 <__init_tls>:
   14a64:	01853f83          	ld	t6,24(a0)
   14a68:	02853e03          	ld	t3,40(a0)
   14a6c:	99c1a303          	lw	t1,-1636(gp) # 1d19c <__default_stacksize>
   14a70:	ff010113          	addi	sp,sp,-16
   14a74:	6474eeb7          	lui	t4,0x6474e
   14a78:	00113423          	sd	ra,8(sp)
   14a7c:	00813023          	sd	s0,0(sp)
   14a80:	000f8793          	mv	a5,t6
   14a84:	00000f13          	li	t5,0
   14a88:	00000713          	li	a4,0
   14a8c:	00000613          	li	a2,0
   14a90:	00600293          	li	t0,6
   14a94:	00200393          	li	t2,2
   14a98:	00000813          	li	a6,0
   14a9c:	00700093          	li	ra,7
   14aa0:	551e8e93          	addi	t4,t4,1361 # 6474e551 <__BSS_END__+0x647308a1>
   14aa4:	00800437          	lui	s0,0x800
   14aa8:	0c0e1c63          	bnez	t3,14b80 <__init_tls+0x11c>
   14aac:	000f0463          	beqz	t5,14ab4 <__init_tls+0x50>
   14ab0:	9861ae23          	sw	t1,-1636(gp) # 1d19c <__default_stacksize>
   14ab4:	48018793          	addi	a5,gp,1152 # 1dc80 <main_tls>
   14ab8:	bc818693          	addi	a3,gp,-1080 # 1d3c8 <__libc>
   14abc:	02060a63          	beqz	a2,14af0 <__init_tls+0x8c>
   14ac0:	01063583          	ld	a1,16(a2)
   14ac4:	00f6bc23          	sd	a5,24(a3)
   14ac8:	00e58733          	add	a4,a1,a4
   14acc:	00e7b423          	sd	a4,8(a5)
   14ad0:	02063703          	ld	a4,32(a2)
   14ad4:	00e7b823          	sd	a4,16(a5)
   14ad8:	02863703          	ld	a4,40(a2)
   14adc:	00e7bc23          	sd	a4,24(a5)
   14ae0:	03063703          	ld	a4,48(a2)
   14ae4:	02e7b023          	sd	a4,32(a5)
   14ae8:	00100713          	li	a4,1
   14aec:	02e6b823          	sd	a4,48(a3)
   14af0:	0187b803          	ld	a6,24(a5)
   14af4:	0087b583          	ld	a1,8(a5)
   14af8:	0207b503          	ld	a0,32(a5)
   14afc:	00b80733          	add	a4,a6,a1
   14b00:	fff50613          	addi	a2,a0,-1
   14b04:	40e00733          	neg	a4,a4
   14b08:	00c77733          	and	a4,a4,a2
   14b0c:	01070733          	add	a4,a4,a6
   14b10:	00c5f633          	and	a2,a1,a2
   14b14:	00e7bc23          	sd	a4,24(a5)
   14b18:	02c7b423          	sd	a2,40(a5)
   14b1c:	00700593          	li	a1,7
   14b20:	00a5e663          	bltu	a1,a0,14b2c <__init_tls+0xc8>
   14b24:	00800593          	li	a1,8
   14b28:	02b7b023          	sd	a1,32(a5)
   14b2c:	0207b783          	ld	a5,32(a5)
   14b30:	0f778593          	addi	a1,a5,247
   14b34:	00c585b3          	add	a1,a1,a2
   14b38:	00e585b3          	add	a1,a1,a4
   14b3c:	ff85f593          	andi	a1,a1,-8
   14b40:	02f6b423          	sd	a5,40(a3)
   14b44:	02b6b023          	sd	a1,32(a3)
   14b48:	16800793          	li	a5,360
   14b4c:	08b7fe63          	bgeu	a5,a1,14be8 <__init_tls+0x184>
   14b50:	0de00893          	li	a7,222
   14b54:	00000513          	li	a0,0
   14b58:	00300613          	li	a2,3
   14b5c:	02200693          	li	a3,34
   14b60:	fff00713          	li	a4,-1
   14b64:	00000793          	li	a5,0
   14b68:	00000073          	ecall
   14b6c:	e19ff0ef          	jal	ra,14984 <__copy_tls>
   14b70:	d95ff0ef          	jal	ra,14904 <__init_tp>
   14b74:	06055e63          	bgez	a0,14bf0 <__init_tls+0x18c>
   14b78:	00000023          	sb	zero,0(zero) # 0 <exit-0x10120>
   14b7c:	00100073          	ebreak
   14b80:	0007a883          	lw	a7,0(a5)
   14b84:	00589e63          	bne	a7,t0,14ba0 <__init_tls+0x13c>
   14b88:	0107b703          	ld	a4,16(a5)
   14b8c:	40ef8733          	sub	a4,t6,a4
   14b90:	02053683          	ld	a3,32(a0)
   14b94:	fffe0e13          	addi	t3,t3,-1
   14b98:	00d787b3          	add	a5,a5,a3
   14b9c:	f0dff06f          	j	14aa8 <__init_tls+0x44>
   14ba0:	02788863          	beq	a7,t2,14bd0 <__init_tls+0x16c>
   14ba4:	02188e63          	beq	a7,ra,14be0 <__init_tls+0x17c>
   14ba8:	ffd894e3          	bne	a7,t4,14b90 <__init_tls+0x12c>
   14bac:	0287b683          	ld	a3,40(a5)
   14bb0:	02031893          	slli	a7,t1,0x20
   14bb4:	0208d893          	srli	a7,a7,0x20
   14bb8:	fcd8fce3          	bgeu	a7,a3,14b90 <__init_tls+0x12c>
   14bbc:	00d47463          	bgeu	s0,a3,14bc4 <__init_tls+0x160>
   14bc0:	008006b7          	lui	a3,0x800
   14bc4:	0006831b          	sext.w	t1,a3
   14bc8:	00100f13          	li	t5,1
   14bcc:	fc5ff06f          	j	14b90 <__init_tls+0x12c>
   14bd0:	fc0800e3          	beqz	a6,14b90 <__init_tls+0x12c>
   14bd4:	0107b703          	ld	a4,16(a5)
   14bd8:	40e80733          	sub	a4,a6,a4
   14bdc:	fb5ff06f          	j	14b90 <__init_tls+0x12c>
   14be0:	00078613          	mv	a2,a5
   14be4:	fadff06f          	j	14b90 <__init_tls+0x12c>
   14be8:	31818513          	addi	a0,gp,792 # 1db18 <builtin_tls>
   14bec:	f81ff06f          	j	14b6c <__init_tls+0x108>
   14bf0:	00813083          	ld	ra,8(sp)
   14bf4:	00013403          	ld	s0,0(sp)
   14bf8:	01010113          	addi	sp,sp,16
   14bfc:	00008067          	ret

0000000000014c00 <_Exit>:
   14c00:	00050793          	mv	a5,a0
   14c04:	05e00893          	li	a7,94
   14c08:	00000073          	ecall
   14c0c:	05d00893          	li	a7,93
   14c10:	00078513          	mv	a0,a5
   14c14:	ff5ff06f          	j	14c08 <_Exit+0x8>

0000000000014c18 <__lctrans_impl>:
   14c18:	ff010113          	addi	sp,sp,-16
   14c1c:	00813023          	sd	s0,0(sp)
   14c20:	00113423          	sd	ra,8(sp)
   14c24:	00050413          	mv	s0,a0
   14c28:	00059c63          	bnez	a1,14c40 <__lctrans_impl+0x28>
   14c2c:	00040513          	mv	a0,s0
   14c30:	00813083          	ld	ra,8(sp)
   14c34:	00013403          	ld	s0,0(sp)
   14c38:	01010113          	addi	sp,sp,16
   14c3c:	00008067          	ret
   14c40:	00058793          	mv	a5,a1
   14c44:	00050613          	mv	a2,a0
   14c48:	0085b583          	ld	a1,8(a1) # ffffffff80000008 <__BSS_END__+0xffffffff7ffe2358>
   14c4c:	0007b503          	ld	a0,0(a5)
   14c50:	219020ef          	jal	ra,17668 <__mo_lookup>
   14c54:	fc051ee3          	bnez	a0,14c30 <__lctrans_impl+0x18>
   14c58:	fd5ff06f          	j	14c2c <__lctrans_impl+0x14>

0000000000014c5c <__get_locale>:
   14c5c:	e9010113          	addi	sp,sp,-368
   14c60:	16813023          	sd	s0,352(sp)
   14c64:	13513c23          	sd	s5,312(sp)
   14c68:	16113423          	sd	ra,360(sp)
   14c6c:	14913c23          	sd	s1,344(sp)
   14c70:	15213823          	sd	s2,336(sp)
   14c74:	15313423          	sd	s3,328(sp)
   14c78:	15413023          	sd	s4,320(sp)
   14c7c:	13613823          	sd	s6,304(sp)
   14c80:	13713423          	sd	s7,296(sp)
   14c84:	13813023          	sd	s8,288(sp)
   14c88:	11913c23          	sd	s9,280(sp)
   14c8c:	11a13823          	sd	s10,272(sp)
   14c90:	0005c783          	lbu	a5,0(a1)
   14c94:	00050a93          	mv	s5,a0
   14c98:	00058413          	mv	s0,a1
   14c9c:	06079263          	bnez	a5,14d00 <__get_locale+0xa4>
   14ca0:	0001b537          	lui	a0,0x1b
   14ca4:	76050513          	addi	a0,a0,1888 # 1b760 <strings+0x2a0>
   14ca8:	0e9020ef          	jal	ra,17590 <getenv>
   14cac:	00050413          	mv	s0,a0
   14cb0:	00050663          	beqz	a0,14cbc <__get_locale+0x60>
   14cb4:	00054783          	lbu	a5,0(a0)
   14cb8:	04079463          	bnez	a5,14d00 <__get_locale+0xa4>
   14cbc:	00c00793          	li	a5,12
   14cc0:	02fa87b3          	mul	a5,s5,a5
   14cc4:	0001b537          	lui	a0,0x1b
   14cc8:	78850513          	addi	a0,a0,1928 # 1b788 <envvars>
   14ccc:	00f50533          	add	a0,a0,a5
   14cd0:	0c1020ef          	jal	ra,17590 <getenv>
   14cd4:	00050413          	mv	s0,a0
   14cd8:	00050663          	beqz	a0,14ce4 <__get_locale+0x88>
   14cdc:	00054783          	lbu	a5,0(a0)
   14ce0:	02079063          	bnez	a5,14d00 <__get_locale+0xa4>
   14ce4:	0001b537          	lui	a0,0x1b
   14ce8:	76850513          	addi	a0,a0,1896 # 1b768 <strings+0x2a8>
   14cec:	0a5020ef          	jal	ra,17590 <getenv>
   14cf0:	00050413          	mv	s0,a0
   14cf4:	0a050863          	beqz	a0,14da4 <__get_locale+0x148>
   14cf8:	00054783          	lbu	a5,0(a0)
   14cfc:	0a078463          	beqz	a5,14da4 <__get_locale+0x148>
   14d00:	00000913          	li	s2,0
   14d04:	02f00713          	li	a4,47
   14d08:	01700693          	li	a3,23
   14d0c:	012407b3          	add	a5,s0,s2
   14d10:	0007c783          	lbu	a5,0(a5)
   14d14:	00078863          	beqz	a5,14d24 <__get_locale+0xc8>
   14d18:	00e78663          	beq	a5,a4,14d24 <__get_locale+0xc8>
   14d1c:	00190913          	addi	s2,s2,1
   14d20:	fed916e3          	bne	s2,a3,14d0c <__get_locale+0xb0>
   14d24:	00044783          	lbu	a5,0(s0) # 800000 <__BSS_END__+0x7e2350>
   14d28:	02e00713          	li	a4,46
   14d2c:	08e78263          	beq	a5,a4,14db0 <__get_locale+0x154>
   14d30:	01240733          	add	a4,s0,s2
   14d34:	00074703          	lbu	a4,0(a4)
   14d38:	06071c63          	bnez	a4,14db0 <__get_locale+0x154>
   14d3c:	04300713          	li	a4,67
   14d40:	00e79663          	bne	a5,a4,14d4c <__get_locale+0xf0>
   14d44:	00144783          	lbu	a5,1(s0)
   14d48:	00078e63          	beqz	a5,14d64 <__get_locale+0x108>
   14d4c:	0001b5b7          	lui	a1,0x1b
   14d50:	84858593          	addi	a1,a1,-1976 # 1a848 <CSWTCH.18+0x98>
   14d54:	00040513          	mv	a0,s0
   14d58:	cd0ff0ef          	jal	ra,14228 <strcmp>
   14d5c:	06051063          	bnez	a0,14dbc <__get_locale+0x160>
   14d60:	0e0a8e63          	beqz	s5,14e5c <__get_locale+0x200>
   14d64:	00000493          	li	s1,0
   14d68:	16813083          	ld	ra,360(sp)
   14d6c:	16013403          	ld	s0,352(sp)
   14d70:	15013903          	ld	s2,336(sp)
   14d74:	14813983          	ld	s3,328(sp)
   14d78:	14013a03          	ld	s4,320(sp)
   14d7c:	13813a83          	ld	s5,312(sp)
   14d80:	13013b03          	ld	s6,304(sp)
   14d84:	12813b83          	ld	s7,296(sp)
   14d88:	12013c03          	ld	s8,288(sp)
   14d8c:	11813c83          	ld	s9,280(sp)
   14d90:	11013d03          	ld	s10,272(sp)
   14d94:	00048513          	mv	a0,s1
   14d98:	15813483          	ld	s1,344(sp)
   14d9c:	17010113          	addi	sp,sp,368
   14da0:	00008067          	ret
   14da4:	0001b437          	lui	s0,0x1b
   14da8:	84840413          	addi	s0,s0,-1976 # 1a848 <CSWTCH.18+0x98>
   14dac:	f55ff06f          	j	14d00 <__get_locale+0xa4>
   14db0:	0001b437          	lui	s0,0x1b
   14db4:	84840413          	addi	s0,s0,-1976 # 1a848 <CSWTCH.18+0x98>
   14db8:	f8dff06f          	j	14d44 <__get_locale+0xe8>
   14dbc:	0001b5b7          	lui	a1,0x1b
   14dc0:	77058593          	addi	a1,a1,1904 # 1b770 <strings+0x2b0>
   14dc4:	00040513          	mv	a0,s0
   14dc8:	c60ff0ef          	jal	ra,14228 <strcmp>
   14dcc:	f8050ae3          	beqz	a0,14d60 <__get_locale+0x104>
   14dd0:	a4018793          	addi	a5,gp,-1472 # 1d240 <loc_head.1>
   14dd4:	0007b483          	ld	s1,0(a5)
   14dd8:	a4018a13          	addi	s4,gp,-1472 # 1d240 <loc_head.1>
   14ddc:	08049c63          	bnez	s1,14e74 <__get_locale+0x218>
   14de0:	a4818513          	addi	a0,gp,-1464 # 1d248 <lock.0>
   14de4:	d34ff0ef          	jal	ra,14318 <__lock>
   14de8:	000a3483          	ld	s1,0(s4)
   14dec:	0a049063          	bnez	s1,14e8c <__get_locale+0x230>
   14df0:	bd01a783          	lw	a5,-1072(gp) # 1d3d0 <__libc+0x8>
   14df4:	12079463          	bnez	a5,14f1c <__get_locale+0x2c0>
   14df8:	0001b537          	lui	a0,0x1b
   14dfc:	77850513          	addi	a0,a0,1912 # 1b778 <strings+0x2b8>
   14e00:	790020ef          	jal	ra,17590 <getenv>
   14e04:	00050493          	mv	s1,a0
   14e08:	10050a63          	beqz	a0,14f1c <__get_locale+0x2c0>
   14e0c:	0fe00b93          	li	s7,254
   14e10:	11010793          	addi	a5,sp,272
   14e14:	412b8bb3          	sub	s7,s7,s2
   14e18:	02f00c13          	li	s8,47
   14e1c:	01278cb3          	add	s9,a5,s2
   14e20:	0004c783          	lbu	a5,0(s1)
   14e24:	0e078c63          	beqz	a5,14f1c <__get_locale+0x2c0>
   14e28:	03a00593          	li	a1,58
   14e2c:	00048513          	mv	a0,s1
   14e30:	b54ff0ef          	jal	ra,14184 <__strchrnul>
   14e34:	00054783          	lbu	a5,0(a0)
   14e38:	40950b33          	sub	s6,a0,s1
   14e3c:	00050d13          	mv	s10,a0
   14e40:	00f037b3          	snez	a5,a5
   14e44:	40fb0b33          	sub	s6,s6,a5
   14e48:	077b6463          	bltu	s6,s7,14eb0 <__get_locale+0x254>
   14e4c:	000d4483          	lbu	s1,0(s10)
   14e50:	009034b3          	snez	s1,s1
   14e54:	009d04b3          	add	s1,s10,s1
   14e58:	fc9ff06f          	j	14e20 <__get_locale+0x1c4>
   14e5c:	00144703          	lbu	a4,1(s0)
   14e60:	02e00793          	li	a5,46
   14e64:	f0f710e3          	bne	a4,a5,14d64 <__get_locale+0x108>
   14e68:	0001c4b7          	lui	s1,0x1c
   14e6c:	ca048493          	addi	s1,s1,-864 # 1bca0 <__c_dot_utf8>
   14e70:	ef9ff06f          	j	14d68 <__get_locale+0x10c>
   14e74:	01048593          	addi	a1,s1,16
   14e78:	00040513          	mv	a0,s0
   14e7c:	bacff0ef          	jal	ra,14228 <strcmp>
   14e80:	ee0504e3          	beqz	a0,14d68 <__get_locale+0x10c>
   14e84:	0284b483          	ld	s1,40(s1)
   14e88:	f55ff06f          	j	14ddc <__get_locale+0x180>
   14e8c:	01048593          	addi	a1,s1,16
   14e90:	00040513          	mv	a0,s0
   14e94:	b94ff0ef          	jal	ra,14228 <strcmp>
   14e98:	00051863          	bnez	a0,14ea8 <__get_locale+0x24c>
   14e9c:	a4818513          	addi	a0,gp,-1464 # 1d248 <lock.0>
   14ea0:	d70ff0ef          	jal	ra,14410 <__unlock>
   14ea4:	ec5ff06f          	j	14d68 <__get_locale+0x10c>
   14ea8:	0284b483          	ld	s1,40(s1)
   14eac:	f41ff06f          	j	14dec <__get_locale+0x190>
   14eb0:	000b0613          	mv	a2,s6
   14eb4:	00048593          	mv	a1,s1
   14eb8:	01010513          	addi	a0,sp,16
   14ebc:	d8dfe0ef          	jal	ra,13c48 <memcpy>
   14ec0:	11010793          	addi	a5,sp,272
   14ec4:	016787b3          	add	a5,a5,s6
   14ec8:	f1878023          	sb	s8,-256(a5)
   14ecc:	001b0513          	addi	a0,s6,1
   14ed0:	01010793          	addi	a5,sp,16
   14ed4:	00090613          	mv	a2,s2
   14ed8:	00040593          	mv	a1,s0
   14edc:	00a78533          	add	a0,a5,a0
   14ee0:	d69fe0ef          	jal	ra,13c48 <memcpy>
   14ee4:	016c8b33          	add	s6,s9,s6
   14ee8:	f00b00a3          	sb	zero,-255(s6)
   14eec:	00810593          	addi	a1,sp,8
   14ef0:	01010513          	addi	a0,sp,16
   14ef4:	5e0020ef          	jal	ra,174d4 <__map_file>
   14ef8:	00050b13          	mv	s6,a0
   14efc:	f40508e3          	beqz	a0,14e4c <__get_locale+0x1f0>
   14f00:	03000513          	li	a0,48
   14f04:	c34fd0ef          	jal	ra,12338 <malloc>
   14f08:	00813583          	ld	a1,8(sp)
   14f0c:	00050493          	mv	s1,a0
   14f10:	02051c63          	bnez	a0,14f48 <__get_locale+0x2ec>
   14f14:	000b0513          	mv	a0,s6
   14f18:	968fe0ef          	jal	ra,13080 <__munmap>
   14f1c:	03000513          	li	a0,48
   14f20:	c18fd0ef          	jal	ra,12338 <malloc>
   14f24:	00050493          	mv	s1,a0
   14f28:	04050863          	beqz	a0,14f78 <__get_locale+0x31c>
   14f2c:	0001c7b7          	lui	a5,0x1c
   14f30:	ca078793          	addi	a5,a5,-864 # 1bca0 <__c_dot_utf8>
   14f34:	0007b703          	ld	a4,0(a5)
   14f38:	0087b783          	ld	a5,8(a5)
   14f3c:	00e53023          	sd	a4,0(a0)
   14f40:	00f53423          	sd	a5,8(a0)
   14f44:	00c0006f          	j	14f50 <__get_locale+0x2f4>
   14f48:	01653023          	sd	s6,0(a0)
   14f4c:	00b53423          	sd	a1,8(a0)
   14f50:	00090613          	mv	a2,s2
   14f54:	00040593          	mv	a1,s0
   14f58:	01048513          	addi	a0,s1,16
   14f5c:	01248933          	add	s2,s1,s2
   14f60:	ce9fe0ef          	jal	ra,13c48 <memcpy>
   14f64:	00090823          	sb	zero,16(s2)
   14f68:	000a3783          	ld	a5,0(s4)
   14f6c:	02f4b423          	sd	a5,40(s1)
   14f70:	009a3023          	sd	s1,0(s4)
   14f74:	f29ff06f          	j	14e9c <__get_locale+0x240>
   14f78:	f20a92e3          	bnez	s5,14e9c <__get_locale+0x240>
   14f7c:	0001c4b7          	lui	s1,0x1c
   14f80:	ca048493          	addi	s1,s1,-864 # 1bca0 <__c_dot_utf8>
   14f84:	f19ff06f          	j	14e9c <__get_locale+0x240>

0000000000014f88 <__expand_heap>:
   14f88:	bc818793          	addi	a5,gp,-1080 # 1d3c8 <__libc>
   14f8c:	0387b683          	ld	a3,56(a5)
   14f90:	fff00713          	li	a4,-1
   14f94:	00053583          	ld	a1,0(a0)
   14f98:	fd010113          	addi	sp,sp,-48
   14f9c:	00175713          	srli	a4,a4,0x1
   14fa0:	02113423          	sd	ra,40(sp)
   14fa4:	02813023          	sd	s0,32(sp)
   14fa8:	00913c23          	sd	s1,24(sp)
   14fac:	01213823          	sd	s2,16(sp)
   14fb0:	40d70733          	sub	a4,a4,a3
   14fb4:	00b77c63          	bgeu	a4,a1,14fcc <__expand_heap+0x44>
   14fb8:	e70fc0ef          	jal	ra,11628 <__errno_location>
   14fbc:	00c00793          	li	a5,12
   14fc0:	00f52023          	sw	a5,0(a0)
   14fc4:	00000513          	li	a0,0
   14fc8:	0c40006f          	j	1508c <__expand_heap+0x104>
   14fcc:	40b007b3          	neg	a5,a1
   14fd0:	fff68693          	addi	a3,a3,-1 # 7fffff <__BSS_END__+0x7e234f>
   14fd4:	00d7f6b3          	and	a3,a5,a3
   14fd8:	00b687b3          	add	a5,a3,a1
   14fdc:	a501b683          	ld	a3,-1456(gp) # 1d250 <brk.1>
   14fe0:	00050913          	mv	s2,a0
   14fe4:	bc818613          	addi	a2,gp,-1080 # 1d3c8 <__libc>
   14fe8:	a5018713          	addi	a4,gp,-1456 # 1d250 <brk.1>
   14fec:	02069463          	bnez	a3,15014 <__expand_heap+0x8c>
   14ff0:	0d600893          	li	a7,214
   14ff4:	00000513          	li	a0,0
   14ff8:	00000073          	ecall
   14ffc:	03863683          	ld	a3,56(a2)
   15000:	40a005b3          	neg	a1,a0
   15004:	fff68693          	addi	a3,a3,-1
   15008:	00b6f6b3          	and	a3,a3,a1
   1500c:	00a686b3          	add	a3,a3,a0
   15010:	00d73023          	sd	a3,0(a4)
   15014:	00073683          	ld	a3,0(a4)
   15018:	fff6c593          	not	a1,a3
   1501c:	08b7f463          	bgeu	a5,a1,150a4 <__expand_heap+0x11c>
   15020:	01063803          	ld	a6,16(a2)
   15024:	008008b7          	lui	a7,0x800
   15028:	00f68533          	add	a0,a3,a5
   1502c:	00080593          	mv	a1,a6
   15030:	01187463          	bgeu	a6,a7,15038 <__expand_heap+0xb0>
   15034:	008005b7          	lui	a1,0x800
   15038:	ff8008b7          	lui	a7,0xff800
   1503c:	011585b3          	add	a1,a1,a7
   15040:	00a5f463          	bgeu	a1,a0,15048 <__expand_heap+0xc0>
   15044:	0706e063          	bltu	a3,a6,150a4 <__expand_heap+0x11c>
   15048:	00810813          	addi	a6,sp,8
   1504c:	008008b7          	lui	a7,0x800
   15050:	00080593          	mv	a1,a6
   15054:	01187463          	bgeu	a6,a7,1505c <__expand_heap+0xd4>
   15058:	008005b7          	lui	a1,0x800
   1505c:	ff8008b7          	lui	a7,0xff800
   15060:	011585b3          	add	a1,a1,a7
   15064:	00a5f463          	bgeu	a1,a0,1506c <__expand_heap+0xe4>
   15068:	0306ee63          	bltu	a3,a6,150a4 <__expand_heap+0x11c>
   1506c:	0d600893          	li	a7,214
   15070:	00000073          	ecall
   15074:	00050693          	mv	a3,a0
   15078:	00073503          	ld	a0,0(a4)
   1507c:	00f505b3          	add	a1,a0,a5
   15080:	02b69263          	bne	a3,a1,150a4 <__expand_heap+0x11c>
   15084:	00f93023          	sd	a5,0(s2)
   15088:	00d73023          	sd	a3,0(a4)
   1508c:	02813083          	ld	ra,40(sp)
   15090:	02013403          	ld	s0,32(sp)
   15094:	01813483          	ld	s1,24(sp)
   15098:	01013903          	ld	s2,16(sp)
   1509c:	03010113          	addi	sp,sp,48
   150a0:	00008067          	ret
   150a4:	a581a583          	lw	a1,-1448(gp) # 1d258 <mmap_step.0>
   150a8:	03863403          	ld	s0,56(a2)
   150ac:	a5818493          	addi	s1,gp,-1448 # 1d258 <mmap_step.0>
   150b0:	0015d59b          	srliw	a1,a1,0x1
   150b4:	00b41433          	sll	s0,s0,a1
   150b8:	00f47463          	bgeu	s0,a5,150c0 <__expand_heap+0x138>
   150bc:	00078413          	mv	s0,a5
   150c0:	00000793          	li	a5,0
   150c4:	fff00713          	li	a4,-1
   150c8:	02200693          	li	a3,34
   150cc:	00300613          	li	a2,3
   150d0:	00040593          	mv	a1,s0
   150d4:	00000513          	li	a0,0
   150d8:	e4dfd0ef          	jal	ra,12f24 <__mmap>
   150dc:	fff00793          	li	a5,-1
   150e0:	eef502e3          	beq	a0,a5,14fc4 <__expand_heap+0x3c>
   150e4:	0004a783          	lw	a5,0(s1)
   150e8:	00893023          	sd	s0,0(s2)
   150ec:	0017879b          	addiw	a5,a5,1
   150f0:	00f4a023          	sw	a5,0(s1)
   150f4:	f99ff06f          	j	1508c <__expand_heap+0x104>

00000000000150f8 <a_fetch_or.isra.0>:
   150f8:	00052783          	lw	a5,0(a0)
   150fc:	0007879b          	sext.w	a5,a5
   15100:	00b7e6b3          	or	a3,a5,a1
   15104:	1605272f          	lr.w.aqrl	a4,(a0)
   15108:	00f71663          	bne	a4,a5,15114 <a_fetch_or.isra.0+0x1c>
   1510c:	1ed5262f          	sc.w.aqrl	a2,a3,(a0)
   15110:	fe061ae3          	bnez	a2,15104 <a_fetch_or.isra.0+0xc>
   15114:	0007071b          	sext.w	a4,a4
   15118:	fee790e3          	bne	a5,a4,150f8 <a_fetch_or.isra.0>
   1511c:	00008067          	ret

0000000000015120 <__get_handler_set>:
   15120:	00800613          	li	a2,8
   15124:	a6818593          	addi	a1,gp,-1432 # 1d268 <handler_set>
   15128:	b21fe06f          	j	13c48 <memcpy>

000000000001512c <__libc_sigaction>:
   1512c:	f8010113          	addi	sp,sp,-128
   15130:	06813823          	sd	s0,112(sp)
   15134:	07213023          	sd	s2,96(sp)
   15138:	05313c23          	sd	s3,88(sp)
   1513c:	06113c23          	sd	ra,120(sp)
   15140:	06913423          	sd	s1,104(sp)
   15144:	05413823          	sd	s4,80(sp)
   15148:	00050993          	mv	s3,a0
   1514c:	00058413          	mv	s0,a1
   15150:	00060913          	mv	s2,a2
   15154:	10058a63          	beqz	a1,15268 <__libc_sigaction+0x13c>
   15158:	0005b783          	ld	a5,0(a1) # 800000 <__BSS_END__+0x7e2350>
   1515c:	00100493          	li	s1,1
   15160:	0af4f263          	bgeu	s1,a5,15204 <__libc_sigaction+0xd8>
   15164:	fff5051b          	addiw	a0,a0,-1
   15168:	00050593          	mv	a1,a0
   1516c:	00655513          	srli	a0,a0,0x6
   15170:	00b494b3          	sll	s1,s1,a1
   15174:	00351513          	slli	a0,a0,0x3
   15178:	a6818a13          	addi	s4,gp,-1432 # 1d268 <handler_set>
   1517c:	0004859b          	sext.w	a1,s1
   15180:	00aa0a33          	add	s4,s4,a0
   15184:	00058663          	beqz	a1,15190 <__libc_sigaction+0x64>
   15188:	000a0513          	mv	a0,s4
   1518c:	f6dff0ef          	jal	ra,150f8 <a_fetch_or.isra.0>
   15190:	4204d593          	srai	a1,s1,0x20
   15194:	00058663          	beqz	a1,151a0 <__libc_sigaction+0x74>
   15198:	004a0513          	addi	a0,s4,4
   1519c:	f5dff0ef          	jal	ra,150f8 <a_fetch_or.isra.0>
   151a0:	a7018713          	addi	a4,gp,-1424 # 1d270 <unmask_done>
   151a4:	bcc1a783          	lw	a5,-1076(gp) # 1d3cc <__libc+0x4>
   151a8:	00072683          	lw	a3,0(a4)
   151ac:	00d7e7b3          	or	a5,a5,a3
   151b0:	0007879b          	sext.w	a5,a5
   151b4:	02079863          	bnez	a5,151e4 <__libc_sigaction+0xb8>
   151b8:	00300793          	li	a5,3
   151bc:	02079793          	slli	a5,a5,0x20
   151c0:	02f13823          	sd	a5,48(sp)
   151c4:	08700893          	li	a7,135
   151c8:	00100513          	li	a0,1
   151cc:	03010593          	addi	a1,sp,48
   151d0:	00000613          	li	a2,0
   151d4:	00800693          	li	a3,8
   151d8:	00000073          	ecall
   151dc:	00100793          	li	a5,1
   151e0:	00f72023          	sw	a5,0(a4)
   151e4:	08842783          	lw	a5,136(s0)
   151e8:	10000737          	lui	a4,0x10000
   151ec:	00e7f7b3          	and	a5,a5,a4
   151f0:	00079a63          	bnez	a5,15204 <__libc_sigaction+0xd8>
   151f4:	0330000f          	fence	rw,rw
   151f8:	00100713          	li	a4,1
   151fc:	a4e1ae23          	sw	a4,-1444(gp) # 1d25c <__eintr_valid_flag>
   15200:	0330000f          	fence	rw,rw
   15204:	00043783          	ld	a5,0(s0)
   15208:	00078e63          	beqz	a5,15224 <__libc_sigaction+0xf8>
   1520c:	00600793          	li	a5,6
   15210:	00f99a63          	bne	s3,a5,15224 <__libc_sigaction+0xf8>
   15214:	00810513          	addi	a0,sp,8
   15218:	8fcfe0ef          	jal	ra,13314 <__block_all_sigs>
   1521c:	a6018513          	addi	a0,gp,-1440 # 1d260 <__abort_lock>
   15220:	8f8ff0ef          	jal	ra,14318 <__lock>
   15224:	00043783          	ld	a5,0(s0)
   15228:	04000737          	lui	a4,0x4000
   1522c:	00f13823          	sd	a5,16(sp)
   15230:	08842783          	lw	a5,136(s0)
   15234:	00e7e733          	or	a4,a5,a4
   15238:	00e13c23          	sd	a4,24(sp)
   1523c:	0047f793          	andi	a5,a5,4
   15240:	0c079263          	bnez	a5,15304 <__libc_sigaction+0x1d8>
   15244:	000187b7          	lui	a5,0x18
   15248:	a0078793          	addi	a5,a5,-1536 # 17a00 <__restore>
   1524c:	00840593          	addi	a1,s0,8
   15250:	00800613          	li	a2,8
   15254:	02810513          	addi	a0,sp,40
   15258:	02f13023          	sd	a5,32(sp)
   1525c:	9edfe0ef          	jal	ra,13c48 <memcpy>
   15260:	01010593          	addi	a1,sp,16
   15264:	00041463          	bnez	s0,1526c <__libc_sigaction+0x140>
   15268:	00000593          	li	a1,0
   1526c:	00000613          	li	a2,0
   15270:	00090463          	beqz	s2,15278 <__libc_sigaction+0x14c>
   15274:	03010613          	addi	a2,sp,48
   15278:	08600893          	li	a7,134
   1527c:	00098513          	mv	a0,s3
   15280:	00800693          	li	a3,8
   15284:	00000073          	ecall
   15288:	00600793          	li	a5,6
   1528c:	0005049b          	sext.w	s1,a0
   15290:	02f99063          	bne	s3,a5,152b0 <__libc_sigaction+0x184>
   15294:	00040e63          	beqz	s0,152b0 <__libc_sigaction+0x184>
   15298:	00043783          	ld	a5,0(s0)
   1529c:	00078a63          	beqz	a5,152b0 <__libc_sigaction+0x184>
   152a0:	a6018513          	addi	a0,gp,-1440 # 1d260 <__abort_lock>
   152a4:	96cff0ef          	jal	ra,14410 <__unlock>
   152a8:	00810513          	addi	a0,sp,8
   152ac:	8a0fe0ef          	jal	ra,1334c <__restore_sigs>
   152b0:	02090463          	beqz	s2,152d8 <__libc_sigaction+0x1ac>
   152b4:	02049263          	bnez	s1,152d8 <__libc_sigaction+0x1ac>
   152b8:	03013783          	ld	a5,48(sp)
   152bc:	00800613          	li	a2,8
   152c0:	04810593          	addi	a1,sp,72
   152c4:	00f93023          	sd	a5,0(s2)
   152c8:	03813783          	ld	a5,56(sp)
   152cc:	00890513          	addi	a0,s2,8
   152d0:	08f92423          	sw	a5,136(s2)
   152d4:	975fe0ef          	jal	ra,13c48 <memcpy>
   152d8:	00048513          	mv	a0,s1
   152dc:	cb8fc0ef          	jal	ra,11794 <__syscall_ret>
   152e0:	07813083          	ld	ra,120(sp)
   152e4:	07013403          	ld	s0,112(sp)
   152e8:	06813483          	ld	s1,104(sp)
   152ec:	06013903          	ld	s2,96(sp)
   152f0:	05813983          	ld	s3,88(sp)
   152f4:	05013a03          	ld	s4,80(sp)
   152f8:	0005051b          	sext.w	a0,a0
   152fc:	08010113          	addi	sp,sp,128
   15300:	00008067          	ret
   15304:	000187b7          	lui	a5,0x18
   15308:	a0078793          	addi	a5,a5,-1536 # 17a00 <__restore>
   1530c:	f41ff06f          	j	1524c <__libc_sigaction+0x120>

0000000000015310 <__sigaction>:
   15310:	fe05069b          	addiw	a3,a0,-32
   15314:	00200713          	li	a4,2
   15318:	00d77a63          	bgeu	a4,a3,1532c <__sigaction+0x1c>
   1531c:	fff5079b          	addiw	a5,a0,-1
   15320:	03f00713          	li	a4,63
   15324:	00f76463          	bltu	a4,a5,1532c <__sigaction+0x1c>
   15328:	e05ff06f          	j	1512c <__libc_sigaction>
   1532c:	ff010113          	addi	sp,sp,-16
   15330:	00113423          	sd	ra,8(sp)
   15334:	af4fc0ef          	jal	ra,11628 <__errno_location>
   15338:	00813083          	ld	ra,8(sp)
   1533c:	01600793          	li	a5,22
   15340:	00f52023          	sw	a5,0(a0)
   15344:	fff00513          	li	a0,-1
   15348:	01010113          	addi	sp,sp,16
   1534c:	00008067          	ret

0000000000015350 <__overflow>:
   15350:	02053783          	ld	a5,32(a0)
   15354:	fe010113          	addi	sp,sp,-32
   15358:	00813823          	sd	s0,16(sp)
   1535c:	00113c23          	sd	ra,24(sp)
   15360:	00b107a3          	sb	a1,15(sp)
   15364:	00050413          	mv	s0,a0
   15368:	02078a63          	beqz	a5,1539c <__overflow+0x4c>
   1536c:	02843783          	ld	a5,40(s0)
   15370:	02043703          	ld	a4,32(s0)
   15374:	04e79263          	bne	a5,a4,153b8 <__overflow+0x68>
   15378:	04843783          	ld	a5,72(s0)
   1537c:	00100613          	li	a2,1
   15380:	00f10593          	addi	a1,sp,15
   15384:	00040513          	mv	a0,s0
   15388:	000780e7          	jalr	a5
   1538c:	00100793          	li	a5,1
   15390:	00f51a63          	bne	a0,a5,153a4 <__overflow+0x54>
   15394:	00f14503          	lbu	a0,15(sp)
   15398:	0100006f          	j	153a8 <__overflow+0x58>
   1539c:	184000ef          	jal	ra,15520 <__towrite>
   153a0:	fc0506e3          	beqz	a0,1536c <__overflow+0x1c>
   153a4:	fff00513          	li	a0,-1
   153a8:	01813083          	ld	ra,24(sp)
   153ac:	01013403          	ld	s0,16(sp)
   153b0:	02010113          	addi	sp,sp,32
   153b4:	00008067          	ret
   153b8:	00f14703          	lbu	a4,15(sp)
   153bc:	09042683          	lw	a3,144(s0)
   153c0:	0007051b          	sext.w	a0,a4
   153c4:	fae68ae3          	beq	a3,a4,15378 <__overflow+0x28>
   153c8:	00178693          	addi	a3,a5,1
   153cc:	02d43423          	sd	a3,40(s0)
   153d0:	00e78023          	sb	a4,0(a5)
   153d4:	fd5ff06f          	j	153a8 <__overflow+0x58>

00000000000153d8 <__aio_close>:
   153d8:	00008067          	ret

00000000000153dc <__stdio_close>:
   153dc:	07852503          	lw	a0,120(a0)
   153e0:	ff010113          	addi	sp,sp,-16
   153e4:	00113423          	sd	ra,8(sp)
   153e8:	ff1ff0ef          	jal	ra,153d8 <__aio_close>
   153ec:	03900893          	li	a7,57
   153f0:	00000073          	ecall
   153f4:	ba0fc0ef          	jal	ra,11794 <__syscall_ret>
   153f8:	00813083          	ld	ra,8(sp)
   153fc:	0005051b          	sext.w	a0,a0
   15400:	01010113          	addi	sp,sp,16
   15404:	00008067          	ret

0000000000015408 <__stdio_seek>:
   15408:	07852503          	lw	a0,120(a0)
   1540c:	1780206f          	j	17584 <__lseek>

0000000000015410 <__stdio_write>:
   15410:	fb010113          	addi	sp,sp,-80
   15414:	03853783          	ld	a5,56(a0)
   15418:	03313423          	sd	s3,40(sp)
   1541c:	02853983          	ld	s3,40(a0)
   15420:	04813023          	sd	s0,64(sp)
   15424:	02913c23          	sd	s1,56(sp)
   15428:	40f989b3          	sub	s3,s3,a5
   1542c:	03213823          	sd	s2,48(sp)
   15430:	03413023          	sd	s4,32(sp)
   15434:	01313423          	sd	s3,8(sp)
   15438:	04113423          	sd	ra,72(sp)
   1543c:	00050413          	mv	s0,a0
   15440:	00060913          	mv	s2,a2
   15444:	00f13023          	sd	a5,0(sp)
   15448:	00b13823          	sd	a1,16(sp)
   1544c:	00c13c23          	sd	a2,24(sp)
   15450:	00c989b3          	add	s3,s3,a2
   15454:	00200a13          	li	s4,2
   15458:	00010493          	mv	s1,sp
   1545c:	07842503          	lw	a0,120(s0)
   15460:	04200893          	li	a7,66
   15464:	00048593          	mv	a1,s1
   15468:	000a0613          	mv	a2,s4
   1546c:	00000073          	ecall
   15470:	b24fc0ef          	jal	ra,11794 <__syscall_ret>
   15474:	04a99063          	bne	s3,a0,154b4 <__stdio_write+0xa4>
   15478:	05843783          	ld	a5,88(s0)
   1547c:	06043703          	ld	a4,96(s0)
   15480:	02f43c23          	sd	a5,56(s0)
   15484:	00e78733          	add	a4,a5,a4
   15488:	02e43023          	sd	a4,32(s0)
   1548c:	02f43423          	sd	a5,40(s0)
   15490:	04813083          	ld	ra,72(sp)
   15494:	04013403          	ld	s0,64(sp)
   15498:	03813483          	ld	s1,56(sp)
   1549c:	02813983          	ld	s3,40(sp)
   154a0:	02013a03          	ld	s4,32(sp)
   154a4:	00090513          	mv	a0,s2
   154a8:	03013903          	ld	s2,48(sp)
   154ac:	05010113          	addi	sp,sp,80
   154b0:	00008067          	ret
   154b4:	02055863          	bgez	a0,154e4 <__stdio_write+0xd4>
   154b8:	00042783          	lw	a5,0(s0)
   154bc:	02043023          	sd	zero,32(s0)
   154c0:	02043c23          	sd	zero,56(s0)
   154c4:	0207e793          	ori	a5,a5,32
   154c8:	00f42023          	sw	a5,0(s0)
   154cc:	02043423          	sd	zero,40(s0)
   154d0:	00200793          	li	a5,2
   154d4:	04fa0263          	beq	s4,a5,15518 <__stdio_write+0x108>
   154d8:	0084b783          	ld	a5,8(s1)
   154dc:	40f90933          	sub	s2,s2,a5
   154e0:	fb1ff06f          	j	15490 <__stdio_write+0x80>
   154e4:	0084b783          	ld	a5,8(s1)
   154e8:	40a989b3          	sub	s3,s3,a0
   154ec:	00a7f863          	bgeu	a5,a0,154fc <__stdio_write+0xec>
   154f0:	40f50533          	sub	a0,a0,a5
   154f4:	01048493          	addi	s1,s1,16
   154f8:	fffa0a1b          	addiw	s4,s4,-1
   154fc:	0004b783          	ld	a5,0(s1)
   15500:	00a787b3          	add	a5,a5,a0
   15504:	00f4b023          	sd	a5,0(s1)
   15508:	0084b783          	ld	a5,8(s1)
   1550c:	40a78533          	sub	a0,a5,a0
   15510:	00a4b423          	sd	a0,8(s1)
   15514:	f49ff06f          	j	1545c <__stdio_write+0x4c>
   15518:	00000913          	li	s2,0
   1551c:	f75ff06f          	j	15490 <__stdio_write+0x80>

0000000000015520 <__towrite>:
   15520:	08852783          	lw	a5,136(a0)
   15524:	fff7871b          	addiw	a4,a5,-1
   15528:	00e7e7b3          	or	a5,a5,a4
   1552c:	08f52423          	sw	a5,136(a0)
   15530:	00052783          	lw	a5,0(a0)
   15534:	0087f713          	andi	a4,a5,8
   15538:	00070a63          	beqz	a4,1554c <__towrite+0x2c>
   1553c:	0207e793          	ori	a5,a5,32
   15540:	00f52023          	sw	a5,0(a0)
   15544:	fff00513          	li	a0,-1
   15548:	00008067          	ret
   1554c:	05853783          	ld	a5,88(a0)
   15550:	06053703          	ld	a4,96(a0)
   15554:	00053823          	sd	zero,16(a0)
   15558:	02f53c23          	sd	a5,56(a0)
   1555c:	02f53423          	sd	a5,40(a0)
   15560:	00e787b3          	add	a5,a5,a4
   15564:	00053423          	sd	zero,8(a0)
   15568:	02f53023          	sd	a5,32(a0)
   1556c:	00000513          	li	a0,0
   15570:	00008067          	ret

0000000000015574 <__towrite_needs_stdio_exit>:
   15574:	5180206f          	j	17a8c <__stdio_exit>

0000000000015578 <pop_arg>:
   15578:	ff75859b          	addiw	a1,a1,-9
   1557c:	0005871b          	sext.w	a4,a1
   15580:	01100793          	li	a5,17
   15584:	0ee7ea63          	bltu	a5,a4,15678 <pop_arg+0x100>
   15588:	02059593          	slli	a1,a1,0x20
   1558c:	0001c7b7          	lui	a5,0x1c
   15590:	89c78793          	addi	a5,a5,-1892 # 1b89c <__fsmu8+0xcc>
   15594:	01e5d593          	srli	a1,a1,0x1e
   15598:	00f585b3          	add	a1,a1,a5
   1559c:	0005a703          	lw	a4,0(a1)
   155a0:	ff010113          	addi	sp,sp,-16
   155a4:	00813023          	sd	s0,0(sp)
   155a8:	00063783          	ld	a5,0(a2)
   155ac:	00113423          	sd	ra,8(sp)
   155b0:	00050413          	mv	s0,a0
   155b4:	00070067          	jr	a4 # 4000000 <__BSS_END__+0x3fe2350>
   155b8:	00878713          	addi	a4,a5,8
   155bc:	0007a783          	lw	a5,0(a5)
   155c0:	00e63023          	sd	a4,0(a2)
   155c4:	00f43023          	sd	a5,0(s0)
   155c8:	00813083          	ld	ra,8(sp)
   155cc:	00013403          	ld	s0,0(sp)
   155d0:	01010113          	addi	sp,sp,16
   155d4:	00008067          	ret
   155d8:	00878713          	addi	a4,a5,8
   155dc:	00e63023          	sd	a4,0(a2)
   155e0:	0007e783          	lwu	a5,0(a5)
   155e4:	fe1ff06f          	j	155c4 <pop_arg+0x4c>
   155e8:	00878713          	addi	a4,a5,8
   155ec:	00e63023          	sd	a4,0(a2)
   155f0:	00079783          	lh	a5,0(a5)
   155f4:	fd1ff06f          	j	155c4 <pop_arg+0x4c>
   155f8:	00878713          	addi	a4,a5,8
   155fc:	00e63023          	sd	a4,0(a2)
   15600:	0007d783          	lhu	a5,0(a5)
   15604:	fc1ff06f          	j	155c4 <pop_arg+0x4c>
   15608:	00878713          	addi	a4,a5,8
   1560c:	00e63023          	sd	a4,0(a2)
   15610:	00078783          	lb	a5,0(a5)
   15614:	fb1ff06f          	j	155c4 <pop_arg+0x4c>
   15618:	00878713          	addi	a4,a5,8
   1561c:	00e63023          	sd	a4,0(a2)
   15620:	0007c783          	lbu	a5,0(a5)
   15624:	fa1ff06f          	j	155c4 <pop_arg+0x4c>
   15628:	00878713          	addi	a4,a5,8
   1562c:	00e63023          	sd	a4,0(a2)
   15630:	0007b783          	ld	a5,0(a5)
   15634:	f91ff06f          	j	155c4 <pop_arg+0x4c>
   15638:	0007b503          	ld	a0,0(a5)
   1563c:	00878713          	addi	a4,a5,8
   15640:	00e63023          	sd	a4,0(a2)
   15644:	4bd040ef          	jal	ra,1a300 <__extenddftf2>
   15648:	00a43023          	sd	a0,0(s0)
   1564c:	00b43423          	sd	a1,8(s0)
   15650:	f79ff06f          	j	155c8 <pop_arg+0x50>
   15654:	00f78793          	addi	a5,a5,15
   15658:	ff07f793          	andi	a5,a5,-16
   1565c:	01078713          	addi	a4,a5,16
   15660:	00e63023          	sd	a4,0(a2)
   15664:	0007b703          	ld	a4,0(a5)
   15668:	0087b783          	ld	a5,8(a5)
   1566c:	00e53023          	sd	a4,0(a0)
   15670:	00f53423          	sd	a5,8(a0)
   15674:	f55ff06f          	j	155c8 <pop_arg+0x50>
   15678:	00008067          	ret

000000000001567c <fmt_u>:
   1567c:	00050793          	mv	a5,a0
   15680:	00a00693          	li	a3,10
   15684:	00058513          	mv	a0,a1
   15688:	00079463          	bnez	a5,15690 <fmt_u+0x14>
   1568c:	00008067          	ret
   15690:	02d7f733          	remu	a4,a5,a3
   15694:	fff50513          	addi	a0,a0,-1
   15698:	0307071b          	addiw	a4,a4,48
   1569c:	02d7d7b3          	divu	a5,a5,a3
   156a0:	00e50023          	sb	a4,0(a0)
   156a4:	fe5ff06f          	j	15688 <fmt_u+0xc>

00000000000156a8 <getint>:
   156a8:	0cccd637          	lui	a2,0xcccd
   156ac:	800005b7          	lui	a1,0x80000
   156b0:	00050693          	mv	a3,a0
   156b4:	00900313          	li	t1,9
   156b8:	00000513          	li	a0,0
   156bc:	ccc60613          	addi	a2,a2,-820 # ccccccc <__BSS_END__+0xccaf01c>
   156c0:	ff600e13          	li	t3,-10
   156c4:	fff5c593          	not	a1,a1
   156c8:	00a00e93          	li	t4,10
   156cc:	0006b703          	ld	a4,0(a3)
   156d0:	00074783          	lbu	a5,0(a4)
   156d4:	fd07889b          	addiw	a7,a5,-48
   156d8:	00088793          	mv	a5,a7
   156dc:	01137463          	bgeu	t1,a7,156e4 <getint+0x3c>
   156e0:	00008067          	ret
   156e4:	02a66263          	bltu	a2,a0,15708 <getint+0x60>
   156e8:	02ae083b          	mulw	a6,t3,a0
   156ec:	00b8083b          	addw	a6,a6,a1
   156f0:	01184c63          	blt	a6,a7,15708 <getint+0x60>
   156f4:	02ae853b          	mulw	a0,t4,a0
   156f8:	00a7853b          	addw	a0,a5,a0
   156fc:	00170713          	addi	a4,a4,1
   15700:	00e6b023          	sd	a4,0(a3)
   15704:	fc9ff06f          	j	156cc <getint+0x24>
   15708:	fff00513          	li	a0,-1
   1570c:	ff1ff06f          	j	156fc <getint+0x54>

0000000000015710 <out>:
   15710:	00050793          	mv	a5,a0
   15714:	0007a703          	lw	a4,0(a5)
   15718:	00058513          	mv	a0,a1
   1571c:	00060593          	mv	a1,a2
   15720:	02077713          	andi	a4,a4,32
   15724:	00071663          	bnez	a4,15730 <out+0x20>
   15728:	00078613          	mv	a2,a5
   1572c:	f61fd06f          	j	1368c <__fwritex>
   15730:	00008067          	ret

0000000000015734 <pad>:
   15734:	000127b7          	lui	a5,0x12
   15738:	00f77733          	and	a4,a4,a5
   1573c:	08071e63          	bnez	a4,157d8 <pad+0xa4>
   15740:	08c6dc63          	bge	a3,a2,157d8 <pad+0xa4>
   15744:	ed010113          	addi	sp,sp,-304
   15748:	12813023          	sd	s0,288(sp)
   1574c:	10913c23          	sd	s1,280(sp)
   15750:	11213823          	sd	s2,272(sp)
   15754:	40d604bb          	subw	s1,a2,a3
   15758:	12113423          	sd	ra,296(sp)
   1575c:	11313423          	sd	s3,264(sp)
   15760:	10000793          	li	a5,256
   15764:	00050913          	mv	s2,a0
   15768:	00048413          	mv	s0,s1
   1576c:	0004861b          	sext.w	a2,s1
   15770:	0097d463          	bge	a5,s1,15778 <pad+0x44>
   15774:	10000613          	li	a2,256
   15778:	00010513          	mv	a0,sp
   1577c:	911fe0ef          	jal	ra,1408c <memset>
   15780:	0ff00993          	li	s3,255
   15784:	0299ce63          	blt	s3,s1,157c0 <pad+0x8c>
   15788:	0084561b          	srliw	a2,s0,0x8
   1578c:	f0000793          	li	a5,-256
   15790:	02f6063b          	mulw	a2,a2,a5
   15794:	00010593          	mv	a1,sp
   15798:	00090513          	mv	a0,s2
   1579c:	0086063b          	addw	a2,a2,s0
   157a0:	f71ff0ef          	jal	ra,15710 <out>
   157a4:	12813083          	ld	ra,296(sp)
   157a8:	12013403          	ld	s0,288(sp)
   157ac:	11813483          	ld	s1,280(sp)
   157b0:	11013903          	ld	s2,272(sp)
   157b4:	10813983          	ld	s3,264(sp)
   157b8:	13010113          	addi	sp,sp,304
   157bc:	00008067          	ret
   157c0:	10000613          	li	a2,256
   157c4:	00010593          	mv	a1,sp
   157c8:	00090513          	mv	a0,s2
   157cc:	f45ff0ef          	jal	ra,15710 <out>
   157d0:	f004849b          	addiw	s1,s1,-256
   157d4:	fb1ff06f          	j	15784 <pad+0x50>
   157d8:	00008067          	ret

00000000000157dc <fmt_fp>:
   157dc:	fffff337          	lui	t1,0xfffff
   157e0:	81010113          	addi	sp,sp,-2032
   157e4:	a3030313          	addi	t1,t1,-1488 # ffffffffffffea30 <__BSS_END__+0xfffffffffffe0d80>
   157e8:	7e813023          	sd	s0,2016(sp)
   157ec:	7c913c23          	sd	s1,2008(sp)
   157f0:	7d313423          	sd	s3,1992(sp)
   157f4:	7d413023          	sd	s4,1984(sp)
   157f8:	7b613823          	sd	s6,1968(sp)
   157fc:	7b813023          	sd	s8,1952(sp)
   15800:	79913c23          	sd	s9,1944(sp)
   15804:	7e113423          	sd	ra,2024(sp)
   15808:	7d213823          	sd	s2,2000(sp)
   1580c:	7b513c23          	sd	s5,1976(sp)
   15810:	7b713423          	sd	s7,1960(sp)
   15814:	79a13823          	sd	s10,1936(sp)
   15818:	79b13423          	sd	s11,1928(sp)
   1581c:	00070413          	mv	s0,a4
   15820:	00610133          	add	sp,sp,t1
   15824:	00002737          	lui	a4,0x2
   15828:	00068993          	mv	s3,a3
   1582c:	d1070713          	addi	a4,a4,-752 # 1d10 <exit-0xe410>
   15830:	04010693          	addi	a3,sp,64
   15834:	00078a13          	mv	s4,a5
   15838:	00d70733          	add	a4,a4,a3
   1583c:	ffffe7b7          	lui	a5,0xffffe
   15840:	00f707b3          	add	a5,a4,a5
   15844:	00050493          	mv	s1,a0
   15848:	00058c93          	mv	s9,a1
   1584c:	00058513          	mv	a0,a1
   15850:	00060593          	mv	a1,a2
   15854:	00060c13          	mv	s8,a2
   15858:	00080b13          	mv	s6,a6
   1585c:	00f13023          	sd	a5,0(sp)
   15860:	2e07ae23          	sw	zero,764(a5) # ffffffffffffe2fc <__BSS_END__+0xfffffffffffe064c>
   15864:	08c020ef          	jal	ra,178f0 <__signbitl>
   15868:	10050e63          	beqz	a0,15984 <fmt_fp+0x1a8>
   1586c:	fff00793          	li	a5,-1
   15870:	03f79793          	slli	a5,a5,0x3f
   15874:	0001c937          	lui	s2,0x1c
   15878:	00fc4c33          	xor	s8,s8,a5
   1587c:	00100a93          	li	s5,1
   15880:	8e890913          	addi	s2,s2,-1816 # 1b8e8 <__fsmu8+0x118>
   15884:	000c8513          	mv	a0,s9
   15888:	000c0593          	mv	a1,s8
   1588c:	020020ef          	jal	ra,178ac <__fpclassifyl>
   15890:	00100793          	li	a5,1
   15894:	14a7c863          	blt	a5,a0,159e4 <fmt_fp+0x208>
   15898:	020b7b13          	andi	s6,s6,32
   1589c:	120b1863          	bnez	s6,159cc <fmt_fp+0x1f0>
   158a0:	0001cbb7          	lui	s7,0x1c
   158a4:	908b8b93          	addi	s7,s7,-1784 # 1b908 <__fsmu8+0x138>
   158a8:	000c8613          	mv	a2,s9
   158ac:	000c0693          	mv	a3,s8
   158b0:	000c8513          	mv	a0,s9
   158b4:	000c0593          	mv	a1,s8
   158b8:	38c030ef          	jal	ra,18c44 <__eqtf2>
   158bc:	00050863          	beqz	a0,158cc <fmt_fp+0xf0>
   158c0:	100b1c63          	bnez	s6,159d8 <fmt_fp+0x1fc>
   158c4:	0001cbb7          	lui	s7,0x1c
   158c8:	918b8b93          	addi	s7,s7,-1768 # 1b918 <__fsmu8+0x148>
   158cc:	ffff0737          	lui	a4,0xffff0
   158d0:	003a8b1b          	addiw	s6,s5,3
   158d4:	fff70713          	addi	a4,a4,-1 # fffffffffffeffff <__BSS_END__+0xfffffffffffd234f>
   158d8:	00ea7733          	and	a4,s4,a4
   158dc:	000b0693          	mv	a3,s6
   158e0:	00098613          	mv	a2,s3
   158e4:	02000593          	li	a1,32
   158e8:	00048513          	mv	a0,s1
   158ec:	e49ff0ef          	jal	ra,15734 <pad>
   158f0:	000a8613          	mv	a2,s5
   158f4:	00090593          	mv	a1,s2
   158f8:	00048513          	mv	a0,s1
   158fc:	e15ff0ef          	jal	ra,15710 <out>
   15900:	00300613          	li	a2,3
   15904:	000b8593          	mv	a1,s7
   15908:	00048513          	mv	a0,s1
   1590c:	e05ff0ef          	jal	ra,15710 <out>
   15910:	00002737          	lui	a4,0x2
   15914:	00ea4733          	xor	a4,s4,a4
   15918:	000b0693          	mv	a3,s6
   1591c:	00098613          	mv	a2,s3
   15920:	02000593          	li	a1,32
   15924:	00048513          	mv	a0,s1
   15928:	000b0413          	mv	s0,s6
   1592c:	e09ff0ef          	jal	ra,15734 <pad>
   15930:	013b5463          	bge	s6,s3,15938 <fmt_fp+0x15c>
   15934:	00098413          	mv	s0,s3
   15938:	0004051b          	sext.w	a0,s0
   1593c:	00001337          	lui	t1,0x1
   15940:	5d030313          	addi	t1,t1,1488 # 15d0 <exit-0xeb50>
   15944:	00610133          	add	sp,sp,t1
   15948:	7e813083          	ld	ra,2024(sp)
   1594c:	7e013403          	ld	s0,2016(sp)
   15950:	7d813483          	ld	s1,2008(sp)
   15954:	7d013903          	ld	s2,2000(sp)
   15958:	7c813983          	ld	s3,1992(sp)
   1595c:	7c013a03          	ld	s4,1984(sp)
   15960:	7b813a83          	ld	s5,1976(sp)
   15964:	7b013b03          	ld	s6,1968(sp)
   15968:	7a813b83          	ld	s7,1960(sp)
   1596c:	7a013c03          	ld	s8,1952(sp)
   15970:	79813c83          	ld	s9,1944(sp)
   15974:	79013d03          	ld	s10,1936(sp)
   15978:	78813d83          	ld	s11,1928(sp)
   1597c:	7f010113          	addi	sp,sp,2032
   15980:	00008067          	ret
   15984:	00ba5713          	srli	a4,s4,0xb
   15988:	00177713          	andi	a4,a4,1
   1598c:	000a079b          	sext.w	a5,s4
   15990:	00071e63          	bnez	a4,159ac <fmt_fp+0x1d0>
   15994:	0017f793          	andi	a5,a5,1
   15998:	02079263          	bnez	a5,159bc <fmt_fp+0x1e0>
   1599c:	0001c937          	lui	s2,0x1c
   159a0:	00050a93          	mv	s5,a0
   159a4:	8e990913          	addi	s2,s2,-1815 # 1b8e9 <__fsmu8+0x119>
   159a8:	eddff06f          	j	15884 <fmt_fp+0xa8>
   159ac:	0001c937          	lui	s2,0x1c
   159b0:	00100a93          	li	s5,1
   159b4:	8eb90913          	addi	s2,s2,-1813 # 1b8eb <__fsmu8+0x11b>
   159b8:	ecdff06f          	j	15884 <fmt_fp+0xa8>
   159bc:	0001c937          	lui	s2,0x1c
   159c0:	00100a93          	li	s5,1
   159c4:	8ee90913          	addi	s2,s2,-1810 # 1b8ee <__fsmu8+0x11e>
   159c8:	ebdff06f          	j	15884 <fmt_fp+0xa8>
   159cc:	0001cbb7          	lui	s7,0x1c
   159d0:	900b8b93          	addi	s7,s7,-1792 # 1b900 <__fsmu8+0x130>
   159d4:	ed5ff06f          	j	158a8 <fmt_fp+0xcc>
   159d8:	0001cbb7          	lui	s7,0x1c
   159dc:	910b8b93          	addi	s7,s7,-1776 # 1b910 <__fsmu8+0x140>
   159e0:	eedff06f          	j	158cc <fmt_fp+0xf0>
   159e4:	00002bb7          	lui	s7,0x2
   159e8:	04010713          	addi	a4,sp,64
   159ec:	ffffed37          	lui	s10,0xffffe
   159f0:	d10b8793          	addi	a5,s7,-752 # 1d10 <exit-0xe410>
   159f4:	00e787b3          	add	a5,a5,a4
   159f8:	2fcd0613          	addi	a2,s10,764 # ffffffffffffe2fc <__BSS_END__+0xfffffffffffe064c>
   159fc:	00c78633          	add	a2,a5,a2
   15a00:	000c8513          	mv	a0,s9
   15a04:	000c0593          	mv	a1,s8
   15a08:	6f1010ef          	jal	ra,178f8 <frexpl>
   15a0c:	00050613          	mv	a2,a0
   15a10:	00058693          	mv	a3,a1
   15a14:	738020ef          	jal	ra,1814c <__addtf3>
   15a18:	00000613          	li	a2,0
   15a1c:	00000693          	li	a3,0
   15a20:	00050c93          	mv	s9,a0
   15a24:	00058d93          	mv	s11,a1
   15a28:	00a13023          	sd	a0,0(sp)
   15a2c:	00058c13          	mv	s8,a1
   15a30:	214030ef          	jal	ra,18c44 <__eqtf2>
   15a34:	000c8713          	mv	a4,s9
   15a38:	02050263          	beqz	a0,15a5c <fmt_fp+0x280>
   15a3c:	04010693          	addi	a3,sp,64
   15a40:	d10b8793          	addi	a5,s7,-752
   15a44:	00d787b3          	add	a5,a5,a3
   15a48:	01a787b3          	add	a5,a5,s10
   15a4c:	2fc7a683          	lw	a3,764(a5)
   15a50:	00f13023          	sd	a5,0(sp)
   15a54:	fff6869b          	addiw	a3,a3,-1
   15a58:	2ed7ae23          	sw	a3,764(a5)
   15a5c:	020b6793          	ori	a5,s6,32
   15a60:	00f13023          	sd	a5,0(sp)
   15a64:	06100693          	li	a3,97
   15a68:	3cd79a63          	bne	a5,a3,15e3c <fmt_fp+0x660>
   15a6c:	020b7793          	andi	a5,s6,32
   15a70:	00f13c23          	sd	a5,24(sp)
   15a74:	00078463          	beqz	a5,15a7c <fmt_fp+0x2a0>
   15a78:	00990913          	addi	s2,s2,9
   15a7c:	002a879b          	addiw	a5,s5,2
   15a80:	00078a93          	mv	s5,a5
   15a84:	00f13023          	sd	a5,0(sp)
   15a88:	0004079b          	sext.w	a5,s0
   15a8c:	00f13823          	sd	a5,16(sp)
   15a90:	01a00693          	li	a3,26
   15a94:	0001cd37          	lui	s10,0x1c
   15a98:	0686e263          	bltu	a3,s0,15afc <fmt_fp+0x320>
   15a9c:	a48d3b83          	ld	s7,-1464(s10) # 1ba48 <__fsmu8+0x278>
   15aa0:	01b00c13          	li	s8,27
   15aa4:	408c0c3b          	subw	s8,s8,s0
   15aa8:	00000c93          	li	s9,0
   15aac:	fff00813          	li	a6,-1
   15ab0:	000b8693          	mv	a3,s7
   15ab4:	fffc0c1b          	addiw	s8,s8,-1
   15ab8:	210c1863          	bne	s8,a6,15cc8 <fmt_fp+0x4ec>
   15abc:	00094603          	lbu	a2,0(s2)
   15ac0:	02d00693          	li	a3,45
   15ac4:	22d61a63          	bne	a2,a3,15cf8 <fmt_fp+0x51c>
   15ac8:	03fc1c13          	slli	s8,s8,0x3f
   15acc:	000c8613          	mv	a2,s9
   15ad0:	000b8693          	mv	a3,s7
   15ad4:	00070513          	mv	a0,a4
   15ad8:	018dc5b3          	xor	a1,s11,s8
   15adc:	2b1030ef          	jal	ra,1958c <__subtf3>
   15ae0:	00050613          	mv	a2,a0
   15ae4:	00058693          	mv	a3,a1
   15ae8:	000c8513          	mv	a0,s9
   15aec:	000b8593          	mv	a1,s7
   15af0:	65c020ef          	jal	ra,1814c <__addtf3>
   15af4:	00050c93          	mv	s9,a0
   15af8:	0185cc33          	xor	s8,a1,s8
   15afc:	000026b7          	lui	a3,0x2
   15b00:	ffffe7b7          	lui	a5,0xffffe
   15b04:	04010613          	addi	a2,sp,64
   15b08:	d1068713          	addi	a4,a3,-752 # 1d10 <exit-0xe410>
   15b0c:	30078b93          	addi	s7,a5,768 # ffffffffffffe300 <__BSS_END__+0xfffffffffffe0650>
   15b10:	00c70733          	add	a4,a4,a2
   15b14:	01770bb3          	add	s7,a4,s7
   15b18:	d1068713          	addi	a4,a3,-752
   15b1c:	00c70733          	add	a4,a4,a2
   15b20:	00f707b3          	add	a5,a4,a5
   15b24:	00f13423          	sd	a5,8(sp)
   15b28:	2fc7a783          	lw	a5,764(a5)
   15b2c:	00cb8d93          	addi	s11,s7,12
   15b30:	000d8593          	mv	a1,s11
   15b34:	41f7d51b          	sraiw	a0,a5,0x1f
   15b38:	00f547b3          	xor	a5,a0,a5
   15b3c:	40a7853b          	subw	a0,a5,a0
   15b40:	b3dff0ef          	jal	ra,1567c <fmt_u>
   15b44:	01b51a63          	bne	a0,s11,15b58 <fmt_fp+0x37c>
   15b48:	00813703          	ld	a4,8(sp)
   15b4c:	03000793          	li	a5,48
   15b50:	00bb8513          	addi	a0,s7,11
   15b54:	30f705a3          	sb	a5,779(a4) # 230b <exit-0xde15>
   15b58:	00002737          	lui	a4,0x2
   15b5c:	d1070713          	addi	a4,a4,-752 # 1d10 <exit-0xe410>
   15b60:	04010693          	addi	a3,sp,64
   15b64:	00d70733          	add	a4,a4,a3
   15b68:	ffffe7b7          	lui	a5,0xffffe
   15b6c:	00f707b3          	add	a5,a4,a5
   15b70:	2fc7a703          	lw	a4,764(a5) # ffffffffffffe2fc <__BSS_END__+0xfffffffffffe064c>
   15b74:	00f13423          	sd	a5,8(sp)
   15b78:	02d00793          	li	a5,45
   15b7c:	00074463          	bltz	a4,15b84 <fmt_fp+0x3a8>
   15b80:	02b00793          	li	a5,43
   15b84:	00002737          	lui	a4,0x2
   15b88:	fef50fa3          	sb	a5,-1(a0)
   15b8c:	d1070713          	addi	a4,a4,-752 # 1d10 <exit-0xe410>
   15b90:	ffffe7b7          	lui	a5,0xffffe
   15b94:	04010693          	addi	a3,sp,64
   15b98:	31078793          	addi	a5,a5,784 # ffffffffffffe310 <__BSS_END__+0xfffffffffffe0660>
   15b9c:	00d70733          	add	a4,a4,a3
   15ba0:	00f70db3          	add	s11,a4,a5
   15ba4:	0001c737          	lui	a4,0x1c
   15ba8:	c9070793          	addi	a5,a4,-880 # 1bc90 <xdigits>
   15bac:	00f13423          	sd	a5,8(sp)
   15bb0:	a48d3783          	ld	a5,-1464(s10)
   15bb4:	00fb0b1b          	addiw	s6,s6,15
   15bb8:	ffe50b93          	addi	s7,a0,-2
   15bbc:	ff650f23          	sb	s6,-2(a0)
   15bc0:	02f13423          	sd	a5,40(sp)
   15bc4:	03b13023          	sd	s11,32(sp)
   15bc8:	008a7d13          	andi	s10,s4,8
   15bcc:	000c0593          	mv	a1,s8
   15bd0:	000c8513          	mv	a0,s9
   15bd4:	4b8040ef          	jal	ra,1a08c <__fixtfsi>
   15bd8:	00813783          	ld	a5,8(sp)
   15bdc:	0005051b          	sext.w	a0,a0
   15be0:	001d8b13          	addi	s6,s11,1
   15be4:	00a78733          	add	a4,a5,a0
   15be8:	00074703          	lbu	a4,0(a4)
   15bec:	01813783          	ld	a5,24(sp)
   15bf0:	00e7e733          	or	a4,a5,a4
   15bf4:	00ed8023          	sb	a4,0(s11)
   15bf8:	61c040ef          	jal	ra,1a214 <__floatsitf>
   15bfc:	00050613          	mv	a2,a0
   15c00:	00058693          	mv	a3,a1
   15c04:	000c8513          	mv	a0,s9
   15c08:	000c0593          	mv	a1,s8
   15c0c:	181030ef          	jal	ra,1958c <__subtf3>
   15c10:	02813683          	ld	a3,40(sp)
   15c14:	00000613          	li	a2,0
   15c18:	0fc030ef          	jal	ra,18d14 <__multf3>
   15c1c:	02013783          	ld	a5,32(sp)
   15c20:	00050813          	mv	a6,a0
   15c24:	00058713          	mv	a4,a1
   15c28:	40fb06b3          	sub	a3,s6,a5
   15c2c:	00100793          	li	a5,1
   15c30:	00050c93          	mv	s9,a0
   15c34:	00058c13          	mv	s8,a1
   15c38:	02f69c63          	bne	a3,a5,15c70 <fmt_fp+0x494>
   15c3c:	00000613          	li	a2,0
   15c40:	00000693          	li	a3,0
   15c44:	02b13c23          	sd	a1,56(sp)
   15c48:	02a13823          	sd	a0,48(sp)
   15c4c:	7f9020ef          	jal	ra,18c44 <__eqtf2>
   15c50:	000c8813          	mv	a6,s9
   15c54:	000c0713          	mv	a4,s8
   15c58:	00051663          	bnez	a0,15c64 <fmt_fp+0x488>
   15c5c:	00804463          	bgtz	s0,15c64 <fmt_fp+0x488>
   15c60:	020d0463          	beqz	s10,15c88 <fmt_fp+0x4ac>
   15c64:	02e00793          	li	a5,46
   15c68:	002d8b13          	addi	s6,s11,2
   15c6c:	00fd80a3          	sb	a5,1(s11)
   15c70:	00000613          	li	a2,0
   15c74:	00000693          	li	a3,0
   15c78:	00080513          	mv	a0,a6
   15c7c:	00070593          	mv	a1,a4
   15c80:	7c5020ef          	jal	ra,18c44 <__eqtf2>
   15c84:	0a051063          	bnez	a0,15d24 <fmt_fp+0x548>
   15c88:	000027b7          	lui	a5,0x2
   15c8c:	04010693          	addi	a3,sp,64
   15c90:	d1078793          	addi	a5,a5,-752 # 1d10 <exit-0xe410>
   15c94:	00d787b3          	add	a5,a5,a3
   15c98:	ffffe737          	lui	a4,0xffffe
   15c9c:	00e78c33          	add	s8,a5,a4
   15ca0:	00013683          	ld	a3,0(sp)
   15ca4:	30cc0c13          	addi	s8,s8,780
   15ca8:	800007b7          	lui	a5,0x80000
   15cac:	417c0c33          	sub	s8,s8,s7
   15cb0:	ffd7c793          	xori	a5,a5,-3
   15cb4:	418787b3          	sub	a5,a5,s8
   15cb8:	40d787b3          	sub	a5,a5,a3
   15cbc:	0687d863          	bge	a5,s0,15d2c <fmt_fp+0x550>
   15cc0:	fff00513          	li	a0,-1
   15cc4:	c79ff06f          	j	1593c <fmt_fp+0x160>
   15cc8:	000c8513          	mv	a0,s9
   15ccc:	000b8593          	mv	a1,s7
   15cd0:	00000613          	li	a2,0
   15cd4:	00e13423          	sd	a4,8(sp)
   15cd8:	03c030ef          	jal	ra,18d14 <__multf3>
   15cdc:	040037b7          	lui	a5,0x4003
   15ce0:	00813703          	ld	a4,8(sp)
   15ce4:	00050c93          	mv	s9,a0
   15ce8:	00058b93          	mv	s7,a1
   15cec:	fff00813          	li	a6,-1
   15cf0:	02479693          	slli	a3,a5,0x24
   15cf4:	dc1ff06f          	j	15ab4 <fmt_fp+0x2d8>
   15cf8:	00070613          	mv	a2,a4
   15cfc:	000d8693          	mv	a3,s11
   15d00:	000c8513          	mv	a0,s9
   15d04:	000b8593          	mv	a1,s7
   15d08:	444020ef          	jal	ra,1814c <__addtf3>
   15d0c:	000c8613          	mv	a2,s9
   15d10:	000b8693          	mv	a3,s7
   15d14:	079030ef          	jal	ra,1958c <__subtf3>
   15d18:	00050c93          	mv	s9,a0
   15d1c:	00058c13          	mv	s8,a1
   15d20:	dddff06f          	j	15afc <fmt_fp+0x320>
   15d24:	000b0d93          	mv	s11,s6
   15d28:	ea5ff06f          	j	15bcc <fmt_fp+0x3f0>
   15d2c:	000027b7          	lui	a5,0x2
   15d30:	d1078793          	addi	a5,a5,-752 # 1d10 <exit-0xe410>
   15d34:	04010693          	addi	a3,sp,64
   15d38:	00d787b3          	add	a5,a5,a3
   15d3c:	31070713          	addi	a4,a4,784 # ffffffffffffe310 <__BSS_END__+0xfffffffffffe0660>
   15d40:	00e78733          	add	a4,a5,a4
   15d44:	40eb0b33          	sub	s6,s6,a4
   15d48:	000c079b          	sext.w	a5,s8
   15d4c:	016c0dbb          	addw	s11,s8,s6
   15d50:	0e040263          	beqz	s0,15e34 <fmt_fp+0x658>
   15d54:	fffb0713          	addi	a4,s6,-1
   15d58:	0ce44e63          	blt	s0,a4,15e34 <fmt_fp+0x658>
   15d5c:	01013703          	ld	a4,16(sp)
   15d60:	0027041b          	addiw	s0,a4,2
   15d64:	00f4043b          	addw	s0,s0,a5
   15d68:	01540cbb          	addw	s9,s0,s5
   15d6c:	000a0713          	mv	a4,s4
   15d70:	000c8693          	mv	a3,s9
   15d74:	00098613          	mv	a2,s3
   15d78:	02000593          	li	a1,32
   15d7c:	00048513          	mv	a0,s1
   15d80:	9b5ff0ef          	jal	ra,15734 <pad>
   15d84:	00013603          	ld	a2,0(sp)
   15d88:	00090593          	mv	a1,s2
   15d8c:	00048513          	mv	a0,s1
   15d90:	981ff0ef          	jal	ra,15710 <out>
   15d94:	00010737          	lui	a4,0x10
   15d98:	000c8693          	mv	a3,s9
   15d9c:	00ea4733          	xor	a4,s4,a4
   15da0:	00098613          	mv	a2,s3
   15da4:	03000593          	li	a1,48
   15da8:	00048513          	mv	a0,s1
   15dac:	989ff0ef          	jal	ra,15734 <pad>
   15db0:	000027b7          	lui	a5,0x2
   15db4:	04010713          	addi	a4,sp,64
   15db8:	ffffe5b7          	lui	a1,0xffffe
   15dbc:	d1078793          	addi	a5,a5,-752 # 1d10 <exit-0xe410>
   15dc0:	00e787b3          	add	a5,a5,a4
   15dc4:	31058593          	addi	a1,a1,784 # ffffffffffffe310 <__BSS_END__+0xfffffffffffe0660>
   15dc8:	00b785b3          	add	a1,a5,a1
   15dcc:	000b0613          	mv	a2,s6
   15dd0:	00048513          	mv	a0,s1
   15dd4:	93dff0ef          	jal	ra,15710 <out>
   15dd8:	00000713          	li	a4,0
   15ddc:	00000693          	li	a3,0
   15de0:	41b4063b          	subw	a2,s0,s11
   15de4:	03000593          	li	a1,48
   15de8:	00048513          	mv	a0,s1
   15dec:	949ff0ef          	jal	ra,15734 <pad>
   15df0:	000c0613          	mv	a2,s8
   15df4:	000b8593          	mv	a1,s7
   15df8:	00048513          	mv	a0,s1
   15dfc:	915ff0ef          	jal	ra,15710 <out>
   15e00:	000a091b          	sext.w	s2,s4
   15e04:	00002737          	lui	a4,0x2
   15e08:	00e94733          	xor	a4,s2,a4
   15e0c:	000c8693          	mv	a3,s9
   15e10:	00098613          	mv	a2,s3
   15e14:	02000593          	li	a1,32
   15e18:	00048513          	mv	a0,s1
   15e1c:	000c8a93          	mv	s5,s9
   15e20:	915ff0ef          	jal	ra,15734 <pad>
   15e24:	013cd463          	bge	s9,s3,15e2c <fmt_fp+0x650>
   15e28:	00098a93          	mv	s5,s3
   15e2c:	000a851b          	sext.w	a0,s5
   15e30:	b0dff06f          	j	1593c <fmt_fp+0x160>
   15e34:	000d841b          	sext.w	s0,s11
   15e38:	f31ff06f          	j	15d68 <fmt_fp+0x58c>
   15e3c:	00045463          	bgez	s0,15e44 <fmt_fp+0x668>
   15e40:	00600413          	li	s0,6
   15e44:	00000613          	li	a2,0
   15e48:	00000693          	li	a3,0
   15e4c:	00070513          	mv	a0,a4
   15e50:	000d8593          	mv	a1,s11
   15e54:	00e13823          	sd	a4,16(sp)
   15e58:	5ed020ef          	jal	ra,18c44 <__eqtf2>
   15e5c:	04050a63          	beqz	a0,15eb0 <fmt_fp+0x6d4>
   15e60:	01013703          	ld	a4,16(sp)
   15e64:	0001c6b7          	lui	a3,0x1c
   15e68:	aa86b683          	ld	a3,-1368(a3) # 1baa8 <__fsmu8+0x2d8>
   15e6c:	00070513          	mv	a0,a4
   15e70:	00000613          	li	a2,0
   15e74:	000d8593          	mv	a1,s11
   15e78:	69d020ef          	jal	ra,18d14 <__multf3>
   15e7c:	00002737          	lui	a4,0x2
   15e80:	d1070713          	addi	a4,a4,-752 # 1d10 <exit-0xe410>
   15e84:	04010693          	addi	a3,sp,64
   15e88:	00d70733          	add	a4,a4,a3
   15e8c:	ffffe7b7          	lui	a5,0xffffe
   15e90:	00f707b3          	add	a5,a4,a5
   15e94:	00f13823          	sd	a5,16(sp)
   15e98:	2fc7a783          	lw	a5,764(a5) # ffffffffffffe2fc <__BSS_END__+0xfffffffffffe064c>
   15e9c:	01013703          	ld	a4,16(sp)
   15ea0:	00050c93          	mv	s9,a0
   15ea4:	fe47879b          	addiw	a5,a5,-28
   15ea8:	00058c13          	mv	s8,a1
   15eac:	2ef72e23          	sw	a5,764(a4)
   15eb0:	04c12303          	lw	t1,76(sp)
   15eb4:	00002737          	lui	a4,0x2
   15eb8:	b4870693          	addi	a3,a4,-1208 # 1b48 <exit-0xe5d8>
   15ebc:	04010613          	addi	a2,sp,64
   15ec0:	ffffe7b7          	lui	a5,0xffffe
   15ec4:	00d608b3          	add	a7,a2,a3
   15ec8:	00035a63          	bgez	t1,15edc <fmt_fp+0x700>
   15ecc:	d1070713          	addi	a4,a4,-752
   15ed0:	33878793          	addi	a5,a5,824 # ffffffffffffe338 <__BSS_END__+0xfffffffffffe0688>
   15ed4:	00c70733          	add	a4,a4,a2
   15ed8:	00f708b3          	add	a7,a4,a5
   15edc:	0001c737          	lui	a4,0x1c
   15ee0:	ab873d83          	ld	s11,-1352(a4) # 1bab8 <__fsmu8+0x2e8>
   15ee4:	00088d13          	mv	s10,a7
   15ee8:	000c0593          	mv	a1,s8
   15eec:	000c8513          	mv	a0,s9
   15ef0:	01113c23          	sd	a7,24(sp)
   15ef4:	00613823          	sd	t1,16(sp)
   15ef8:	268040ef          	jal	ra,1a160 <__fixunstfsi>
   15efc:	00ad2023          	sw	a0,0(s10)
   15f00:	0005051b          	sext.w	a0,a0
   15f04:	398040ef          	jal	ra,1a29c <__floatunsitf>
   15f08:	00050613          	mv	a2,a0
   15f0c:	00058693          	mv	a3,a1
   15f10:	000c8513          	mv	a0,s9
   15f14:	000c0593          	mv	a1,s8
   15f18:	674030ef          	jal	ra,1958c <__subtf3>
   15f1c:	00000613          	li	a2,0
   15f20:	000d8693          	mv	a3,s11
   15f24:	5f1020ef          	jal	ra,18d14 <__multf3>
   15f28:	00000613          	li	a2,0
   15f2c:	00000693          	li	a3,0
   15f30:	00050c93          	mv	s9,a0
   15f34:	00058c13          	mv	s8,a1
   15f38:	50d020ef          	jal	ra,18c44 <__eqtf2>
   15f3c:	01013303          	ld	t1,16(sp)
   15f40:	01813883          	ld	a7,24(sp)
   15f44:	004d0d13          	addi	s10,s10,4
   15f48:	fa0510e3          	bnez	a0,15ee8 <fmt_fp+0x70c>
   15f4c:	3b9ad537          	lui	a0,0x3b9ad
   15f50:	00088b93          	mv	s7,a7
   15f54:	00000713          	li	a4,0
   15f58:	01d00e13          	li	t3,29
   15f5c:	a0050513          	addi	a0,a0,-1536 # 3b9aca00 <__BSS_END__+0x3b98ed50>
   15f60:	1a604c63          	bgtz	t1,16118 <fmt_fp+0x93c>
   15f64:	02070263          	beqz	a4,15f88 <fmt_fp+0x7ac>
   15f68:	000027b7          	lui	a5,0x2
   15f6c:	d1078793          	addi	a5,a5,-752 # 1d10 <exit-0xe410>
   15f70:	04010693          	addi	a3,sp,64
   15f74:	ffffe737          	lui	a4,0xffffe
   15f78:	00d787b3          	add	a5,a5,a3
   15f7c:	00e787b3          	add	a5,a5,a4
   15f80:	00f13823          	sd	a5,16(sp)
   15f84:	2e67ae23          	sw	t1,764(a5)
   15f88:	00900693          	li	a3,9
   15f8c:	02d4071b          	addiw	a4,s0,45
   15f90:	02d7573b          	divuw	a4,a4,a3
   15f94:	000027b7          	lui	a5,0x2
   15f98:	04010613          	addi	a2,sp,64
   15f9c:	d1078793          	addi	a5,a5,-752 # 1d10 <exit-0xe410>
   15fa0:	ffffe6b7          	lui	a3,0xffffe
   15fa4:	00c787b3          	add	a5,a5,a2
   15fa8:	00d787b3          	add	a5,a5,a3
   15fac:	2fc7a683          	lw	a3,764(a5)
   15fb0:	3b9ade37          	lui	t3,0x3b9ad
   15fb4:	00f13823          	sd	a5,16(sp)
   15fb8:	00000613          	li	a2,0
   15fbc:	ff700f13          	li	t5,-9
   15fc0:	00100f93          	li	t6,1
   15fc4:	a00e0e1b          	addiw	t3,t3,-1536
   15fc8:	06600293          	li	t0,102
   15fcc:	0017071b          	addiw	a4,a4,1
   15fd0:	02071713          	slli	a4,a4,0x20
   15fd4:	02075713          	srli	a4,a4,0x20
   15fd8:	00271e93          	slli	t4,a4,0x2
   15fdc:	1a06c663          	bltz	a3,16188 <fmt_fp+0x9ac>
   15fe0:	02060263          	beqz	a2,16004 <fmt_fp+0x828>
   15fe4:	000027b7          	lui	a5,0x2
   15fe8:	d1078793          	addi	a5,a5,-752 # 1d10 <exit-0xe410>
   15fec:	04010613          	addi	a2,sp,64
   15ff0:	ffffe737          	lui	a4,0xffffe
   15ff4:	00c787b3          	add	a5,a5,a2
   15ff8:	00e787b3          	add	a5,a5,a4
   15ffc:	00f13823          	sd	a5,16(sp)
   16000:	2ed7ae23          	sw	a3,764(a5)
   16004:	00000313          	li	t1,0
   16008:	03abf263          	bgeu	s7,s10,1602c <fmt_fp+0x850>
   1600c:	41788333          	sub	t1,a7,s7
   16010:	000ba683          	lw	a3,0(s7)
   16014:	40235713          	srai	a4,t1,0x2
   16018:	00900313          	li	t1,9
   1601c:	02e3033b          	mulw	t1,t1,a4
   16020:	00a00613          	li	a2,10
   16024:	00a00713          	li	a4,10
   16028:	1ee6f463          	bgeu	a3,a4,16210 <fmt_fp+0xa34>
   1602c:	00013783          	ld	a5,0(sp)
   16030:	06700613          	li	a2,103
   16034:	00000693          	li	a3,0
   16038:	f9a78713          	addi	a4,a5,-102
   1603c:	00e03733          	snez	a4,a4
   16040:	0267073b          	mulw	a4,a4,t1
   16044:	40e4073b          	subw	a4,s0,a4
   16048:	00c79463          	bne	a5,a2,16050 <fmt_fp+0x874>
   1604c:	008036b3          	snez	a3,s0
   16050:	40d7063b          	subw	a2,a4,a3
   16054:	411d0733          	sub	a4,s10,a7
   16058:	40275713          	srai	a4,a4,0x2
   1605c:	fff70713          	addi	a4,a4,-1 # ffffffffffffdfff <__BSS_END__+0xfffffffffffe034f>
   16060:	00900593          	li	a1,9
   16064:	02b70733          	mul	a4,a4,a1
   16068:	24e65663          	bge	a2,a4,162b4 <fmt_fp+0xad8>
   1606c:	00024737          	lui	a4,0x24
   16070:	00c7073b          	addw	a4,a4,a2
   16074:	00900613          	li	a2,9
   16078:	02c74c3b          	divw	s8,a4,a2
   1607c:	ffff06b7          	lui	a3,0xffff0
   16080:	00468693          	addi	a3,a3,4 # ffffffffffff0004 <__BSS_END__+0xfffffffffffd2354>
   16084:	00a00593          	li	a1,10
   16088:	02c7673b          	remw	a4,a4,a2
   1608c:	002c1c13          	slli	s8,s8,0x2
   16090:	00dc0c33          	add	s8,s8,a3
   16094:	01888c33          	add	s8,a7,s8
   16098:	00a00693          	li	a3,10
   1609c:	00900613          	li	a2,9
   160a0:	0017071b          	addiw	a4,a4,1
   160a4:	16c71c63          	bne	a4,a2,1621c <fmt_fp+0xa40>
   160a8:	000c2d83          	lw	s11,0(s8)
   160ac:	00068e1b          	sext.w	t3,a3
   160b0:	02ddf63b          	remuw	a2,s11,a3
   160b4:	00060593          	mv	a1,a2
   160b8:	00061663          	bnez	a2,160c4 <fmt_fp+0x8e8>
   160bc:	004c0713          	addi	a4,s8,4
   160c0:	1eed0463          	beq	s10,a4,162a8 <fmt_fp+0xacc>
   160c4:	03cdd73b          	divuw	a4,s11,t3
   160c8:	00177713          	andi	a4,a4,1
   160cc:	02071063          	bnez	a4,160ec <fmt_fp+0x910>
   160d0:	3b9ad737          	lui	a4,0x3b9ad
   160d4:	a0070713          	addi	a4,a4,-1536 # 3b9aca00 <__BSS_END__+0x3b98ed50>
   160d8:	14e69863          	bne	a3,a4,16228 <fmt_fp+0xa4c>
   160dc:	158bf663          	bgeu	s7,s8,16228 <fmt_fp+0xa4c>
   160e0:	ffcc2703          	lw	a4,-4(s8)
   160e4:	00177713          	andi	a4,a4,1
   160e8:	14070063          	beqz	a4,16228 <fmt_fp+0xa4c>
   160ec:	0001c537          	lui	a0,0x1c
   160f0:	a6853c83          	ld	s9,-1432(a0) # 1ba68 <__fsmu8+0x298>
   160f4:	00100713          	li	a4,1
   160f8:	4016d693          	srai	a3,a3,0x1
   160fc:	12d66e63          	bltu	a2,a3,16238 <fmt_fp+0xa5c>
   16100:	00c69663          	bne	a3,a2,1610c <fmt_fp+0x930>
   16104:	004c0693          	addi	a3,s8,4
   16108:	38dd0e63          	beq	s10,a3,164a4 <fmt_fp+0xcc8>
   1610c:	0001c6b7          	lui	a3,0x1c
   16110:	a786b683          	ld	a3,-1416(a3) # 1ba78 <__fsmu8+0x2a8>
   16114:	12c0006f          	j	16240 <fmt_fp+0xa64>
   16118:	0003061b          	sext.w	a2,t1
   1611c:	006e5463          	bge	t3,t1,16124 <fmt_fp+0x948>
   16120:	01d00613          	li	a2,29
   16124:	ffcd0593          	addi	a1,s10,-4
   16128:	00000713          	li	a4,0
   1612c:	0375f463          	bgeu	a1,s7,16154 <fmt_fp+0x978>
   16130:	00070663          	beqz	a4,1613c <fmt_fp+0x960>
   16134:	feebae23          	sw	a4,-4(s7)
   16138:	ffcb8b93          	addi	s7,s7,-4
   1613c:	01abf663          	bgeu	s7,s10,16148 <fmt_fp+0x96c>
   16140:	ffcd2703          	lw	a4,-4(s10)
   16144:	02070e63          	beqz	a4,16180 <fmt_fp+0x9a4>
   16148:	40c3033b          	subw	t1,t1,a2
   1614c:	00100713          	li	a4,1
   16150:	e11ff06f          	j	15f60 <fmt_fp+0x784>
   16154:	0005e683          	lwu	a3,0(a1)
   16158:	02071713          	slli	a4,a4,0x20
   1615c:	02075713          	srli	a4,a4,0x20
   16160:	00c696b3          	sll	a3,a3,a2
   16164:	00e68733          	add	a4,a3,a4
   16168:	02a776b3          	remu	a3,a4,a0
   1616c:	ffc58593          	addi	a1,a1,-4
   16170:	02a75733          	divu	a4,a4,a0
   16174:	00d5a223          	sw	a3,4(a1)
   16178:	0007071b          	sext.w	a4,a4
   1617c:	fb1ff06f          	j	1612c <fmt_fp+0x950>
   16180:	ffcd0d13          	addi	s10,s10,-4
   16184:	fb9ff06f          	j	1613c <fmt_fp+0x960>
   16188:	00900593          	li	a1,9
   1618c:	01e6c463          	blt	a3,t5,16194 <fmt_fp+0x9b8>
   16190:	40d005bb          	negw	a1,a3
   16194:	00bf93bb          	sllw	t2,t6,a1
   16198:	fff3839b          	addiw	t2,t2,-1
   1619c:	40be5c3b          	sraw	s8,t3,a1
   161a0:	000b8613          	mv	a2,s7
   161a4:	00000513          	li	a0,0
   161a8:	05a66463          	bltu	a2,s10,161f0 <fmt_fp+0xa14>
   161ac:	000ba603          	lw	a2,0(s7)
   161b0:	00061463          	bnez	a2,161b8 <fmt_fp+0x9dc>
   161b4:	004b8b93          	addi	s7,s7,4
   161b8:	00050663          	beqz	a0,161c4 <fmt_fp+0x9e8>
   161bc:	00ad2023          	sw	a0,0(s10)
   161c0:	004d0d13          	addi	s10,s10,4
   161c4:	00013783          	ld	a5,0(sp)
   161c8:	00088613          	mv	a2,a7
   161cc:	00578463          	beq	a5,t0,161d4 <fmt_fp+0x9f8>
   161d0:	000b8613          	mv	a2,s7
   161d4:	40cd0533          	sub	a0,s10,a2
   161d8:	40255513          	srai	a0,a0,0x2
   161dc:	00a75463          	bge	a4,a0,161e4 <fmt_fp+0xa08>
   161e0:	01d60d33          	add	s10,a2,t4
   161e4:	00b686bb          	addw	a3,a3,a1
   161e8:	00100613          	li	a2,1
   161ec:	df1ff06f          	j	15fdc <fmt_fp+0x800>
   161f0:	00062303          	lw	t1,0(a2)
   161f4:	00460613          	addi	a2,a2,4
   161f8:	00b35cbb          	srlw	s9,t1,a1
   161fc:	00ac853b          	addw	a0,s9,a0
   16200:	fea62e23          	sw	a0,-4(a2)
   16204:	00737533          	and	a0,t1,t2
   16208:	0385053b          	mulw	a0,a0,s8
   1620c:	f9dff06f          	j	161a8 <fmt_fp+0x9cc>
   16210:	02e6073b          	mulw	a4,a2,a4
   16214:	0013031b          	addiw	t1,t1,1
   16218:	e11ff06f          	j	16028 <fmt_fp+0x84c>
   1621c:	02d586bb          	mulw	a3,a1,a3
   16220:	0017071b          	addiw	a4,a4,1
   16224:	e81ff06f          	j	160a4 <fmt_fp+0x8c8>
   16228:	0001c537          	lui	a0,0x1c
   1622c:	a5853c83          	ld	s9,-1448(a0) # 1ba58 <__fsmu8+0x288>
   16230:	00000713          	li	a4,0
   16234:	ec5ff06f          	j	160f8 <fmt_fp+0x91c>
   16238:	0001c6b7          	lui	a3,0x1c
   1623c:	a986b683          	ld	a3,-1384(a3) # 1ba98 <__fsmu8+0x2c8>
   16240:	020a8063          	beqz	s5,16260 <fmt_fp+0xa84>
   16244:	00094503          	lbu	a0,0(s2)
   16248:	02d00613          	li	a2,45
   1624c:	00c51a63          	bne	a0,a2,16260 <fmt_fp+0xa84>
   16250:	fff00613          	li	a2,-1
   16254:	03f61613          	slli	a2,a2,0x3f
   16258:	00ccccb3          	xor	s9,s9,a2
   1625c:	00c6c6b3          	xor	a3,a3,a2
   16260:	00000613          	li	a2,0
   16264:	00070513          	mv	a0,a4
   16268:	40bd8dbb          	subw	s11,s11,a1
   1626c:	000c8593          	mv	a1,s9
   16270:	03113423          	sd	a7,40(sp)
   16274:	01c13c23          	sd	t3,24(sp)
   16278:	02613023          	sd	t1,32(sp)
   1627c:	00e13823          	sd	a4,16(sp)
   16280:	6cd010ef          	jal	ra,1814c <__addtf3>
   16284:	01013703          	ld	a4,16(sp)
   16288:	000c8693          	mv	a3,s9
   1628c:	00070613          	mv	a2,a4
   16290:	1b5020ef          	jal	ra,18c44 <__eqtf2>
   16294:	01813e03          	ld	t3,24(sp)
   16298:	02813883          	ld	a7,40(sp)
   1629c:	20051a63          	bnez	a0,164b0 <fmt_fp+0xcd4>
   162a0:	02013303          	ld	t1,32(sp)
   162a4:	01bc2023          	sw	s11,0(s8)
   162a8:	004c0c13          	addi	s8,s8,4
   162ac:	01ac7463          	bgeu	s8,s10,162b4 <fmt_fp+0xad8>
   162b0:	000c0d13          	mv	s10,s8
   162b4:	01abf663          	bgeu	s7,s10,162c0 <fmt_fp+0xae4>
   162b8:	ffcd2703          	lw	a4,-4(s10)
   162bc:	24070e63          	beqz	a4,16518 <fmt_fp+0xd3c>
   162c0:	00013783          	ld	a5,0(sp)
   162c4:	06700713          	li	a4,103
   162c8:	06e79a63          	bne	a5,a4,1633c <fmt_fp+0xb60>
   162cc:	00041463          	bnez	s0,162d4 <fmt_fp+0xaf8>
   162d0:	00100413          	li	s0,1
   162d4:	24835663          	bge	t1,s0,16520 <fmt_fp+0xd44>
   162d8:	ffc00713          	li	a4,-4
   162dc:	24e34263          	blt	t1,a4,16520 <fmt_fp+0xd44>
   162e0:	0013071b          	addiw	a4,t1,1
   162e4:	fffb0b1b          	addiw	s6,s6,-1
   162e8:	40e4043b          	subw	s0,s0,a4
   162ec:	008a7713          	andi	a4,s4,8
   162f0:	04071663          	bnez	a4,1633c <fmt_fp+0xb60>
   162f4:	00900693          	li	a3,9
   162f8:	01abf663          	bgeu	s7,s10,16304 <fmt_fp+0xb28>
   162fc:	ffcd2603          	lw	a2,-4(s10)
   16300:	24061063          	bnez	a2,16540 <fmt_fp+0xd64>
   16304:	411d0733          	sub	a4,s10,a7
   16308:	40275713          	srai	a4,a4,0x2
   1630c:	00900613          	li	a2,9
   16310:	fff70713          	addi	a4,a4,-1
   16314:	02c70733          	mul	a4,a4,a2
   16318:	06600593          	li	a1,102
   1631c:	020b6613          	ori	a2,s6,32
   16320:	22b61863          	bne	a2,a1,16550 <fmt_fp+0xd74>
   16324:	40d70733          	sub	a4,a4,a3
   16328:	00075463          	bgez	a4,16330 <fmt_fp+0xb54>
   1632c:	00000713          	li	a4,0
   16330:	00e45463          	bge	s0,a4,16338 <fmt_fp+0xb5c>
   16334:	00040713          	mv	a4,s0
   16338:	0007041b          	sext.w	s0,a4
   1633c:	80000737          	lui	a4,0x80000
   16340:	ffd74713          	xori	a4,a4,-3
   16344:	96874ee3          	blt	a4,s0,15cc0 <fmt_fp+0x4e4>
   16348:	008a7c93          	andi	s9,s4,8
   1634c:	01946c33          	or	s8,s0,s9
   16350:	018036b3          	snez	a3,s8
   16354:	0014071b          	addiw	a4,s0,1
   16358:	00e6853b          	addw	a0,a3,a4
   1635c:	000a079b          	sext.w	a5,s4
   16360:	800006b7          	lui	a3,0x80000
   16364:	fff6c693          	not	a3,a3
   16368:	00f13023          	sd	a5,0(sp)
   1636c:	020b6d93          	ori	s11,s6,32
   16370:	06600613          	li	a2,102
   16374:	40a686bb          	subw	a3,a3,a0
   16378:	1ecd9063          	bne	s11,a2,16558 <fmt_fp+0xd7c>
   1637c:	9466c2e3          	blt	a3,t1,15cc0 <fmt_fp+0x4e4>
   16380:	00605463          	blez	t1,16388 <fmt_fp+0xbac>
   16384:	0065053b          	addw	a0,a0,t1
   16388:	80000737          	lui	a4,0x80000
   1638c:	280a9663          	bnez	s5,16618 <fmt_fp+0xe3c>
   16390:	fff74713          	not	a4,a4
   16394:	01113c23          	sd	a7,24(sp)
   16398:	0007071b          	sext.w	a4,a4
   1639c:	92a742e3          	blt	a4,a0,15cc0 <fmt_fp+0x4e4>
   163a0:	01550b3b          	addw	s6,a0,s5
   163a4:	000a0713          	mv	a4,s4
   163a8:	000b0693          	mv	a3,s6
   163ac:	00098613          	mv	a2,s3
   163b0:	02000593          	li	a1,32
   163b4:	00048513          	mv	a0,s1
   163b8:	01612823          	sw	s6,16(sp)
   163bc:	b78ff0ef          	jal	ra,15734 <pad>
   163c0:	000a8613          	mv	a2,s5
   163c4:	00090593          	mv	a1,s2
   163c8:	00048513          	mv	a0,s1
   163cc:	b44ff0ef          	jal	ra,15710 <out>
   163d0:	00013783          	ld	a5,0(sp)
   163d4:	00010737          	lui	a4,0x10
   163d8:	000b0693          	mv	a3,s6
   163dc:	00e7c733          	xor	a4,a5,a4
   163e0:	00098613          	mv	a2,s3
   163e4:	03000593          	li	a1,48
   163e8:	00048513          	mv	a0,s1
   163ec:	b48ff0ef          	jal	ra,15734 <pad>
   163f0:	06600713          	li	a4,102
   163f4:	01813883          	ld	a7,24(sp)
   163f8:	32ed9c63          	bne	s11,a4,16730 <fmt_fp+0xf54>
   163fc:	00088913          	mv	s2,a7
   16400:	011bf463          	bgeu	s7,a7,16408 <fmt_fp+0xc2c>
   16404:	000b8913          	mv	s2,s7
   16408:	00002737          	lui	a4,0x2
   1640c:	ffffea37          	lui	s4,0xffffe
   16410:	04010693          	addi	a3,sp,64
   16414:	d1070793          	addi	a5,a4,-752 # 1d10 <exit-0xe410>
   16418:	310a0b93          	addi	s7,s4,784 # ffffffffffffe310 <__BSS_END__+0xfffffffffffe0660>
   1641c:	00d787b3          	add	a5,a5,a3
   16420:	01778bb3          	add	s7,a5,s7
   16424:	d1070793          	addi	a5,a4,-752
   16428:	00d787b3          	add	a5,a5,a3
   1642c:	00090c93          	mv	s9,s2
   16430:	009b8d93          	addi	s11,s7,9
   16434:	03000a93          	li	s5,48
   16438:	01478a33          	add	s4,a5,s4
   1643c:	1f98f263          	bgeu	a7,s9,16620 <fmt_fp+0xe44>
   16440:	00188693          	addi	a3,a7,1 # ffffffffff800001 <__BSS_END__+0xffffffffff7e2351>
   16444:	ffd90713          	addi	a4,s2,-3
   16448:	00000613          	li	a2,0
   1644c:	00e6e863          	bltu	a3,a4,1645c <fmt_fp+0xc80>
   16450:	00488893          	addi	a7,a7,4
   16454:	412888b3          	sub	a7,a7,s2
   16458:	ffc8f613          	andi	a2,a7,-4
   1645c:	00c90933          	add	s2,s2,a2
   16460:	2c0c0463          	beqz	s8,16728 <fmt_fp+0xf4c>
   16464:	0001c5b7          	lui	a1,0x1c
   16468:	00100613          	li	a2,1
   1646c:	92058593          	addi	a1,a1,-1760 # 1b920 <__fsmu8+0x150>
   16470:	00048513          	mv	a0,s1
   16474:	a9cff0ef          	jal	ra,15710 <out>
   16478:	000027b7          	lui	a5,0x2
   1647c:	ffffea37          	lui	s4,0xffffe
   16480:	d1078793          	addi	a5,a5,-752 # 1d10 <exit-0xe410>
   16484:	04010713          	addi	a4,sp,64
   16488:	310a0a13          	addi	s4,s4,784 # ffffffffffffe310 <__BSS_END__+0xfffffffffffe0660>
   1648c:	00e787b3          	add	a5,a5,a4
   16490:	01478a33          	add	s4,a5,s4
   16494:	009a0a93          	addi	s5,s4,9
   16498:	03000b93          	li	s7,48
   1649c:	00900c93          	li	s9,9
   164a0:	2280006f          	j	166c8 <fmt_fp+0xeec>
   164a4:	0001c6b7          	lui	a3,0x1c
   164a8:	a886b683          	ld	a3,-1400(a3) # 1ba88 <__fsmu8+0x2b8>
   164ac:	d95ff06f          	j	16240 <fmt_fp+0xa64>
   164b0:	01be0e3b          	addw	t3,t3,s11
   164b4:	3b9ad737          	lui	a4,0x3b9ad
   164b8:	01cc2023          	sw	t3,0(s8)
   164bc:	9ff70713          	addi	a4,a4,-1537 # 3b9ac9ff <__BSS_END__+0x3b98ed4f>
   164c0:	000c2683          	lw	a3,0(s8)
   164c4:	02d76863          	bltu	a4,a3,164f4 <fmt_fp+0xd18>
   164c8:	41788333          	sub	t1,a7,s7
   164cc:	000ba683          	lw	a3,0(s7)
   164d0:	40235713          	srai	a4,t1,0x2
   164d4:	00900313          	li	t1,9
   164d8:	02e3033b          	mulw	t1,t1,a4
   164dc:	00a00613          	li	a2,10
   164e0:	00a00713          	li	a4,10
   164e4:	dce6e2e3          	bltu	a3,a4,162a8 <fmt_fp+0xacc>
   164e8:	0013031b          	addiw	t1,t1,1
   164ec:	02e6073b          	mulw	a4,a2,a4
   164f0:	ff5ff06f          	j	164e4 <fmt_fp+0xd08>
   164f4:	ffcc0c13          	addi	s8,s8,-4
   164f8:	000c2223          	sw	zero,4(s8)
   164fc:	017c7663          	bgeu	s8,s7,16508 <fmt_fp+0xd2c>
   16500:	fe0bae23          	sw	zero,-4(s7)
   16504:	ffcb8b93          	addi	s7,s7,-4
   16508:	000c2683          	lw	a3,0(s8)
   1650c:	0016869b          	addiw	a3,a3,1
   16510:	00dc2023          	sw	a3,0(s8)
   16514:	fadff06f          	j	164c0 <fmt_fp+0xce4>
   16518:	ffcd0d13          	addi	s10,s10,-4
   1651c:	d99ff06f          	j	162b4 <fmt_fp+0xad8>
   16520:	ffeb0b1b          	addiw	s6,s6,-2
   16524:	fff4041b          	addiw	s0,s0,-1
   16528:	dc5ff06f          	j	162ec <fmt_fp+0xb10>
   1652c:	02e5073b          	mulw	a4,a0,a4
   16530:	0016869b          	addiw	a3,a3,1
   16534:	02e675bb          	remuw	a1,a2,a4
   16538:	fe058ae3          	beqz	a1,1652c <fmt_fp+0xd50>
   1653c:	dc9ff06f          	j	16304 <fmt_fp+0xb28>
   16540:	00000693          	li	a3,0
   16544:	00a00713          	li	a4,10
   16548:	00a00513          	li	a0,10
   1654c:	fe9ff06f          	j	16534 <fmt_fp+0xd58>
   16550:	00e30733          	add	a4,t1,a4
   16554:	dd1ff06f          	j	16324 <fmt_fp+0xb48>
   16558:	00002737          	lui	a4,0x2
   1655c:	02d13023          	sd	a3,32(sp)
   16560:	d1070713          	addi	a4,a4,-752 # 1d10 <exit-0xe410>
   16564:	04010693          	addi	a3,sp,64
   16568:	00d70733          	add	a4,a4,a3
   1656c:	ffffe7b7          	lui	a5,0xffffe
   16570:	41f3561b          	sraiw	a2,t1,0x1f
   16574:	00f707b3          	add	a5,a4,a5
   16578:	30c78793          	addi	a5,a5,780 # ffffffffffffe30c <__BSS_END__+0xfffffffffffe065c>
   1657c:	02a12423          	sw	a0,40(sp)
   16580:	00c34533          	xor	a0,t1,a2
   16584:	00078593          	mv	a1,a5
   16588:	40c5053b          	subw	a0,a0,a2
   1658c:	01113c23          	sd	a7,24(sp)
   16590:	00613823          	sd	t1,16(sp)
   16594:	00f13423          	sd	a5,8(sp)
   16598:	8e4ff0ef          	jal	ra,1567c <fmt_u>
   1659c:	00813783          	ld	a5,8(sp)
   165a0:	01013303          	ld	t1,16(sp)
   165a4:	01813883          	ld	a7,24(sp)
   165a8:	02013683          	ld	a3,32(sp)
   165ac:	02812703          	lw	a4,40(sp)
   165b0:	00100613          	li	a2,1
   165b4:	03000e13          	li	t3,48
   165b8:	40a785b3          	sub	a1,a5,a0
   165bc:	04b65863          	bge	a2,a1,1660c <fmt_fp+0xe30>
   165c0:	02d00613          	li	a2,45
   165c4:	00034463          	bltz	t1,165cc <fmt_fp+0xdf0>
   165c8:	02b00613          	li	a2,43
   165cc:	ffe50793          	addi	a5,a0,-2
   165d0:	00f13423          	sd	a5,8(sp)
   165d4:	000027b7          	lui	a5,0x2
   165d8:	fec50fa3          	sb	a2,-1(a0)
   165dc:	d1078793          	addi	a5,a5,-752 # 1d10 <exit-0xe410>
   165e0:	04010613          	addi	a2,sp,64
   165e4:	00c787b3          	add	a5,a5,a2
   165e8:	ff650f23          	sb	s6,-2(a0)
   165ec:	ffffe537          	lui	a0,0xffffe
   165f0:	00a78533          	add	a0,a5,a0
   165f4:	00813783          	ld	a5,8(sp)
   165f8:	30c50513          	addi	a0,a0,780 # ffffffffffffe30c <__BSS_END__+0xfffffffffffe065c>
   165fc:	40f50533          	sub	a0,a0,a5
   16600:	eca6c063          	blt	a3,a0,15cc0 <fmt_fp+0x4e4>
   16604:	00a7053b          	addw	a0,a4,a0
   16608:	d81ff06f          	j	16388 <fmt_fp+0xbac>
   1660c:	fff50513          	addi	a0,a0,-1
   16610:	01c50023          	sb	t3,0(a0)
   16614:	fa5ff06f          	j	165b8 <fmt_fp+0xddc>
   16618:	ffe74713          	xori	a4,a4,-2
   1661c:	d79ff06f          	j	16394 <fmt_fp+0xbb8>
   16620:	000ce503          	lwu	a0,0(s9) # 28000 <__BSS_END__+0xa350>
   16624:	000d8593          	mv	a1,s11
   16628:	01113423          	sd	a7,8(sp)
   1662c:	850ff0ef          	jal	ra,1567c <fmt_u>
   16630:	00813883          	ld	a7,8(sp)
   16634:	00050593          	mv	a1,a0
   16638:	00050713          	mv	a4,a0
   1663c:	012c9e63          	bne	s9,s2,16658 <fmt_fp+0xe7c>
   16640:	03b51663          	bne	a0,s11,1666c <fmt_fp+0xe90>
   16644:	315a0c23          	sb	s5,792(s4)
   16648:	008b8593          	addi	a1,s7,8
   1664c:	0200006f          	j	1666c <fmt_fp+0xe90>
   16650:	fff70713          	addi	a4,a4,-1
   16654:	01570023          	sb	s5,0(a4)
   16658:	feebece3          	bltu	s7,a4,16650 <fmt_fp+0xe74>
   1665c:	00000713          	li	a4,0
   16660:	0175e463          	bltu	a1,s7,16668 <fmt_fp+0xe8c>
   16664:	40bb8733          	sub	a4,s7,a1
   16668:	00e585b3          	add	a1,a1,a4
   1666c:	40bd8633          	sub	a2,s11,a1
   16670:	00048513          	mv	a0,s1
   16674:	01113423          	sd	a7,8(sp)
   16678:	898ff0ef          	jal	ra,15710 <out>
   1667c:	00813883          	ld	a7,8(sp)
   16680:	004c8c93          	addi	s9,s9,4
   16684:	db9ff06f          	j	1643c <fmt_fp+0xc60>
   16688:	00096503          	lwu	a0,0(s2)
   1668c:	000a8593          	mv	a1,s5
   16690:	fedfe0ef          	jal	ra,1567c <fmt_u>
   16694:	00050713          	mv	a4,a0
   16698:	08ea6263          	bltu	s4,a4,1671c <fmt_fp+0xf40>
   1669c:	00000593          	li	a1,0
   166a0:	01456463          	bltu	a0,s4,166a8 <fmt_fp+0xecc>
   166a4:	40aa05b3          	sub	a1,s4,a0
   166a8:	0004061b          	sext.w	a2,s0
   166ac:	008cd463          	bge	s9,s0,166b4 <fmt_fp+0xed8>
   166b0:	00900613          	li	a2,9
   166b4:	00b505b3          	add	a1,a0,a1
   166b8:	00048513          	mv	a0,s1
   166bc:	854ff0ef          	jal	ra,15710 <out>
   166c0:	00490913          	addi	s2,s2,4
   166c4:	ff74041b          	addiw	s0,s0,-9
   166c8:	01a97463          	bgeu	s2,s10,166d0 <fmt_fp+0xef4>
   166cc:	fa804ee3          	bgtz	s0,16688 <fmt_fp+0xeac>
   166d0:	00000713          	li	a4,0
   166d4:	00900693          	li	a3,9
   166d8:	0094061b          	addiw	a2,s0,9
   166dc:	03000593          	li	a1,48
   166e0:	00048513          	mv	a0,s1
   166e4:	850ff0ef          	jal	ra,15734 <pad>
   166e8:	00013783          	ld	a5,0(sp)
   166ec:	00002737          	lui	a4,0x2
   166f0:	00048513          	mv	a0,s1
   166f4:	00e7c733          	xor	a4,a5,a4
   166f8:	000b0693          	mv	a3,s6
   166fc:	00098613          	mv	a2,s3
   16700:	02000593          	li	a1,32
   16704:	830ff0ef          	jal	ra,15734 <pad>
   16708:	01012503          	lw	a0,16(sp)
   1670c:	013b5463          	bge	s6,s3,16714 <fmt_fp+0xf38>
   16710:	00098513          	mv	a0,s3
   16714:	0005051b          	sext.w	a0,a0
   16718:	a24ff06f          	j	1593c <fmt_fp+0x160>
   1671c:	fff70713          	addi	a4,a4,-1 # 1fff <exit-0xe121>
   16720:	01770023          	sb	s7,0(a4)
   16724:	f75ff06f          	j	16698 <fmt_fp+0xebc>
   16728:	00000413          	li	s0,0
   1672c:	d4dff06f          	j	16478 <fmt_fp+0xc9c>
   16730:	01abe463          	bltu	s7,s10,16738 <fmt_fp+0xf5c>
   16734:	004b8d13          	addi	s10,s7,4
   16738:	000026b7          	lui	a3,0x2
   1673c:	ffffe737          	lui	a4,0xffffe
   16740:	04010613          	addi	a2,sp,64
   16744:	d1068793          	addi	a5,a3,-752 # 1d10 <exit-0xe410>
   16748:	00c787b3          	add	a5,a5,a2
   1674c:	31070913          	addi	s2,a4,784 # ffffffffffffe310 <__BSS_END__+0xfffffffffffe0660>
   16750:	01278933          	add	s2,a5,s2
   16754:	d1068793          	addi	a5,a3,-752
   16758:	00c787b3          	add	a5,a5,a2
   1675c:	00e787b3          	add	a5,a5,a4
   16760:	00f13c23          	sd	a5,24(sp)
   16764:	00890793          	addi	a5,s2,8
   16768:	000b8a13          	mv	s4,s7
   1676c:	00990a93          	addi	s5,s2,9
   16770:	02f13023          	sd	a5,32(sp)
   16774:	01aa7463          	bgeu	s4,s10,1677c <fmt_fp+0xfa0>
   16778:	04045863          	bgez	s0,167c8 <fmt_fp+0xfec>
   1677c:	0124061b          	addiw	a2,s0,18
   16780:	00048513          	mv	a0,s1
   16784:	00000713          	li	a4,0
   16788:	01200693          	li	a3,18
   1678c:	03000593          	li	a1,48
   16790:	fa5fe0ef          	jal	ra,15734 <pad>
   16794:	000027b7          	lui	a5,0x2
   16798:	04010713          	addi	a4,sp,64
   1679c:	d1078793          	addi	a5,a5,-752 # 1d10 <exit-0xe410>
   167a0:	00e787b3          	add	a5,a5,a4
   167a4:	ffffe637          	lui	a2,0xffffe
   167a8:	00c78633          	add	a2,a5,a2
   167ac:	00813783          	ld	a5,8(sp)
   167b0:	30c60613          	addi	a2,a2,780 # ffffffffffffe30c <__BSS_END__+0xfffffffffffe065c>
   167b4:	00048513          	mv	a0,s1
   167b8:	40f60633          	sub	a2,a2,a5
   167bc:	00078593          	mv	a1,a5
   167c0:	f51fe0ef          	jal	ra,15710 <out>
   167c4:	f25ff06f          	j	166e8 <fmt_fp+0xf0c>
   167c8:	000a6503          	lwu	a0,0(s4)
   167cc:	000a8593          	mv	a1,s5
   167d0:	eadfe0ef          	jal	ra,1567c <fmt_u>
   167d4:	00050593          	mv	a1,a0
   167d8:	01551a63          	bne	a0,s5,167ec <fmt_fp+0x1010>
   167dc:	01813783          	ld	a5,24(sp)
   167e0:	02013583          	ld	a1,32(sp)
   167e4:	03000713          	li	a4,48
   167e8:	30e78c23          	sb	a4,792(a5)
   167ec:	00040d9b          	sext.w	s11,s0
   167f0:	00058713          	mv	a4,a1
   167f4:	057a1063          	bne	s4,s7,16834 <fmt_fp+0x1058>
   167f8:	00100613          	li	a2,1
   167fc:	00048513          	mv	a0,s1
   16800:	00158c13          	addi	s8,a1,1
   16804:	f0dfe0ef          	jal	ra,15710 <out>
   16808:	01bce733          	or	a4,s9,s11
   1680c:	02070e63          	beqz	a4,16848 <fmt_fp+0x106c>
   16810:	0001c7b7          	lui	a5,0x1c
   16814:	00100613          	li	a2,1
   16818:	92078593          	addi	a1,a5,-1760 # 1b920 <__fsmu8+0x150>
   1681c:	00048513          	mv	a0,s1
   16820:	ef1fe0ef          	jal	ra,15710 <out>
   16824:	0240006f          	j	16848 <fmt_fp+0x106c>
   16828:	fff70713          	addi	a4,a4,-1
   1682c:	03000793          	li	a5,48
   16830:	00f70023          	sb	a5,0(a4)
   16834:	fee96ae3          	bltu	s2,a4,16828 <fmt_fp+0x104c>
   16838:	00000693          	li	a3,0
   1683c:	0125e463          	bltu	a1,s2,16844 <fmt_fp+0x1068>
   16840:	40b906b3          	sub	a3,s2,a1
   16844:	00d58c33          	add	s8,a1,a3
   16848:	418a88b3          	sub	a7,s5,s8
   1684c:	00040613          	mv	a2,s0
   16850:	0088d463          	bge	a7,s0,16858 <fmt_fp+0x107c>
   16854:	00088613          	mv	a2,a7
   16858:	000c0593          	mv	a1,s8
   1685c:	00048513          	mv	a0,s1
   16860:	03113423          	sd	a7,40(sp)
   16864:	eadfe0ef          	jal	ra,15710 <out>
   16868:	02813883          	ld	a7,40(sp)
   1686c:	004a0a13          	addi	s4,s4,4
   16870:	411d843b          	subw	s0,s11,a7
   16874:	f01ff06f          	j	16774 <fmt_fp+0xf98>

0000000000016878 <printf_core>:
   16878:	ef010113          	addi	sp,sp,-272
   1687c:	0001c7b7          	lui	a5,0x1c
   16880:	ac078793          	addi	a5,a5,-1344 # 1bac0 <states>
   16884:	0ba13823          	sd	s10,176(sp)
   16888:	0001cd37          	lui	s10,0x1c
   1688c:	0f313423          	sd	s3,232(sp)
   16890:	00f13823          	sd	a5,16(sp)
   16894:	0001c9b7          	lui	s3,0x1c
   16898:	940d0793          	addi	a5,s10,-1728 # 1b940 <__fsmu8+0x170>
   1689c:	10813023          	sd	s0,256(sp)
   168a0:	0f213823          	sd	s2,240(sp)
   168a4:	0f413023          	sd	s4,224(sp)
   168a8:	0d613823          	sd	s6,208(sp)
   168ac:	0d813023          	sd	s8,192(sp)
   168b0:	0b913c23          	sd	s9,184(sp)
   168b4:	10113423          	sd	ra,264(sp)
   168b8:	0e913c23          	sd	s1,248(sp)
   168bc:	0d513c23          	sd	s5,216(sp)
   168c0:	0d713423          	sd	s7,200(sp)
   168c4:	0bb13423          	sd	s11,168(sp)
   168c8:	00050413          	mv	s0,a0
   168cc:	00060a13          	mv	s4,a2
   168d0:	00d13023          	sd	a3,0(sp)
   168d4:	00070b13          	mv	s6,a4
   168d8:	04b13023          	sd	a1,64(sp)
   168dc:	00000c93          	li	s9,0
   168e0:	00000913          	li	s2,0
   168e4:	00000c13          	li	s8,0
   168e8:	92898993          	addi	s3,s3,-1752 # 1b928 <__fsmu8+0x158>
   168ec:	00f13c23          	sd	a5,24(sp)
   168f0:	04013b83          	ld	s7,64(sp)
   168f4:	012c893b          	addw	s2,s9,s2
   168f8:	00090d93          	mv	s11,s2
   168fc:	000bc783          	lbu	a5,0(s7)
   16900:	02078ee3          	beqz	a5,1713c <printf_core+0x8c4>
   16904:	02500713          	li	a4,37
   16908:	04013303          	ld	t1,64(sp)
   1690c:	00034783          	lbu	a5,0(t1)
   16910:	00078463          	beqz	a5,16918 <printf_core+0xa0>
   16914:	00e79663          	bne	a5,a4,16920 <printf_core+0xa8>
   16918:	02500713          	li	a4,37
   1691c:	01c0006f          	j	16938 <printf_core+0xc0>
   16920:	00130313          	addi	t1,t1,1
   16924:	04613023          	sd	t1,64(sp)
   16928:	fe1ff06f          	j	16908 <printf_core+0x90>
   1692c:	00278793          	addi	a5,a5,2
   16930:	00130313          	addi	t1,t1,1
   16934:	04f13023          	sd	a5,64(sp)
   16938:	04013783          	ld	a5,64(sp)
   1693c:	0007c683          	lbu	a3,0(a5)
   16940:	00e69663          	bne	a3,a4,1694c <printf_core+0xd4>
   16944:	0017c683          	lbu	a3,1(a5)
   16948:	fee682e3          	beq	a3,a4,1692c <printf_core+0xb4>
   1694c:	80000ab7          	lui	s5,0x80000
   16950:	fffaca93          	not	s5,s5
   16954:	41ba87bb          	subw	a5,s5,s11
   16958:	41730333          	sub	t1,t1,s7
   1695c:	00f13423          	sd	a5,8(sp)
   16960:	7467ca63          	blt	a5,t1,170b4 <printf_core+0x83c>
   16964:	00030c9b          	sext.w	s9,t1
   16968:	00040a63          	beqz	s0,1697c <printf_core+0x104>
   1696c:	000c8613          	mv	a2,s9
   16970:	000b8593          	mv	a1,s7
   16974:	00040513          	mv	a0,s0
   16978:	d99fe0ef          	jal	ra,15710 <out>
   1697c:	720c9863          	bnez	s9,170ac <printf_core+0x834>
   16980:	04013783          	ld	a5,64(sp)
   16984:	00900713          	li	a4,9
   16988:	0017c683          	lbu	a3,1(a5)
   1698c:	fd06869b          	addiw	a3,a3,-48
   16990:	18d76663          	bltu	a4,a3,16b1c <printf_core+0x2a4>
   16994:	0027c603          	lbu	a2,2(a5)
   16998:	02400713          	li	a4,36
   1699c:	18e61063          	bne	a2,a4,16b1c <printf_core+0x2a4>
   169a0:	00378793          	addi	a5,a5,3
   169a4:	00100c13          	li	s8,1
   169a8:	00013537          	lui	a0,0x13
   169ac:	04f13023          	sd	a5,64(sp)
   169b0:	00000d13          	li	s10,0
   169b4:	01f00893          	li	a7,31
   169b8:	8895051b          	addiw	a0,a0,-1911
   169bc:	00100e93          	li	t4,1
   169c0:	04013703          	ld	a4,64(sp)
   169c4:	00074803          	lbu	a6,0(a4)
   169c8:	fe08061b          	addiw	a2,a6,-32
   169cc:	00c8e863          	bltu	a7,a2,169dc <printf_core+0x164>
   169d0:	00c555bb          	srlw	a1,a0,a2
   169d4:	0015f593          	andi	a1,a1,1
   169d8:	14059863          	bnez	a1,16b28 <printf_core+0x2b0>
   169dc:	02a00613          	li	a2,42
   169e0:	18c81e63          	bne	a6,a2,16b7c <printf_core+0x304>
   169e4:	00174603          	lbu	a2,1(a4)
   169e8:	00900593          	li	a1,9
   169ec:	fd06051b          	addiw	a0,a2,-48
   169f0:	14a5e863          	bltu	a1,a0,16b40 <printf_core+0x2c8>
   169f4:	00274503          	lbu	a0,2(a4)
   169f8:	02400593          	li	a1,36
   169fc:	14b51263          	bne	a0,a1,16b40 <printf_core+0x2c8>
   16a00:	00261613          	slli	a2,a2,0x2
   16a04:	00cb0633          	add	a2,s6,a2
   16a08:	00a00593          	li	a1,10
   16a0c:	f4b62023          	sw	a1,-192(a2)
   16a10:	00174603          	lbu	a2,1(a4)
   16a14:	00013783          	ld	a5,0(sp)
   16a18:	00370713          	addi	a4,a4,3
   16a1c:	00461613          	slli	a2,a2,0x4
   16a20:	00c78633          	add	a2,a5,a2
   16a24:	d0062483          	lw	s1,-768(a2)
   16a28:	04e13023          	sd	a4,64(sp)
   16a2c:	00100c13          	li	s8,1
   16a30:	0004d863          	bgez	s1,16a40 <printf_core+0x1c8>
   16a34:	00002737          	lui	a4,0x2
   16a38:	00ed6d33          	or	s10,s10,a4
   16a3c:	409004bb          	negw	s1,s1
   16a40:	04013703          	ld	a4,64(sp)
   16a44:	02e00613          	li	a2,46
   16a48:	00074583          	lbu	a1,0(a4) # 2000 <exit-0xe120>
   16a4c:	18c59a63          	bne	a1,a2,16be0 <printf_core+0x368>
   16a50:	00174583          	lbu	a1,1(a4)
   16a54:	02a00613          	li	a2,42
   16a58:	16c59263          	bne	a1,a2,16bbc <printf_core+0x344>
   16a5c:	00274603          	lbu	a2,2(a4)
   16a60:	00900593          	li	a1,9
   16a64:	fd06051b          	addiw	a0,a2,-48
   16a68:	12a5e863          	bltu	a1,a0,16b98 <printf_core+0x320>
   16a6c:	00374503          	lbu	a0,3(a4)
   16a70:	02400593          	li	a1,36
   16a74:	12b51263          	bne	a0,a1,16b98 <printf_core+0x320>
   16a78:	00261613          	slli	a2,a2,0x2
   16a7c:	00cb0633          	add	a2,s6,a2
   16a80:	00a00593          	li	a1,10
   16a84:	f4b62023          	sw	a1,-192(a2)
   16a88:	00274603          	lbu	a2,2(a4)
   16a8c:	00013783          	ld	a5,0(sp)
   16a90:	00470713          	addi	a4,a4,4
   16a94:	00461613          	slli	a2,a2,0x4
   16a98:	00c78633          	add	a2,a5,a2
   16a9c:	d0062a83          	lw	s5,-768(a2)
   16aa0:	fffacf13          	not	t5,s5
   16aa4:	04e13023          	sd	a4,64(sp)
   16aa8:	01ff5f1b          	srliw	t5,t5,0x1f
   16aac:	00000713          	li	a4,0
   16ab0:	03900e93          	li	t4,57
   16ab4:	03a00813          	li	a6,58
   16ab8:	00700513          	li	a0,7
   16abc:	04013603          	ld	a2,64(sp)
   16ac0:	00064583          	lbu	a1,0(a2)
   16ac4:	fbf5859b          	addiw	a1,a1,-65
   16ac8:	06beee63          	bltu	t4,a1,16b44 <printf_core+0x2cc>
   16acc:	00160593          	addi	a1,a2,1
   16ad0:	04b13023          	sd	a1,64(sp)
   16ad4:	00064603          	lbu	a2,0(a2)
   16ad8:	01013783          	ld	a5,16(sp)
   16adc:	fbf6059b          	addiw	a1,a2,-65
   16ae0:	02071613          	slli	a2,a4,0x20
   16ae4:	02065613          	srli	a2,a2,0x20
   16ae8:	03060633          	mul	a2,a2,a6
   16aec:	00c78633          	add	a2,a5,a2
   16af0:	00b60633          	add	a2,a2,a1
   16af4:	00064f83          	lbu	t6,0(a2)
   16af8:	ffff861b          	addiw	a2,t6,-1
   16afc:	000f859b          	sext.w	a1,t6
   16b00:	0ec57663          	bgeu	a0,a2,16bec <printf_core+0x374>
   16b04:	04058063          	beqz	a1,16b44 <printf_core+0x2cc>
   16b08:	01b00613          	li	a2,27
   16b0c:	0ec59463          	bne	a1,a2,16bf4 <printf_core+0x37c>
   16b10:	0206da63          	bgez	a3,16b44 <printf_core+0x2cc>
   16b14:	16041a63          	bnez	s0,16c88 <printf_core+0x410>
   16b18:	dd9ff06f          	j	168f0 <printf_core+0x78>
   16b1c:	00178793          	addi	a5,a5,1
   16b20:	fff00693          	li	a3,-1
   16b24:	e85ff06f          	j	169a8 <printf_core+0x130>
   16b28:	00ce963b          	sllw	a2,t4,a2
   16b2c:	00cd67b3          	or	a5,s10,a2
   16b30:	00170713          	addi	a4,a4,1
   16b34:	00078d1b          	sext.w	s10,a5
   16b38:	04e13023          	sd	a4,64(sp)
   16b3c:	e85ff06f          	j	169c0 <printf_core+0x148>
   16b40:	000c0c63          	beqz	s8,16b58 <printf_core+0x2e0>
   16b44:	ae5fa0ef          	jal	ra,11628 <__errno_location>
   16b48:	01600793          	li	a5,22
   16b4c:	00f52023          	sw	a5,0(a0) # 13000 <__mremap+0x10>
   16b50:	fff00913          	li	s2,-1
   16b54:	0d80006f          	j	16c2c <printf_core+0x3b4>
   16b58:	00000493          	li	s1,0
   16b5c:	00040a63          	beqz	s0,16b70 <printf_core+0x2f8>
   16b60:	000a3603          	ld	a2,0(s4)
   16b64:	00062483          	lw	s1,0(a2)
   16b68:	00860593          	addi	a1,a2,8
   16b6c:	00ba3023          	sd	a1,0(s4)
   16b70:	00170713          	addi	a4,a4,1
   16b74:	04e13023          	sd	a4,64(sp)
   16b78:	eb9ff06f          	j	16a30 <printf_core+0x1b8>
   16b7c:	04010513          	addi	a0,sp,64
   16b80:	02d13023          	sd	a3,32(sp)
   16b84:	b25fe0ef          	jal	ra,156a8 <getint>
   16b88:	02013683          	ld	a3,32(sp)
   16b8c:	00050493          	mv	s1,a0
   16b90:	ea0558e3          	bgez	a0,16a40 <printf_core+0x1c8>
   16b94:	5200006f          	j	170b4 <printf_core+0x83c>
   16b98:	fa0c16e3          	bnez	s8,16b44 <printf_core+0x2cc>
   16b9c:	00000a93          	li	s5,0
   16ba0:	00040a63          	beqz	s0,16bb4 <printf_core+0x33c>
   16ba4:	000a3603          	ld	a2,0(s4)
   16ba8:	00062a83          	lw	s5,0(a2)
   16bac:	00860593          	addi	a1,a2,8
   16bb0:	00ba3023          	sd	a1,0(s4)
   16bb4:	00270713          	addi	a4,a4,2
   16bb8:	ee9ff06f          	j	16aa0 <printf_core+0x228>
   16bbc:	00170713          	addi	a4,a4,1
   16bc0:	04010513          	addi	a0,sp,64
   16bc4:	02d13023          	sd	a3,32(sp)
   16bc8:	04e13023          	sd	a4,64(sp)
   16bcc:	addfe0ef          	jal	ra,156a8 <getint>
   16bd0:	02013683          	ld	a3,32(sp)
   16bd4:	00050a93          	mv	s5,a0
   16bd8:	00100f13          	li	t5,1
   16bdc:	ed1ff06f          	j	16aac <printf_core+0x234>
   16be0:	00000f13          	li	t5,0
   16be4:	fff00a93          	li	s5,-1
   16be8:	ec5ff06f          	j	16aac <printf_core+0x234>
   16bec:	00058713          	mv	a4,a1
   16bf0:	ecdff06f          	j	16abc <printf_core+0x244>
   16bf4:	0206c863          	bltz	a3,16c24 <printf_core+0x3ac>
   16bf8:	00013783          	ld	a5,0(sp)
   16bfc:	00269613          	slli	a2,a3,0x2
   16c00:	00469693          	slli	a3,a3,0x4
   16c04:	00cb0633          	add	a2,s6,a2
   16c08:	00d786b3          	add	a3,a5,a3
   16c0c:	01f62023          	sw	t6,0(a2)
   16c10:	0006b603          	ld	a2,0(a3)
   16c14:	0086b683          	ld	a3,8(a3)
   16c18:	04c13823          	sd	a2,80(sp)
   16c1c:	04d13c23          	sd	a3,88(sp)
   16c20:	ef5ff06f          	j	16b14 <printf_core+0x29c>
   16c24:	04041463          	bnez	s0,16c6c <printf_core+0x3f4>
   16c28:	00000913          	li	s2,0
   16c2c:	10813083          	ld	ra,264(sp)
   16c30:	10013403          	ld	s0,256(sp)
   16c34:	0f813483          	ld	s1,248(sp)
   16c38:	0e813983          	ld	s3,232(sp)
   16c3c:	0e013a03          	ld	s4,224(sp)
   16c40:	0d813a83          	ld	s5,216(sp)
   16c44:	0d013b03          	ld	s6,208(sp)
   16c48:	0c813b83          	ld	s7,200(sp)
   16c4c:	0c013c03          	ld	s8,192(sp)
   16c50:	0b813c83          	ld	s9,184(sp)
   16c54:	0b013d03          	ld	s10,176(sp)
   16c58:	0a813d83          	ld	s11,168(sp)
   16c5c:	00090513          	mv	a0,s2
   16c60:	0f013903          	ld	s2,240(sp)
   16c64:	11010113          	addi	sp,sp,272
   16c68:	00008067          	ret
   16c6c:	000a0613          	mv	a2,s4
   16c70:	05010513          	addi	a0,sp,80
   16c74:	02e13423          	sd	a4,40(sp)
   16c78:	03e13023          	sd	t5,32(sp)
   16c7c:	8fdfe0ef          	jal	ra,15578 <pop_arg>
   16c80:	02013f03          	ld	t5,32(sp)
   16c84:	02813703          	ld	a4,40(sp)
   16c88:	04013683          	ld	a3,64(sp)
   16c8c:	fff6c683          	lbu	a3,-1(a3)
   16c90:	0006881b          	sext.w	a6,a3
   16c94:	00070a63          	beqz	a4,16ca8 <printf_core+0x430>
   16c98:	00f6f693          	andi	a3,a3,15
   16c9c:	00300613          	li	a2,3
   16ca0:	00c69463          	bne	a3,a2,16ca8 <printf_core+0x430>
   16ca4:	0df87813          	andi	a6,a6,223
   16ca8:	00dd5693          	srli	a3,s10,0xd
   16cac:	0016f693          	andi	a3,a3,1
   16cb0:	00068863          	beqz	a3,16cc0 <printf_core+0x448>
   16cb4:	ffff06b7          	lui	a3,0xffff0
   16cb8:	fff68693          	addi	a3,a3,-1 # fffffffffffeffff <__BSS_END__+0xfffffffffffd234f>
   16cbc:	00dd7d33          	and	s10,s10,a3
   16cc0:	fbf8069b          	addiw	a3,a6,-65
   16cc4:	0006859b          	sext.w	a1,a3
   16cc8:	03700613          	li	a2,55
   16ccc:	44b66e63          	bltu	a2,a1,17128 <printf_core+0x8b0>
   16cd0:	01813783          	ld	a5,24(sp)
   16cd4:	02069693          	slli	a3,a3,0x20
   16cd8:	01e6d693          	srli	a3,a3,0x1e
   16cdc:	00f686b3          	add	a3,a3,a5
   16ce0:	0006a683          	lw	a3,0(a3)
   16ce4:	00068067          	jr	a3
   16ce8:	00700793          	li	a5,7
   16cec:	3ce7e063          	bltu	a5,a4,170ac <printf_core+0x834>
   16cf0:	00271793          	slli	a5,a4,0x2
   16cf4:	0001c737          	lui	a4,0x1c
   16cf8:	a2070713          	addi	a4,a4,-1504 # 1ba20 <__fsmu8+0x250>
   16cfc:	00e787b3          	add	a5,a5,a4
   16d00:	0007a783          	lw	a5,0(a5)
   16d04:	00078067          	jr	a5
   16d08:	05013783          	ld	a5,80(sp)
   16d0c:	01b7a023          	sw	s11,0(a5)
   16d10:	be1ff06f          	j	168f0 <printf_core+0x78>
   16d14:	05013783          	ld	a5,80(sp)
   16d18:	01279023          	sh	s2,0(a5)
   16d1c:	bd5ff06f          	j	168f0 <printf_core+0x78>
   16d20:	05013783          	ld	a5,80(sp)
   16d24:	01278023          	sb	s2,0(a5)
   16d28:	bc9ff06f          	j	168f0 <printf_core+0x78>
   16d2c:	05013783          	ld	a5,80(sp)
   16d30:	0127b023          	sd	s2,0(a5)
   16d34:	bbdff06f          	j	168f0 <printf_core+0x78>
   16d38:	000a889b          	sext.w	a7,s5
   16d3c:	01000693          	li	a3,16
   16d40:	000a8713          	mv	a4,s5
   16d44:	00d8f463          	bgeu	a7,a3,16d4c <printf_core+0x4d4>
   16d48:	01000713          	li	a4,16
   16d4c:	00070a9b          	sext.w	s5,a4
   16d50:	008d6d13          	ori	s10,s10,8
   16d54:	07800813          	li	a6,120
   16d58:	05013583          	ld	a1,80(sp)
   16d5c:	0001c6b7          	lui	a3,0x1c
   16d60:	02087513          	andi	a0,a6,32
   16d64:	00058713          	mv	a4,a1
   16d68:	09f10b93          	addi	s7,sp,159
   16d6c:	c9068693          	addi	a3,a3,-880 # 1bc90 <xdigits>
   16d70:	12071c63          	bnez	a4,16ea8 <printf_core+0x630>
   16d74:	00098e93          	mv	t4,s3
   16d78:	00058c63          	beqz	a1,16d90 <printf_core+0x518>
   16d7c:	008d7713          	andi	a4,s10,8
   16d80:	00070863          	beqz	a4,16d90 <printf_core+0x518>
   16d84:	00485813          	srli	a6,a6,0x4
   16d88:	01098eb3          	add	t4,s3,a6
   16d8c:	00200c93          	li	s9,2
   16d90:	000f0a63          	beqz	t5,16da4 <printf_core+0x52c>
   16d94:	320ac063          	bltz	s5,170b4 <printf_core+0x83c>
   16d98:	ffff0737          	lui	a4,0xffff0
   16d9c:	fff70713          	addi	a4,a4,-1 # fffffffffffeffff <__BSS_END__+0xfffffffffffd234f>
   16da0:	00ed7d33          	and	s10,s10,a4
   16da4:	05013683          	ld	a3,80(sp)
   16da8:	09f10613          	addi	a2,sp,159
   16dac:	00069463          	bnez	a3,16db4 <printf_core+0x53c>
   16db0:	380a8263          	beqz	s5,17134 <printf_core+0x8bc>
   16db4:	41760733          	sub	a4,a2,s7
   16db8:	0016b693          	seqz	a3,a3
   16dbc:	00d70733          	add	a4,a4,a3
   16dc0:	01575463          	bge	a4,s5,16dc8 <printf_core+0x550>
   16dc4:	000a8713          	mv	a4,s5
   16dc8:	00070a9b          	sext.w	s5,a4
   16dcc:	41760db3          	sub	s11,a2,s7
   16dd0:	01bad463          	bge	s5,s11,16dd8 <printf_core+0x560>
   16dd4:	000d8a9b          	sext.w	s5,s11
   16dd8:	80000737          	lui	a4,0x80000
   16ddc:	fff74713          	not	a4,a4
   16de0:	4197073b          	subw	a4,a4,s9
   16de4:	2d574863          	blt	a4,s5,170b4 <printf_core+0x83c>
   16de8:	019a883b          	addw	a6,s5,s9
   16dec:	00080713          	mv	a4,a6
   16df0:	00985463          	bge	a6,s1,16df8 <printf_core+0x580>
   16df4:	00048713          	mv	a4,s1
   16df8:	00813783          	ld	a5,8(sp)
   16dfc:	03d13023          	sd	t4,32(sp)
   16e00:	0007049b          	sext.w	s1,a4
   16e04:	2a97c863          	blt	a5,s1,170b4 <printf_core+0x83c>
   16e08:	00080693          	mv	a3,a6
   16e0c:	000d0713          	mv	a4,s10
   16e10:	00048613          	mv	a2,s1
   16e14:	02000593          	li	a1,32
   16e18:	00040513          	mv	a0,s0
   16e1c:	01013423          	sd	a6,8(sp)
   16e20:	915fe0ef          	jal	ra,15734 <pad>
   16e24:	02013e83          	ld	t4,32(sp)
   16e28:	000c8613          	mv	a2,s9
   16e2c:	00040513          	mv	a0,s0
   16e30:	000e8593          	mv	a1,t4
   16e34:	8ddfe0ef          	jal	ra,15710 <out>
   16e38:	00813803          	ld	a6,8(sp)
   16e3c:	00010737          	lui	a4,0x10
   16e40:	00ed4733          	xor	a4,s10,a4
   16e44:	00080693          	mv	a3,a6
   16e48:	00048613          	mv	a2,s1
   16e4c:	03000593          	li	a1,48
   16e50:	00040513          	mv	a0,s0
   16e54:	8e1fe0ef          	jal	ra,15734 <pad>
   16e58:	00000713          	li	a4,0
   16e5c:	000d869b          	sext.w	a3,s11
   16e60:	000a8613          	mv	a2,s5
   16e64:	03000593          	li	a1,48
   16e68:	00040513          	mv	a0,s0
   16e6c:	8c9fe0ef          	jal	ra,15734 <pad>
   16e70:	000d8613          	mv	a2,s11
   16e74:	000b8593          	mv	a1,s7
   16e78:	00040513          	mv	a0,s0
   16e7c:	895fe0ef          	jal	ra,15710 <out>
   16e80:	00813803          	ld	a6,8(sp)
   16e84:	00002737          	lui	a4,0x2
   16e88:	00ed4733          	xor	a4,s10,a4
   16e8c:	00080693          	mv	a3,a6
   16e90:	00048613          	mv	a2,s1
   16e94:	02000593          	li	a1,32
   16e98:	00040513          	mv	a0,s0
   16e9c:	899fe0ef          	jal	ra,15734 <pad>
   16ea0:	00048c93          	mv	s9,s1
   16ea4:	a4dff06f          	j	168f0 <printf_core+0x78>
   16ea8:	00f77613          	andi	a2,a4,15
   16eac:	00c68633          	add	a2,a3,a2
   16eb0:	00064603          	lbu	a2,0(a2)
   16eb4:	fffb8b93          	addi	s7,s7,-1
   16eb8:	00475713          	srli	a4,a4,0x4
   16ebc:	00c56633          	or	a2,a0,a2
   16ec0:	00cb8023          	sb	a2,0(s7)
   16ec4:	eadff06f          	j	16d70 <printf_core+0x4f8>
   16ec8:	05013683          	ld	a3,80(sp)
   16ecc:	09f10b93          	addi	s7,sp,159
   16ed0:	000b8713          	mv	a4,s7
   16ed4:	02069063          	bnez	a3,16ef4 <printf_core+0x67c>
   16ed8:	008d7693          	andi	a3,s10,8
   16edc:	00098e93          	mv	t4,s3
   16ee0:	ea0688e3          	beqz	a3,16d90 <printf_core+0x518>
   16ee4:	41770733          	sub	a4,a4,s7
   16ee8:	eb5744e3          	blt	a4,s5,16d90 <printf_core+0x518>
   16eec:	00170a9b          	addiw	s5,a4,1
   16ef0:	ea1ff06f          	j	16d90 <printf_core+0x518>
   16ef4:	0076f613          	andi	a2,a3,7
   16ef8:	fffb8b93          	addi	s7,s7,-1
   16efc:	0306061b          	addiw	a2,a2,48
   16f00:	00cb8023          	sb	a2,0(s7)
   16f04:	0036d693          	srli	a3,a3,0x3
   16f08:	fcdff06f          	j	16ed4 <printf_core+0x65c>
   16f0c:	05013703          	ld	a4,80(sp)
   16f10:	02075c63          	bgez	a4,16f48 <printf_core+0x6d0>
   16f14:	40e00733          	neg	a4,a4
   16f18:	04e13823          	sd	a4,80(sp)
   16f1c:	00100c93          	li	s9,1
   16f20:	00098e93          	mv	t4,s3
   16f24:	05013503          	ld	a0,80(sp)
   16f28:	09f10593          	addi	a1,sp,159
   16f2c:	03d13423          	sd	t4,40(sp)
   16f30:	03e13023          	sd	t5,32(sp)
   16f34:	f48fe0ef          	jal	ra,1567c <fmt_u>
   16f38:	02813e83          	ld	t4,40(sp)
   16f3c:	02013f03          	ld	t5,32(sp)
   16f40:	00050b93          	mv	s7,a0
   16f44:	e4dff06f          	j	16d90 <printf_core+0x518>
   16f48:	00bd5713          	srli	a4,s10,0xb
   16f4c:	00177713          	andi	a4,a4,1
   16f50:	00071e63          	bnez	a4,16f6c <printf_core+0x6f4>
   16f54:	001d7713          	andi	a4,s10,1
   16f58:	fc0704e3          	beqz	a4,16f20 <printf_core+0x6a8>
   16f5c:	0001ceb7          	lui	t4,0x1c
   16f60:	00100c93          	li	s9,1
   16f64:	92ae8e93          	addi	t4,t4,-1750 # 1b92a <__fsmu8+0x15a>
   16f68:	fbdff06f          	j	16f24 <printf_core+0x6ac>
   16f6c:	0001ceb7          	lui	t4,0x1c
   16f70:	00100c93          	li	s9,1
   16f74:	929e8e93          	addi	t4,t4,-1751 # 1b929 <__fsmu8+0x159>
   16f78:	fadff06f          	j	16f24 <printf_core+0x6ac>
   16f7c:	05013703          	ld	a4,80(sp)
   16f80:	00098e93          	mv	t4,s3
   16f84:	00100a93          	li	s5,1
   16f88:	08e10f23          	sb	a4,158(sp)
   16f8c:	ffff0737          	lui	a4,0xffff0
   16f90:	fff70713          	addi	a4,a4,-1 # fffffffffffeffff <__BSS_END__+0xfffffffffffd234f>
   16f94:	00ed7d33          	and	s10,s10,a4
   16f98:	09f10613          	addi	a2,sp,159
   16f9c:	09e10b93          	addi	s7,sp,158
   16fa0:	e2dff06f          	j	16dcc <printf_core+0x554>
   16fa4:	e84fa0ef          	jal	ra,11628 <__errno_location>
   16fa8:	00052503          	lw	a0,0(a0)
   16fac:	ed4fa0ef          	jal	ra,11680 <strerror>
   16fb0:	00050b93          	mv	s7,a0
   16fb4:	000a8593          	mv	a1,s5
   16fb8:	000ad663          	bgez	s5,16fc4 <printf_core+0x74c>
   16fbc:	800005b7          	lui	a1,0x80000
   16fc0:	fff5c593          	not	a1,a1
   16fc4:	000b8513          	mv	a0,s7
   16fc8:	380000ef          	jal	ra,17348 <strnlen>
   16fcc:	00ab8633          	add	a2,s7,a0
   16fd0:	000ad663          	bgez	s5,16fdc <printf_core+0x764>
   16fd4:	00064703          	lbu	a4,0(a2)
   16fd8:	0c071e63          	bnez	a4,170b4 <printf_core+0x83c>
   16fdc:	ffff0737          	lui	a4,0xffff0
   16fe0:	fff70713          	addi	a4,a4,-1 # fffffffffffeffff <__BSS_END__+0xfffffffffffd234f>
   16fe4:	00050a9b          	sext.w	s5,a0
   16fe8:	00ed7d33          	and	s10,s10,a4
   16fec:	00098e93          	mv	t4,s3
   16ff0:	dddff06f          	j	16dcc <printf_core+0x554>
   16ff4:	05013b83          	ld	s7,80(sp)
   16ff8:	fa0b9ee3          	bnez	s7,16fb4 <printf_core+0x73c>
   16ffc:	0001ce37          	lui	t3,0x1c
   17000:	938e0b93          	addi	s7,t3,-1736 # 1b938 <__fsmu8+0x168>
   17004:	fb1ff06f          	j	16fb4 <printf_core+0x73c>
   17008:	05013703          	ld	a4,80(sp)
   1700c:	04012623          	sw	zero,76(sp)
   17010:	fff00a93          	li	s5,-1
   17014:	04e12423          	sw	a4,72(sp)
   17018:	04810713          	addi	a4,sp,72
   1701c:	04e13823          	sd	a4,80(sp)
   17020:	05013d83          	ld	s11,80(sp)
   17024:	00000c93          	li	s9,0
   17028:	035cf263          	bgeu	s9,s5,1704c <printf_core+0x7d4>
   1702c:	000da583          	lw	a1,0(s11)
   17030:	00058e63          	beqz	a1,1704c <printf_core+0x7d4>
   17034:	03810513          	addi	a0,sp,56
   17038:	004d8d93          	addi	s11,s11,4
   1703c:	199000ef          	jal	ra,179d4 <wctomb>
   17040:	b00548e3          	bltz	a0,16b50 <printf_core+0x2d8>
   17044:	419a8733          	sub	a4,s5,s9
   17048:	06a77c63          	bgeu	a4,a0,170c0 <printf_core+0x848>
   1704c:	80000737          	lui	a4,0x80000
   17050:	fff74713          	not	a4,a4
   17054:	07976063          	bltu	a4,s9,170b4 <printf_core+0x83c>
   17058:	000c8d9b          	sext.w	s11,s9
   1705c:	000d0713          	mv	a4,s10
   17060:	000d8693          	mv	a3,s11
   17064:	00048613          	mv	a2,s1
   17068:	02000593          	li	a1,32
   1706c:	00040513          	mv	a0,s0
   17070:	ec4fe0ef          	jal	ra,15734 <pad>
   17074:	05013b83          	ld	s7,80(sp)
   17078:	00000a93          	li	s5,0
   1707c:	059ae663          	bltu	s5,s9,170c8 <printf_core+0x850>
   17080:	00002737          	lui	a4,0x2
   17084:	00ed4733          	xor	a4,s10,a4
   17088:	000d8693          	mv	a3,s11
   1708c:	00048613          	mv	a2,s1
   17090:	02000593          	li	a1,32
   17094:	00040513          	mv	a0,s0
   17098:	e9cfe0ef          	jal	ra,15734 <pad>
   1709c:	00048313          	mv	t1,s1
   170a0:	01b4d463          	bge	s1,s11,170a8 <printf_core+0x830>
   170a4:	000d8313          	mv	t1,s11
   170a8:	00030c9b          	sext.w	s9,t1
   170ac:	00813783          	ld	a5,8(sp)
   170b0:	8597d0e3          	bge	a5,s9,168f0 <printf_core+0x78>
   170b4:	d74fa0ef          	jal	ra,11628 <__errno_location>
   170b8:	04b00793          	li	a5,75
   170bc:	a91ff06f          	j	16b4c <printf_core+0x2d4>
   170c0:	00ac8cb3          	add	s9,s9,a0
   170c4:	f65ff06f          	j	17028 <printf_core+0x7b0>
   170c8:	000ba583          	lw	a1,0(s7)
   170cc:	fa058ae3          	beqz	a1,17080 <printf_core+0x808>
   170d0:	03810513          	addi	a0,sp,56
   170d4:	101000ef          	jal	ra,179d4 <wctomb>
   170d8:	00aa8ab3          	add	s5,s5,a0
   170dc:	004b8b93          	addi	s7,s7,4
   170e0:	00050613          	mv	a2,a0
   170e4:	f95ceee3          	bltu	s9,s5,17080 <printf_core+0x808>
   170e8:	03810593          	addi	a1,sp,56
   170ec:	00040513          	mv	a0,s0
   170f0:	e20fe0ef          	jal	ra,15710 <out>
   170f4:	f89ff06f          	j	1707c <printf_core+0x804>
   170f8:	000f0463          	beqz	t5,17100 <printf_core+0x888>
   170fc:	fa0acce3          	bltz	s5,170b4 <printf_core+0x83c>
   17100:	05013583          	ld	a1,80(sp)
   17104:	05813603          	ld	a2,88(sp)
   17108:	000d0793          	mv	a5,s10
   1710c:	000a8713          	mv	a4,s5
   17110:	00048693          	mv	a3,s1
   17114:	00040513          	mv	a0,s0
   17118:	ec4fe0ef          	jal	ra,157dc <fmt_fp>
   1711c:	00050c93          	mv	s9,a0
   17120:	f80556e3          	bgez	a0,170ac <printf_core+0x834>
   17124:	f91ff06f          	j	170b4 <printf_core+0x83c>
   17128:	00098e93          	mv	t4,s3
   1712c:	09f10613          	addi	a2,sp,159
   17130:	c9dff06f          	j	16dcc <printf_core+0x554>
   17134:	00060b93          	mv	s7,a2
   17138:	c95ff06f          	j	16dcc <printf_core+0x554>
   1713c:	ae0418e3          	bnez	s0,16c2c <printf_core+0x3b4>
   17140:	ae0c04e3          	beqz	s8,16c28 <printf_core+0x3b0>
   17144:	00100413          	li	s0,1
   17148:	00a00493          	li	s1,10
   1714c:	00241793          	slli	a5,s0,0x2
   17150:	00fb07b3          	add	a5,s6,a5
   17154:	0007a583          	lw	a1,0(a5)
   17158:	02059263          	bnez	a1,1717c <printf_core+0x904>
   1715c:	00a00713          	li	a4,10
   17160:	00241793          	slli	a5,s0,0x2
   17164:	00fb07b3          	add	a5,s6,a5
   17168:	0007a783          	lw	a5,0(a5)
   1716c:	9c079ce3          	bnez	a5,16b44 <printf_core+0x2cc>
   17170:	00140413          	addi	s0,s0,1
   17174:	fee416e3          	bne	s0,a4,17160 <printf_core+0x8e8>
   17178:	0200006f          	j	17198 <printf_core+0x920>
   1717c:	00013783          	ld	a5,0(sp)
   17180:	00441513          	slli	a0,s0,0x4
   17184:	000a0613          	mv	a2,s4
   17188:	00a78533          	add	a0,a5,a0
   1718c:	00140413          	addi	s0,s0,1
   17190:	be8fe0ef          	jal	ra,15578 <pop_arg>
   17194:	fa941ce3          	bne	s0,s1,1714c <printf_core+0x8d4>
   17198:	00100913          	li	s2,1
   1719c:	a91ff06f          	j	16c2c <printf_core+0x3b4>

00000000000171a0 <vfprintf>:
   171a0:	ea010113          	addi	sp,sp,-352
   171a4:	14813823          	sd	s0,336(sp)
   171a8:	00c13023          	sd	a2,0(sp)
   171ac:	00050413          	mv	s0,a0
   171b0:	00810713          	addi	a4,sp,8
   171b4:	08010693          	addi	a3,sp,128
   171b8:	00010613          	mv	a2,sp
   171bc:	00000513          	li	a0,0
   171c0:	14913423          	sd	s1,328(sp)
   171c4:	13513423          	sd	s5,296(sp)
   171c8:	14113c23          	sd	ra,344(sp)
   171cc:	15213023          	sd	s2,320(sp)
   171d0:	13313c23          	sd	s3,312(sp)
   171d4:	13413823          	sd	s4,304(sp)
   171d8:	00058a93          	mv	s5,a1
   171dc:	00013423          	sd	zero,8(sp)
   171e0:	00013823          	sd	zero,16(sp)
   171e4:	00013c23          	sd	zero,24(sp)
   171e8:	02013023          	sd	zero,32(sp)
   171ec:	02013423          	sd	zero,40(sp)
   171f0:	e88ff0ef          	jal	ra,16878 <printf_core>
   171f4:	fff00493          	li	s1,-1
   171f8:	0e054463          	bltz	a0,172e0 <vfprintf+0x140>
   171fc:	08c42783          	lw	a5,140(s0)
   17200:	00000993          	li	s3,0
   17204:	0007879b          	sext.w	a5,a5
   17208:	0007c863          	bltz	a5,17218 <vfprintf+0x78>
   1720c:	00040513          	mv	a0,s0
   17210:	af4fc0ef          	jal	ra,13504 <__lockfile>
   17214:	00050993          	mv	s3,a0
   17218:	00042783          	lw	a5,0(s0)
   1721c:	08842703          	lw	a4,136(s0)
   17220:	0207fa13          	andi	s4,a5,32
   17224:	00e04663          	bgtz	a4,17230 <vfprintf+0x90>
   17228:	fdf7f793          	andi	a5,a5,-33
   1722c:	00f42023          	sw	a5,0(s0)
   17230:	06043783          	ld	a5,96(s0)
   17234:	0c079a63          	bnez	a5,17308 <vfprintf+0x168>
   17238:	03010793          	addi	a5,sp,48
   1723c:	05843903          	ld	s2,88(s0)
   17240:	04f43c23          	sd	a5,88(s0)
   17244:	05000793          	li	a5,80
   17248:	06f43023          	sd	a5,96(s0)
   1724c:	02043023          	sd	zero,32(s0)
   17250:	02043c23          	sd	zero,56(s0)
   17254:	02043423          	sd	zero,40(s0)
   17258:	00040513          	mv	a0,s0
   1725c:	ac4fe0ef          	jal	ra,15520 <__towrite>
   17260:	fff00493          	li	s1,-1
   17264:	02051063          	bnez	a0,17284 <vfprintf+0xe4>
   17268:	00810713          	addi	a4,sp,8
   1726c:	08010693          	addi	a3,sp,128
   17270:	00010613          	mv	a2,sp
   17274:	000a8593          	mv	a1,s5
   17278:	00040513          	mv	a0,s0
   1727c:	dfcff0ef          	jal	ra,16878 <printf_core>
   17280:	00050493          	mv	s1,a0
   17284:	02090c63          	beqz	s2,172bc <vfprintf+0x11c>
   17288:	04843783          	ld	a5,72(s0)
   1728c:	00000613          	li	a2,0
   17290:	00000593          	li	a1,0
   17294:	00040513          	mv	a0,s0
   17298:	000780e7          	jalr	a5
   1729c:	02843783          	ld	a5,40(s0)
   172a0:	00079463          	bnez	a5,172a8 <vfprintf+0x108>
   172a4:	fff00493          	li	s1,-1
   172a8:	05243c23          	sd	s2,88(s0)
   172ac:	06043023          	sd	zero,96(s0)
   172b0:	02043023          	sd	zero,32(s0)
   172b4:	02043c23          	sd	zero,56(s0)
   172b8:	02043423          	sd	zero,40(s0)
   172bc:	00042783          	lw	a5,0(s0)
   172c0:	0207f713          	andi	a4,a5,32
   172c4:	00070463          	beqz	a4,172cc <vfprintf+0x12c>
   172c8:	fff00493          	li	s1,-1
   172cc:	00fa6a33          	or	s4,s4,a5
   172d0:	01442023          	sw	s4,0(s0)
   172d4:	00098663          	beqz	s3,172e0 <vfprintf+0x140>
   172d8:	00040513          	mv	a0,s0
   172dc:	afcfc0ef          	jal	ra,135d8 <__unlockfile>
   172e0:	15813083          	ld	ra,344(sp)
   172e4:	15013403          	ld	s0,336(sp)
   172e8:	14013903          	ld	s2,320(sp)
   172ec:	13813983          	ld	s3,312(sp)
   172f0:	13013a03          	ld	s4,304(sp)
   172f4:	12813a83          	ld	s5,296(sp)
   172f8:	00048513          	mv	a0,s1
   172fc:	14813483          	ld	s1,328(sp)
   17300:	16010113          	addi	sp,sp,352
   17304:	00008067          	ret
   17308:	02043903          	ld	s2,32(s0)
   1730c:	f40906e3          	beqz	s2,17258 <vfprintf+0xb8>
   17310:	00000913          	li	s2,0
   17314:	f55ff06f          	j	17268 <vfprintf+0xc8>

0000000000017318 <__memrchr>:
   17318:	00050793          	mv	a5,a0
   1731c:	0ff5f593          	andi	a1,a1,255
   17320:	00c50633          	add	a2,a0,a2
   17324:	00c79663          	bne	a5,a2,17330 <__memrchr+0x18>
   17328:	00000513          	li	a0,0
   1732c:	00008067          	ret
   17330:	fff64683          	lbu	a3,-1(a2)
   17334:	fff60713          	addi	a4,a2,-1
   17338:	00070513          	mv	a0,a4
   1733c:	feb688e3          	beq	a3,a1,1732c <__memrchr+0x14>
   17340:	00070613          	mv	a2,a4
   17344:	fe1ff06f          	j	17324 <__memrchr+0xc>

0000000000017348 <strnlen>:
   17348:	fe010113          	addi	sp,sp,-32
   1734c:	00813823          	sd	s0,16(sp)
   17350:	00058613          	mv	a2,a1
   17354:	00058413          	mv	s0,a1
   17358:	00000593          	li	a1,0
   1735c:	00913423          	sd	s1,8(sp)
   17360:	00113c23          	sd	ra,24(sp)
   17364:	00050493          	mv	s1,a0
   17368:	798000ef          	jal	ra,17b00 <memchr>
   1736c:	00050463          	beqz	a0,17374 <strnlen+0x2c>
   17370:	40950433          	sub	s0,a0,s1
   17374:	01813083          	ld	ra,24(sp)
   17378:	00040513          	mv	a0,s0
   1737c:	01013403          	ld	s0,16(sp)
   17380:	00813483          	ld	s1,8(sp)
   17384:	02010113          	addi	sp,sp,32
   17388:	00008067          	ret

000000000001738c <__pthread_setcancelstate>:
   1738c:	00200793          	li	a5,2
   17390:	02a7e463          	bltu	a5,a0,173b8 <__pthread_setcancelstate+0x2c>
   17394:	00020713          	mv	a4,tp
   17398:	00058863          	beqz	a1,173a8 <__pthread_setcancelstate+0x1c>
   1739c:	f6874783          	lbu	a5,-152(a4) # 1f68 <exit-0xe1b8>
   173a0:	0ff7f793          	andi	a5,a5,255
   173a4:	00f5a023          	sw	a5,0(a1) # ffffffff80000000 <__BSS_END__+0xffffffff7ffe2350>
   173a8:	0ff57513          	andi	a0,a0,255
   173ac:	f6a70423          	sb	a0,-152(a4)
   173b0:	00000513          	li	a0,0
   173b4:	00008067          	ret
   173b8:	01600513          	li	a0,22
   173bc:	00008067          	ret

00000000000173c0 <__set_thread_area>:
   173c0:	00050213          	mv	tp,a0
   173c4:	00000513          	li	a0,0
   173c8:	00008067          	ret

00000000000173cc <sem_destroy>:
   173cc:	00000513          	li	a0,0
   173d0:	00008067          	ret

00000000000173d4 <sem_init>:
   173d4:	02065463          	bgez	a2,173fc <sem_init+0x28>
   173d8:	ff010113          	addi	sp,sp,-16
   173dc:	00113423          	sd	ra,8(sp)
   173e0:	a48fa0ef          	jal	ra,11628 <__errno_location>
   173e4:	00813083          	ld	ra,8(sp)
   173e8:	01600793          	li	a5,22
   173ec:	00f52023          	sw	a5,0(a0)
   173f0:	fff00513          	li	a0,-1
   173f4:	01010113          	addi	sp,sp,16
   173f8:	00008067          	ret
   173fc:	00c52023          	sw	a2,0(a0)
   17400:	0015b593          	seqz	a1,a1
   17404:	00052223          	sw	zero,4(a0)
   17408:	00759593          	slli	a1,a1,0x7
   1740c:	00b52423          	sw	a1,8(a0)
   17410:	00000513          	li	a0,0
   17414:	00008067          	ret

0000000000017418 <sem_post>:
   17418:	00852583          	lw	a1,8(a0)
   1741c:	80000837          	lui	a6,0x80000
   17420:	00050793          	mv	a5,a0
   17424:	0005859b          	sext.w	a1,a1
   17428:	fff84813          	not	a6,a6
   1742c:	0007a703          	lw	a4,0(a5)
   17430:	0047a603          	lw	a2,4(a5)
   17434:	0007071b          	sext.w	a4,a4
   17438:	0006061b          	sext.w	a2,a2
   1743c:	03071463          	bne	a4,a6,17464 <sem_post+0x4c>
   17440:	ff010113          	addi	sp,sp,-16
   17444:	00113423          	sd	ra,8(sp)
   17448:	9e0fa0ef          	jal	ra,11628 <__errno_location>
   1744c:	00813083          	ld	ra,8(sp)
   17450:	04b00793          	li	a5,75
   17454:	00f52023          	sw	a5,0(a0)
   17458:	fff00513          	li	a0,-1
   1745c:	01010113          	addi	sp,sp,16
   17460:	00008067          	ret
   17464:	0017069b          	addiw	a3,a4,1
   17468:	01f7551b          	srliw	a0,a4,0x1f
   1746c:	00a686bb          	addw	a3,a3,a0
   17470:	1607a52f          	lr.w.aqrl	a0,(a5)
   17474:	00e51663          	bne	a0,a4,17480 <sem_post+0x68>
   17478:	1ed7a8af          	sc.w.aqrl	a7,a3,(a5)
   1747c:	fe089ae3          	bnez	a7,17470 <sem_post+0x58>
   17480:	0005069b          	sext.w	a3,a0
   17484:	fad714e3          	bne	a4,a3,1742c <sem_post+0x14>
   17488:	00074863          	bltz	a4,17498 <sem_post+0x80>
   1748c:	00061663          	bnez	a2,17498 <sem_post+0x80>
   17490:	00000513          	li	a0,0
   17494:	00008067          	ret
   17498:	00058463          	beqz	a1,174a0 <sem_post+0x88>
   1749c:	08000593          	li	a1,128
   174a0:	06200893          	li	a7,98
   174a4:	00078513          	mv	a0,a5
   174a8:	0015e593          	ori	a1,a1,1
   174ac:	00100613          	li	a2,1
   174b0:	00000073          	ecall
   174b4:	fda00713          	li	a4,-38
   174b8:	fce51ce3          	bne	a0,a4,17490 <sem_post+0x78>
   174bc:	00078513          	mv	a0,a5
   174c0:	00100593          	li	a1,1
   174c4:	00000073          	ecall
   174c8:	fc9ff06f          	j	17490 <sem_post+0x78>

00000000000174cc <sem_wait>:
   174cc:	00000593          	li	a1,0
   174d0:	7340006f          	j	17c04 <sem_timedwait>

00000000000174d4 <__map_file>:
   174d4:	f6010113          	addi	sp,sp,-160
   174d8:	00050793          	mv	a5,a0
   174dc:	00089637          	lui	a2,0x89
   174e0:	08913423          	sd	s1,136(sp)
   174e4:	08113c23          	sd	ra,152(sp)
   174e8:	00058493          	mv	s1,a1
   174ec:	08813823          	sd	s0,144(sp)
   174f0:	03800893          	li	a7,56
   174f4:	f9c00513          	li	a0,-100
   174f8:	00078593          	mv	a1,a5
   174fc:	80060613          	addi	a2,a2,-2048 # 88800 <__BSS_END__+0x6ab50>
   17500:	00000073          	ecall
   17504:	a90fa0ef          	jal	ra,11794 <__syscall_ret>
   17508:	0005041b          	sext.w	s0,a0
   1750c:	02045063          	bgez	s0,1752c <__map_file+0x58>
   17510:	00000793          	li	a5,0
   17514:	09813083          	ld	ra,152(sp)
   17518:	09013403          	ld	s0,144(sp)
   1751c:	08813483          	ld	s1,136(sp)
   17520:	00078513          	mv	a0,a5
   17524:	0a010113          	addi	sp,sp,160
   17528:	00008067          	ret
   1752c:	05000893          	li	a7,80
   17530:	00040513          	mv	a0,s0
   17534:	00010593          	mv	a1,sp
   17538:	00000073          	ecall
   1753c:	a58fa0ef          	jal	ra,11794 <__syscall_ret>
   17540:	fff00793          	li	a5,-1
   17544:	02051463          	bnez	a0,1756c <__map_file+0x98>
   17548:	03013583          	ld	a1,48(sp)
   1754c:	00000793          	li	a5,0
   17550:	00040713          	mv	a4,s0
   17554:	00100693          	li	a3,1
   17558:	00100613          	li	a2,1
   1755c:	9c9fb0ef          	jal	ra,12f24 <__mmap>
   17560:	03013703          	ld	a4,48(sp)
   17564:	00050793          	mv	a5,a0
   17568:	00e4b023          	sd	a4,0(s1)
   1756c:	03900893          	li	a7,57
   17570:	00040513          	mv	a0,s0
   17574:	00000073          	ecall
   17578:	fff00713          	li	a4,-1
   1757c:	f8e79ce3          	bne	a5,a4,17514 <__map_file+0x40>
   17580:	f91ff06f          	j	17510 <__map_file+0x3c>

0000000000017584 <__lseek>:
   17584:	03e00893          	li	a7,62
   17588:	00000073          	ecall
   1758c:	a08fa06f          	j	11794 <__syscall_ret>

0000000000017590 <getenv>:
   17590:	fd010113          	addi	sp,sp,-48
   17594:	03d00593          	li	a1,61
   17598:	00913c23          	sd	s1,24(sp)
   1759c:	01213823          	sd	s2,16(sp)
   175a0:	02113423          	sd	ra,40(sp)
   175a4:	00050913          	mv	s2,a0
   175a8:	02813023          	sd	s0,32(sp)
   175ac:	01313423          	sd	s3,8(sp)
   175b0:	bd5fc0ef          	jal	ra,14184 <__strchrnul>
   175b4:	412504b3          	sub	s1,a0,s2
   175b8:	03251263          	bne	a0,s2,175dc <getenv+0x4c>
   175bc:	00000513          	li	a0,0
   175c0:	02813083          	ld	ra,40(sp)
   175c4:	02013403          	ld	s0,32(sp)
   175c8:	01813483          	ld	s1,24(sp)
   175cc:	01013903          	ld	s2,16(sp)
   175d0:	00813983          	ld	s3,8(sp)
   175d4:	03010113          	addi	sp,sp,48
   175d8:	00008067          	ret
   175dc:	00054783          	lbu	a5,0(a0)
   175e0:	fc079ee3          	bnez	a5,175bc <getenv+0x2c>
   175e4:	a301b403          	ld	s0,-1488(gp) # 1d230 <__environ>
   175e8:	03d00993          	li	s3,61
   175ec:	fc0408e3          	beqz	s0,175bc <getenv+0x2c>
   175f0:	00043583          	ld	a1,0(s0)
   175f4:	fc0584e3          	beqz	a1,175bc <getenv+0x2c>
   175f8:	00048613          	mv	a2,s1
   175fc:	00090513          	mv	a0,s2
   17600:	594000ef          	jal	ra,17b94 <strncmp>
   17604:	02051063          	bnez	a0,17624 <getenv+0x94>
   17608:	00043783          	ld	a5,0(s0)
   1760c:	00978733          	add	a4,a5,s1
   17610:	00074703          	lbu	a4,0(a4)
   17614:	01371863          	bne	a4,s3,17624 <getenv+0x94>
   17618:	00148513          	addi	a0,s1,1
   1761c:	00a78533          	add	a0,a5,a0
   17620:	fa1ff06f          	j	175c0 <getenv+0x30>
   17624:	00840413          	addi	s0,s0,8
   17628:	fc9ff06f          	j	175f0 <getenv+0x60>

000000000001762c <swapc>:
   1762c:	02058c63          	beqz	a1,17664 <swapc+0x38>
   17630:	0185171b          	slliw	a4,a0,0x18
   17634:	0185579b          	srliw	a5,a0,0x18
   17638:	000106b7          	lui	a3,0x10
   1763c:	00e7e7b3          	or	a5,a5,a4
   17640:	f0068693          	addi	a3,a3,-256 # ff00 <exit-0x220>
   17644:	0085571b          	srliw	a4,a0,0x8
   17648:	00d77733          	and	a4,a4,a3
   1764c:	00e7e7b3          	or	a5,a5,a4
   17650:	0085151b          	slliw	a0,a0,0x8
   17654:	00ff0737          	lui	a4,0xff0
   17658:	00e57533          	and	a0,a0,a4
   1765c:	00a7e533          	or	a0,a5,a0
   17660:	0005051b          	sext.w	a0,a0
   17664:	00008067          	ret

0000000000017668 <__mo_lookup>:
   17668:	f7010113          	addi	sp,sp,-144
   1766c:	07413023          	sd	s4,96(sp)
   17670:	00052a03          	lw	s4,0(a0)
   17674:	6afbf7b7          	lui	a5,0x6afbf
   17678:	d227879b          	addiw	a5,a5,-734
   1767c:	08813023          	sd	s0,128(sp)
   17680:	00050413          	mv	s0,a0
   17684:	00852503          	lw	a0,8(a0)
   17688:	00fa0a3b          	addw	s4,s4,a5
   1768c:	07313423          	sd	s3,104(sp)
   17690:	00058993          	mv	s3,a1
   17694:	000a0593          	mv	a1,s4
   17698:	08113423          	sd	ra,136(sp)
   1769c:	03913c23          	sd	s9,56(sp)
   176a0:	00c13823          	sd	a2,16(sp)
   176a4:	06913c23          	sd	s1,120(sp)
   176a8:	07213823          	sd	s2,112(sp)
   176ac:	05513c23          	sd	s5,88(sp)
   176b0:	05613823          	sd	s6,80(sp)
   176b4:	05713423          	sd	s7,72(sp)
   176b8:	05813023          	sd	s8,64(sp)
   176bc:	03a13823          	sd	s10,48(sp)
   176c0:	03b13423          	sd	s11,40(sp)
   176c4:	f69ff0ef          	jal	ra,1762c <swapc>
   176c8:	00050c9b          	sext.w	s9,a0
   176cc:	00c42503          	lw	a0,12(s0)
   176d0:	000a0593          	mv	a1,s4
   176d4:	f59ff0ef          	jal	ra,1762c <swapc>
   176d8:	020c9693          	slli	a3,s9,0x20
   176dc:	0206d693          	srli	a3,a3,0x20
   176e0:	0029d793          	srli	a5,s3,0x2
   176e4:	16f6f863          	bgeu	a3,a5,17854 <__mo_lookup+0x1ec>
   176e8:	002c949b          	slliw	s1,s9,0x2
   176ec:	00050a9b          	sext.w	s5,a0
   176f0:	02049493          	slli	s1,s1,0x20
   176f4:	0204d493          	srli	s1,s1,0x20
   176f8:	020a9793          	slli	a5,s5,0x20
   176fc:	409984b3          	sub	s1,s3,s1
   17700:	0207d793          	srli	a5,a5,0x20
   17704:	1497f863          	bgeu	a5,s1,17854 <__mo_lookup+0x1ec>
   17708:	01042503          	lw	a0,16(s0)
   1770c:	000a0593          	mv	a1,s4
   17710:	f1dff0ef          	jal	ra,1762c <swapc>
   17714:	0005091b          	sext.w	s2,a0
   17718:	02051513          	slli	a0,a0,0x20
   1771c:	02055513          	srli	a0,a0,0x20
   17720:	12957a63          	bgeu	a0,s1,17854 <__mo_lookup+0x1ec>
   17724:	012ae6b3          	or	a3,s5,s2
   17728:	0036fb13          	andi	s6,a3,3
   1772c:	120b1463          	bnez	s6,17854 <__mo_lookup+0x1ec>
   17730:	002ada9b          	srliw	s5,s5,0x2
   17734:	00100d13          	li	s10,1
   17738:	001cdc1b          	srliw	s8,s9,0x1
   1773c:	016c07bb          	addw	a5,s8,s6
   17740:	00179d9b          	slliw	s11,a5,0x1
   17744:	015d84bb          	addw	s1,s11,s5
   17748:	00f13423          	sd	a5,8(sp)
   1774c:	02049793          	slli	a5,s1,0x20
   17750:	01e7d793          	srli	a5,a5,0x1e
   17754:	00f407b3          	add	a5,s0,a5
   17758:	0007a503          	lw	a0,0(a5) # 6afbf000 <__BSS_END__+0x6afa1350>
   1775c:	0014849b          	addiw	s1,s1,1
   17760:	02049493          	slli	s1,s1,0x20
   17764:	000a0593          	mv	a1,s4
   17768:	01e4d493          	srli	s1,s1,0x1e
   1776c:	ec1ff0ef          	jal	ra,1762c <swapc>
   17770:	009404b3          	add	s1,s0,s1
   17774:	0005079b          	sext.w	a5,a0
   17778:	0004a503          	lw	a0,0(s1)
   1777c:	000a0593          	mv	a1,s4
   17780:	00f13c23          	sd	a5,24(sp)
   17784:	ea9ff0ef          	jal	ra,1762c <swapc>
   17788:	02051593          	slli	a1,a0,0x20
   1778c:	0205d593          	srli	a1,a1,0x20
   17790:	001cdb9b          	srliw	s7,s9,0x1
   17794:	0005081b          	sext.w	a6,a0
   17798:	0b35fe63          	bgeu	a1,s3,17854 <__mo_lookup+0x1ec>
   1779c:	01813783          	ld	a5,24(sp)
   177a0:	40b98533          	sub	a0,s3,a1
   177a4:	02079613          	slli	a2,a5,0x20
   177a8:	02065613          	srli	a2,a2,0x20
   177ac:	0aa67463          	bgeu	a2,a0,17854 <__mo_lookup+0x1ec>
   177b0:	010787bb          	addw	a5,a5,a6
   177b4:	02079793          	slli	a5,a5,0x20
   177b8:	0207d793          	srli	a5,a5,0x20
   177bc:	00f407b3          	add	a5,s0,a5
   177c0:	0007c783          	lbu	a5,0(a5)
   177c4:	08079863          	bnez	a5,17854 <__mo_lookup+0x1ec>
   177c8:	01013503          	ld	a0,16(sp)
   177cc:	00b405b3          	add	a1,s0,a1
   177d0:	a59fc0ef          	jal	ra,14228 <strcmp>
   177d4:	0c051063          	bnez	a0,17894 <__mo_lookup+0x22c>
   177d8:	0029591b          	srliw	s2,s2,0x2
   177dc:	01b90dbb          	addw	s11,s2,s11
   177e0:	020d9793          	slli	a5,s11,0x20
   177e4:	01e7d793          	srli	a5,a5,0x1e
   177e8:	00f407b3          	add	a5,s0,a5
   177ec:	0007a503          	lw	a0,0(a5)
   177f0:	001d8d9b          	addiw	s11,s11,1
   177f4:	020d9d93          	slli	s11,s11,0x20
   177f8:	000a0593          	mv	a1,s4
   177fc:	01eddd93          	srli	s11,s11,0x1e
   17800:	e2dff0ef          	jal	ra,1762c <swapc>
   17804:	01b40db3          	add	s11,s0,s11
   17808:	0005049b          	sext.w	s1,a0
   1780c:	000da503          	lw	a0,0(s11)
   17810:	000a0593          	mv	a1,s4
   17814:	e19ff0ef          	jal	ra,1762c <swapc>
   17818:	0005071b          	sext.w	a4,a0
   1781c:	02051513          	slli	a0,a0,0x20
   17820:	02055513          	srli	a0,a0,0x20
   17824:	03357863          	bgeu	a0,s3,17854 <__mo_lookup+0x1ec>
   17828:	02049793          	slli	a5,s1,0x20
   1782c:	0207d793          	srli	a5,a5,0x20
   17830:	40a989b3          	sub	s3,s3,a0
   17834:	0337f063          	bgeu	a5,s3,17854 <__mo_lookup+0x1ec>
   17838:	00e484bb          	addw	s1,s1,a4
   1783c:	02049493          	slli	s1,s1,0x20
   17840:	0204d493          	srli	s1,s1,0x20
   17844:	009404b3          	add	s1,s0,s1
   17848:	0004c783          	lbu	a5,0(s1)
   1784c:	00a40533          	add	a0,s0,a0
   17850:	00078463          	beqz	a5,17858 <__mo_lookup+0x1f0>
   17854:	00000513          	li	a0,0
   17858:	08813083          	ld	ra,136(sp)
   1785c:	08013403          	ld	s0,128(sp)
   17860:	07813483          	ld	s1,120(sp)
   17864:	07013903          	ld	s2,112(sp)
   17868:	06813983          	ld	s3,104(sp)
   1786c:	06013a03          	ld	s4,96(sp)
   17870:	05813a83          	ld	s5,88(sp)
   17874:	05013b03          	ld	s6,80(sp)
   17878:	04813b83          	ld	s7,72(sp)
   1787c:	04013c03          	ld	s8,64(sp)
   17880:	03813c83          	ld	s9,56(sp)
   17884:	03013d03          	ld	s10,48(sp)
   17888:	02813d83          	ld	s11,40(sp)
   1788c:	09010113          	addi	sp,sp,144
   17890:	00008067          	ret
   17894:	fdac80e3          	beq	s9,s10,17854 <__mo_lookup+0x1ec>
   17898:	00054663          	bltz	a0,178a4 <__mo_lookup+0x23c>
   1789c:	00813b03          	ld	s6,8(sp)
   178a0:	418c8bbb          	subw	s7,s9,s8
   178a4:	000b8c93          	mv	s9,s7
   178a8:	e91ff06f          	j	17738 <__mo_lookup+0xd0>

00000000000178ac <__fpclassifyl>:
   178ac:	00008737          	lui	a4,0x8
   178b0:	0305d693          	srli	a3,a1,0x30
   178b4:	fff70713          	addi	a4,a4,-1 # 7fff <exit-0x8121>
   178b8:	01059593          	slli	a1,a1,0x10
   178bc:	00e6f6b3          	and	a3,a3,a4
   178c0:	00050793          	mv	a5,a0
   178c4:	0105d593          	srli	a1,a1,0x10
   178c8:	00069a63          	bnez	a3,178dc <__fpclassifyl+0x30>
   178cc:	00a5e5b3          	or	a1,a1,a0
   178d0:	00b03533          	snez	a0,a1
   178d4:	00250513          	addi	a0,a0,2
   178d8:	00008067          	ret
   178dc:	00400513          	li	a0,4
   178e0:	00e69663          	bne	a3,a4,178ec <__fpclassifyl+0x40>
   178e4:	00f5e5b3          	or	a1,a1,a5
   178e8:	0015b513          	seqz	a0,a1
   178ec:	00008067          	ret

00000000000178f0 <__signbitl>:
   178f0:	03f5d513          	srli	a0,a1,0x3f
   178f4:	00008067          	ret

00000000000178f8 <frexpl>:
   178f8:	00008737          	lui	a4,0x8
   178fc:	fe010113          	addi	sp,sp,-32
   17900:	0305d793          	srli	a5,a1,0x30
   17904:	fff70713          	addi	a4,a4,-1 # 7fff <exit-0x8121>
   17908:	00813823          	sd	s0,16(sp)
   1790c:	00913423          	sd	s1,8(sp)
   17910:	01213023          	sd	s2,0(sp)
   17914:	00113c23          	sd	ra,24(sp)
   17918:	00060913          	mv	s2,a2
   1791c:	00e7f633          	and	a2,a5,a4
   17920:	00050493          	mv	s1,a0
   17924:	00058413          	mv	s0,a1
   17928:	06061663          	bnez	a2,17994 <frexpl+0x9c>
   1792c:	00000693          	li	a3,0
   17930:	314010ef          	jal	ra,18c44 <__eqtf2>
   17934:	04050c63          	beqz	a0,1798c <frexpl+0x94>
   17938:	0001c7b7          	lui	a5,0x1c
   1793c:	d587b683          	ld	a3,-680(a5) # 1bd58 <empty_mo+0x28>
   17940:	00000613          	li	a2,0
   17944:	00048513          	mv	a0,s1
   17948:	00040593          	mv	a1,s0
   1794c:	3c8010ef          	jal	ra,18d14 <__multf3>
   17950:	00090613          	mv	a2,s2
   17954:	fa5ff0ef          	jal	ra,178f8 <frexpl>
   17958:	00092783          	lw	a5,0(s2)
   1795c:	00050493          	mv	s1,a0
   17960:	00058413          	mv	s0,a1
   17964:	f887879b          	addiw	a5,a5,-120
   17968:	00f92023          	sw	a5,0(s2)
   1796c:	01813083          	ld	ra,24(sp)
   17970:	00040593          	mv	a1,s0
   17974:	01013403          	ld	s0,16(sp)
   17978:	00013903          	ld	s2,0(sp)
   1797c:	00048513          	mv	a0,s1
   17980:	00813483          	ld	s1,8(sp)
   17984:	02010113          	addi	sp,sp,32
   17988:	00008067          	ret
   1798c:	00092023          	sw	zero,0(s2)
   17990:	fddff06f          	j	1796c <frexpl+0x74>
   17994:	0006069b          	sext.w	a3,a2
   17998:	fce60ae3          	beq	a2,a4,1796c <frexpl+0x74>
   1799c:	ffffc737          	lui	a4,0xffffc
   179a0:	0027071b          	addiw	a4,a4,2
   179a4:	00e6873b          	addw	a4,a3,a4
   179a8:	00e92023          	sw	a4,0(s2)
   179ac:	ffff8737          	lui	a4,0xffff8
   179b0:	00e7f7b3          	and	a5,a5,a4
   179b4:	00004737          	lui	a4,0x4
   179b8:	ffe70713          	addi	a4,a4,-2 # 3ffe <exit-0xc122>
   179bc:	00e7e7b3          	or	a5,a5,a4
   179c0:	01059413          	slli	s0,a1,0x10
   179c4:	03079793          	slli	a5,a5,0x30
   179c8:	01045413          	srli	s0,s0,0x10
   179cc:	00f46433          	or	s0,s0,a5
   179d0:	f9dff06f          	j	1796c <frexpl+0x74>

00000000000179d4 <wctomb>:
   179d4:	02050263          	beqz	a0,179f8 <wctomb+0x24>
   179d8:	ff010113          	addi	sp,sp,-16
   179dc:	00000613          	li	a2,0
   179e0:	00113423          	sd	ra,8(sp)
   179e4:	3a8000ef          	jal	ra,17d8c <wcrtomb>
   179e8:	00813083          	ld	ra,8(sp)
   179ec:	0005051b          	sext.w	a0,a0
   179f0:	01010113          	addi	sp,sp,16
   179f4:	00008067          	ret
   179f8:	00000513          	li	a0,0
   179fc:	00008067          	ret

0000000000017a00 <__restore>:
   17a00:	08b00893          	li	a7,139
   17a04:	00000073          	ecall

0000000000017a08 <close_file>:
   17a08:	08050063          	beqz	a0,17a88 <close_file+0x80>
   17a0c:	08c52783          	lw	a5,140(a0)
   17a10:	ff010113          	addi	sp,sp,-16
   17a14:	00813023          	sd	s0,0(sp)
   17a18:	00113423          	sd	ra,8(sp)
   17a1c:	0007879b          	sext.w	a5,a5
   17a20:	00050413          	mv	s0,a0
   17a24:	0007c463          	bltz	a5,17a2c <close_file+0x24>
   17a28:	addfb0ef          	jal	ra,13504 <__lockfile>
   17a2c:	02843703          	ld	a4,40(s0)
   17a30:	03843783          	ld	a5,56(s0)
   17a34:	00f70c63          	beq	a4,a5,17a4c <close_file+0x44>
   17a38:	04843783          	ld	a5,72(s0)
   17a3c:	00000613          	li	a2,0
   17a40:	00000593          	li	a1,0
   17a44:	00040513          	mv	a0,s0
   17a48:	000780e7          	jalr	a5
   17a4c:	00843583          	ld	a1,8(s0)
   17a50:	01043783          	ld	a5,16(s0)
   17a54:	02f58263          	beq	a1,a5,17a78 <close_file+0x70>
   17a58:	05043703          	ld	a4,80(s0)
   17a5c:	00040513          	mv	a0,s0
   17a60:	00013403          	ld	s0,0(sp)
   17a64:	00813083          	ld	ra,8(sp)
   17a68:	00100613          	li	a2,1
   17a6c:	40f585b3          	sub	a1,a1,a5
   17a70:	01010113          	addi	sp,sp,16
   17a74:	00070067          	jr	a4
   17a78:	00813083          	ld	ra,8(sp)
   17a7c:	00013403          	ld	s0,0(sp)
   17a80:	01010113          	addi	sp,sp,16
   17a84:	00008067          	ret
   17a88:	00008067          	ret

0000000000017a8c <__stdio_exit>:
   17a8c:	ff010113          	addi	sp,sp,-16
   17a90:	00813023          	sd	s0,0(sp)
   17a94:	00113423          	sd	ra,8(sp)
   17a98:	040000ef          	jal	ra,17ad8 <__ofl_lock>
   17a9c:	00053403          	ld	s0,0(a0)
   17aa0:	02041463          	bnez	s0,17ac8 <__stdio_exit+0x3c>
   17aa4:	a781b503          	ld	a0,-1416(gp) # 1d278 <__stdin_used>
   17aa8:	f61ff0ef          	jal	ra,17a08 <close_file>
   17aac:	a781b503          	ld	a0,-1416(gp) # 1d278 <__stdin_used>
   17ab0:	f59ff0ef          	jal	ra,17a08 <close_file>
   17ab4:	00013403          	ld	s0,0(sp)
   17ab8:	00813083          	ld	ra,8(sp)
   17abc:	9901b503          	ld	a0,-1648(gp) # 1d190 <__stderr_used>
   17ac0:	01010113          	addi	sp,sp,16
   17ac4:	f45ff06f          	j	17a08 <close_file>
   17ac8:	00040513          	mv	a0,s0
   17acc:	f3dff0ef          	jal	ra,17a08 <close_file>
   17ad0:	07043403          	ld	s0,112(s0)
   17ad4:	fcdff06f          	j	17aa0 <__stdio_exit+0x14>

0000000000017ad8 <__ofl_lock>:
   17ad8:	ff010113          	addi	sp,sp,-16
   17adc:	a8818513          	addi	a0,gp,-1400 # 1d288 <ofl_lock>
   17ae0:	00113423          	sd	ra,8(sp)
   17ae4:	835fc0ef          	jal	ra,14318 <__lock>
   17ae8:	00813083          	ld	ra,8(sp)
   17aec:	a8018513          	addi	a0,gp,-1408 # 1d280 <ofl_head>
   17af0:	01010113          	addi	sp,sp,16
   17af4:	00008067          	ret

0000000000017af8 <__ofl_unlock>:
   17af8:	a8818513          	addi	a0,gp,-1400 # 1d288 <ofl_lock>
   17afc:	915fc06f          	j	14410 <__unlock>

0000000000017b00 <memchr>:
   17b00:	0ff5f593          	andi	a1,a1,255
   17b04:	00757793          	andi	a5,a0,7
   17b08:	02078863          	beqz	a5,17b38 <memchr+0x38>
   17b0c:	08060063          	beqz	a2,17b8c <memchr+0x8c>
   17b10:	00054783          	lbu	a5,0(a0)
   17b14:	00b79c63          	bne	a5,a1,17b2c <memchr+0x2c>
   17b18:	00c50633          	add	a2,a0,a2
   17b1c:	06c50863          	beq	a0,a2,17b8c <memchr+0x8c>
   17b20:	00054783          	lbu	a5,0(a0)
   17b24:	06b79063          	bne	a5,a1,17b84 <memchr+0x84>
   17b28:	00008067          	ret
   17b2c:	00150513          	addi	a0,a0,1
   17b30:	fff60613          	addi	a2,a2,-1
   17b34:	fd1ff06f          	j	17b04 <memchr+0x4>
   17b38:	04060a63          	beqz	a2,17b8c <memchr+0x8c>
   17b3c:	00054783          	lbu	a5,0(a0)
   17b40:	fcb78ce3          	beq	a5,a1,17b18 <memchr+0x18>
   17b44:	9301b683          	ld	a3,-1744(gp) # 1d130 <__SDATA_BEGIN__+0x28>
   17b48:	9381b883          	ld	a7,-1736(gp) # 1d138 <__SDATA_BEGIN__+0x30>
   17b4c:	02d586b3          	mul	a3,a1,a3
   17b50:	9401b803          	ld	a6,-1728(gp) # 1d140 <__SDATA_BEGIN__+0x38>
   17b54:	00700313          	li	t1,7
   17b58:	fcc370e3          	bgeu	t1,a2,17b18 <memchr+0x18>
   17b5c:	00053783          	ld	a5,0(a0)
   17b60:	00f6c7b3          	xor	a5,a3,a5
   17b64:	01178733          	add	a4,a5,a7
   17b68:	fff7c793          	not	a5,a5
   17b6c:	00f777b3          	and	a5,a4,a5
   17b70:	0107f7b3          	and	a5,a5,a6
   17b74:	fa0792e3          	bnez	a5,17b18 <memchr+0x18>
   17b78:	00850513          	addi	a0,a0,8
   17b7c:	ff860613          	addi	a2,a2,-8
   17b80:	fd9ff06f          	j	17b58 <memchr+0x58>
   17b84:	00150513          	addi	a0,a0,1
   17b88:	f95ff06f          	j	17b1c <memchr+0x1c>
   17b8c:	00000513          	li	a0,0
   17b90:	00008067          	ret

0000000000017b94 <strncmp>:
   17b94:	02060c63          	beqz	a2,17bcc <strncmp+0x38>
   17b98:	fff60613          	addi	a2,a2,-1
   17b9c:	00000713          	li	a4,0
   17ba0:	00e507b3          	add	a5,a0,a4
   17ba4:	0007c783          	lbu	a5,0(a5)
   17ba8:	00e586b3          	add	a3,a1,a4
   17bac:	0006c683          	lbu	a3,0(a3)
   17bb0:	00078a63          	beqz	a5,17bc4 <strncmp+0x30>
   17bb4:	00068863          	beqz	a3,17bc4 <strncmp+0x30>
   17bb8:	00e60663          	beq	a2,a4,17bc4 <strncmp+0x30>
   17bbc:	00170713          	addi	a4,a4,1
   17bc0:	fed780e3          	beq	a5,a3,17ba0 <strncmp+0xc>
   17bc4:	40d7853b          	subw	a0,a5,a3
   17bc8:	00008067          	ret
   17bcc:	00000513          	li	a0,0
   17bd0:	00008067          	ret

0000000000017bd4 <a_fetch_add.isra.0>:
   17bd4:	00052783          	lw	a5,0(a0)
   17bd8:	0007869b          	sext.w	a3,a5
   17bdc:	00b787bb          	addw	a5,a5,a1
   17be0:	1605272f          	lr.w.aqrl	a4,(a0)
   17be4:	00d71663          	bne	a4,a3,17bf0 <a_fetch_add.isra.0+0x1c>
   17be8:	1ef5262f          	sc.w.aqrl	a2,a5,(a0)
   17bec:	fe061ae3          	bnez	a2,17be0 <a_fetch_add.isra.0+0xc>
   17bf0:	0007079b          	sext.w	a5,a4
   17bf4:	fef690e3          	bne	a3,a5,17bd4 <a_fetch_add.isra.0>
   17bf8:	00008067          	ret

0000000000017bfc <cleanup>:
   17bfc:	fff00593          	li	a1,-1
   17c00:	fd5ff06f          	j	17bd4 <a_fetch_add.isra.0>

0000000000017c04 <sem_timedwait>:
   17c04:	fa010113          	addi	sp,sp,-96
   17c08:	04113c23          	sd	ra,88(sp)
   17c0c:	04813823          	sd	s0,80(sp)
   17c10:	05213023          	sd	s2,64(sp)
   17c14:	00050413          	mv	s0,a0
   17c18:	00058913          	mv	s2,a1
   17c1c:	04913423          	sd	s1,72(sp)
   17c20:	03313c23          	sd	s3,56(sp)
   17c24:	03413823          	sd	s4,48(sp)
   17c28:	03513423          	sd	s5,40(sp)
   17c2c:	03613023          	sd	s6,32(sp)
   17c30:	4ac000ef          	jal	ra,180dc <__pthread_testcancel>
   17c34:	00040513          	mv	a0,s0
   17c38:	0e4000ef          	jal	ra,17d1c <sem_trywait>
   17c3c:	06500713          	li	a4,101
   17c40:	02051a63          	bnez	a0,17c74 <sem_timedwait+0x70>
   17c44:	00000513          	li	a0,0
   17c48:	05813083          	ld	ra,88(sp)
   17c4c:	05013403          	ld	s0,80(sp)
   17c50:	04813483          	ld	s1,72(sp)
   17c54:	04013903          	ld	s2,64(sp)
   17c58:	03813983          	ld	s3,56(sp)
   17c5c:	03013a03          	ld	s4,48(sp)
   17c60:	02813a83          	ld	s5,40(sp)
   17c64:	02013b03          	ld	s6,32(sp)
   17c68:	06010113          	addi	sp,sp,96
   17c6c:	00008067          	ret
   17c70:	0330000f          	fence	rw,rw
   17c74:	fff7071b          	addiw	a4,a4,-1
   17c78:	00070e63          	beqz	a4,17c94 <sem_timedwait+0x90>
   17c7c:	00042783          	lw	a5,0(s0)
   17c80:	0007879b          	sext.w	a5,a5
   17c84:	00f04863          	bgtz	a5,17c94 <sem_timedwait+0x90>
   17c88:	00442783          	lw	a5,4(s0)
   17c8c:	0007879b          	sext.w	a5,a5
   17c90:	fe0780e3          	beqz	a5,17c70 <sem_timedwait+0x6c>
   17c94:	00440993          	addi	s3,s0,4
   17c98:	00000a13          	li	s4,0
   17c9c:	fff00a93          	li	s5,-1
   17ca0:	00018b37          	lui	s6,0x18
   17ca4:	00040513          	mv	a0,s0
   17ca8:	074000ef          	jal	ra,17d1c <sem_trywait>
   17cac:	f8050ce3          	beqz	a0,17c44 <sem_timedwait+0x40>
   17cb0:	00100593          	li	a1,1
   17cb4:	00098513          	mv	a0,s3
   17cb8:	f1dff0ef          	jal	ra,17bd4 <a_fetch_add.isra.0>
   17cbc:	160427af          	lr.w.aqrl	a5,(s0)
   17cc0:	01479663          	bne	a5,s4,17ccc <sem_timedwait+0xc8>
   17cc4:	1f54272f          	sc.w.aqrl	a4,s5,(s0)
   17cc8:	fe071ae3          	bnez	a4,17cbc <sem_timedwait+0xb8>
   17ccc:	00098613          	mv	a2,s3
   17cd0:	bfcb0593          	addi	a1,s6,-1028 # 17bfc <cleanup>
   17cd4:	00810513          	addi	a0,sp,8
   17cd8:	3a4000ef          	jal	ra,1807c <_pthread_cleanup_push>
   17cdc:	00842703          	lw	a4,8(s0)
   17ce0:	fff00593          	li	a1,-1
   17ce4:	00090693          	mv	a3,s2
   17ce8:	0007071b          	sext.w	a4,a4
   17cec:	00000613          	li	a2,0
   17cf0:	00040513          	mv	a0,s0
   17cf4:	1c8000ef          	jal	ra,17ebc <__timedwait_cp>
   17cf8:	00050493          	mv	s1,a0
   17cfc:	00100593          	li	a1,1
   17d00:	00810513          	addi	a0,sp,8
   17d04:	384000ef          	jal	ra,18088 <_pthread_cleanup_pop>
   17d08:	f8048ee3          	beqz	s1,17ca4 <sem_timedwait+0xa0>
   17d0c:	91df90ef          	jal	ra,11628 <__errno_location>
   17d10:	00952023          	sw	s1,0(a0)
   17d14:	fff00513          	li	a0,-1
   17d18:	f31ff06f          	j	17c48 <sem_timedwait+0x44>

0000000000017d1c <sem_trywait>:
   17d1c:	00100613          	li	a2,1
   17d20:	00052783          	lw	a5,0(a0)
   17d24:	0007879b          	sext.w	a5,a5
   17d28:	02f04463          	bgtz	a5,17d50 <sem_trywait+0x34>
   17d2c:	ff010113          	addi	sp,sp,-16
   17d30:	00113423          	sd	ra,8(sp)
   17d34:	8f5f90ef          	jal	ra,11628 <__errno_location>
   17d38:	00813083          	ld	ra,8(sp)
   17d3c:	00b00793          	li	a5,11
   17d40:	00f52023          	sw	a5,0(a0)
   17d44:	fff00513          	li	a0,-1
   17d48:	01010113          	addi	sp,sp,16
   17d4c:	00008067          	ret
   17d50:	fff7869b          	addiw	a3,a5,-1
   17d54:	00000713          	li	a4,0
   17d58:	00c79863          	bne	a5,a2,17d68 <sem_trywait+0x4c>
   17d5c:	00452703          	lw	a4,4(a0)
   17d60:	0007071b          	sext.w	a4,a4
   17d64:	00e03733          	snez	a4,a4
   17d68:	40e6873b          	subw	a4,a3,a4
   17d6c:	160526af          	lr.w.aqrl	a3,(a0)
   17d70:	00f69663          	bne	a3,a5,17d7c <sem_trywait+0x60>
   17d74:	1ee525af          	sc.w.aqrl	a1,a4,(a0)
   17d78:	fe059ae3          	bnez	a1,17d6c <sem_trywait+0x50>
   17d7c:	0006871b          	sext.w	a4,a3
   17d80:	fae790e3          	bne	a5,a4,17d20 <sem_trywait+0x4>
   17d84:	00000513          	li	a0,0
   17d88:	00008067          	ret

0000000000017d8c <wcrtomb>:
   17d8c:	00050a63          	beqz	a0,17da0 <wcrtomb+0x14>
   17d90:	07f00693          	li	a3,127
   17d94:	0005879b          	sext.w	a5,a1
   17d98:	02b6e263          	bltu	a3,a1,17dbc <wcrtomb+0x30>
   17d9c:	00b50023          	sb	a1,0(a0)
   17da0:	00100513          	li	a0,1
   17da4:	00008067          	ret
   17da8:	00b50023          	sb	a1,0(a0)
   17dac:	00100513          	li	a0,1
   17db0:	00813083          	ld	ra,8(sp)
   17db4:	01010113          	addi	sp,sp,16
   17db8:	00008067          	ret
   17dbc:	ff010113          	addi	sp,sp,-16
   17dc0:	00113423          	sd	ra,8(sp)
   17dc4:	00020713          	mv	a4,tp
   17dc8:	fd073703          	ld	a4,-48(a4)
   17dcc:	00073703          	ld	a4,0(a4)
   17dd0:	02071463          	bnez	a4,17df8 <wcrtomb+0x6c>
   17dd4:	ffff2737          	lui	a4,0xffff2
   17dd8:	0807071b          	addiw	a4,a4,128
   17ddc:	00f707bb          	addw	a5,a4,a5
   17de0:	fcf6f4e3          	bgeu	a3,a5,17da8 <wcrtomb+0x1c>
   17de4:	845f90ef          	jal	ra,11628 <__errno_location>
   17de8:	05400793          	li	a5,84
   17dec:	00f52023          	sw	a5,0(a0)
   17df0:	fff00513          	li	a0,-1
   17df4:	fbdff06f          	j	17db0 <wcrtomb+0x24>
   17df8:	7ff00713          	li	a4,2047
   17dfc:	02f76263          	bltu	a4,a5,17e20 <wcrtomb+0x94>
   17e00:	4065d79b          	sraiw	a5,a1,0x6
   17e04:	03f5f593          	andi	a1,a1,63
   17e08:	fc07e793          	ori	a5,a5,-64
   17e0c:	f805e593          	ori	a1,a1,-128
   17e10:	00f50023          	sb	a5,0(a0)
   17e14:	00b500a3          	sb	a1,1(a0)
   17e18:	00200513          	li	a0,2
   17e1c:	f95ff06f          	j	17db0 <wcrtomb+0x24>
   17e20:	0000d737          	lui	a4,0xd
   17e24:	7ff70713          	addi	a4,a4,2047 # d7ff <exit-0x2921>
   17e28:	00f77a63          	bgeu	a4,a5,17e3c <wcrtomb+0xb0>
   17e2c:	ffff2737          	lui	a4,0xffff2
   17e30:	00f7073b          	addw	a4,a4,a5
   17e34:	000026b7          	lui	a3,0x2
   17e38:	02d77a63          	bgeu	a4,a3,17e6c <wcrtomb+0xe0>
   17e3c:	40c5d79b          	sraiw	a5,a1,0xc
   17e40:	fe07e793          	ori	a5,a5,-32
   17e44:	00f50023          	sb	a5,0(a0)
   17e48:	4065d79b          	sraiw	a5,a1,0x6
   17e4c:	03f7f793          	andi	a5,a5,63
   17e50:	03f5f593          	andi	a1,a1,63
   17e54:	f807e793          	ori	a5,a5,-128
   17e58:	f805e593          	ori	a1,a1,-128
   17e5c:	00f500a3          	sb	a5,1(a0)
   17e60:	00b50123          	sb	a1,2(a0)
   17e64:	00300513          	li	a0,3
   17e68:	f49ff06f          	j	17db0 <wcrtomb+0x24>
   17e6c:	ffff0737          	lui	a4,0xffff0
   17e70:	00f707bb          	addw	a5,a4,a5
   17e74:	00100737          	lui	a4,0x100
   17e78:	f6e7f6e3          	bgeu	a5,a4,17de4 <wcrtomb+0x58>
   17e7c:	4125d79b          	sraiw	a5,a1,0x12
   17e80:	ff07e793          	ori	a5,a5,-16
   17e84:	00f50023          	sb	a5,0(a0)
   17e88:	40c5d79b          	sraiw	a5,a1,0xc
   17e8c:	03f7f793          	andi	a5,a5,63
   17e90:	f807e793          	ori	a5,a5,-128
   17e94:	00f500a3          	sb	a5,1(a0)
   17e98:	4065d79b          	sraiw	a5,a1,0x6
   17e9c:	03f7f793          	andi	a5,a5,63
   17ea0:	03f5f593          	andi	a1,a1,63
   17ea4:	f807e793          	ori	a5,a5,-128
   17ea8:	f805e593          	ori	a1,a1,-128
   17eac:	00f50123          	sb	a5,2(a0)
   17eb0:	00b501a3          	sb	a1,3(a0)
   17eb4:	00400513          	li	a0,4
   17eb8:	ef9ff06f          	j	17db0 <wcrtomb+0x24>

0000000000017ebc <__timedwait_cp>:
   17ebc:	fc010113          	addi	sp,sp,-64
   17ec0:	02813823          	sd	s0,48(sp)
   17ec4:	02913423          	sd	s1,40(sp)
   17ec8:	03213023          	sd	s2,32(sp)
   17ecc:	01313c23          	sd	s3,24(sp)
   17ed0:	02113c23          	sd	ra,56(sp)
   17ed4:	01413823          	sd	s4,16(sp)
   17ed8:	00050493          	mv	s1,a0
   17edc:	00058913          	mv	s2,a1
   17ee0:	00060513          	mv	a0,a2
   17ee4:	00068413          	mv	s0,a3
   17ee8:	08000993          	li	s3,128
   17eec:	00071463          	bnez	a4,17ef4 <__timedwait_cp+0x38>
   17ef0:	00070993          	mv	s3,a4
   17ef4:	08040663          	beqz	s0,17f80 <__timedwait_cp+0xc4>
   17ef8:	00843703          	ld	a4,8(s0)
   17efc:	3b9ada37          	lui	s4,0x3b9ad
   17f00:	9ffa0793          	addi	a5,s4,-1537 # 3b9ac9ff <__BSS_END__+0x3b98ed4f>
   17f04:	02e7f463          	bgeu	a5,a4,17f2c <__timedwait_cp+0x70>
   17f08:	01600513          	li	a0,22
   17f0c:	03813083          	ld	ra,56(sp)
   17f10:	03013403          	ld	s0,48(sp)
   17f14:	02813483          	ld	s1,40(sp)
   17f18:	02013903          	ld	s2,32(sp)
   17f1c:	01813983          	ld	s3,24(sp)
   17f20:	01013a03          	ld	s4,16(sp)
   17f24:	04010113          	addi	sp,sp,64
   17f28:	00008067          	ret
   17f2c:	00010593          	mv	a1,sp
   17f30:	1b0000ef          	jal	ra,180e0 <__clock_gettime>
   17f34:	fc051ae3          	bnez	a0,17f08 <__timedwait_cp+0x4c>
   17f38:	00013783          	ld	a5,0(sp)
   17f3c:	00043803          	ld	a6,0(s0)
   17f40:	00813703          	ld	a4,8(sp)
   17f44:	40f80833          	sub	a6,a6,a5
   17f48:	00843783          	ld	a5,8(s0)
   17f4c:	01013023          	sd	a6,0(sp)
   17f50:	40e787b3          	sub	a5,a5,a4
   17f54:	00f13423          	sd	a5,8(sp)
   17f58:	0007dc63          	bgez	a5,17f70 <__timedwait_cp+0xb4>
   17f5c:	a00a0a13          	addi	s4,s4,-1536
   17f60:	fff80813          	addi	a6,a6,-1 # ffffffff7fffffff <__BSS_END__+0xffffffff7ffe234f>
   17f64:	014787b3          	add	a5,a5,s4
   17f68:	01013023          	sd	a6,0(sp)
   17f6c:	00f13423          	sd	a5,8(sp)
   17f70:	00013783          	ld	a5,0(sp)
   17f74:	06e00513          	li	a0,110
   17f78:	f807cae3          	bltz	a5,17f0c <__timedwait_cp+0x50>
   17f7c:	00010413          	mv	s0,sp
   17f80:	00000793          	li	a5,0
   17f84:	00040713          	mv	a4,s0
   17f88:	00000813          	li	a6,0
   17f8c:	00090693          	mv	a3,s2
   17f90:	00098613          	mv	a2,s3
   17f94:	00048593          	mv	a1,s1
   17f98:	06200513          	li	a0,98
   17f9c:	d0cfc0ef          	jal	ra,144a8 <__syscall_cp>
   17fa0:	0005079b          	sext.w	a5,a0
   17fa4:	fda00713          	li	a4,-38
   17fa8:	02e79463          	bne	a5,a4,17fd0 <__timedwait_cp+0x114>
   17fac:	00000793          	li	a5,0
   17fb0:	00000813          	li	a6,0
   17fb4:	00040713          	mv	a4,s0
   17fb8:	00090693          	mv	a3,s2
   17fbc:	00000613          	li	a2,0
   17fc0:	00048593          	mv	a1,s1
   17fc4:	06200513          	li	a0,98
   17fc8:	ce0fc0ef          	jal	ra,144a8 <__syscall_cp>
   17fcc:	0005079b          	sext.w	a5,a0
   17fd0:	ffc00713          	li	a4,-4
   17fd4:	02e78063          	beq	a5,a4,17ff4 <__timedwait_cp+0x138>
   17fd8:	f9200713          	li	a4,-110
   17fdc:	00e78863          	beq	a5,a4,17fec <__timedwait_cp+0x130>
   17fe0:	f8300713          	li	a4,-125
   17fe4:	00000513          	li	a0,0
   17fe8:	f2e792e3          	bne	a5,a4,17f0c <__timedwait_cp+0x50>
   17fec:	40f0053b          	negw	a0,a5
   17ff0:	f1dff06f          	j	17f0c <__timedwait_cp+0x50>
   17ff4:	a5c1a503          	lw	a0,-1444(gp) # 1d25c <__eintr_valid_flag>
   17ff8:	0005051b          	sext.w	a0,a0
   17ffc:	f00508e3          	beqz	a0,17f0c <__timedwait_cp+0x50>
   18000:	00400513          	li	a0,4
   18004:	f09ff06f          	j	17f0c <__timedwait_cp+0x50>

0000000000018008 <__timedwait>:
   18008:	fb010113          	addi	sp,sp,-80
   1800c:	04813023          	sd	s0,64(sp)
   18010:	02913c23          	sd	s1,56(sp)
   18014:	00050413          	mv	s0,a0
   18018:	00058493          	mv	s1,a1
   1801c:	00100513          	li	a0,1
   18020:	02c10593          	addi	a1,sp,44
   18024:	04113423          	sd	ra,72(sp)
   18028:	00c13c23          	sd	a2,24(sp)
   1802c:	00d13823          	sd	a3,16(sp)
   18030:	00e13423          	sd	a4,8(sp)
   18034:	b58ff0ef          	jal	ra,1738c <__pthread_setcancelstate>
   18038:	00813703          	ld	a4,8(sp)
   1803c:	01013683          	ld	a3,16(sp)
   18040:	01813603          	ld	a2,24(sp)
   18044:	00048593          	mv	a1,s1
   18048:	00040513          	mv	a0,s0
   1804c:	e71ff0ef          	jal	ra,17ebc <__timedwait_cp>
   18050:	00050413          	mv	s0,a0
   18054:	02c12503          	lw	a0,44(sp)
   18058:	00000593          	li	a1,0
   1805c:	b30ff0ef          	jal	ra,1738c <__pthread_setcancelstate>
   18060:	04813083          	ld	ra,72(sp)
   18064:	00040513          	mv	a0,s0
   18068:	04013403          	ld	s0,64(sp)
   1806c:	03813483          	ld	s1,56(sp)
   18070:	05010113          	addi	sp,sp,80
   18074:	00008067          	ret

0000000000018078 <__do_cleanup_pop>:
   18078:	00008067          	ret

000000000001807c <_pthread_cleanup_push>:
   1807c:	00b53023          	sd	a1,0(a0)
   18080:	00c53423          	sd	a2,8(a0)
   18084:	ff5ff06f          	j	18078 <__do_cleanup_pop>

0000000000018088 <_pthread_cleanup_pop>:
   18088:	fe010113          	addi	sp,sp,-32
   1808c:	00913423          	sd	s1,8(sp)
   18090:	00058493          	mv	s1,a1
   18094:	00813823          	sd	s0,16(sp)
   18098:	00113c23          	sd	ra,24(sp)
   1809c:	00050413          	mv	s0,a0
   180a0:	fd9ff0ef          	jal	ra,18078 <__do_cleanup_pop>
   180a4:	02048063          	beqz	s1,180c4 <_pthread_cleanup_pop+0x3c>
   180a8:	00043783          	ld	a5,0(s0)
   180ac:	00843503          	ld	a0,8(s0)
   180b0:	01013403          	ld	s0,16(sp)
   180b4:	01813083          	ld	ra,24(sp)
   180b8:	00813483          	ld	s1,8(sp)
   180bc:	02010113          	addi	sp,sp,32
   180c0:	00078067          	jr	a5
   180c4:	01813083          	ld	ra,24(sp)
   180c8:	01013403          	ld	s0,16(sp)
   180cc:	00813483          	ld	s1,8(sp)
   180d0:	02010113          	addi	sp,sp,32
   180d4:	00008067          	ret

00000000000180d8 <__testcancel>:
   180d8:	00008067          	ret

00000000000180dc <__pthread_testcancel>:
   180dc:	ffdff06f          	j	180d8 <__testcancel>

00000000000180e0 <__clock_gettime>:
   180e0:	00050793          	mv	a5,a0
   180e4:	07100893          	li	a7,113
   180e8:	00000073          	ecall
   180ec:	fda00693          	li	a3,-38
   180f0:	0005051b          	sext.w	a0,a0
   180f4:	02d51c63          	bne	a0,a3,1812c <__clock_gettime+0x4c>
   180f8:	fea00513          	li	a0,-22
   180fc:	02079863          	bnez	a5,1812c <__clock_gettime+0x4c>
   18100:	00058713          	mv	a4,a1
   18104:	00058513          	mv	a0,a1
   18108:	0a900893          	li	a7,169
   1810c:	00000593          	li	a1,0
   18110:	00000073          	ecall
   18114:	00873603          	ld	a2,8(a4) # 100008 <__BSS_END__+0xe2358>
   18118:	3e800693          	li	a3,1000
   1811c:	00078513          	mv	a0,a5
   18120:	02c686bb          	mulw	a3,a3,a2
   18124:	00d73423          	sd	a3,8(a4)
   18128:	00008067          	ret
   1812c:	ff010113          	addi	sp,sp,-16
   18130:	00113423          	sd	ra,8(sp)
   18134:	e60f90ef          	jal	ra,11794 <__syscall_ret>
   18138:	00813083          	ld	ra,8(sp)
   1813c:	0005079b          	sext.w	a5,a0
   18140:	00078513          	mv	a0,a5
   18144:	01010113          	addi	sp,sp,16
   18148:	00008067          	ret

000000000001814c <__addtf3>:
   1814c:	fd010113          	addi	sp,sp,-48
   18150:	02113423          	sd	ra,40(sp)
   18154:	02813023          	sd	s0,32(sp)
   18158:	00913c23          	sd	s1,24(sp)
   1815c:	01213823          	sd	s2,16(sp)
   18160:	01313423          	sd	s3,8(sp)
   18164:	01413023          	sd	s4,0(sp)
   18168:	002024f3          	frrm	s1
   1816c:	fff00e93          	li	t4,-1
   18170:	010ed713          	srli	a4,t4,0x10
   18174:	0305d413          	srli	s0,a1,0x30
   18178:	03f5d913          	srli	s2,a1,0x3f
   1817c:	00e5f5b3          	and	a1,a1,a4
   18180:	00359593          	slli	a1,a1,0x3
   18184:	03d55793          	srli	a5,a0,0x3d
   18188:	00008337          	lui	t1,0x8
   1818c:	fff30e13          	addi	t3,t1,-1 # 7fff <exit-0x8121>
   18190:	00b7e7b3          	or	a5,a5,a1
   18194:	03f6d893          	srli	a7,a3,0x3f
   18198:	0306d593          	srli	a1,a3,0x30
   1819c:	00e6f6b3          	and	a3,a3,a4
   181a0:	00369693          	slli	a3,a3,0x3
   181a4:	03d65713          	srli	a4,a2,0x3d
   181a8:	01c47433          	and	s0,s0,t3
   181ac:	01c5f5b3          	and	a1,a1,t3
   181b0:	00d76733          	or	a4,a4,a3
   181b4:	40b406bb          	subw	a3,s0,a1
   181b8:	0004849b          	sext.w	s1,s1
   181bc:	00351513          	slli	a0,a0,0x3
   181c0:	00361613          	slli	a2,a2,0x3
   181c4:	0006881b          	sext.w	a6,a3
   181c8:	4d191a63          	bne	s2,a7,1869c <__addtf3+0x550>
   181cc:	13005e63          	blez	a6,18308 <__addtf3+0x1bc>
   181d0:	0a059863          	bnez	a1,18280 <__addtf3+0x134>
   181d4:	00c765b3          	or	a1,a4,a2
   181d8:	02059263          	bnez	a1,181fc <__addtf3+0xb0>
   181dc:	4dc41a63          	bne	s0,t3,186b0 <__addtf3+0x564>
   181e0:	00a7e733          	or	a4,a5,a0
   181e4:	18070ee3          	beqz	a4,18b80 <__addtf3+0xa34>
   181e8:	0327d713          	srli	a4,a5,0x32
   181ec:	00040593          	mv	a1,s0
   181f0:	00000813          	li	a6,0
   181f4:	3e071a63          	bnez	a4,185e8 <__addtf3+0x49c>
   181f8:	1440006f          	j	1833c <__addtf3+0x1f0>
   181fc:	fff6881b          	addiw	a6,a3,-1
   18200:	06081463          	bnez	a6,18268 <__addtf3+0x11c>
   18204:	00a60633          	add	a2,a2,a0
   18208:	00a63533          	sltu	a0,a2,a0
   1820c:	00f70733          	add	a4,a4,a5
   18210:	00a70733          	add	a4,a4,a0
   18214:	00040593          	mv	a1,s0
   18218:	00060513          	mv	a0,a2
   1821c:	03375793          	srli	a5,a4,0x33
   18220:	0017f793          	andi	a5,a5,1
   18224:	0c078ee3          	beqz	a5,18b00 <__addtf3+0x9b4>
   18228:	000086b7          	lui	a3,0x8
   1822c:	00158593          	addi	a1,a1,1
   18230:	fff68793          	addi	a5,a3,-1 # 7fff <exit-0x8121>
   18234:	42f58463          	beq	a1,a5,1865c <__addtf3+0x510>
   18238:	fff00793          	li	a5,-1
   1823c:	03379793          	slli	a5,a5,0x33
   18240:	fff78793          	addi	a5,a5,-1
   18244:	00f777b3          	and	a5,a4,a5
   18248:	00155713          	srli	a4,a0,0x1
   1824c:	00157513          	andi	a0,a0,1
   18250:	00a76533          	or	a0,a4,a0
   18254:	03f79713          	slli	a4,a5,0x3f
   18258:	00a76533          	or	a0,a4,a0
   1825c:	0017d793          	srli	a5,a5,0x1
   18260:	00000813          	li	a6,0
   18264:	3840006f          	j	185e8 <__addtf3+0x49c>
   18268:	03c41463          	bne	s0,t3,18290 <__addtf3+0x144>
   1826c:	00a7e733          	or	a4,a5,a0
   18270:	100708e3          	beqz	a4,18b80 <__addtf3+0xa34>
   18274:	0327d713          	srli	a4,a5,0x32
   18278:	00177713          	andi	a4,a4,1
   1827c:	f71ff06f          	j	181ec <__addtf3+0xa0>
   18280:	ffc406e3          	beq	s0,t3,1826c <__addtf3+0x120>
   18284:	00100693          	li	a3,1
   18288:	03369693          	slli	a3,a3,0x33
   1828c:	00d76733          	or	a4,a4,a3
   18290:	07400693          	li	a3,116
   18294:	0706c463          	blt	a3,a6,182fc <__addtf3+0x1b0>
   18298:	03f00693          	li	a3,63
   1829c:	0306c663          	blt	a3,a6,182c8 <__addtf3+0x17c>
   182a0:	04000593          	li	a1,64
   182a4:	410585bb          	subw	a1,a1,a6
   182a8:	00b716b3          	sll	a3,a4,a1
   182ac:	010658b3          	srl	a7,a2,a6
   182b0:	00b61633          	sll	a2,a2,a1
   182b4:	0116e6b3          	or	a3,a3,a7
   182b8:	00c03633          	snez	a2,a2
   182bc:	00c6e633          	or	a2,a3,a2
   182c0:	01075733          	srl	a4,a4,a6
   182c4:	f41ff06f          	j	18204 <__addtf3+0xb8>
   182c8:	fc08069b          	addiw	a3,a6,-64
   182cc:	04000893          	li	a7,64
   182d0:	00d756b3          	srl	a3,a4,a3
   182d4:	00000593          	li	a1,0
   182d8:	01180863          	beq	a6,a7,182e8 <__addtf3+0x19c>
   182dc:	08000593          	li	a1,128
   182e0:	410585bb          	subw	a1,a1,a6
   182e4:	00b715b3          	sll	a1,a4,a1
   182e8:	00c5e633          	or	a2,a1,a2
   182ec:	00c03633          	snez	a2,a2
   182f0:	00c6e633          	or	a2,a3,a2
   182f4:	00000713          	li	a4,0
   182f8:	f0dff06f          	j	18204 <__addtf3+0xb8>
   182fc:	00c76633          	or	a2,a4,a2
   18300:	00c03633          	snez	a2,a2
   18304:	ff1ff06f          	j	182f4 <__addtf3+0x1a8>
   18308:	12080063          	beqz	a6,18428 <__addtf3+0x2dc>
   1830c:	08041063          	bnez	s0,1838c <__addtf3+0x240>
   18310:	00a7e833          	or	a6,a5,a0
   18314:	02081863          	bnez	a6,18344 <__addtf3+0x1f8>
   18318:	00060513          	mv	a0,a2
   1831c:	7fc59263          	bne	a1,t3,18b00 <__addtf3+0x9b4>
   18320:	00c76533          	or	a0,a4,a2
   18324:	040502e3          	beqz	a0,18b68 <__addtf3+0xa1c>
   18328:	03275793          	srli	a5,a4,0x32
   1832c:	0017f793          	andi	a5,a5,1
   18330:	040792e3          	bnez	a5,18b74 <__addtf3+0xa28>
   18334:	00070793          	mv	a5,a4
   18338:	00060513          	mv	a0,a2
   1833c:	01000693          	li	a3,16
   18340:	1400006f          	j	18480 <__addtf3+0x334>
   18344:	fff6c693          	not	a3,a3
   18348:	0006869b          	sext.w	a3,a3
   1834c:	00069c63          	bnez	a3,18364 <__addtf3+0x218>
   18350:	00c50533          	add	a0,a0,a2
   18354:	00e78733          	add	a4,a5,a4
   18358:	00c53633          	sltu	a2,a0,a2
   1835c:	00c70733          	add	a4,a4,a2
   18360:	ebdff06f          	j	1821c <__addtf3+0xd0>
   18364:	03c59e63          	bne	a1,t3,183a0 <__addtf3+0x254>
   18368:	00c76533          	or	a0,a4,a2
   1836c:	7e050e63          	beqz	a0,18b68 <__addtf3+0xa1c>
   18370:	03275793          	srli	a5,a4,0x32
   18374:	0017f793          	andi	a5,a5,1
   18378:	7e079e63          	bnez	a5,18b74 <__addtf3+0xa28>
   1837c:	00070793          	mv	a5,a4
   18380:	00060513          	mv	a0,a2
   18384:	00000813          	li	a6,0
   18388:	fb5ff06f          	j	1833c <__addtf3+0x1f0>
   1838c:	fdc58ee3          	beq	a1,t3,18368 <__addtf3+0x21c>
   18390:	00100813          	li	a6,1
   18394:	03381813          	slli	a6,a6,0x33
   18398:	40d006bb          	negw	a3,a3
   1839c:	0107e7b3          	or	a5,a5,a6
   183a0:	07400813          	li	a6,116
   183a4:	06d84c63          	blt	a6,a3,1841c <__addtf3+0x2d0>
   183a8:	03f00813          	li	a6,63
   183ac:	02d84e63          	blt	a6,a3,183e8 <__addtf3+0x29c>
   183b0:	04000893          	li	a7,64
   183b4:	40d888bb          	subw	a7,a7,a3
   183b8:	00d55333          	srl	t1,a0,a3
   183bc:	01179833          	sll	a6,a5,a7
   183c0:	01151533          	sll	a0,a0,a7
   183c4:	00686833          	or	a6,a6,t1
   183c8:	00a03533          	snez	a0,a0
   183cc:	00a86533          	or	a0,a6,a0
   183d0:	00d7d6b3          	srl	a3,a5,a3
   183d4:	00c50533          	add	a0,a0,a2
   183d8:	00e686b3          	add	a3,a3,a4
   183dc:	00c53633          	sltu	a2,a0,a2
   183e0:	00c68733          	add	a4,a3,a2
   183e4:	e39ff06f          	j	1821c <__addtf3+0xd0>
   183e8:	fc06881b          	addiw	a6,a3,-64
   183ec:	04000313          	li	t1,64
   183f0:	0107d833          	srl	a6,a5,a6
   183f4:	00000893          	li	a7,0
   183f8:	00668863          	beq	a3,t1,18408 <__addtf3+0x2bc>
   183fc:	08000893          	li	a7,128
   18400:	40d886bb          	subw	a3,a7,a3
   18404:	00d798b3          	sll	a7,a5,a3
   18408:	00a8e533          	or	a0,a7,a0
   1840c:	00a03533          	snez	a0,a0
   18410:	00a86533          	or	a0,a6,a0
   18414:	00000693          	li	a3,0
   18418:	fbdff06f          	j	183d4 <__addtf3+0x288>
   1841c:	00a7e533          	or	a0,a5,a0
   18420:	00a03533          	snez	a0,a0
   18424:	ff1ff06f          	j	18414 <__addtf3+0x2c8>
   18428:	00140893          	addi	a7,s0,1
   1842c:	ffe30693          	addi	a3,t1,-2
   18430:	00d8f333          	and	t1,a7,a3
   18434:	18031663          	bnez	t1,185c0 <__addtf3+0x474>
   18438:	00a7e8b3          	or	a7,a5,a0
   1843c:	06041063          	bnez	s0,1849c <__addtf3+0x350>
   18440:	6c088c63          	beqz	a7,18b18 <__addtf3+0x9cc>
   18444:	00c766b3          	or	a3,a4,a2
   18448:	48068c63          	beqz	a3,188e0 <__addtf3+0x794>
   1844c:	00c50633          	add	a2,a0,a2
   18450:	00e787b3          	add	a5,a5,a4
   18454:	00a63533          	sltu	a0,a2,a0
   18458:	00a787b3          	add	a5,a5,a0
   1845c:	0337d713          	srli	a4,a5,0x33
   18460:	00177713          	andi	a4,a4,1
   18464:	6a070c63          	beqz	a4,18b1c <__addtf3+0x9d0>
   18468:	033e9713          	slli	a4,t4,0x33
   1846c:	fff70713          	addi	a4,a4,-1
   18470:	00e7f7b3          	and	a5,a5,a4
   18474:	00060513          	mv	a0,a2
   18478:	00000693          	li	a3,0
   1847c:	00100593          	li	a1,1
   18480:	00757713          	andi	a4,a0,7
   18484:	1a071063          	bnez	a4,18624 <__addtf3+0x4d8>
   18488:	08080663          	beqz	a6,18514 <__addtf3+0x3c8>
   1848c:	0016f713          	andi	a4,a3,1
   18490:	08070263          	beqz	a4,18514 <__addtf3+0x3c8>
   18494:	0026e693          	ori	a3,a3,2
   18498:	07c0006f          	j	18514 <__addtf3+0x3c8>
   1849c:	03c41c63          	bne	s0,t3,184d4 <__addtf3+0x388>
   184a0:	78088c63          	beqz	a7,18c38 <__addtf3+0xaec>
   184a4:	0327d693          	srli	a3,a5,0x32
   184a8:	0016f693          	andi	a3,a3,1
   184ac:	0016b693          	seqz	a3,a3
   184b0:	00469693          	slli	a3,a3,0x4
   184b4:	04859063          	bne	a1,s0,184f4 <__addtf3+0x3a8>
   184b8:	00c765b3          	or	a1,a4,a2
   184bc:	02058063          	beqz	a1,184dc <__addtf3+0x390>
   184c0:	03275593          	srli	a1,a4,0x32
   184c4:	0015f593          	andi	a1,a1,1
   184c8:	00059a63          	bnez	a1,184dc <__addtf3+0x390>
   184cc:	01000693          	li	a3,16
   184d0:	00c0006f          	j	184dc <__addtf3+0x390>
   184d4:	00000693          	li	a3,0
   184d8:	ffc580e3          	beq	a1,t3,184b8 <__addtf3+0x36c>
   184dc:	00089c63          	bnez	a7,184f4 <__addtf3+0x3a8>
   184e0:	00070793          	mv	a5,a4
   184e4:	00060513          	mv	a0,a2
   184e8:	000085b7          	lui	a1,0x8
   184ec:	fff58593          	addi	a1,a1,-1 # 7fff <exit-0x8121>
   184f0:	f91ff06f          	j	18480 <__addtf3+0x334>
   184f4:	00c76633          	or	a2,a4,a2
   184f8:	fe0608e3          	beqz	a2,184e8 <__addtf3+0x39c>
   184fc:	00100793          	li	a5,1
   18500:	000085b7          	lui	a1,0x8
   18504:	00000913          	li	s2,0
   18508:	03279793          	slli	a5,a5,0x32
   1850c:	00000513          	li	a0,0
   18510:	fff58593          	addi	a1,a1,-1 # 7fff <exit-0x8121>
   18514:	0337d713          	srli	a4,a5,0x33
   18518:	00177713          	andi	a4,a4,1
   1851c:	02070263          	beqz	a4,18540 <__addtf3+0x3f4>
   18520:	00008737          	lui	a4,0x8
   18524:	00158593          	addi	a1,a1,1
   18528:	fff70613          	addi	a2,a4,-1 # 7fff <exit-0x8121>
   1852c:	6cc58463          	beq	a1,a2,18bf4 <__addtf3+0xaa8>
   18530:	fff00713          	li	a4,-1
   18534:	03371713          	slli	a4,a4,0x33
   18538:	fff70713          	addi	a4,a4,-1
   1853c:	00e7f7b3          	and	a5,a5,a4
   18540:	00355713          	srli	a4,a0,0x3
   18544:	03d79513          	slli	a0,a5,0x3d
   18548:	00e56533          	or	a0,a0,a4
   1854c:	00008737          	lui	a4,0x8
   18550:	fff70713          	addi	a4,a4,-1 # 7fff <exit-0x8121>
   18554:	0037d793          	srli	a5,a5,0x3
   18558:	02e59063          	bne	a1,a4,18578 <__addtf3+0x42c>
   1855c:	00f56533          	or	a0,a0,a5
   18560:	00000793          	li	a5,0
   18564:	00050a63          	beqz	a0,18578 <__addtf3+0x42c>
   18568:	00100793          	li	a5,1
   1856c:	02f79793          	slli	a5,a5,0x2f
   18570:	00000513          	li	a0,0
   18574:	00000913          	li	s2,0
   18578:	03159593          	slli	a1,a1,0x31
   1857c:	00f91913          	slli	s2,s2,0xf
   18580:	0315d593          	srli	a1,a1,0x31
   18584:	00b965b3          	or	a1,s2,a1
   18588:	01079793          	slli	a5,a5,0x10
   1858c:	03059913          	slli	s2,a1,0x30
   18590:	0107d593          	srli	a1,a5,0x10
   18594:	0125e5b3          	or	a1,a1,s2
   18598:	00068463          	beqz	a3,185a0 <__addtf3+0x454>
   1859c:	0016a073          	csrs	fflags,a3
   185a0:	02813083          	ld	ra,40(sp)
   185a4:	02013403          	ld	s0,32(sp)
   185a8:	01813483          	ld	s1,24(sp)
   185ac:	01013903          	ld	s2,16(sp)
   185b0:	00813983          	ld	s3,8(sp)
   185b4:	00013a03          	ld	s4,0(sp)
   185b8:	03010113          	addi	sp,sp,48
   185bc:	00008067          	ret
   185c0:	03c88863          	beq	a7,t3,185f0 <__addtf3+0x4a4>
   185c4:	00c50633          	add	a2,a0,a2
   185c8:	00a63533          	sltu	a0,a2,a0
   185cc:	00e787b3          	add	a5,a5,a4
   185d0:	00a787b3          	add	a5,a5,a0
   185d4:	03f79513          	slli	a0,a5,0x3f
   185d8:	00165613          	srli	a2,a2,0x1
   185dc:	00c56533          	or	a0,a0,a2
   185e0:	0017d793          	srli	a5,a5,0x1
   185e4:	00088593          	mv	a1,a7
   185e8:	00000693          	li	a3,0
   185ec:	e95ff06f          	j	18480 <__addtf3+0x334>
   185f0:	00048863          	beqz	s1,18600 <__addtf3+0x4b4>
   185f4:	00300793          	li	a5,3
   185f8:	00f49863          	bne	s1,a5,18608 <__addtf3+0x4bc>
   185fc:	00091c63          	bnez	s2,18614 <__addtf3+0x4c8>
   18600:	00088593          	mv	a1,a7
   18604:	0680006f          	j	1866c <__addtf3+0x520>
   18608:	00200793          	li	a5,2
   1860c:	00f49463          	bne	s1,a5,18614 <__addtf3+0x4c8>
   18610:	fe0918e3          	bnez	s2,18600 <__addtf3+0x4b4>
   18614:	fff00793          	li	a5,-1
   18618:	fff00513          	li	a0,-1
   1861c:	00068593          	mv	a1,a3
   18620:	00500693          	li	a3,5
   18624:	00200713          	li	a4,2
   18628:	0016e693          	ori	a3,a3,1
   1862c:	5ae48e63          	beq	s1,a4,18be8 <__addtf3+0xa9c>
   18630:	00300713          	li	a4,3
   18634:	5ae48463          	beq	s1,a4,18bdc <__addtf3+0xa90>
   18638:	5a049a63          	bnez	s1,18bec <__addtf3+0xaa0>
   1863c:	00f57713          	andi	a4,a0,15
   18640:	00400613          	li	a2,4
   18644:	5ac70463          	beq	a4,a2,18bec <__addtf3+0xaa0>
   18648:	00450713          	addi	a4,a0,4
   1864c:	00a73533          	sltu	a0,a4,a0
   18650:	00a787b3          	add	a5,a5,a0
   18654:	00070513          	mv	a0,a4
   18658:	5940006f          	j	18bec <__addtf3+0xaa0>
   1865c:	00048863          	beqz	s1,1866c <__addtf3+0x520>
   18660:	00300793          	li	a5,3
   18664:	00f49c63          	bne	s1,a5,1867c <__addtf3+0x530>
   18668:	02091063          	bnez	s2,18688 <__addtf3+0x53c>
   1866c:	00000793          	li	a5,0
   18670:	00000513          	li	a0,0
   18674:	00500693          	li	a3,5
   18678:	e9dff06f          	j	18514 <__addtf3+0x3c8>
   1867c:	00200793          	li	a5,2
   18680:	00f49463          	bne	s1,a5,18688 <__addtf3+0x53c>
   18684:	fe0914e3          	bnez	s2,1866c <__addtf3+0x520>
   18688:	fff00793          	li	a5,-1
   1868c:	fff00513          	li	a0,-1
   18690:	ffe68593          	addi	a1,a3,-2
   18694:	00000813          	li	a6,0
   18698:	f89ff06f          	j	18620 <__addtf3+0x4d4>
   1869c:	0f005863          	blez	a6,1878c <__addtf3+0x640>
   186a0:	08059c63          	bnez	a1,18738 <__addtf3+0x5ec>
   186a4:	00c765b3          	or	a1,a4,a2
   186a8:	00059a63          	bnez	a1,186bc <__addtf3+0x570>
   186ac:	bdc400e3          	beq	s0,t3,1826c <__addtf3+0x120>
   186b0:	00078713          	mv	a4,a5
   186b4:	00040593          	mv	a1,s0
   186b8:	4480006f          	j	18b00 <__addtf3+0x9b4>
   186bc:	fff6881b          	addiw	a6,a3,-1
   186c0:	02081e63          	bnez	a6,186fc <__addtf3+0x5b0>
   186c4:	40c50633          	sub	a2,a0,a2
   186c8:	00c53533          	sltu	a0,a0,a2
   186cc:	40e78733          	sub	a4,a5,a4
   186d0:	40a70733          	sub	a4,a4,a0
   186d4:	00040593          	mv	a1,s0
   186d8:	00060513          	mv	a0,a2
   186dc:	03375793          	srli	a5,a4,0x33
   186e0:	0017f793          	andi	a5,a5,1
   186e4:	40078e63          	beqz	a5,18b00 <__addtf3+0x9b4>
   186e8:	00d71713          	slli	a4,a4,0xd
   186ec:	00d75993          	srli	s3,a4,0xd
   186f0:	00050a13          	mv	s4,a0
   186f4:	00058413          	mv	s0,a1
   186f8:	3240006f          	j	18a1c <__addtf3+0x8d0>
   186fc:	b7c408e3          	beq	s0,t3,1826c <__addtf3+0x120>
   18700:	07400693          	li	a3,116
   18704:	0706ce63          	blt	a3,a6,18780 <__addtf3+0x634>
   18708:	03f00693          	li	a3,63
   1870c:	0506c063          	blt	a3,a6,1874c <__addtf3+0x600>
   18710:	04000593          	li	a1,64
   18714:	410585bb          	subw	a1,a1,a6
   18718:	00b716b3          	sll	a3,a4,a1
   1871c:	010658b3          	srl	a7,a2,a6
   18720:	00b61633          	sll	a2,a2,a1
   18724:	0116e6b3          	or	a3,a3,a7
   18728:	00c03633          	snez	a2,a2
   1872c:	00c6e633          	or	a2,a3,a2
   18730:	01075733          	srl	a4,a4,a6
   18734:	f91ff06f          	j	186c4 <__addtf3+0x578>
   18738:	b3c40ae3          	beq	s0,t3,1826c <__addtf3+0x120>
   1873c:	00100693          	li	a3,1
   18740:	03369693          	slli	a3,a3,0x33
   18744:	00d76733          	or	a4,a4,a3
   18748:	fb9ff06f          	j	18700 <__addtf3+0x5b4>
   1874c:	fc08069b          	addiw	a3,a6,-64
   18750:	04000893          	li	a7,64
   18754:	00d756b3          	srl	a3,a4,a3
   18758:	00000593          	li	a1,0
   1875c:	01180863          	beq	a6,a7,1876c <__addtf3+0x620>
   18760:	08000593          	li	a1,128
   18764:	410585bb          	subw	a1,a1,a6
   18768:	00b715b3          	sll	a1,a4,a1
   1876c:	00c5e633          	or	a2,a1,a2
   18770:	00c03633          	snez	a2,a2
   18774:	00c6e633          	or	a2,a3,a2
   18778:	00000713          	li	a4,0
   1877c:	f49ff06f          	j	186c4 <__addtf3+0x578>
   18780:	00c76633          	or	a2,a4,a2
   18784:	00c03633          	snez	a2,a2
   18788:	ff1ff06f          	j	18778 <__addtf3+0x62c>
   1878c:	12080063          	beqz	a6,188ac <__addtf3+0x760>
   18790:	08041063          	bnez	s0,18810 <__addtf3+0x6c4>
   18794:	00a7e833          	or	a6,a5,a0
   18798:	02081663          	bnez	a6,187c4 <__addtf3+0x678>
   1879c:	37c59863          	bne	a1,t3,18b0c <__addtf3+0x9c0>
   187a0:	00c76533          	or	a0,a4,a2
   187a4:	3e050663          	beqz	a0,18b90 <__addtf3+0xa44>
   187a8:	03275793          	srli	a5,a4,0x32
   187ac:	0017f793          	andi	a5,a5,1
   187b0:	3e079663          	bnez	a5,18b9c <__addtf3+0xa50>
   187b4:	00070793          	mv	a5,a4
   187b8:	00060513          	mv	a0,a2
   187bc:	00088913          	mv	s2,a7
   187c0:	b7dff06f          	j	1833c <__addtf3+0x1f0>
   187c4:	fff6c693          	not	a3,a3
   187c8:	0006869b          	sext.w	a3,a3
   187cc:	00069e63          	bnez	a3,187e8 <__addtf3+0x69c>
   187d0:	40a60533          	sub	a0,a2,a0
   187d4:	40f70733          	sub	a4,a4,a5
   187d8:	00a63633          	sltu	a2,a2,a0
   187dc:	40c70733          	sub	a4,a4,a2
   187e0:	00088913          	mv	s2,a7
   187e4:	ef9ff06f          	j	186dc <__addtf3+0x590>
   187e8:	03c59e63          	bne	a1,t3,18824 <__addtf3+0x6d8>
   187ec:	00c76533          	or	a0,a4,a2
   187f0:	3a050063          	beqz	a0,18b90 <__addtf3+0xa44>
   187f4:	03275793          	srli	a5,a4,0x32
   187f8:	0017f793          	andi	a5,a5,1
   187fc:	3a079063          	bnez	a5,18b9c <__addtf3+0xa50>
   18800:	00070793          	mv	a5,a4
   18804:	00060513          	mv	a0,a2
   18808:	00088913          	mv	s2,a7
   1880c:	b79ff06f          	j	18384 <__addtf3+0x238>
   18810:	fdc58ee3          	beq	a1,t3,187ec <__addtf3+0x6a0>
   18814:	00100813          	li	a6,1
   18818:	03381813          	slli	a6,a6,0x33
   1881c:	40d006bb          	negw	a3,a3
   18820:	0107e7b3          	or	a5,a5,a6
   18824:	07400813          	li	a6,116
   18828:	06d84c63          	blt	a6,a3,188a0 <__addtf3+0x754>
   1882c:	03f00813          	li	a6,63
   18830:	02d84e63          	blt	a6,a3,1886c <__addtf3+0x720>
   18834:	04000313          	li	t1,64
   18838:	40d3033b          	subw	t1,t1,a3
   1883c:	00679833          	sll	a6,a5,t1
   18840:	00d55e33          	srl	t3,a0,a3
   18844:	00651533          	sll	a0,a0,t1
   18848:	01c86833          	or	a6,a6,t3
   1884c:	00a03533          	snez	a0,a0
   18850:	00a86533          	or	a0,a6,a0
   18854:	00d7d7b3          	srl	a5,a5,a3
   18858:	40a60533          	sub	a0,a2,a0
   1885c:	40f707b3          	sub	a5,a4,a5
   18860:	00a63633          	sltu	a2,a2,a0
   18864:	40c78733          	sub	a4,a5,a2
   18868:	f79ff06f          	j	187e0 <__addtf3+0x694>
   1886c:	fc06881b          	addiw	a6,a3,-64
   18870:	04000e13          	li	t3,64
   18874:	0107d833          	srl	a6,a5,a6
   18878:	00000313          	li	t1,0
   1887c:	01c68863          	beq	a3,t3,1888c <__addtf3+0x740>
   18880:	08000313          	li	t1,128
   18884:	40d306bb          	subw	a3,t1,a3
   18888:	00d79333          	sll	t1,a5,a3
   1888c:	00a36533          	or	a0,t1,a0
   18890:	00a03533          	snez	a0,a0
   18894:	00a86533          	or	a0,a6,a0
   18898:	00000793          	li	a5,0
   1889c:	fbdff06f          	j	18858 <__addtf3+0x70c>
   188a0:	00a7e533          	or	a0,a5,a0
   188a4:	00a03533          	snez	a0,a0
   188a8:	ff1ff06f          	j	18898 <__addtf3+0x74c>
   188ac:	00140e93          	addi	t4,s0,1
   188b0:	ffe30693          	addi	a3,t1,-2
   188b4:	00def6b3          	and	a3,t4,a3
   188b8:	12069a63          	bnez	a3,189ec <__addtf3+0x8a0>
   188bc:	00a7eeb3          	or	t4,a5,a0
   188c0:	00c76333          	or	t1,a4,a2
   188c4:	0c041663          	bnez	s0,18990 <__addtf3+0x844>
   188c8:	060e9c63          	bnez	t4,18940 <__addtf3+0x7f4>
   188cc:	24031c63          	bnez	t1,18b24 <__addtf3+0x9d8>
   188d0:	ffe48913          	addi	s2,s1,-2
   188d4:	00193913          	seqz	s2,s2
   188d8:	00000793          	li	a5,0
   188dc:	00000513          	li	a0,0
   188e0:	00f56733          	or	a4,a0,a5
   188e4:	2e070463          	beqz	a4,18bcc <__addtf3+0xa80>
   188e8:	03f55713          	srli	a4,a0,0x3f
   188ec:	00179813          	slli	a6,a5,0x1
   188f0:	00e80833          	add	a6,a6,a4
   188f4:	00151713          	slli	a4,a0,0x1
   188f8:	00777613          	andi	a2,a4,7
   188fc:	00000693          	li	a3,0
   18900:	02060663          	beqz	a2,1892c <__addtf3+0x7e0>
   18904:	00200693          	li	a3,2
   18908:	24d48a63          	beq	s1,a3,18b5c <__addtf3+0xa10>
   1890c:	00300693          	li	a3,3
   18910:	22d48663          	beq	s1,a3,18b3c <__addtf3+0x9f0>
   18914:	00100693          	li	a3,1
   18918:	00049a63          	bnez	s1,1892c <__addtf3+0x7e0>
   1891c:	00f77613          	andi	a2,a4,15
   18920:	00400593          	li	a1,4
   18924:	ffc73713          	sltiu	a4,a4,-4
   18928:	22b61063          	bne	a2,a1,18b48 <__addtf3+0x9fc>
   1892c:	03485813          	srli	a6,a6,0x34
   18930:	00184813          	xori	a6,a6,1
   18934:	00187813          	andi	a6,a6,1
   18938:	00000593          	li	a1,0
   1893c:	b45ff06f          	j	18480 <__addtf3+0x334>
   18940:	fa0300e3          	beqz	t1,188e0 <__addtf3+0x794>
   18944:	40c505b3          	sub	a1,a0,a2
   18948:	00b53833          	sltu	a6,a0,a1
   1894c:	40e786b3          	sub	a3,a5,a4
   18950:	410686b3          	sub	a3,a3,a6
   18954:	0336d813          	srli	a6,a3,0x33
   18958:	00187813          	andi	a6,a6,1
   1895c:	00080e63          	beqz	a6,18978 <__addtf3+0x82c>
   18960:	40a60533          	sub	a0,a2,a0
   18964:	40f707b3          	sub	a5,a4,a5
   18968:	00a63633          	sltu	a2,a2,a0
   1896c:	40c787b3          	sub	a5,a5,a2
   18970:	00088913          	mv	s2,a7
   18974:	f6dff06f          	j	188e0 <__addtf3+0x794>
   18978:	00d5e533          	or	a0,a1,a3
   1897c:	1a051a63          	bnez	a0,18b30 <__addtf3+0x9e4>
   18980:	ffe48913          	addi	s2,s1,-2
   18984:	00193913          	seqz	s2,s2
   18988:	00000793          	li	a5,0
   1898c:	f55ff06f          	j	188e0 <__addtf3+0x794>
   18990:	03c41a63          	bne	s0,t3,189c4 <__addtf3+0x878>
   18994:	280e8c63          	beqz	t4,18c2c <__addtf3+0xae0>
   18998:	0327d693          	srli	a3,a5,0x32
   1899c:	0016f693          	andi	a3,a3,1
   189a0:	0016b693          	seqz	a3,a3
   189a4:	00469693          	slli	a3,a3,0x4
   189a8:	02859e63          	bne	a1,s0,189e4 <__addtf3+0x898>
   189ac:	02030063          	beqz	t1,189cc <__addtf3+0x880>
   189b0:	03275593          	srli	a1,a4,0x32
   189b4:	0015f593          	andi	a1,a1,1
   189b8:	00059a63          	bnez	a1,189cc <__addtf3+0x880>
   189bc:	01000693          	li	a3,16
   189c0:	00c0006f          	j	189cc <__addtf3+0x880>
   189c4:	00000693          	li	a3,0
   189c8:	ffc582e3          	beq	a1,t3,189ac <__addtf3+0x860>
   189cc:	000e9c63          	bnez	t4,189e4 <__addtf3+0x898>
   189d0:	1c030e63          	beqz	t1,18bac <__addtf3+0xa60>
   189d4:	00070793          	mv	a5,a4
   189d8:	00060513          	mv	a0,a2
   189dc:	00088913          	mv	s2,a7
   189e0:	b09ff06f          	j	184e8 <__addtf3+0x39c>
   189e4:	b00302e3          	beqz	t1,184e8 <__addtf3+0x39c>
   189e8:	b15ff06f          	j	184fc <__addtf3+0x3b0>
   189ec:	40c50a33          	sub	s4,a0,a2
   189f0:	014536b3          	sltu	a3,a0,s4
   189f4:	40e789b3          	sub	s3,a5,a4
   189f8:	40d989b3          	sub	s3,s3,a3
   189fc:	0339d693          	srli	a3,s3,0x33
   18a00:	0016f693          	andi	a3,a3,1
   18a04:	08068663          	beqz	a3,18a90 <__addtf3+0x944>
   18a08:	40a60a33          	sub	s4,a2,a0
   18a0c:	40f70733          	sub	a4,a4,a5
   18a10:	01463633          	sltu	a2,a2,s4
   18a14:	40c709b3          	sub	s3,a4,a2
   18a18:	00088913          	mv	s2,a7
   18a1c:	08098063          	beqz	s3,18a9c <__addtf3+0x950>
   18a20:	00098513          	mv	a0,s3
   18a24:	1f9010ef          	jal	ra,1a41c <__clzdi2>
   18a28:	0005051b          	sext.w	a0,a0
   18a2c:	ff45059b          	addiw	a1,a0,-12
   18a30:	03f00793          	li	a5,63
   18a34:	00058693          	mv	a3,a1
   18a38:	06b7ca63          	blt	a5,a1,18aac <__addtf3+0x960>
   18a3c:	04000713          	li	a4,64
   18a40:	40b7073b          	subw	a4,a4,a1
   18a44:	00b999b3          	sll	s3,s3,a1
   18a48:	00ea5733          	srl	a4,s4,a4
   18a4c:	01376733          	or	a4,a4,s3
   18a50:	00ba1533          	sll	a0,s4,a1
   18a54:	0885cc63          	blt	a1,s0,18aec <__addtf3+0x9a0>
   18a58:	4086843b          	subw	s0,a3,s0
   18a5c:	0014079b          	addiw	a5,s0,1
   18a60:	03f00693          	li	a3,63
   18a64:	04f6cc63          	blt	a3,a5,18abc <__addtf3+0x970>
   18a68:	04000693          	li	a3,64
   18a6c:	40f686bb          	subw	a3,a3,a5
   18a70:	00f555b3          	srl	a1,a0,a5
   18a74:	00d71633          	sll	a2,a4,a3
   18a78:	00d51533          	sll	a0,a0,a3
   18a7c:	00b66633          	or	a2,a2,a1
   18a80:	00a03533          	snez	a0,a0
   18a84:	00a66533          	or	a0,a2,a0
   18a88:	00f757b3          	srl	a5,a4,a5
   18a8c:	e55ff06f          	j	188e0 <__addtf3+0x794>
   18a90:	013a6533          	or	a0,s4,s3
   18a94:	f80514e3          	bnez	a0,18a1c <__addtf3+0x8d0>
   18a98:	ee9ff06f          	j	18980 <__addtf3+0x834>
   18a9c:	000a0513          	mv	a0,s4
   18aa0:	17d010ef          	jal	ra,1a41c <__clzdi2>
   18aa4:	0405051b          	addiw	a0,a0,64
   18aa8:	f85ff06f          	j	18a2c <__addtf3+0x8e0>
   18aac:	fb45071b          	addiw	a4,a0,-76
   18ab0:	00ea1733          	sll	a4,s4,a4
   18ab4:	00000513          	li	a0,0
   18ab8:	f9dff06f          	j	18a54 <__addtf3+0x908>
   18abc:	fc14041b          	addiw	s0,s0,-63
   18ac0:	04000593          	li	a1,64
   18ac4:	00875433          	srl	s0,a4,s0
   18ac8:	00000693          	li	a3,0
   18acc:	00b78863          	beq	a5,a1,18adc <__addtf3+0x990>
   18ad0:	08000693          	li	a3,128
   18ad4:	40f686bb          	subw	a3,a3,a5
   18ad8:	00d716b3          	sll	a3,a4,a3
   18adc:	00d56533          	or	a0,a0,a3
   18ae0:	00a03533          	snez	a0,a0
   18ae4:	00a46533          	or	a0,s0,a0
   18ae8:	ea1ff06f          	j	18988 <__addtf3+0x83c>
   18aec:	fff00793          	li	a5,-1
   18af0:	03379793          	slli	a5,a5,0x33
   18af4:	fff78793          	addi	a5,a5,-1
   18af8:	40b405b3          	sub	a1,s0,a1
   18afc:	00f77733          	and	a4,a4,a5
   18b00:	00070793          	mv	a5,a4
   18b04:	dc058ee3          	beqz	a1,188e0 <__addtf3+0x794>
   18b08:	f58ff06f          	j	18260 <__addtf3+0x114>
   18b0c:	00060513          	mv	a0,a2
   18b10:	00088913          	mv	s2,a7
   18b14:	fedff06f          	j	18b00 <__addtf3+0x9b4>
   18b18:	00070793          	mv	a5,a4
   18b1c:	00060513          	mv	a0,a2
   18b20:	dc1ff06f          	j	188e0 <__addtf3+0x794>
   18b24:	00070793          	mv	a5,a4
   18b28:	00060513          	mv	a0,a2
   18b2c:	e45ff06f          	j	18970 <__addtf3+0x824>
   18b30:	00068793          	mv	a5,a3
   18b34:	00058513          	mv	a0,a1
   18b38:	da9ff06f          	j	188e0 <__addtf3+0x794>
   18b3c:	00100693          	li	a3,1
   18b40:	de0916e3          	bnez	s2,1892c <__addtf3+0x7e0>
   18b44:	ff873713          	sltiu	a4,a4,-8
   18b48:	00174713          	xori	a4,a4,1
   18b4c:	02071713          	slli	a4,a4,0x20
   18b50:	02075713          	srli	a4,a4,0x20
   18b54:	00e80833          	add	a6,a6,a4
   18b58:	dd5ff06f          	j	1892c <__addtf3+0x7e0>
   18b5c:	00100693          	li	a3,1
   18b60:	dc0906e3          	beqz	s2,1892c <__addtf3+0x7e0>
   18b64:	fe1ff06f          	j	18b44 <__addtf3+0x9f8>
   18b68:	00000793          	li	a5,0
   18b6c:	00000693          	li	a3,0
   18b70:	9a5ff06f          	j	18514 <__addtf3+0x3c8>
   18b74:	00070793          	mv	a5,a4
   18b78:	00060513          	mv	a0,a2
   18b7c:	ee4ff06f          	j	18260 <__addtf3+0x114>
   18b80:	00000793          	li	a5,0
   18b84:	00000513          	li	a0,0
   18b88:	00040593          	mv	a1,s0
   18b8c:	fe1ff06f          	j	18b6c <__addtf3+0xa20>
   18b90:	00000793          	li	a5,0
   18b94:	00088913          	mv	s2,a7
   18b98:	fd5ff06f          	j	18b6c <__addtf3+0xa20>
   18b9c:	00070793          	mv	a5,a4
   18ba0:	00060513          	mv	a0,a2
   18ba4:	00088913          	mv	s2,a7
   18ba8:	eb8ff06f          	j	18260 <__addtf3+0x114>
   18bac:	00100793          	li	a5,1
   18bb0:	000085b7          	lui	a1,0x8
   18bb4:	00000513          	li	a0,0
   18bb8:	00000913          	li	s2,0
   18bbc:	03279793          	slli	a5,a5,0x32
   18bc0:	fff58593          	addi	a1,a1,-1 # 7fff <exit-0x8121>
   18bc4:	01000693          	li	a3,16
   18bc8:	94dff06f          	j	18514 <__addtf3+0x3c8>
   18bcc:	00000793          	li	a5,0
   18bd0:	00000513          	li	a0,0
   18bd4:	00000593          	li	a1,0
   18bd8:	f95ff06f          	j	18b6c <__addtf3+0xa20>
   18bdc:	00091863          	bnez	s2,18bec <__addtf3+0xaa0>
   18be0:	00850713          	addi	a4,a0,8
   18be4:	a69ff06f          	j	1864c <__addtf3+0x500>
   18be8:	fe091ce3          	bnez	s2,18be0 <__addtf3+0xa94>
   18bec:	8a0814e3          	bnez	a6,18494 <__addtf3+0x348>
   18bf0:	925ff06f          	j	18514 <__addtf3+0x3c8>
   18bf4:	00000513          	li	a0,0
   18bf8:	02048463          	beqz	s1,18c20 <__addtf3+0xad4>
   18bfc:	00300793          	li	a5,3
   18c00:	00f49a63          	bne	s1,a5,18c14 <__addtf3+0xac8>
   18c04:	00090e63          	beqz	s2,18c20 <__addtf3+0xad4>
   18c08:	fff00513          	li	a0,-1
   18c0c:	ffe70593          	addi	a1,a4,-2
   18c10:	0100006f          	j	18c20 <__addtf3+0xad4>
   18c14:	00200793          	li	a5,2
   18c18:	fef498e3          	bne	s1,a5,18c08 <__addtf3+0xabc>
   18c1c:	fe0906e3          	beqz	s2,18c08 <__addtf3+0xabc>
   18c20:	0056e693          	ori	a3,a3,5
   18c24:	00050793          	mv	a5,a0
   18c28:	919ff06f          	j	18540 <__addtf3+0x3f4>
   18c2c:	00000693          	li	a3,0
   18c30:	da8590e3          	bne	a1,s0,189d0 <__addtf3+0x884>
   18c34:	d79ff06f          	j	189ac <__addtf3+0x860>
   18c38:	00000693          	li	a3,0
   18c3c:	8a8592e3          	bne	a1,s0,184e0 <__addtf3+0x394>
   18c40:	879ff06f          	j	184b8 <__addtf3+0x36c>

0000000000018c44 <__eqtf2>:
   18c44:	00050813          	mv	a6,a0
   18c48:	002027f3          	frrm	a5
   18c4c:	00008537          	lui	a0,0x8
   18c50:	0305d893          	srli	a7,a1,0x30
   18c54:	fff50513          	addi	a0,a0,-1 # 7fff <exit-0x8121>
   18c58:	fff00793          	li	a5,-1
   18c5c:	0107d793          	srli	a5,a5,0x10
   18c60:	0306d313          	srli	t1,a3,0x30
   18c64:	00a8f8b3          	and	a7,a7,a0
   18c68:	00f5f733          	and	a4,a1,a5
   18c6c:	00a37333          	and	t1,t1,a0
   18c70:	00f6f7b3          	and	a5,a3,a5
   18c74:	03f5d593          	srli	a1,a1,0x3f
   18c78:	03f6d693          	srli	a3,a3,0x3f
   18c7c:	00a89a63          	bne	a7,a0,18c90 <__eqtf2+0x4c>
   18c80:	01076533          	or	a0,a4,a6
   18c84:	02051663          	bnez	a0,18cb0 <__eqtf2+0x6c>
   18c88:	05131863          	bne	t1,a7,18cd8 <__eqtf2+0x94>
   18c8c:	0080006f          	j	18c94 <__eqtf2+0x50>
   18c90:	04a31863          	bne	t1,a0,18ce0 <__eqtf2+0x9c>
   18c94:	00c7e533          	or	a0,a5,a2
   18c98:	04050463          	beqz	a0,18ce0 <__eqtf2+0x9c>
   18c9c:	000086b7          	lui	a3,0x8
   18ca0:	fff68693          	addi	a3,a3,-1 # 7fff <exit-0x8121>
   18ca4:	02d89663          	bne	a7,a3,18cd0 <__eqtf2+0x8c>
   18ca8:	01076533          	or	a0,a4,a6
   18cac:	02050263          	beqz	a0,18cd0 <__eqtf2+0x8c>
   18cb0:	02f75713          	srli	a4,a4,0x2f
   18cb4:	04070c63          	beqz	a4,18d0c <__eqtf2+0xc8>
   18cb8:	00008737          	lui	a4,0x8
   18cbc:	fff70713          	addi	a4,a4,-1 # 7fff <exit-0x8121>
   18cc0:	00100513          	li	a0,1
   18cc4:	00e31c63          	bne	t1,a4,18cdc <__eqtf2+0x98>
   18cc8:	00c7e633          	or	a2,a5,a2
   18ccc:	00060863          	beqz	a2,18cdc <__eqtf2+0x98>
   18cd0:	02f7d793          	srli	a5,a5,0x2f
   18cd4:	02078c63          	beqz	a5,18d0c <__eqtf2+0xc8>
   18cd8:	00100513          	li	a0,1
   18cdc:	00008067          	ret
   18ce0:	00100513          	li	a0,1
   18ce4:	fe689ce3          	bne	a7,t1,18cdc <__eqtf2+0x98>
   18ce8:	fef71ae3          	bne	a4,a5,18cdc <__eqtf2+0x98>
   18cec:	fec818e3          	bne	a6,a2,18cdc <__eqtf2+0x98>
   18cf0:	00d58a63          	beq	a1,a3,18d04 <__eqtf2+0xc0>
   18cf4:	fe0894e3          	bnez	a7,18cdc <__eqtf2+0x98>
   18cf8:	01076533          	or	a0,a4,a6
   18cfc:	00a03533          	snez	a0,a0
   18d00:	00008067          	ret
   18d04:	00000513          	li	a0,0
   18d08:	00008067          	ret
   18d0c:	00186073          	csrsi	fflags,16
   18d10:	fc9ff06f          	j	18cd8 <__eqtf2+0x94>

0000000000018d14 <__multf3>:
   18d14:	fa010113          	addi	sp,sp,-96
   18d18:	03613023          	sd	s6,32(sp)
   18d1c:	01913423          	sd	s9,8(sp)
   18d20:	04113c23          	sd	ra,88(sp)
   18d24:	04813823          	sd	s0,80(sp)
   18d28:	04913423          	sd	s1,72(sp)
   18d2c:	05213023          	sd	s2,64(sp)
   18d30:	03313c23          	sd	s3,56(sp)
   18d34:	03413823          	sd	s4,48(sp)
   18d38:	03513423          	sd	s5,40(sp)
   18d3c:	01713c23          	sd	s7,24(sp)
   18d40:	01813823          	sd	s8,16(sp)
   18d44:	00060c93          	mv	s9,a2
   18d48:	00068b13          	mv	s6,a3
   18d4c:	00202973          	frrm	s2
   18d50:	00008737          	lui	a4,0x8
   18d54:	0305da93          	srli	s5,a1,0x30
   18d58:	fff70713          	addi	a4,a4,-1 # 7fff <exit-0x8121>
   18d5c:	01059993          	slli	s3,a1,0x10
   18d60:	00eaf7b3          	and	a5,s5,a4
   18d64:	0009091b          	sext.w	s2,s2
   18d68:	0109d993          	srli	s3,s3,0x10
   18d6c:	03f5db93          	srli	s7,a1,0x3f
   18d70:	04078263          	beqz	a5,18db4 <__multf3+0xa0>
   18d74:	00050a13          	mv	s4,a0
   18d78:	00078a9b          	sext.w	s5,a5
   18d7c:	0ae78663          	beq	a5,a4,18e28 <__multf3+0x114>
   18d80:	00399993          	slli	s3,s3,0x3
   18d84:	03d55713          	srli	a4,a0,0x3d
   18d88:	01376733          	or	a4,a4,s3
   18d8c:	ffffcab7          	lui	s5,0xffffc
   18d90:	00100993          	li	s3,1
   18d94:	03399993          	slli	s3,s3,0x33
   18d98:	001a8a93          	addi	s5,s5,1 # ffffffffffffc001 <__BSS_END__+0xfffffffffffde351>
   18d9c:	013769b3          	or	s3,a4,s3
   18da0:	00351a13          	slli	s4,a0,0x3
   18da4:	01578ab3          	add	s5,a5,s5
   18da8:	00000c13          	li	s8,0
   18dac:	00000493          	li	s1,0
   18db0:	0940006f          	j	18e44 <__multf3+0x130>
   18db4:	00a9e7b3          	or	a5,s3,a0
   18db8:	00050413          	mv	s0,a0
   18dbc:	10078e63          	beqz	a5,18ed8 <__multf3+0x1c4>
   18dc0:	04098663          	beqz	s3,18e0c <__multf3+0xf8>
   18dc4:	00098513          	mv	a0,s3
   18dc8:	654010ef          	jal	ra,1a41c <__clzdi2>
   18dcc:	0005079b          	sext.w	a5,a0
   18dd0:	ff178693          	addi	a3,a5,-15
   18dd4:	03c00613          	li	a2,60
   18dd8:	0006871b          	sext.w	a4,a3
   18ddc:	02d64e63          	blt	a2,a3,18e18 <__multf3+0x104>
   18de0:	03d00693          	li	a3,61
   18de4:	00370a1b          	addiw	s4,a4,3
   18de8:	40e6873b          	subw	a4,a3,a4
   18dec:	014999b3          	sll	s3,s3,s4
   18df0:	00e45733          	srl	a4,s0,a4
   18df4:	013769b3          	or	s3,a4,s3
   18df8:	01441a33          	sll	s4,s0,s4
   18dfc:	ffffcab7          	lui	s5,0xffffc
   18e00:	011a8a93          	addi	s5,s5,17 # ffffffffffffc011 <__BSS_END__+0xfffffffffffde361>
   18e04:	40fa8ab3          	sub	s5,s5,a5
   18e08:	fa1ff06f          	j	18da8 <__multf3+0x94>
   18e0c:	610010ef          	jal	ra,1a41c <__clzdi2>
   18e10:	0405079b          	addiw	a5,a0,64
   18e14:	fbdff06f          	j	18dd0 <__multf3+0xbc>
   18e18:	fc37071b          	addiw	a4,a4,-61
   18e1c:	00e419b3          	sll	s3,s0,a4
   18e20:	00000a13          	li	s4,0
   18e24:	fd9ff06f          	j	18dfc <__multf3+0xe8>
   18e28:	00a9e7b3          	or	a5,s3,a0
   18e2c:	0c078063          	beqz	a5,18eec <__multf3+0x1d8>
   18e30:	02f9d793          	srli	a5,s3,0x2f
   18e34:	0017f793          	andi	a5,a5,1
   18e38:	00300c13          	li	s8,3
   18e3c:	01000493          	li	s1,16
   18e40:	f60796e3          	bnez	a5,18dac <__multf3+0x98>
   18e44:	000086b7          	lui	a3,0x8
   18e48:	030b5513          	srli	a0,s6,0x30
   18e4c:	fff68693          	addi	a3,a3,-1 # 7fff <exit-0x8121>
   18e50:	010b1413          	slli	s0,s6,0x10
   18e54:	00d57733          	and	a4,a0,a3
   18e58:	000c8793          	mv	a5,s9
   18e5c:	01045413          	srli	s0,s0,0x10
   18e60:	03fb5b13          	srli	s6,s6,0x3f
   18e64:	08070c63          	beqz	a4,18efc <__multf3+0x1e8>
   18e68:	0007051b          	sext.w	a0,a4
   18e6c:	10d70263          	beq	a4,a3,18f70 <__multf3+0x25c>
   18e70:	00341413          	slli	s0,s0,0x3
   18e74:	03dcd693          	srli	a3,s9,0x3d
   18e78:	0086e6b3          	or	a3,a3,s0
   18e7c:	ffffc537          	lui	a0,0xffffc
   18e80:	00100413          	li	s0,1
   18e84:	03341413          	slli	s0,s0,0x33
   18e88:	00150513          	addi	a0,a0,1 # ffffffffffffc001 <__BSS_END__+0xfffffffffffde351>
   18e8c:	0086e433          	or	s0,a3,s0
   18e90:	003c9793          	slli	a5,s9,0x3
   18e94:	00a70533          	add	a0,a4,a0
   18e98:	00000713          	li	a4,0
   18e9c:	002c1693          	slli	a3,s8,0x2
   18ea0:	00e6e6b3          	or	a3,a3,a4
   18ea4:	01550ab3          	add	s5,a0,s5
   18ea8:	fff68693          	addi	a3,a3,-1
   18eac:	00e00593          	li	a1,14
   18eb0:	016bc633          	xor	a2,s7,s6
   18eb4:	001a8813          	addi	a6,s5,1
   18eb8:	16d5ee63          	bltu	a1,a3,19034 <__multf3+0x320>
   18ebc:	00003597          	auipc	a1,0x3
   18ec0:	ea458593          	addi	a1,a1,-348 # 1bd60 <empty_mo+0x30>
   18ec4:	00269693          	slli	a3,a3,0x2
   18ec8:	00b686b3          	add	a3,a3,a1
   18ecc:	0006a683          	lw	a3,0(a3)
   18ed0:	00b686b3          	add	a3,a3,a1
   18ed4:	00068067          	jr	a3
   18ed8:	00000993          	li	s3,0
   18edc:	00000a13          	li	s4,0
   18ee0:	00000a93          	li	s5,0
   18ee4:	00100c13          	li	s8,1
   18ee8:	ec5ff06f          	j	18dac <__multf3+0x98>
   18eec:	00000993          	li	s3,0
   18ef0:	00000a13          	li	s4,0
   18ef4:	00200c13          	li	s8,2
   18ef8:	eb5ff06f          	j	18dac <__multf3+0x98>
   18efc:	008ce7b3          	or	a5,s9,s0
   18f00:	08078863          	beqz	a5,18f90 <__multf3+0x27c>
   18f04:	04040663          	beqz	s0,18f50 <__multf3+0x23c>
   18f08:	00040513          	mv	a0,s0
   18f0c:	510010ef          	jal	ra,1a41c <__clzdi2>
   18f10:	0005071b          	sext.w	a4,a0
   18f14:	ff170793          	addi	a5,a4,-15
   18f18:	03c00613          	li	a2,60
   18f1c:	0007869b          	sext.w	a3,a5
   18f20:	04f64063          	blt	a2,a5,18f60 <__multf3+0x24c>
   18f24:	03d00613          	li	a2,61
   18f28:	0036879b          	addiw	a5,a3,3
   18f2c:	40d606bb          	subw	a3,a2,a3
   18f30:	00f41433          	sll	s0,s0,a5
   18f34:	00dcd6b3          	srl	a3,s9,a3
   18f38:	0086e433          	or	s0,a3,s0
   18f3c:	00fc97b3          	sll	a5,s9,a5
   18f40:	ffffc537          	lui	a0,0xffffc
   18f44:	01150513          	addi	a0,a0,17 # ffffffffffffc011 <__BSS_END__+0xfffffffffffde361>
   18f48:	40e50533          	sub	a0,a0,a4
   18f4c:	f4dff06f          	j	18e98 <__multf3+0x184>
   18f50:	000c8513          	mv	a0,s9
   18f54:	4c8010ef          	jal	ra,1a41c <__clzdi2>
   18f58:	0405071b          	addiw	a4,a0,64
   18f5c:	fb9ff06f          	j	18f14 <__multf3+0x200>
   18f60:	fc36869b          	addiw	a3,a3,-61
   18f64:	00dc9433          	sll	s0,s9,a3
   18f68:	00000793          	li	a5,0
   18f6c:	fd5ff06f          	j	18f40 <__multf3+0x22c>
   18f70:	008ce733          	or	a4,s9,s0
   18f74:	02070863          	beqz	a4,18fa4 <__multf3+0x290>
   18f78:	02f45713          	srli	a4,s0,0x2f
   18f7c:	00177713          	andi	a4,a4,1
   18f80:	02071a63          	bnez	a4,18fb4 <__multf3+0x2a0>
   18f84:	00300713          	li	a4,3
   18f88:	01000493          	li	s1,16
   18f8c:	f11ff06f          	j	18e9c <__multf3+0x188>
   18f90:	00000413          	li	s0,0
   18f94:	00000793          	li	a5,0
   18f98:	00000513          	li	a0,0
   18f9c:	00100713          	li	a4,1
   18fa0:	efdff06f          	j	18e9c <__multf3+0x188>
   18fa4:	00000413          	li	s0,0
   18fa8:	00000793          	li	a5,0
   18fac:	00200713          	li	a4,2
   18fb0:	eedff06f          	j	18e9c <__multf3+0x188>
   18fb4:	00300713          	li	a4,3
   18fb8:	ee5ff06f          	j	18e9c <__multf3+0x188>
   18fbc:	00100413          	li	s0,1
   18fc0:	00008737          	lui	a4,0x8
   18fc4:	02f41413          	slli	s0,s0,0x2f
   18fc8:	00000513          	li	a0,0
   18fcc:	fff70713          	addi	a4,a4,-1 # 7fff <exit-0x8121>
   18fd0:	00000613          	li	a2,0
   18fd4:	01000493          	li	s1,16
   18fd8:	03171713          	slli	a4,a4,0x31
   18fdc:	03175713          	srli	a4,a4,0x31
   18fe0:	00f61613          	slli	a2,a2,0xf
   18fe4:	01041413          	slli	s0,s0,0x10
   18fe8:	00e66733          	or	a4,a2,a4
   18fec:	03071713          	slli	a4,a4,0x30
   18ff0:	01045593          	srli	a1,s0,0x10
   18ff4:	00e5e5b3          	or	a1,a1,a4
   18ff8:	00048463          	beqz	s1,19000 <__multf3+0x2ec>
   18ffc:	0014a073          	csrs	fflags,s1
   19000:	05813083          	ld	ra,88(sp)
   19004:	05013403          	ld	s0,80(sp)
   19008:	04813483          	ld	s1,72(sp)
   1900c:	04013903          	ld	s2,64(sp)
   19010:	03813983          	ld	s3,56(sp)
   19014:	03013a03          	ld	s4,48(sp)
   19018:	02813a83          	ld	s5,40(sp)
   1901c:	02013b03          	ld	s6,32(sp)
   19020:	01813b83          	ld	s7,24(sp)
   19024:	01013c03          	ld	s8,16(sp)
   19028:	00813c83          	ld	s9,8(sp)
   1902c:	06010113          	addi	sp,sp,96
   19030:	00008067          	ret
   19034:	fff00513          	li	a0,-1
   19038:	02055513          	srli	a0,a0,0x20
   1903c:	014983b3          	add	t2,s3,s4
   19040:	00878f33          	add	t5,a5,s0
   19044:	020a5e93          	srli	t4,s4,0x20
   19048:	0207d693          	srli	a3,a5,0x20
   1904c:	0143bfb3          	sltu	t6,t2,s4
   19050:	00ff32b3          	sltu	t0,t5,a5
   19054:	00aa7a33          	and	s4,s4,a0
   19058:	00a7f7b3          	and	a5,a5,a0
   1905c:	03478533          	mul	a0,a5,s4
   19060:	000f8e13          	mv	t3,t6
   19064:	00028313          	mv	t1,t0
   19068:	02fe87b3          	mul	a5,t4,a5
   1906c:	02de8733          	mul	a4,t4,a3
   19070:	034686b3          	mul	a3,a3,s4
   19074:	02055a13          	srli	s4,a0,0x20
   19078:	00f686b3          	add	a3,a3,a5
   1907c:	00da0a33          	add	s4,s4,a3
   19080:	00fa7863          	bgeu	s4,a5,19090 <__multf3+0x37c>
   19084:	00100793          	li	a5,1
   19088:	02079793          	slli	a5,a5,0x20
   1908c:	00f70733          	add	a4,a4,a5
   19090:	fff00693          	li	a3,-1
   19094:	0206d693          	srli	a3,a3,0x20
   19098:	00da75b3          	and	a1,s4,a3
   1909c:	00d57533          	and	a0,a0,a3
   190a0:	02059593          	slli	a1,a1,0x20
   190a4:	0203d893          	srli	a7,t2,0x20
   190a8:	020f5793          	srli	a5,t5,0x20
   190ac:	020a5e93          	srli	t4,s4,0x20
   190b0:	00a585b3          	add	a1,a1,a0
   190b4:	00d3f533          	and	a0,t2,a3
   190b8:	00df76b3          	and	a3,t5,a3
   190bc:	02f88b33          	mul	s6,a7,a5
   190c0:	00ee8eb3          	add	t4,t4,a4
   190c4:	02a787b3          	mul	a5,a5,a0
   190c8:	02a68733          	mul	a4,a3,a0
   190cc:	02d886b3          	mul	a3,a7,a3
   190d0:	00d78533          	add	a0,a5,a3
   190d4:	02075793          	srli	a5,a4,0x20
   190d8:	00a787b3          	add	a5,a5,a0
   190dc:	00d7f863          	bgeu	a5,a3,190ec <__multf3+0x3d8>
   190e0:	00100693          	li	a3,1
   190e4:	02069693          	slli	a3,a3,0x20
   190e8:	00db0b33          	add	s6,s6,a3
   190ec:	fff00893          	li	a7,-1
   190f0:	0208d893          	srli	a7,a7,0x20
   190f4:	0117f6b3          	and	a3,a5,a7
   190f8:	02045b93          	srli	s7,s0,0x20
   190fc:	01177533          	and	a0,a4,a7
   19100:	0207da13          	srli	s4,a5,0x20
   19104:	0209d793          	srli	a5,s3,0x20
   19108:	0119f9b3          	and	s3,s3,a7
   1910c:	011478b3          	and	a7,s0,a7
   19110:	03198433          	mul	s0,s3,a7
   19114:	02069693          	slli	a3,a3,0x20
   19118:	00a68533          	add	a0,a3,a0
   1911c:	031788b3          	mul	a7,a5,a7
   19120:	037787b3          	mul	a5,a5,s7
   19124:	033b8bb3          	mul	s7,s7,s3
   19128:	02045993          	srli	s3,s0,0x20
   1912c:	011b8bb3          	add	s7,s7,a7
   19130:	017989b3          	add	s3,s3,s7
   19134:	0119f863          	bgeu	s3,a7,19144 <__multf3+0x430>
   19138:	00100713          	li	a4,1
   1913c:	02071713          	slli	a4,a4,0x20
   19140:	00e787b3          	add	a5,a5,a4
   19144:	0209d693          	srli	a3,s3,0x20
   19148:	00f687b3          	add	a5,a3,a5
   1914c:	fff00693          	li	a3,-1
   19150:	0206d693          	srli	a3,a3,0x20
   19154:	00d9f733          	and	a4,s3,a3
   19158:	00d47433          	and	s0,s0,a3
   1915c:	01d506b3          	add	a3,a0,t4
   19160:	01d6b533          	sltu	a0,a3,t4
   19164:	00aa08b3          	add	a7,s4,a0
   19168:	40600333          	neg	t1,t1
   1916c:	016888b3          	add	a7,a7,s6
   19170:	007373b3          	and	t2,t1,t2
   19174:	41c00e33          	neg	t3,t3
   19178:	011383b3          	add	t2,t2,a7
   1917c:	01ee7f33          	and	t5,t3,t5
   19180:	00a8b533          	sltu	a0,a7,a0
   19184:	005fffb3          	and	t6,t6,t0
   19188:	007f0f33          	add	t5,t5,t2
   1918c:	0113b8b3          	sltu	a7,t2,a7
   19190:	01f50533          	add	a0,a0,t6
   19194:	40b68333          	sub	t1,a3,a1
   19198:	01150533          	add	a0,a0,a7
   1919c:	0066be33          	sltu	t3,a3,t1
   191a0:	41df08b3          	sub	a7,t5,t4
   191a4:	02071713          	slli	a4,a4,0x20
   191a8:	007f33b3          	sltu	t2,t5,t2
   191ac:	011f3fb3          	sltu	t6,t5,a7
   191b0:	00870733          	add	a4,a4,s0
   191b4:	41c888b3          	sub	a7,a7,t3
   191b8:	00750533          	add	a0,a0,t2
   191bc:	00000e13          	li	t3,0
   191c0:	0066f663          	bgeu	a3,t1,191cc <__multf3+0x4b8>
   191c4:	41ee8f33          	sub	t5,t4,t5
   191c8:	001f3e13          	seqz	t3,t5
   191cc:	01fe6f33          	or	t5,t3,t6
   191d0:	40e30e33          	sub	t3,t1,a4
   191d4:	40f886b3          	sub	a3,a7,a5
   191d8:	00f50533          	add	a0,a0,a5
   191dc:	01c337b3          	sltu	a5,t1,t3
   191e0:	00d8b8b3          	sltu	a7,a7,a3
   191e4:	40f707b3          	sub	a5,a4,a5
   191e8:	00000e93          	li	t4,0
   191ec:	01c37463          	bgeu	t1,t3,191f4 <__multf3+0x4e0>
   191f0:	0016be93          	seqz	t4,a3
   191f4:	00f686b3          	add	a3,a3,a5
   191f8:	00e6b733          	sltu	a4,a3,a4
   191fc:	00a70733          	add	a4,a4,a0
   19200:	41e70733          	sub	a4,a4,t5
   19204:	011ee8b3          	or	a7,t4,a7
   19208:	41170733          	sub	a4,a4,a7
   1920c:	00de1793          	slli	a5,t3,0xd
   19210:	00d71713          	slli	a4,a4,0xd
   19214:	0336d413          	srli	s0,a3,0x33
   19218:	00b7e7b3          	or	a5,a5,a1
   1921c:	00876433          	or	s0,a4,s0
   19220:	00f037b3          	snez	a5,a5
   19224:	033e5513          	srli	a0,t3,0x33
   19228:	03475713          	srli	a4,a4,0x34
   1922c:	00a7e7b3          	or	a5,a5,a0
   19230:	00d69693          	slli	a3,a3,0xd
   19234:	00177713          	andi	a4,a4,1
   19238:	00d7e7b3          	or	a5,a5,a3
   1923c:	0a070463          	beqz	a4,192e4 <__multf3+0x5d0>
   19240:	0017d713          	srli	a4,a5,0x1
   19244:	0017f793          	andi	a5,a5,1
   19248:	03f41513          	slli	a0,s0,0x3f
   1924c:	00f767b3          	or	a5,a4,a5
   19250:	00a7e7b3          	or	a5,a5,a0
   19254:	00145413          	srli	s0,s0,0x1
   19258:	00004737          	lui	a4,0x4
   1925c:	fff70713          	addi	a4,a4,-1 # 3fff <exit-0xc121>
   19260:	00e80733          	add	a4,a6,a4
   19264:	12e05263          	blez	a4,19388 <__multf3+0x674>
   19268:	0077f693          	andi	a3,a5,7
   1926c:	08068863          	beqz	a3,192fc <__multf3+0x5e8>
   19270:	00200693          	li	a3,2
   19274:	0014e493          	ori	s1,s1,1
   19278:	08d90063          	beq	s2,a3,192f8 <__multf3+0x5e4>
   1927c:	00300693          	li	a3,3
   19280:	06d90663          	beq	s2,a3,192ec <__multf3+0x5d8>
   19284:	06091c63          	bnez	s2,192fc <__multf3+0x5e8>
   19288:	00f7f693          	andi	a3,a5,15
   1928c:	00400593          	li	a1,4
   19290:	06b68663          	beq	a3,a1,192fc <__multf3+0x5e8>
   19294:	00478693          	addi	a3,a5,4
   19298:	00f6b7b3          	sltu	a5,a3,a5
   1929c:	00f40433          	add	s0,s0,a5
   192a0:	00068793          	mv	a5,a3
   192a4:	0580006f          	j	192fc <__multf3+0x5e8>
   192a8:	000b8613          	mv	a2,s7
   192ac:	00098413          	mv	s0,s3
   192b0:	000a0793          	mv	a5,s4
   192b4:	000c0713          	mv	a4,s8
   192b8:	00200693          	li	a3,2
   192bc:	2ad70063          	beq	a4,a3,1955c <__multf3+0x848>
   192c0:	00300693          	li	a3,3
   192c4:	2ad70663          	beq	a4,a3,19570 <__multf3+0x85c>
   192c8:	00100693          	li	a3,1
   192cc:	f8d716e3          	bne	a4,a3,19258 <__multf3+0x544>
   192d0:	00000413          	li	s0,0
   192d4:	00000513          	li	a0,0
   192d8:	2600006f          	j	19538 <__multf3+0x824>
   192dc:	000b0613          	mv	a2,s6
   192e0:	fd9ff06f          	j	192b8 <__multf3+0x5a4>
   192e4:	000a8813          	mv	a6,s5
   192e8:	f71ff06f          	j	19258 <__multf3+0x544>
   192ec:	00061863          	bnez	a2,192fc <__multf3+0x5e8>
   192f0:	00878693          	addi	a3,a5,8
   192f4:	fa5ff06f          	j	19298 <__multf3+0x584>
   192f8:	fe061ce3          	bnez	a2,192f0 <__multf3+0x5dc>
   192fc:	03445693          	srli	a3,s0,0x34
   19300:	0016f693          	andi	a3,a3,1
   19304:	00068e63          	beqz	a3,19320 <__multf3+0x60c>
   19308:	fff00713          	li	a4,-1
   1930c:	03471713          	slli	a4,a4,0x34
   19310:	fff70713          	addi	a4,a4,-1
   19314:	00e47433          	and	s0,s0,a4
   19318:	00004737          	lui	a4,0x4
   1931c:	00e80733          	add	a4,a6,a4
   19320:	000086b7          	lui	a3,0x8
   19324:	ffe68593          	addi	a1,a3,-2 # 7ffe <exit-0x8122>
   19328:	00e5cc63          	blt	a1,a4,19340 <__multf3+0x62c>
   1932c:	03d41513          	slli	a0,s0,0x3d
   19330:	0037d793          	srli	a5,a5,0x3
   19334:	00f56533          	or	a0,a0,a5
   19338:	00345413          	srli	s0,s0,0x3
   1933c:	c9dff06f          	j	18fd8 <__multf3+0x2c4>
   19340:	00200793          	li	a5,2
   19344:	02f90a63          	beq	s2,a5,19378 <__multf3+0x664>
   19348:	00300793          	li	a5,3
   1934c:	fff68713          	addi	a4,a3,-1
   19350:	00f90863          	beq	s2,a5,19360 <__multf3+0x64c>
   19354:	00091863          	bnez	s2,19364 <__multf3+0x650>
   19358:	00000513          	li	a0,0
   1935c:	0100006f          	j	1936c <__multf3+0x658>
   19360:	fe060ce3          	beqz	a2,19358 <__multf3+0x644>
   19364:	fff00513          	li	a0,-1
   19368:	00058713          	mv	a4,a1
   1936c:	0054e493          	ori	s1,s1,5
   19370:	00050413          	mv	s0,a0
   19374:	c65ff06f          	j	18fd8 <__multf3+0x2c4>
   19378:	fe0606e3          	beqz	a2,19364 <__multf3+0x650>
   1937c:	00000513          	li	a0,0
   19380:	fff68713          	addi	a4,a3,-1
   19384:	fe9ff06f          	j	1936c <__multf3+0x658>
   19388:	00100693          	li	a3,1
   1938c:	06071463          	bnez	a4,193f4 <__multf3+0x6e0>
   19390:	0077f593          	andi	a1,a5,7
   19394:	00040693          	mv	a3,s0
   19398:	04058863          	beqz	a1,193e8 <__multf3+0x6d4>
   1939c:	00200593          	li	a1,2
   193a0:	0014e493          	ori	s1,s1,1
   193a4:	04b90063          	beq	s2,a1,193e4 <__multf3+0x6d0>
   193a8:	00300593          	li	a1,3
   193ac:	02b90663          	beq	s2,a1,193d8 <__multf3+0x6c4>
   193b0:	02091c63          	bnez	s2,193e8 <__multf3+0x6d4>
   193b4:	00f7f593          	andi	a1,a5,15
   193b8:	00400513          	li	a0,4
   193bc:	02a58663          	beq	a1,a0,193e8 <__multf3+0x6d4>
   193c0:	ffc7b693          	sltiu	a3,a5,-4
   193c4:	0016c693          	xori	a3,a3,1
   193c8:	02069693          	slli	a3,a3,0x20
   193cc:	0206d693          	srli	a3,a3,0x20
   193d0:	008686b3          	add	a3,a3,s0
   193d4:	0140006f          	j	193e8 <__multf3+0x6d4>
   193d8:	00061863          	bnez	a2,193e8 <__multf3+0x6d4>
   193dc:	ff87b693          	sltiu	a3,a5,-8
   193e0:	fe5ff06f          	j	193c4 <__multf3+0x6b0>
   193e4:	fe061ce3          	bnez	a2,193dc <__multf3+0x6c8>
   193e8:	0346d693          	srli	a3,a3,0x34
   193ec:	0016c693          	xori	a3,a3,1
   193f0:	0016f693          	andi	a3,a3,1
   193f4:	00100813          	li	a6,1
   193f8:	40e80833          	sub	a6,a6,a4
   193fc:	07400713          	li	a4,116
   19400:	11074263          	blt	a4,a6,19504 <__multf3+0x7f0>
   19404:	03f00593          	li	a1,63
   19408:	0008071b          	sext.w	a4,a6
   1940c:	0705c463          	blt	a1,a6,19474 <__multf3+0x760>
   19410:	04000593          	li	a1,64
   19414:	40e585bb          	subw	a1,a1,a4
   19418:	00b41533          	sll	a0,s0,a1
   1941c:	00e7d833          	srl	a6,a5,a4
   19420:	00b797b3          	sll	a5,a5,a1
   19424:	01056533          	or	a0,a0,a6
   19428:	00f037b3          	snez	a5,a5
   1942c:	00f56533          	or	a0,a0,a5
   19430:	00e45433          	srl	s0,s0,a4
   19434:	00757793          	andi	a5,a0,7
   19438:	08078063          	beqz	a5,194b8 <__multf3+0x7a4>
   1943c:	00200793          	li	a5,2
   19440:	0014e493          	ori	s1,s1,1
   19444:	06f90863          	beq	s2,a5,194b4 <__multf3+0x7a0>
   19448:	00300793          	li	a5,3
   1944c:	04f90e63          	beq	s2,a5,194a8 <__multf3+0x794>
   19450:	06091463          	bnez	s2,194b8 <__multf3+0x7a4>
   19454:	00f57793          	andi	a5,a0,15
   19458:	00400713          	li	a4,4
   1945c:	04e78e63          	beq	a5,a4,194b8 <__multf3+0x7a4>
   19460:	00450793          	addi	a5,a0,4
   19464:	00a7b533          	sltu	a0,a5,a0
   19468:	00a40433          	add	s0,s0,a0
   1946c:	00078513          	mv	a0,a5
   19470:	0480006f          	j	194b8 <__multf3+0x7a4>
   19474:	fc07051b          	addiw	a0,a4,-64
   19478:	04000893          	li	a7,64
   1947c:	00a45533          	srl	a0,s0,a0
   19480:	00000593          	li	a1,0
   19484:	01180863          	beq	a6,a7,19494 <__multf3+0x780>
   19488:	08000593          	li	a1,128
   1948c:	40e5873b          	subw	a4,a1,a4
   19490:	00e415b3          	sll	a1,s0,a4
   19494:	00f5e7b3          	or	a5,a1,a5
   19498:	00f037b3          	snez	a5,a5
   1949c:	00f56533          	or	a0,a0,a5
   194a0:	00000413          	li	s0,0
   194a4:	f91ff06f          	j	19434 <__multf3+0x720>
   194a8:	00061863          	bnez	a2,194b8 <__multf3+0x7a4>
   194ac:	00850793          	addi	a5,a0,8
   194b0:	fb5ff06f          	j	19464 <__multf3+0x750>
   194b4:	fe061ce3          	bnez	a2,194ac <__multf3+0x798>
   194b8:	03345793          	srli	a5,s0,0x33
   194bc:	0017f793          	andi	a5,a5,1
   194c0:	02078063          	beqz	a5,194e0 <__multf3+0x7cc>
   194c4:	0014e493          	ori	s1,s1,1
   194c8:	00000413          	li	s0,0
   194cc:	00000513          	li	a0,0
   194d0:	00100713          	li	a4,1
   194d4:	b00682e3          	beqz	a3,18fd8 <__multf3+0x2c4>
   194d8:	0024e493          	ori	s1,s1,2
   194dc:	afdff06f          	j	18fd8 <__multf3+0x2c4>
   194e0:	03d41793          	slli	a5,s0,0x3d
   194e4:	00355513          	srli	a0,a0,0x3
   194e8:	00a7e533          	or	a0,a5,a0
   194ec:	00345413          	srli	s0,s0,0x3
   194f0:	00000713          	li	a4,0
   194f4:	ae0682e3          	beqz	a3,18fd8 <__multf3+0x2c4>
   194f8:	0014f793          	andi	a5,s1,1
   194fc:	ac078ee3          	beqz	a5,18fd8 <__multf3+0x2c4>
   19500:	fd9ff06f          	j	194d8 <__multf3+0x7c4>
   19504:	0087e533          	or	a0,a5,s0
   19508:	02050463          	beqz	a0,19530 <__multf3+0x81c>
   1950c:	00200793          	li	a5,2
   19510:	0014e493          	ori	s1,s1,1
   19514:	02f90e63          	beq	s2,a5,19550 <__multf3+0x83c>
   19518:	00300793          	li	a5,3
   1951c:	02f90263          	beq	s2,a5,19540 <__multf3+0x82c>
   19520:	00100793          	li	a5,1
   19524:	00091463          	bnez	s2,1952c <__multf3+0x818>
   19528:	00500793          	li	a5,5
   1952c:	0037d513          	srli	a0,a5,0x3
   19530:	0024e493          	ori	s1,s1,2
   19534:	00000413          	li	s0,0
   19538:	00000713          	li	a4,0
   1953c:	a9dff06f          	j	18fd8 <__multf3+0x2c4>
   19540:	00900793          	li	a5,9
   19544:	fe0604e3          	beqz	a2,1952c <__multf3+0x818>
   19548:	00100793          	li	a5,1
   1954c:	fe1ff06f          	j	1952c <__multf3+0x818>
   19550:	00900793          	li	a5,9
   19554:	fc061ce3          	bnez	a2,1952c <__multf3+0x818>
   19558:	ff1ff06f          	j	19548 <__multf3+0x834>
   1955c:	00008737          	lui	a4,0x8
   19560:	00000413          	li	s0,0
   19564:	00000513          	li	a0,0
   19568:	fff70713          	addi	a4,a4,-1 # 7fff <exit-0x8121>
   1956c:	a6dff06f          	j	18fd8 <__multf3+0x2c4>
   19570:	00100413          	li	s0,1
   19574:	00008737          	lui	a4,0x8
   19578:	02f41413          	slli	s0,s0,0x2f
   1957c:	00000513          	li	a0,0
   19580:	fff70713          	addi	a4,a4,-1 # 7fff <exit-0x8121>
   19584:	00000613          	li	a2,0
   19588:	a51ff06f          	j	18fd8 <__multf3+0x2c4>

000000000001958c <__subtf3>:
   1958c:	fd010113          	addi	sp,sp,-48
   19590:	02113423          	sd	ra,40(sp)
   19594:	02813023          	sd	s0,32(sp)
   19598:	00913c23          	sd	s1,24(sp)
   1959c:	01213823          	sd	s2,16(sp)
   195a0:	01313423          	sd	s3,8(sp)
   195a4:	01413023          	sd	s4,0(sp)
   195a8:	00202473          	frrm	s0
   195ac:	fff00713          	li	a4,-1
   195b0:	01075713          	srli	a4,a4,0x10
   195b4:	00008837          	lui	a6,0x8
   195b8:	0305d893          	srli	a7,a1,0x30
   195bc:	fff80813          	addi	a6,a6,-1 # 7fff <exit-0x8121>
   195c0:	0306de93          	srli	t4,a3,0x30
   195c4:	03f5d493          	srli	s1,a1,0x3f
   195c8:	03f6d313          	srli	t1,a3,0x3f
   195cc:	00e5f5b3          	and	a1,a1,a4
   195d0:	00e6f6b3          	and	a3,a3,a4
   195d4:	00359593          	slli	a1,a1,0x3
   195d8:	03d55793          	srli	a5,a0,0x3d
   195dc:	03d65713          	srli	a4,a2,0x3d
   195e0:	0108f8b3          	and	a7,a7,a6
   195e4:	010efeb3          	and	t4,t4,a6
   195e8:	00369693          	slli	a3,a3,0x3
   195ec:	00b7e7b3          	or	a5,a5,a1
   195f0:	0004041b          	sext.w	s0,s0
   195f4:	00088993          	mv	s3,a7
   195f8:	00351513          	slli	a0,a0,0x3
   195fc:	000e8593          	mv	a1,t4
   19600:	00d76733          	or	a4,a4,a3
   19604:	00361613          	slli	a2,a2,0x3
   19608:	010e9663          	bne	t4,a6,19614 <__subtf3+0x88>
   1960c:	00c766b3          	or	a3,a4,a2
   19610:	00069463          	bnez	a3,19618 <__subtf3+0x8c>
   19614:	00134313          	xori	t1,t1,1
   19618:	41d886bb          	subw	a3,a7,t4
   1961c:	00008e37          	lui	t3,0x8
   19620:	0006881b          	sext.w	a6,a3
   19624:	fffe0f13          	addi	t5,t3,-1 # 7fff <exit-0x8121>
   19628:	4c931663          	bne	t1,s1,19af4 <__subtf3+0x568>
   1962c:	13005c63          	blez	a6,19764 <__subtf3+0x1d8>
   19630:	0a0e9663          	bnez	t4,196dc <__subtf3+0x150>
   19634:	00c765b3          	or	a1,a4,a2
   19638:	00059a63          	bnez	a1,1964c <__subtf3+0xc0>
   1963c:	09e88063          	beq	a7,t5,196bc <__subtf3+0x130>
   19640:	00078713          	mv	a4,a5
   19644:	00088593          	mv	a1,a7
   19648:	1010006f          	j	19f48 <__subtf3+0x9bc>
   1964c:	fff6881b          	addiw	a6,a3,-1
   19650:	06081463          	bnez	a6,196b8 <__subtf3+0x12c>
   19654:	00a60633          	add	a2,a2,a0
   19658:	00a63533          	sltu	a0,a2,a0
   1965c:	00f70733          	add	a4,a4,a5
   19660:	00a70733          	add	a4,a4,a0
   19664:	00088593          	mv	a1,a7
   19668:	00060513          	mv	a0,a2
   1966c:	03375793          	srli	a5,a4,0x33
   19670:	0017f793          	andi	a5,a5,1
   19674:	0c078ae3          	beqz	a5,19f48 <__subtf3+0x9bc>
   19678:	000086b7          	lui	a3,0x8
   1967c:	00158593          	addi	a1,a1,1
   19680:	fff68793          	addi	a5,a3,-1 # 7fff <exit-0x8121>
   19684:	42f58e63          	beq	a1,a5,19ac0 <__subtf3+0x534>
   19688:	fff00793          	li	a5,-1
   1968c:	03379793          	slli	a5,a5,0x33
   19690:	fff78793          	addi	a5,a5,-1
   19694:	00f777b3          	and	a5,a4,a5
   19698:	00155713          	srli	a4,a0,0x1
   1969c:	00157513          	andi	a0,a0,1
   196a0:	00a76533          	or	a0,a4,a0
   196a4:	03f79713          	slli	a4,a5,0x3f
   196a8:	00a76533          	or	a0,a4,a0
   196ac:	0017d793          	srli	a5,a5,0x1
   196b0:	00000813          	li	a6,0
   196b4:	3900006f          	j	19a44 <__subtf3+0x4b8>
   196b8:	03e89a63          	bne	a7,t5,196ec <__subtf3+0x160>
   196bc:	00a7e733          	or	a4,a5,a0
   196c0:	100704e3          	beqz	a4,19fc8 <__subtf3+0xa3c>
   196c4:	0327d713          	srli	a4,a5,0x32
   196c8:	00177713          	andi	a4,a4,1
   196cc:	00088593          	mv	a1,a7
   196d0:	00000813          	li	a6,0
   196d4:	36071863          	bnez	a4,19a44 <__subtf3+0x4b8>
   196d8:	0c00006f          	j	19798 <__subtf3+0x20c>
   196dc:	ffe880e3          	beq	a7,t5,196bc <__subtf3+0x130>
   196e0:	00100693          	li	a3,1
   196e4:	03369693          	slli	a3,a3,0x33
   196e8:	00d76733          	or	a4,a4,a3
   196ec:	07400693          	li	a3,116
   196f0:	0706c463          	blt	a3,a6,19758 <__subtf3+0x1cc>
   196f4:	03f00693          	li	a3,63
   196f8:	0306c663          	blt	a3,a6,19724 <__subtf3+0x198>
   196fc:	04000593          	li	a1,64
   19700:	410585bb          	subw	a1,a1,a6
   19704:	00b716b3          	sll	a3,a4,a1
   19708:	01065333          	srl	t1,a2,a6
   1970c:	00b61633          	sll	a2,a2,a1
   19710:	0066e6b3          	or	a3,a3,t1
   19714:	00c03633          	snez	a2,a2
   19718:	00c6e633          	or	a2,a3,a2
   1971c:	01075733          	srl	a4,a4,a6
   19720:	f35ff06f          	j	19654 <__subtf3+0xc8>
   19724:	fc08069b          	addiw	a3,a6,-64
   19728:	04000313          	li	t1,64
   1972c:	00d756b3          	srl	a3,a4,a3
   19730:	00000593          	li	a1,0
   19734:	00680863          	beq	a6,t1,19744 <__subtf3+0x1b8>
   19738:	08000593          	li	a1,128
   1973c:	410585bb          	subw	a1,a1,a6
   19740:	00b715b3          	sll	a1,a4,a1
   19744:	00c5e633          	or	a2,a1,a2
   19748:	00c03633          	snez	a2,a2
   1974c:	00c6e633          	or	a2,a3,a2
   19750:	00000713          	li	a4,0
   19754:	f01ff06f          	j	19654 <__subtf3+0xc8>
   19758:	00c76633          	or	a2,a4,a2
   1975c:	00c03633          	snez	a2,a2
   19760:	ff1ff06f          	j	19750 <__subtf3+0x1c4>
   19764:	12080063          	beqz	a6,19884 <__subtf3+0x2f8>
   19768:	08089063          	bnez	a7,197e8 <__subtf3+0x25c>
   1976c:	00a7e833          	or	a6,a5,a0
   19770:	02081863          	bnez	a6,197a0 <__subtf3+0x214>
   19774:	00060513          	mv	a0,a2
   19778:	7dee9863          	bne	t4,t5,19f48 <__subtf3+0x9bc>
   1977c:	00c76533          	or	a0,a4,a2
   19780:	020508e3          	beqz	a0,19fb0 <__subtf3+0xa24>
   19784:	03275793          	srli	a5,a4,0x32
   19788:	0017f793          	andi	a5,a5,1
   1978c:	020798e3          	bnez	a5,19fbc <__subtf3+0xa30>
   19790:	00070793          	mv	a5,a4
   19794:	00060513          	mv	a0,a2
   19798:	01000693          	li	a3,16
   1979c:	1440006f          	j	198e0 <__subtf3+0x354>
   197a0:	fff6c693          	not	a3,a3
   197a4:	0006869b          	sext.w	a3,a3
   197a8:	00069c63          	bnez	a3,197c0 <__subtf3+0x234>
   197ac:	00c50533          	add	a0,a0,a2
   197b0:	00e78733          	add	a4,a5,a4
   197b4:	00c53633          	sltu	a2,a0,a2
   197b8:	00c70733          	add	a4,a4,a2
   197bc:	eb1ff06f          	j	1966c <__subtf3+0xe0>
   197c0:	03ee9e63          	bne	t4,t5,197fc <__subtf3+0x270>
   197c4:	00c76533          	or	a0,a4,a2
   197c8:	7e050463          	beqz	a0,19fb0 <__subtf3+0xa24>
   197cc:	03275793          	srli	a5,a4,0x32
   197d0:	0017f793          	andi	a5,a5,1
   197d4:	7e079463          	bnez	a5,19fbc <__subtf3+0xa30>
   197d8:	00070793          	mv	a5,a4
   197dc:	00060513          	mv	a0,a2
   197e0:	00000813          	li	a6,0
   197e4:	fb5ff06f          	j	19798 <__subtf3+0x20c>
   197e8:	fdee8ee3          	beq	t4,t5,197c4 <__subtf3+0x238>
   197ec:	00100813          	li	a6,1
   197f0:	03381813          	slli	a6,a6,0x33
   197f4:	40d006bb          	negw	a3,a3
   197f8:	0107e7b3          	or	a5,a5,a6
   197fc:	07400813          	li	a6,116
   19800:	06d84c63          	blt	a6,a3,19878 <__subtf3+0x2ec>
   19804:	03f00813          	li	a6,63
   19808:	02d84e63          	blt	a6,a3,19844 <__subtf3+0x2b8>
   1980c:	04000893          	li	a7,64
   19810:	40d888bb          	subw	a7,a7,a3
   19814:	00d55333          	srl	t1,a0,a3
   19818:	01179833          	sll	a6,a5,a7
   1981c:	01151533          	sll	a0,a0,a7
   19820:	00686833          	or	a6,a6,t1
   19824:	00a03533          	snez	a0,a0
   19828:	00a86533          	or	a0,a6,a0
   1982c:	00d7d6b3          	srl	a3,a5,a3
   19830:	00c50533          	add	a0,a0,a2
   19834:	00e686b3          	add	a3,a3,a4
   19838:	00c53633          	sltu	a2,a0,a2
   1983c:	00c68733          	add	a4,a3,a2
   19840:	e2dff06f          	j	1966c <__subtf3+0xe0>
   19844:	fc06881b          	addiw	a6,a3,-64
   19848:	04000313          	li	t1,64
   1984c:	0107d833          	srl	a6,a5,a6
   19850:	00000893          	li	a7,0
   19854:	00668863          	beq	a3,t1,19864 <__subtf3+0x2d8>
   19858:	08000893          	li	a7,128
   1985c:	40d886bb          	subw	a3,a7,a3
   19860:	00d798b3          	sll	a7,a5,a3
   19864:	00a8e533          	or	a0,a7,a0
   19868:	00a03533          	snez	a0,a0
   1986c:	00a86533          	or	a0,a6,a0
   19870:	00000693          	li	a3,0
   19874:	fbdff06f          	j	19830 <__subtf3+0x2a4>
   19878:	00a7e533          	or	a0,a5,a0
   1987c:	00a03533          	snez	a0,a0
   19880:	ff1ff06f          	j	19870 <__subtf3+0x2e4>
   19884:	00188593          	addi	a1,a7,1
   19888:	ffee0693          	addi	a3,t3,-2
   1988c:	00d5f333          	and	t1,a1,a3
   19890:	18031863          	bnez	t1,19a20 <__subtf3+0x494>
   19894:	00a7e5b3          	or	a1,a5,a0
   19898:	06089263          	bnez	a7,198fc <__subtf3+0x370>
   1989c:	6c058263          	beqz	a1,19f60 <__subtf3+0x9d4>
   198a0:	00c766b3          	or	a3,a4,a2
   198a4:	48068263          	beqz	a3,19d28 <__subtf3+0x79c>
   198a8:	00c50633          	add	a2,a0,a2
   198ac:	00e787b3          	add	a5,a5,a4
   198b0:	00a63533          	sltu	a0,a2,a0
   198b4:	00a787b3          	add	a5,a5,a0
   198b8:	0337d713          	srli	a4,a5,0x33
   198bc:	00177713          	andi	a4,a4,1
   198c0:	6a070263          	beqz	a4,19f64 <__subtf3+0x9d8>
   198c4:	fff00713          	li	a4,-1
   198c8:	03371713          	slli	a4,a4,0x33
   198cc:	fff70713          	addi	a4,a4,-1
   198d0:	00e7f7b3          	and	a5,a5,a4
   198d4:	00060513          	mv	a0,a2
   198d8:	00000693          	li	a3,0
   198dc:	00100593          	li	a1,1
   198e0:	00757713          	andi	a4,a0,7
   198e4:	1a071263          	bnez	a4,19a88 <__subtf3+0x4fc>
   198e8:	08080663          	beqz	a6,19974 <__subtf3+0x3e8>
   198ec:	0016f713          	andi	a4,a3,1
   198f0:	08070263          	beqz	a4,19974 <__subtf3+0x3e8>
   198f4:	0026e693          	ori	a3,a3,2
   198f8:	07c0006f          	j	19974 <__subtf3+0x3e8>
   198fc:	03e89c63          	bne	a7,t5,19934 <__subtf3+0x3a8>
   19900:	78058063          	beqz	a1,1a080 <__subtf3+0xaf4>
   19904:	0327d693          	srli	a3,a5,0x32
   19908:	0016f693          	andi	a3,a3,1
   1990c:	0016b693          	seqz	a3,a3
   19910:	00469693          	slli	a3,a3,0x4
   19914:	051e9063          	bne	t4,a7,19954 <__subtf3+0x3c8>
   19918:	00c768b3          	or	a7,a4,a2
   1991c:	02088063          	beqz	a7,1993c <__subtf3+0x3b0>
   19920:	03275893          	srli	a7,a4,0x32
   19924:	0018f893          	andi	a7,a7,1
   19928:	00089a63          	bnez	a7,1993c <__subtf3+0x3b0>
   1992c:	01000693          	li	a3,16
   19930:	00c0006f          	j	1993c <__subtf3+0x3b0>
   19934:	00000693          	li	a3,0
   19938:	ffee80e3          	beq	t4,t5,19918 <__subtf3+0x38c>
   1993c:	00059c63          	bnez	a1,19954 <__subtf3+0x3c8>
   19940:	00070793          	mv	a5,a4
   19944:	00060513          	mv	a0,a2
   19948:	000085b7          	lui	a1,0x8
   1994c:	fff58593          	addi	a1,a1,-1 # 7fff <exit-0x8121>
   19950:	f91ff06f          	j	198e0 <__subtf3+0x354>
   19954:	00c76633          	or	a2,a4,a2
   19958:	fe0608e3          	beqz	a2,19948 <__subtf3+0x3bc>
   1995c:	00100793          	li	a5,1
   19960:	000085b7          	lui	a1,0x8
   19964:	00000493          	li	s1,0
   19968:	03279793          	slli	a5,a5,0x32
   1996c:	00000513          	li	a0,0
   19970:	fff58593          	addi	a1,a1,-1 # 7fff <exit-0x8121>
   19974:	0337d713          	srli	a4,a5,0x33
   19978:	00177713          	andi	a4,a4,1
   1997c:	02070263          	beqz	a4,199a0 <__subtf3+0x414>
   19980:	00008737          	lui	a4,0x8
   19984:	00158593          	addi	a1,a1,1
   19988:	fff70613          	addi	a2,a4,-1 # 7fff <exit-0x8121>
   1998c:	6ac58863          	beq	a1,a2,1a03c <__subtf3+0xab0>
   19990:	fff00713          	li	a4,-1
   19994:	03371713          	slli	a4,a4,0x33
   19998:	fff70713          	addi	a4,a4,-1
   1999c:	00e7f7b3          	and	a5,a5,a4
   199a0:	00355713          	srli	a4,a0,0x3
   199a4:	03d79513          	slli	a0,a5,0x3d
   199a8:	00e56533          	or	a0,a0,a4
   199ac:	00008737          	lui	a4,0x8
   199b0:	fff70713          	addi	a4,a4,-1 # 7fff <exit-0x8121>
   199b4:	0037d793          	srli	a5,a5,0x3
   199b8:	02e59063          	bne	a1,a4,199d8 <__subtf3+0x44c>
   199bc:	00f56533          	or	a0,a0,a5
   199c0:	00000793          	li	a5,0
   199c4:	00050a63          	beqz	a0,199d8 <__subtf3+0x44c>
   199c8:	00100793          	li	a5,1
   199cc:	02f79793          	slli	a5,a5,0x2f
   199d0:	00000513          	li	a0,0
   199d4:	00000493          	li	s1,0
   199d8:	03159593          	slli	a1,a1,0x31
   199dc:	00f4949b          	slliw	s1,s1,0xf
   199e0:	0315d593          	srli	a1,a1,0x31
   199e4:	0095e5b3          	or	a1,a1,s1
   199e8:	01079793          	slli	a5,a5,0x10
   199ec:	03059493          	slli	s1,a1,0x30
   199f0:	0107d593          	srli	a1,a5,0x10
   199f4:	0095e5b3          	or	a1,a1,s1
   199f8:	00068463          	beqz	a3,19a00 <__subtf3+0x474>
   199fc:	0016a073          	csrs	fflags,a3
   19a00:	02813083          	ld	ra,40(sp)
   19a04:	02013403          	ld	s0,32(sp)
   19a08:	01813483          	ld	s1,24(sp)
   19a0c:	01013903          	ld	s2,16(sp)
   19a10:	00813983          	ld	s3,8(sp)
   19a14:	00013a03          	ld	s4,0(sp)
   19a18:	03010113          	addi	sp,sp,48
   19a1c:	00008067          	ret
   19a20:	03e58663          	beq	a1,t5,19a4c <__subtf3+0x4c0>
   19a24:	00c50633          	add	a2,a0,a2
   19a28:	00a63533          	sltu	a0,a2,a0
   19a2c:	00e787b3          	add	a5,a5,a4
   19a30:	00a787b3          	add	a5,a5,a0
   19a34:	03f79513          	slli	a0,a5,0x3f
   19a38:	00165613          	srli	a2,a2,0x1
   19a3c:	00c56533          	or	a0,a0,a2
   19a40:	0017d793          	srli	a5,a5,0x1
   19a44:	00000693          	li	a3,0
   19a48:	e99ff06f          	j	198e0 <__subtf3+0x354>
   19a4c:	00040863          	beqz	s0,19a5c <__subtf3+0x4d0>
   19a50:	00300793          	li	a5,3
   19a54:	00f41c63          	bne	s0,a5,19a6c <__subtf3+0x4e0>
   19a58:	02049063          	bnez	s1,19a78 <__subtf3+0x4ec>
   19a5c:	00000793          	li	a5,0
   19a60:	00000513          	li	a0,0
   19a64:	00500693          	li	a3,5
   19a68:	f0dff06f          	j	19974 <__subtf3+0x3e8>
   19a6c:	00200793          	li	a5,2
   19a70:	00f41463          	bne	s0,a5,19a78 <__subtf3+0x4ec>
   19a74:	fe0494e3          	bnez	s1,19a5c <__subtf3+0x4d0>
   19a78:	fff00793          	li	a5,-1
   19a7c:	fff00513          	li	a0,-1
   19a80:	00068593          	mv	a1,a3
   19a84:	00500693          	li	a3,5
   19a88:	00200713          	li	a4,2
   19a8c:	0016e693          	ori	a3,a3,1
   19a90:	5ae40063          	beq	s0,a4,1a030 <__subtf3+0xaa4>
   19a94:	00300713          	li	a4,3
   19a98:	58e40663          	beq	s0,a4,1a024 <__subtf3+0xa98>
   19a9c:	58041c63          	bnez	s0,1a034 <__subtf3+0xaa8>
   19aa0:	00f57713          	andi	a4,a0,15
   19aa4:	00400613          	li	a2,4
   19aa8:	58c70663          	beq	a4,a2,1a034 <__subtf3+0xaa8>
   19aac:	00450713          	addi	a4,a0,4
   19ab0:	00a73533          	sltu	a0,a4,a0
   19ab4:	00a787b3          	add	a5,a5,a0
   19ab8:	00070513          	mv	a0,a4
   19abc:	5780006f          	j	1a034 <__subtf3+0xaa8>
   19ac0:	f8040ee3          	beqz	s0,19a5c <__subtf3+0x4d0>
   19ac4:	00300793          	li	a5,3
   19ac8:	00f41e63          	bne	s0,a5,19ae4 <__subtf3+0x558>
   19acc:	f80488e3          	beqz	s1,19a5c <__subtf3+0x4d0>
   19ad0:	fff00793          	li	a5,-1
   19ad4:	fff00513          	li	a0,-1
   19ad8:	ffe68593          	addi	a1,a3,-2
   19adc:	00000813          	li	a6,0
   19ae0:	fa5ff06f          	j	19a84 <__subtf3+0x4f8>
   19ae4:	00200793          	li	a5,2
   19ae8:	fef414e3          	bne	s0,a5,19ad0 <__subtf3+0x544>
   19aec:	f60498e3          	bnez	s1,19a5c <__subtf3+0x4d0>
   19af0:	fe1ff06f          	j	19ad0 <__subtf3+0x544>
   19af4:	0f005063          	blez	a6,19bd4 <__subtf3+0x648>
   19af8:	080e9463          	bnez	t4,19b80 <__subtf3+0x5f4>
   19afc:	00c765b3          	or	a1,a4,a2
   19b00:	b2058ee3          	beqz	a1,1963c <__subtf3+0xb0>
   19b04:	fff6881b          	addiw	a6,a3,-1
   19b08:	02081e63          	bnez	a6,19b44 <__subtf3+0x5b8>
   19b0c:	40c50633          	sub	a2,a0,a2
   19b10:	00c53533          	sltu	a0,a0,a2
   19b14:	40e78733          	sub	a4,a5,a4
   19b18:	40a70733          	sub	a4,a4,a0
   19b1c:	00088593          	mv	a1,a7
   19b20:	00060513          	mv	a0,a2
   19b24:	03375793          	srli	a5,a4,0x33
   19b28:	0017f793          	andi	a5,a5,1
   19b2c:	40078e63          	beqz	a5,19f48 <__subtf3+0x9bc>
   19b30:	00d71713          	slli	a4,a4,0xd
   19b34:	00d75913          	srli	s2,a4,0xd
   19b38:	00050a13          	mv	s4,a0
   19b3c:	00058993          	mv	s3,a1
   19b40:	3240006f          	j	19e64 <__subtf3+0x8d8>
   19b44:	b7e88ce3          	beq	a7,t5,196bc <__subtf3+0x130>
   19b48:	07400693          	li	a3,116
   19b4c:	0706ce63          	blt	a3,a6,19bc8 <__subtf3+0x63c>
   19b50:	03f00693          	li	a3,63
   19b54:	0506c063          	blt	a3,a6,19b94 <__subtf3+0x608>
   19b58:	04000593          	li	a1,64
   19b5c:	410585bb          	subw	a1,a1,a6
   19b60:	00b716b3          	sll	a3,a4,a1
   19b64:	01065333          	srl	t1,a2,a6
   19b68:	00b61633          	sll	a2,a2,a1
   19b6c:	0066e6b3          	or	a3,a3,t1
   19b70:	00c03633          	snez	a2,a2
   19b74:	00c6e633          	or	a2,a3,a2
   19b78:	01075733          	srl	a4,a4,a6
   19b7c:	f91ff06f          	j	19b0c <__subtf3+0x580>
   19b80:	b3e88ee3          	beq	a7,t5,196bc <__subtf3+0x130>
   19b84:	00100693          	li	a3,1
   19b88:	03369693          	slli	a3,a3,0x33
   19b8c:	00d76733          	or	a4,a4,a3
   19b90:	fb9ff06f          	j	19b48 <__subtf3+0x5bc>
   19b94:	fc08069b          	addiw	a3,a6,-64
   19b98:	04000313          	li	t1,64
   19b9c:	00d756b3          	srl	a3,a4,a3
   19ba0:	00000593          	li	a1,0
   19ba4:	00680863          	beq	a6,t1,19bb4 <__subtf3+0x628>
   19ba8:	08000593          	li	a1,128
   19bac:	410585bb          	subw	a1,a1,a6
   19bb0:	00b715b3          	sll	a1,a4,a1
   19bb4:	00c5e633          	or	a2,a1,a2
   19bb8:	00c03633          	snez	a2,a2
   19bbc:	00c6e633          	or	a2,a3,a2
   19bc0:	00000713          	li	a4,0
   19bc4:	f49ff06f          	j	19b0c <__subtf3+0x580>
   19bc8:	00c76633          	or	a2,a4,a2
   19bcc:	00c03633          	snez	a2,a2
   19bd0:	ff1ff06f          	j	19bc0 <__subtf3+0x634>
   19bd4:	12080063          	beqz	a6,19cf4 <__subtf3+0x768>
   19bd8:	08089063          	bnez	a7,19c58 <__subtf3+0x6cc>
   19bdc:	00a7e833          	or	a6,a5,a0
   19be0:	02081663          	bnez	a6,19c0c <__subtf3+0x680>
   19be4:	37ee9863          	bne	t4,t5,19f54 <__subtf3+0x9c8>
   19be8:	00c76533          	or	a0,a4,a2
   19bec:	3e050663          	beqz	a0,19fd8 <__subtf3+0xa4c>
   19bf0:	03275793          	srli	a5,a4,0x32
   19bf4:	0017f793          	andi	a5,a5,1
   19bf8:	3e079663          	bnez	a5,19fe4 <__subtf3+0xa58>
   19bfc:	00070793          	mv	a5,a4
   19c00:	00060513          	mv	a0,a2
   19c04:	00030493          	mv	s1,t1
   19c08:	b91ff06f          	j	19798 <__subtf3+0x20c>
   19c0c:	fff6c693          	not	a3,a3
   19c10:	0006869b          	sext.w	a3,a3
   19c14:	00069e63          	bnez	a3,19c30 <__subtf3+0x6a4>
   19c18:	40a60533          	sub	a0,a2,a0
   19c1c:	40f70733          	sub	a4,a4,a5
   19c20:	00a63633          	sltu	a2,a2,a0
   19c24:	40c70733          	sub	a4,a4,a2
   19c28:	00030493          	mv	s1,t1
   19c2c:	ef9ff06f          	j	19b24 <__subtf3+0x598>
   19c30:	03ee9e63          	bne	t4,t5,19c6c <__subtf3+0x6e0>
   19c34:	00c76533          	or	a0,a4,a2
   19c38:	3a050063          	beqz	a0,19fd8 <__subtf3+0xa4c>
   19c3c:	03275793          	srli	a5,a4,0x32
   19c40:	0017f793          	andi	a5,a5,1
   19c44:	3a079063          	bnez	a5,19fe4 <__subtf3+0xa58>
   19c48:	00070793          	mv	a5,a4
   19c4c:	00060513          	mv	a0,a2
   19c50:	00030493          	mv	s1,t1
   19c54:	b8dff06f          	j	197e0 <__subtf3+0x254>
   19c58:	fdee8ee3          	beq	t4,t5,19c34 <__subtf3+0x6a8>
   19c5c:	00100813          	li	a6,1
   19c60:	03381813          	slli	a6,a6,0x33
   19c64:	40d006bb          	negw	a3,a3
   19c68:	0107e7b3          	or	a5,a5,a6
   19c6c:	07400813          	li	a6,116
   19c70:	06d84c63          	blt	a6,a3,19ce8 <__subtf3+0x75c>
   19c74:	03f00813          	li	a6,63
   19c78:	02d84e63          	blt	a6,a3,19cb4 <__subtf3+0x728>
   19c7c:	04000893          	li	a7,64
   19c80:	40d888bb          	subw	a7,a7,a3
   19c84:	01179833          	sll	a6,a5,a7
   19c88:	00d55e33          	srl	t3,a0,a3
   19c8c:	01151533          	sll	a0,a0,a7
   19c90:	01c86833          	or	a6,a6,t3
   19c94:	00a03533          	snez	a0,a0
   19c98:	00a86533          	or	a0,a6,a0
   19c9c:	00d7d7b3          	srl	a5,a5,a3
   19ca0:	40a60533          	sub	a0,a2,a0
   19ca4:	40f707b3          	sub	a5,a4,a5
   19ca8:	00a63633          	sltu	a2,a2,a0
   19cac:	40c78733          	sub	a4,a5,a2
   19cb0:	f79ff06f          	j	19c28 <__subtf3+0x69c>
   19cb4:	fc06881b          	addiw	a6,a3,-64
   19cb8:	04000e13          	li	t3,64
   19cbc:	0107d833          	srl	a6,a5,a6
   19cc0:	00000893          	li	a7,0
   19cc4:	01c68863          	beq	a3,t3,19cd4 <__subtf3+0x748>
   19cc8:	08000893          	li	a7,128
   19ccc:	40d886bb          	subw	a3,a7,a3
   19cd0:	00d798b3          	sll	a7,a5,a3
   19cd4:	00a8e533          	or	a0,a7,a0
   19cd8:	00a03533          	snez	a0,a0
   19cdc:	00a86533          	or	a0,a6,a0
   19ce0:	00000793          	li	a5,0
   19ce4:	fbdff06f          	j	19ca0 <__subtf3+0x714>
   19ce8:	00a7e533          	or	a0,a5,a0
   19cec:	00a03533          	snez	a0,a0
   19cf0:	ff1ff06f          	j	19ce0 <__subtf3+0x754>
   19cf4:	00188593          	addi	a1,a7,1
   19cf8:	ffee0693          	addi	a3,t3,-2
   19cfc:	00d5f6b3          	and	a3,a1,a3
   19d00:	12069a63          	bnez	a3,19e34 <__subtf3+0x8a8>
   19d04:	00a7ee33          	or	t3,a5,a0
   19d08:	00c765b3          	or	a1,a4,a2
   19d0c:	0c089663          	bnez	a7,19dd8 <__subtf3+0x84c>
   19d10:	060e1c63          	bnez	t3,19d88 <__subtf3+0x7fc>
   19d14:	24059c63          	bnez	a1,19f6c <__subtf3+0x9e0>
   19d18:	ffe40493          	addi	s1,s0,-2
   19d1c:	0014b493          	seqz	s1,s1
   19d20:	00000793          	li	a5,0
   19d24:	00000513          	li	a0,0
   19d28:	00f56733          	or	a4,a0,a5
   19d2c:	2e070463          	beqz	a4,1a014 <__subtf3+0xa88>
   19d30:	03f55713          	srli	a4,a0,0x3f
   19d34:	00179813          	slli	a6,a5,0x1
   19d38:	00e80833          	add	a6,a6,a4
   19d3c:	00151713          	slli	a4,a0,0x1
   19d40:	00777613          	andi	a2,a4,7
   19d44:	00000693          	li	a3,0
   19d48:	02060663          	beqz	a2,19d74 <__subtf3+0x7e8>
   19d4c:	00200693          	li	a3,2
   19d50:	24d40a63          	beq	s0,a3,19fa4 <__subtf3+0xa18>
   19d54:	00300693          	li	a3,3
   19d58:	22d40663          	beq	s0,a3,19f84 <__subtf3+0x9f8>
   19d5c:	00100693          	li	a3,1
   19d60:	00041a63          	bnez	s0,19d74 <__subtf3+0x7e8>
   19d64:	00f77613          	andi	a2,a4,15
   19d68:	00400593          	li	a1,4
   19d6c:	ffc73713          	sltiu	a4,a4,-4
   19d70:	22b61063          	bne	a2,a1,19f90 <__subtf3+0xa04>
   19d74:	03485813          	srli	a6,a6,0x34
   19d78:	00184813          	xori	a6,a6,1
   19d7c:	00187813          	andi	a6,a6,1
   19d80:	00000593          	li	a1,0
   19d84:	b5dff06f          	j	198e0 <__subtf3+0x354>
   19d88:	fa0580e3          	beqz	a1,19d28 <__subtf3+0x79c>
   19d8c:	40c505b3          	sub	a1,a0,a2
   19d90:	00b53833          	sltu	a6,a0,a1
   19d94:	40e786b3          	sub	a3,a5,a4
   19d98:	410686b3          	sub	a3,a3,a6
   19d9c:	0336d813          	srli	a6,a3,0x33
   19da0:	00187813          	andi	a6,a6,1
   19da4:	00080e63          	beqz	a6,19dc0 <__subtf3+0x834>
   19da8:	40a60533          	sub	a0,a2,a0
   19dac:	40f707b3          	sub	a5,a4,a5
   19db0:	00a63633          	sltu	a2,a2,a0
   19db4:	40c787b3          	sub	a5,a5,a2
   19db8:	00030493          	mv	s1,t1
   19dbc:	f6dff06f          	j	19d28 <__subtf3+0x79c>
   19dc0:	00d5e533          	or	a0,a1,a3
   19dc4:	1a051a63          	bnez	a0,19f78 <__subtf3+0x9ec>
   19dc8:	ffe40493          	addi	s1,s0,-2
   19dcc:	0014b493          	seqz	s1,s1
   19dd0:	00000793          	li	a5,0
   19dd4:	f55ff06f          	j	19d28 <__subtf3+0x79c>
   19dd8:	03e89a63          	bne	a7,t5,19e0c <__subtf3+0x880>
   19ddc:	280e0c63          	beqz	t3,1a074 <__subtf3+0xae8>
   19de0:	0327d693          	srli	a3,a5,0x32
   19de4:	0016f693          	andi	a3,a3,1
   19de8:	0016b693          	seqz	a3,a3
   19dec:	00469693          	slli	a3,a3,0x4
   19df0:	031e9e63          	bne	t4,a7,19e2c <__subtf3+0x8a0>
   19df4:	02058063          	beqz	a1,19e14 <__subtf3+0x888>
   19df8:	03275893          	srli	a7,a4,0x32
   19dfc:	0018f893          	andi	a7,a7,1
   19e00:	00089a63          	bnez	a7,19e14 <__subtf3+0x888>
   19e04:	01000693          	li	a3,16
   19e08:	00c0006f          	j	19e14 <__subtf3+0x888>
   19e0c:	00000693          	li	a3,0
   19e10:	ffee82e3          	beq	t4,t5,19df4 <__subtf3+0x868>
   19e14:	000e1c63          	bnez	t3,19e2c <__subtf3+0x8a0>
   19e18:	1c058e63          	beqz	a1,19ff4 <__subtf3+0xa68>
   19e1c:	00070793          	mv	a5,a4
   19e20:	00060513          	mv	a0,a2
   19e24:	00030493          	mv	s1,t1
   19e28:	b21ff06f          	j	19948 <__subtf3+0x3bc>
   19e2c:	b0058ee3          	beqz	a1,19948 <__subtf3+0x3bc>
   19e30:	b2dff06f          	j	1995c <__subtf3+0x3d0>
   19e34:	40c50a33          	sub	s4,a0,a2
   19e38:	014536b3          	sltu	a3,a0,s4
   19e3c:	40e78933          	sub	s2,a5,a4
   19e40:	40d90933          	sub	s2,s2,a3
   19e44:	03395693          	srli	a3,s2,0x33
   19e48:	0016f693          	andi	a3,a3,1
   19e4c:	08068663          	beqz	a3,19ed8 <__subtf3+0x94c>
   19e50:	40a60a33          	sub	s4,a2,a0
   19e54:	40f70733          	sub	a4,a4,a5
   19e58:	01463633          	sltu	a2,a2,s4
   19e5c:	40c70933          	sub	s2,a4,a2
   19e60:	00030493          	mv	s1,t1
   19e64:	08090063          	beqz	s2,19ee4 <__subtf3+0x958>
   19e68:	00090513          	mv	a0,s2
   19e6c:	5b0000ef          	jal	ra,1a41c <__clzdi2>
   19e70:	0005051b          	sext.w	a0,a0
   19e74:	ff45059b          	addiw	a1,a0,-12
   19e78:	03f00793          	li	a5,63
   19e7c:	00058693          	mv	a3,a1
   19e80:	06b7ca63          	blt	a5,a1,19ef4 <__subtf3+0x968>
   19e84:	04000713          	li	a4,64
   19e88:	40b7073b          	subw	a4,a4,a1
   19e8c:	00b91933          	sll	s2,s2,a1
   19e90:	00ea5733          	srl	a4,s4,a4
   19e94:	01276733          	or	a4,a4,s2
   19e98:	00ba1533          	sll	a0,s4,a1
   19e9c:	0935cc63          	blt	a1,s3,19f34 <__subtf3+0x9a8>
   19ea0:	413686bb          	subw	a3,a3,s3
   19ea4:	0016879b          	addiw	a5,a3,1
   19ea8:	03f00613          	li	a2,63
   19eac:	04f64c63          	blt	a2,a5,19f04 <__subtf3+0x978>
   19eb0:	04000693          	li	a3,64
   19eb4:	40f686bb          	subw	a3,a3,a5
   19eb8:	00f555b3          	srl	a1,a0,a5
   19ebc:	00d71633          	sll	a2,a4,a3
   19ec0:	00d51533          	sll	a0,a0,a3
   19ec4:	00b66633          	or	a2,a2,a1
   19ec8:	00a03533          	snez	a0,a0
   19ecc:	00a66533          	or	a0,a2,a0
   19ed0:	00f757b3          	srl	a5,a4,a5
   19ed4:	e55ff06f          	j	19d28 <__subtf3+0x79c>
   19ed8:	012a6533          	or	a0,s4,s2
   19edc:	f80514e3          	bnez	a0,19e64 <__subtf3+0x8d8>
   19ee0:	ee9ff06f          	j	19dc8 <__subtf3+0x83c>
   19ee4:	000a0513          	mv	a0,s4
   19ee8:	534000ef          	jal	ra,1a41c <__clzdi2>
   19eec:	0405051b          	addiw	a0,a0,64
   19ef0:	f85ff06f          	j	19e74 <__subtf3+0x8e8>
   19ef4:	fb45071b          	addiw	a4,a0,-76
   19ef8:	00ea1733          	sll	a4,s4,a4
   19efc:	00000513          	li	a0,0
   19f00:	f9dff06f          	j	19e9c <__subtf3+0x910>
   19f04:	fc16869b          	addiw	a3,a3,-63
   19f08:	04000813          	li	a6,64
   19f0c:	00d75633          	srl	a2,a4,a3
   19f10:	00000693          	li	a3,0
   19f14:	01078863          	beq	a5,a6,19f24 <__subtf3+0x998>
   19f18:	08000693          	li	a3,128
   19f1c:	40f686bb          	subw	a3,a3,a5
   19f20:	00d716b3          	sll	a3,a4,a3
   19f24:	00d56533          	or	a0,a0,a3
   19f28:	00a03533          	snez	a0,a0
   19f2c:	00a66533          	or	a0,a2,a0
   19f30:	ea1ff06f          	j	19dd0 <__subtf3+0x844>
   19f34:	fff00793          	li	a5,-1
   19f38:	03379793          	slli	a5,a5,0x33
   19f3c:	fff78793          	addi	a5,a5,-1
   19f40:	40b985b3          	sub	a1,s3,a1
   19f44:	00f77733          	and	a4,a4,a5
   19f48:	00070793          	mv	a5,a4
   19f4c:	dc058ee3          	beqz	a1,19d28 <__subtf3+0x79c>
   19f50:	f60ff06f          	j	196b0 <__subtf3+0x124>
   19f54:	00060513          	mv	a0,a2
   19f58:	00030493          	mv	s1,t1
   19f5c:	fedff06f          	j	19f48 <__subtf3+0x9bc>
   19f60:	00070793          	mv	a5,a4
   19f64:	00060513          	mv	a0,a2
   19f68:	dc1ff06f          	j	19d28 <__subtf3+0x79c>
   19f6c:	00070793          	mv	a5,a4
   19f70:	00060513          	mv	a0,a2
   19f74:	e45ff06f          	j	19db8 <__subtf3+0x82c>
   19f78:	00068793          	mv	a5,a3
   19f7c:	00058513          	mv	a0,a1
   19f80:	da9ff06f          	j	19d28 <__subtf3+0x79c>
   19f84:	00100693          	li	a3,1
   19f88:	de0496e3          	bnez	s1,19d74 <__subtf3+0x7e8>
   19f8c:	ff873713          	sltiu	a4,a4,-8
   19f90:	00174713          	xori	a4,a4,1
   19f94:	02071713          	slli	a4,a4,0x20
   19f98:	02075713          	srli	a4,a4,0x20
   19f9c:	00e80833          	add	a6,a6,a4
   19fa0:	dd5ff06f          	j	19d74 <__subtf3+0x7e8>
   19fa4:	00100693          	li	a3,1
   19fa8:	dc0486e3          	beqz	s1,19d74 <__subtf3+0x7e8>
   19fac:	fe1ff06f          	j	19f8c <__subtf3+0xa00>
   19fb0:	00000793          	li	a5,0
   19fb4:	00000693          	li	a3,0
   19fb8:	9bdff06f          	j	19974 <__subtf3+0x3e8>
   19fbc:	00070793          	mv	a5,a4
   19fc0:	00060513          	mv	a0,a2
   19fc4:	eecff06f          	j	196b0 <__subtf3+0x124>
   19fc8:	00000793          	li	a5,0
   19fcc:	00000513          	li	a0,0
   19fd0:	00088593          	mv	a1,a7
   19fd4:	fe1ff06f          	j	19fb4 <__subtf3+0xa28>
   19fd8:	00000793          	li	a5,0
   19fdc:	00030493          	mv	s1,t1
   19fe0:	fd5ff06f          	j	19fb4 <__subtf3+0xa28>
   19fe4:	00070793          	mv	a5,a4
   19fe8:	00060513          	mv	a0,a2
   19fec:	00030493          	mv	s1,t1
   19ff0:	ec0ff06f          	j	196b0 <__subtf3+0x124>
   19ff4:	00100793          	li	a5,1
   19ff8:	000085b7          	lui	a1,0x8
   19ffc:	00000513          	li	a0,0
   1a000:	00000493          	li	s1,0
   1a004:	03279793          	slli	a5,a5,0x32
   1a008:	fff58593          	addi	a1,a1,-1 # 7fff <exit-0x8121>
   1a00c:	01000693          	li	a3,16
   1a010:	965ff06f          	j	19974 <__subtf3+0x3e8>
   1a014:	00000793          	li	a5,0
   1a018:	00000513          	li	a0,0
   1a01c:	00000593          	li	a1,0
   1a020:	f95ff06f          	j	19fb4 <__subtf3+0xa28>
   1a024:	00049863          	bnez	s1,1a034 <__subtf3+0xaa8>
   1a028:	00850713          	addi	a4,a0,8
   1a02c:	a85ff06f          	j	19ab0 <__subtf3+0x524>
   1a030:	fe049ce3          	bnez	s1,1a028 <__subtf3+0xa9c>
   1a034:	8c0810e3          	bnez	a6,198f4 <__subtf3+0x368>
   1a038:	93dff06f          	j	19974 <__subtf3+0x3e8>
   1a03c:	00000513          	li	a0,0
   1a040:	02040463          	beqz	s0,1a068 <__subtf3+0xadc>
   1a044:	00300793          	li	a5,3
   1a048:	00f41a63          	bne	s0,a5,1a05c <__subtf3+0xad0>
   1a04c:	00048e63          	beqz	s1,1a068 <__subtf3+0xadc>
   1a050:	fff00513          	li	a0,-1
   1a054:	ffe70593          	addi	a1,a4,-2
   1a058:	0100006f          	j	1a068 <__subtf3+0xadc>
   1a05c:	00200793          	li	a5,2
   1a060:	fef418e3          	bne	s0,a5,1a050 <__subtf3+0xac4>
   1a064:	fe0486e3          	beqz	s1,1a050 <__subtf3+0xac4>
   1a068:	0056e693          	ori	a3,a3,5
   1a06c:	00050793          	mv	a5,a0
   1a070:	931ff06f          	j	199a0 <__subtf3+0x414>
   1a074:	00000693          	li	a3,0
   1a078:	db1e90e3          	bne	t4,a7,19e18 <__subtf3+0x88c>
   1a07c:	d79ff06f          	j	19df4 <__subtf3+0x868>
   1a080:	00000693          	li	a3,0
   1a084:	8b1e9ee3          	bne	t4,a7,19940 <__subtf3+0x3b4>
   1a088:	891ff06f          	j	19918 <__subtf3+0x38c>

000000000001a08c <__fixtfsi>:
   1a08c:	00050613          	mv	a2,a0
   1a090:	002027f3          	frrm	a5
   1a094:	00004837          	lui	a6,0x4
   1a098:	00159693          	slli	a3,a1,0x1
   1a09c:	01059793          	slli	a5,a1,0x10
   1a0a0:	0316d693          	srli	a3,a3,0x31
   1a0a4:	ffe80713          	addi	a4,a6,-2 # 3ffe <exit-0xc122>
   1a0a8:	0107d793          	srli	a5,a5,0x10
   1a0ac:	03f5d593          	srli	a1,a1,0x3f
   1a0b0:	00d74c63          	blt	a4,a3,1a0c8 <__fixtfsi+0x3c>
   1a0b4:	08069c63          	bnez	a3,1a14c <__fixtfsi+0xc0>
   1a0b8:	00f567b3          	or	a5,a0,a5
   1a0bc:	00000513          	li	a0,0
   1a0c0:	04079063          	bnez	a5,1a100 <__fixtfsi+0x74>
   1a0c4:	00008067          	ret
   1a0c8:	01d80713          	addi	a4,a6,29
   1a0cc:	02d75e63          	bge	a4,a3,1a108 <__fixtfsi+0x7c>
   1a0d0:	80000737          	lui	a4,0x80000
   1a0d4:	fff74713          	not	a4,a4
   1a0d8:	00b7053b          	addw	a0,a4,a1
   1a0dc:	06058c63          	beqz	a1,1a154 <__fixtfsi+0xc8>
   1a0e0:	01e80813          	addi	a6,a6,30
   1a0e4:	01000713          	li	a4,16
   1a0e8:	07069863          	bne	a3,a6,1a158 <__fixtfsi+0xcc>
   1a0ec:	0117d693          	srli	a3,a5,0x11
   1a0f0:	06069463          	bnez	a3,1a158 <__fixtfsi+0xcc>
   1a0f4:	02f79793          	slli	a5,a5,0x2f
   1a0f8:	00c7e7b3          	or	a5,a5,a2
   1a0fc:	04078663          	beqz	a5,1a148 <__fixtfsi+0xbc>
   1a100:	00100713          	li	a4,1
   1a104:	0540006f          	j	1a158 <__fixtfsi+0xcc>
   1a108:	00100513          	li	a0,1
   1a10c:	03051513          	slli	a0,a0,0x30
   1a110:	00a7e7b3          	or	a5,a5,a0
   1a114:	ffffc737          	lui	a4,0xffffc
   1a118:	00004537          	lui	a0,0x4
   1a11c:	02f5051b          	addiw	a0,a0,47
   1a120:	0117071b          	addiw	a4,a4,17
   1a124:	00d7073b          	addw	a4,a4,a3
   1a128:	40d506bb          	subw	a3,a0,a3
   1a12c:	00e79733          	sll	a4,a5,a4
   1a130:	00d7d7b3          	srl	a5,a5,a3
   1a134:	00c76733          	or	a4,a4,a2
   1a138:	0007851b          	sext.w	a0,a5
   1a13c:	00058463          	beqz	a1,1a144 <__fixtfsi+0xb8>
   1a140:	40a0053b          	negw	a0,a0
   1a144:	fa071ee3          	bnez	a4,1a100 <__fixtfsi+0x74>
   1a148:	00008067          	ret
   1a14c:	00000513          	li	a0,0
   1a150:	fb1ff06f          	j	1a100 <__fixtfsi+0x74>
   1a154:	01000713          	li	a4,16
   1a158:	00172073          	csrs	fflags,a4
   1a15c:	fedff06f          	j	1a148 <__fixtfsi+0xbc>

000000000001a160 <__fixunstfsi>:
   1a160:	00050693          	mv	a3,a0
   1a164:	002027f3          	frrm	a5
   1a168:	00004637          	lui	a2,0x4
   1a16c:	00159713          	slli	a4,a1,0x1
   1a170:	01059793          	slli	a5,a1,0x10
   1a174:	03175713          	srli	a4,a4,0x31
   1a178:	ffe60513          	addi	a0,a2,-2 # 3ffe <exit-0xc122>
   1a17c:	0107d793          	srli	a5,a5,0x10
   1a180:	03f5d593          	srli	a1,a1,0x3f
   1a184:	00e54c63          	blt	a0,a4,1a19c <__fixunstfsi+0x3c>
   1a188:	06071c63          	bnez	a4,1a200 <__fixunstfsi+0xa0>
   1a18c:	00f6e7b3          	or	a5,a3,a5
   1a190:	06079863          	bnez	a5,1a200 <__fixunstfsi+0xa0>
   1a194:	00000513          	li	a0,0
   1a198:	00008067          	ret
   1a19c:	01e60513          	addi	a0,a2,30
   1a1a0:	00059463          	bnez	a1,1a1a8 <__fixunstfsi+0x48>
   1a1a4:	01f60513          	addi	a0,a2,31
   1a1a8:	04a75463          	bge	a4,a0,1a1f0 <__fixunstfsi+0x90>
   1a1ac:	06059063          	bnez	a1,1a20c <__fixunstfsi+0xac>
   1a1b0:	00100613          	li	a2,1
   1a1b4:	03061613          	slli	a2,a2,0x30
   1a1b8:	00c7e7b3          	or	a5,a5,a2
   1a1bc:	000045b7          	lui	a1,0x4
   1a1c0:	ffffc637          	lui	a2,0xffffc
   1a1c4:	02f5859b          	addiw	a1,a1,47
   1a1c8:	0116061b          	addiw	a2,a2,17
   1a1cc:	40e585bb          	subw	a1,a1,a4
   1a1d0:	00e6073b          	addw	a4,a2,a4
   1a1d4:	00b7d5b3          	srl	a1,a5,a1
   1a1d8:	00e797b3          	sll	a5,a5,a4
   1a1dc:	00d7e7b3          	or	a5,a5,a3
   1a1e0:	0005851b          	sext.w	a0,a1
   1a1e4:	00078c63          	beqz	a5,1a1fc <__fixunstfsi+0x9c>
   1a1e8:	00100793          	li	a5,1
   1a1ec:	00c0006f          	j	1a1f8 <__fixunstfsi+0x98>
   1a1f0:	fff58513          	addi	a0,a1,-1 # 3fff <exit-0xc121>
   1a1f4:	01000793          	li	a5,16
   1a1f8:	0017a073          	csrs	fflags,a5
   1a1fc:	00008067          	ret
   1a200:	00100793          	li	a5,1
   1a204:	00000513          	li	a0,0
   1a208:	ff1ff06f          	j	1a1f8 <__fixunstfsi+0x98>
   1a20c:	01000793          	li	a5,16
   1a210:	ff5ff06f          	j	1a204 <__fixunstfsi+0xa4>

000000000001a214 <__floatsitf>:
   1a214:	fe010113          	addi	sp,sp,-32
   1a218:	00113c23          	sd	ra,24(sp)
   1a21c:	00813823          	sd	s0,16(sp)
   1a220:	00913423          	sd	s1,8(sp)
   1a224:	06050463          	beqz	a0,1a28c <__floatsitf+0x78>
   1a228:	0005079b          	sext.w	a5,a0
   1a22c:	03f55493          	srli	s1,a0,0x3f
   1a230:	00055463          	bgez	a0,1a238 <__floatsitf+0x24>
   1a234:	40f007bb          	negw	a5,a5
   1a238:	02079413          	slli	s0,a5,0x20
   1a23c:	02045413          	srli	s0,s0,0x20
   1a240:	00040513          	mv	a0,s0
   1a244:	1d8000ef          	jal	ra,1a41c <__clzdi2>
   1a248:	000045b7          	lui	a1,0x4
   1a24c:	03e5859b          	addiw	a1,a1,62
   1a250:	ff15079b          	addiw	a5,a0,-15
   1a254:	40a585bb          	subw	a1,a1,a0
   1a258:	00f417b3          	sll	a5,s0,a5
   1a25c:	01813083          	ld	ra,24(sp)
   1a260:	01013403          	ld	s0,16(sp)
   1a264:	00f4949b          	slliw	s1,s1,0xf
   1a268:	0095e5b3          	or	a1,a1,s1
   1a26c:	01079793          	slli	a5,a5,0x10
   1a270:	03059593          	slli	a1,a1,0x30
   1a274:	0107d793          	srli	a5,a5,0x10
   1a278:	00813483          	ld	s1,8(sp)
   1a27c:	00000513          	li	a0,0
   1a280:	00b7e5b3          	or	a1,a5,a1
   1a284:	02010113          	addi	sp,sp,32
   1a288:	00008067          	ret
   1a28c:	00000793          	li	a5,0
   1a290:	00000593          	li	a1,0
   1a294:	00000493          	li	s1,0
   1a298:	fc5ff06f          	j	1a25c <__floatsitf+0x48>

000000000001a29c <__floatunsitf>:
   1a29c:	ff010113          	addi	sp,sp,-16
   1a2a0:	00113423          	sd	ra,8(sp)
   1a2a4:	00813023          	sd	s0,0(sp)
   1a2a8:	04050663          	beqz	a0,1a2f4 <__floatunsitf+0x58>
   1a2ac:	02051413          	slli	s0,a0,0x20
   1a2b0:	02045413          	srli	s0,s0,0x20
   1a2b4:	00040513          	mv	a0,s0
   1a2b8:	164000ef          	jal	ra,1a41c <__clzdi2>
   1a2bc:	000045b7          	lui	a1,0x4
   1a2c0:	03e5859b          	addiw	a1,a1,62
   1a2c4:	40a585bb          	subw	a1,a1,a0
   1a2c8:	ff15051b          	addiw	a0,a0,-15
   1a2cc:	00a41433          	sll	s0,s0,a0
   1a2d0:	01041413          	slli	s0,s0,0x10
   1a2d4:	01045413          	srli	s0,s0,0x10
   1a2d8:	03059593          	slli	a1,a1,0x30
   1a2dc:	00813083          	ld	ra,8(sp)
   1a2e0:	00b465b3          	or	a1,s0,a1
   1a2e4:	00013403          	ld	s0,0(sp)
   1a2e8:	00000513          	li	a0,0
   1a2ec:	01010113          	addi	sp,sp,16
   1a2f0:	00008067          	ret
   1a2f4:	00000413          	li	s0,0
   1a2f8:	00000593          	li	a1,0
   1a2fc:	fd5ff06f          	j	1a2d0 <__floatunsitf+0x34>

000000000001a300 <__extenddftf2>:
   1a300:	fe010113          	addi	sp,sp,-32
   1a304:	00113c23          	sd	ra,24(sp)
   1a308:	00813823          	sd	s0,16(sp)
   1a30c:	00913423          	sd	s1,8(sp)
   1a310:	002027f3          	frrm	a5
   1a314:	03455793          	srli	a5,a0,0x34
   1a318:	7ff7f793          	andi	a5,a5,2047
   1a31c:	00178713          	addi	a4,a5,1
   1a320:	00c51413          	slli	s0,a0,0xc
   1a324:	7fe77713          	andi	a4,a4,2046
   1a328:	00c45413          	srli	s0,s0,0xc
   1a32c:	03f55493          	srli	s1,a0,0x3f
   1a330:	02070063          	beqz	a4,1a350 <__extenddftf2+0x50>
   1a334:	00004737          	lui	a4,0x4
   1a338:	c0070713          	addi	a4,a4,-1024 # 3c00 <exit-0xc520>
   1a33c:	00445593          	srli	a1,s0,0x4
   1a340:	00e787b3          	add	a5,a5,a4
   1a344:	03c41413          	slli	s0,s0,0x3c
   1a348:	00000713          	li	a4,0
   1a34c:	0880006f          	j	1a3d4 <__extenddftf2+0xd4>
   1a350:	04079a63          	bnez	a5,1a3a4 <__extenddftf2+0xa4>
   1a354:	00000593          	li	a1,0
   1a358:	fe0408e3          	beqz	s0,1a348 <__extenddftf2+0x48>
   1a35c:	00040513          	mv	a0,s0
   1a360:	0bc000ef          	jal	ra,1a41c <__clzdi2>
   1a364:	0005071b          	sext.w	a4,a0
   1a368:	00e00793          	li	a5,14
   1a36c:	02e7c463          	blt	a5,a4,1a394 <__extenddftf2+0x94>
   1a370:	00f00593          	li	a1,15
   1a374:	40a585bb          	subw	a1,a1,a0
   1a378:	0315079b          	addiw	a5,a0,49
   1a37c:	00b455b3          	srl	a1,s0,a1
   1a380:	00f41433          	sll	s0,s0,a5
   1a384:	00004737          	lui	a4,0x4
   1a388:	c0c7071b          	addiw	a4,a4,-1012
   1a38c:	40a707bb          	subw	a5,a4,a0
   1a390:	fb9ff06f          	j	1a348 <__extenddftf2+0x48>
   1a394:	ff15059b          	addiw	a1,a0,-15
   1a398:	00b415b3          	sll	a1,s0,a1
   1a39c:	00000413          	li	s0,0
   1a3a0:	fe5ff06f          	j	1a384 <__extenddftf2+0x84>
   1a3a4:	06040463          	beqz	s0,1a40c <__extenddftf2+0x10c>
   1a3a8:	00100793          	li	a5,1
   1a3ac:	03379713          	slli	a4,a5,0x33
   1a3b0:	00e47733          	and	a4,s0,a4
   1a3b4:	00445593          	srli	a1,s0,0x4
   1a3b8:	02f79793          	slli	a5,a5,0x2f
   1a3bc:	00173713          	seqz	a4,a4
   1a3c0:	00f5e5b3          	or	a1,a1,a5
   1a3c4:	000087b7          	lui	a5,0x8
   1a3c8:	00471713          	slli	a4,a4,0x4
   1a3cc:	03c41413          	slli	s0,s0,0x3c
   1a3d0:	fff78793          	addi	a5,a5,-1 # 7fff <exit-0x8121>
   1a3d4:	00f4951b          	slliw	a0,s1,0xf
   1a3d8:	01059593          	slli	a1,a1,0x10
   1a3dc:	00a7e7b3          	or	a5,a5,a0
   1a3e0:	03079793          	slli	a5,a5,0x30
   1a3e4:	0105d593          	srli	a1,a1,0x10
   1a3e8:	00f5e5b3          	or	a1,a1,a5
   1a3ec:	00070463          	beqz	a4,1a3f4 <__extenddftf2+0xf4>
   1a3f0:	00172073          	csrs	fflags,a4
   1a3f4:	01813083          	ld	ra,24(sp)
   1a3f8:	00040513          	mv	a0,s0
   1a3fc:	01013403          	ld	s0,16(sp)
   1a400:	00813483          	ld	s1,8(sp)
   1a404:	02010113          	addi	sp,sp,32
   1a408:	00008067          	ret
   1a40c:	000087b7          	lui	a5,0x8
   1a410:	00000593          	li	a1,0
   1a414:	fff78793          	addi	a5,a5,-1 # 7fff <exit-0x8121>
   1a418:	f31ff06f          	j	1a348 <__extenddftf2+0x48>

000000000001a41c <__clzdi2>:
   1a41c:	03800793          	li	a5,56
   1a420:	00f55733          	srl	a4,a0,a5
   1a424:	0ff77713          	andi	a4,a4,255
   1a428:	00071663          	bnez	a4,1a434 <__clzdi2+0x18>
   1a42c:	ff878793          	addi	a5,a5,-8
   1a430:	fe0798e3          	bnez	a5,1a420 <__clzdi2+0x4>
   1a434:	04000713          	li	a4,64
   1a438:	40f70733          	sub	a4,a4,a5
   1a43c:	00f55533          	srl	a0,a0,a5
   1a440:	00003797          	auipc	a5,0x3
   1a444:	cc07b783          	ld	a5,-832(a5) # 1d100 <_GLOBAL_OFFSET_TABLE_+0x8>
   1a448:	00a78533          	add	a0,a5,a0
   1a44c:	00054503          	lbu	a0,0(a0) # 4000 <exit-0xc120>
   1a450:	40a7053b          	subw	a0,a4,a0
   1a454:	00008067          	ret
