
target/vmlinux.img：     文件格式 elf64-littleriscv


Disassembly of section .text:

0000000080200000 <_start>:
    80200000:	82aa                	mv	t0,a0
    80200002:	0285                	addi	t0,t0,1
    80200004:	02c2                	slli	t0,t0,0x10
    80200006:	00171117          	auipc	sp,0x171
    8020000a:	ffa10113          	addi	sp,sp,-6 # 80371000 <_stack>
    8020000e:	9116                	add	sp,sp,t0
    80200010:	006000ef          	jal	ra,80200016 <main>

0000000080200014 <loop>:
    80200014:	a001                	j	80200014 <loop>

0000000080200016 <main>:
    asm volatile("mv tp, %0" : : "r" (hartId & 0x7));
}

extern struct superblock *fat;

void main(u64 hartId) {
    80200016:	7179                	addi	sp,sp,-48
    80200018:	f406                	sd	ra,40(sp)
    8020001a:	f022                	sd	s0,32(sp)
    8020001c:	ec26                	sd	s1,24(sp)
    8020001e:	1800                	addi	s0,sp,48
    80200020:	84aa                	mv	s1,a0
    asm volatile("mv tp, %0" : : "r" (hartId & 0x7));
    80200022:	00757793          	andi	a5,a0,7
    80200026:	823e                	mv	tp,a5
    initHartId(hartId);

    if (mainCount == 1000) {
    80200028:	001c1697          	auipc	a3,0x1c1
    8020002c:	fd86a683          	lw	a3,-40(a3) # 803c1000 <mainCount>
    80200030:	3e800793          	li	a5,1000
        PROCESS_CREATE_PRIORITY(SyscallTest, 1);
        // PROCESS_CREATE_PRIORITY(MountTest, 1);
        // PROCESS_CREATE_PRIORITY(WaitTest, 1);

    } else {
        while (initFinish == 0);
    80200034:	001c2717          	auipc	a4,0x1c2
    80200038:	fcc70713          	addi	a4,a4,-52 # 803c2000 <initFinish>
    if (mainCount == 1000) {
    8020003c:	04f68163          	beq	a3,a5,8020007e <main+0x68>
        while (initFinish == 0);
    80200040:	431c                	lw	a5,0(a4)
    80200042:	2781                	sext.w	a5,a5
    80200044:	dff5                	beqz	a5,80200040 <main+0x2a>
        __sync_synchronize();
    80200046:	0ff0000f          	fence

        printf("Hello, risc-v!\nCurrent hartId: %ld \n\n", hartId);
    8020004a:	85a6                	mv	a1,s1
    8020004c:	0000c517          	auipc	a0,0xc
    80200050:	fdc50513          	addi	a0,a0,-36 # 8020c028 <textEnd+0x28>
    80200054:	00001097          	auipc	ra,0x1
    80200058:	a6c080e7          	jalr	-1428(ra) # 80200ac0 <printf>

        startPage();
    8020005c:	00001097          	auipc	ra,0x1
    80200060:	538080e7          	jalr	1336(ra) # 80201594 <startPage>
        trapInit();
    80200064:	00005097          	auipc	ra,0x5
    80200068:	85e080e7          	jalr	-1954(ra) # 802048c2 <trapInit>
        //PROCESS_CREATE_PRIORITY(ForkTest, 1);
        //PROCESS_CREATE_PRIORITY(ProcessB, 3);
        //printf("Reach this place\n");
    }

    yield();
    8020006c:	00003097          	auipc	ra,0x3
    80200070:	26c080e7          	jalr	620(ra) # 802032d8 <yield>
    80200074:	70a2                	ld	ra,40(sp)
    80200076:	7402                	ld	s0,32(sp)
    80200078:	64e2                	ld	s1,24(sp)
    8020007a:	6145                	addi	sp,sp,48
    8020007c:	8082                	ret
        for (u64 *i = bssStart; i < bssEnd; i++) {
    8020007e:	001c2717          	auipc	a4,0x1c2
    80200082:	f8270713          	addi	a4,a4,-126 # 803c2000 <initFinish>
    80200086:	0041b797          	auipc	a5,0x41b
    8020008a:	f7a78793          	addi	a5,a5,-134 # 8061b000 <bssEnd>
    8020008e:	02f77063          	bgeu	a4,a5,802000ae <main+0x98>
    80200092:	87ba                	mv	a5,a4
    80200094:	0041b717          	auipc	a4,0x41b
    80200098:	f6b70713          	addi	a4,a4,-149 # 8061afff <_pgdir+0xfff>
    8020009c:	8f1d                	sub	a4,a4,a5
    8020009e:	9b61                	andi	a4,a4,-8
    802000a0:	0721                	addi	a4,a4,8
    802000a2:	973e                	add	a4,a4,a5
            *i = 0;
    802000a4:	0007b023          	sd	zero,0(a5)
        for (u64 *i = bssStart; i < bssEnd; i++) {
    802000a8:	07a1                	addi	a5,a5,8
    802000aa:	fee79de3          	bne	a5,a4,802000a4 <main+0x8e>
        mainCount = mainCount + 1;
    802000ae:	001c1717          	auipc	a4,0x1c1
    802000b2:	f5270713          	addi	a4,a4,-174 # 803c1000 <mainCount>
    802000b6:	431c                	lw	a5,0(a4)
    802000b8:	2785                	addiw	a5,a5,1
    802000ba:	c31c                	sw	a5,0(a4)
        consoleInit();
    802000bc:	00000097          	auipc	ra,0x0
    802000c0:	2b8080e7          	jalr	696(ra) # 80200374 <consoleInit>
        printLockInit();
    802000c4:	00000097          	auipc	ra,0x0
    802000c8:	2f4080e7          	jalr	756(ra) # 802003b8 <printLockInit>
        pageLockInit();
    802000cc:	00002097          	auipc	ra,0x2
    802000d0:	ab6080e7          	jalr	-1354(ra) # 80201b82 <pageLockInit>
        printf("Hello, risc-v!\nBoot hartId: %ld \n\n", hartId);
    802000d4:	85a6                	mv	a1,s1
    802000d6:	0000c517          	auipc	a0,0xc
    802000da:	f2a50513          	addi	a0,a0,-214 # 8020c000 <textEnd>
    802000de:	00001097          	auipc	ra,0x1
    802000e2:	9e2080e7          	jalr	-1566(ra) # 80200ac0 <printf>
        memoryInit();
    802000e6:	00001097          	auipc	ra,0x1
    802000ea:	4d2080e7          	jalr	1234(ra) # 802015b8 <memoryInit>
        processInit();
    802000ee:	00003097          	auipc	ra,0x3
    802000f2:	97e080e7          	jalr	-1666(ra) # 80202a6c <processInit>
        sdInit();
    802000f6:	00001097          	auipc	ra,0x1
    802000fa:	184080e7          	jalr	388(ra) # 8020127a <sdInit>
        binit();
    802000fe:	00007097          	auipc	ra,0x7
    80200102:	45e080e7          	jalr	1118(ra) # 8020755c <binit>
        fileinit();
    80200106:	00009097          	auipc	ra,0x9
    8020010a:	3a8080e7          	jalr	936(ra) # 802094ae <fileinit>
    8020010e:	4785                	li	a5,1
                unsigned long mask = 1 << i;
    80200110:	4f85                	li	t6,1
    asm volatile ("ecall" : "+r" (a0) : "r" (a7) : "memory");
    return a0;
}

inline void setMode(int hartId) {
	register u64 a7 asm ("a7") = 0x48534D;
    80200112:	00485eb7          	lui	t4,0x485
    80200116:	34de8e93          	addi	t4,t4,845 # 48534d <_start-0x7fd7acb3>
	register u64 a0 asm ("a0") = hartId;
	register u64 a1 asm ("a1") = 0x80200000;
    8020011a:	40100e13          	li	t3,1025
    8020011e:	0e56                	slli	t3,t3,0x15
	register u64 a2 asm ("a2") = 19260817; // priv
    80200120:	0125e337          	lui	t1,0x125e
    80200124:	59130313          	addi	t1,t1,1425 # 125e591 <_start-0x7efa1a6f>
        for (int i = 1; i < 5; ++ i) {
    80200128:	4f15                	li	t5,5
    8020012a:	a021                	j	80200132 <main+0x11c>
    8020012c:	0785                	addi	a5,a5,1
    8020012e:	03e78a63          	beq	a5,t5,80200162 <main+0x14c>
    80200132:	0007871b          	sext.w	a4,a5
            if (i != hartId) {
    80200136:	fe978be3          	beq	a5,s1,8020012c <main+0x116>
                unsigned long mask = 1 << i;
    8020013a:	00ef973b          	sllw	a4,t6,a4
    8020013e:	fce43c23          	sd	a4,-40(s0)
	register u64 a7 asm ("a7") = 0x48534D;
    80200142:	88f6                	mv	a7,t4
	register u64 a0 asm ("a0") = hartId;
    80200144:	853e                	mv	a0,a5
	register u64 a1 asm ("a1") = 0x80200000;
    80200146:	85f2                	mv	a1,t3
	register u64 a2 asm ("a2") = 19260817; // priv
    80200148:	861a                	mv	a2,t1
	register u64 a6 asm ("a6") = 0; // funcid
    8020014a:	4801                	li	a6,0
	asm volatile ("ecall" : "+r" (a0) : "r"(a0), "r"(a1), "r"(a2), "r"(a6), "r" (a7) : "memory");
    8020014c:	00000073          	ecall
		SBI_CALL(which, arg0, arg1, arg2, 0)
#define SBI_CALL_4(which, arg0, arg1, arg2, arg3) \
		SBI_CALL(which, arg0, arg1, arg2, arg3)

static inline void sbi_send_ipi(const unsigned long* hart_mask) {
    SBI_CALL_1(SBI_SEND_IPI, hart_mask);
    80200150:	fd840513          	addi	a0,s0,-40
    80200154:	4581                	li	a1,0
    80200156:	4601                	li	a2,0
    80200158:	4681                	li	a3,0
    8020015a:	4891                	li	a7,4
    8020015c:	00000073          	ecall
    80200160:	b7f1                	j	8020012c <main+0x116>
        trapInit();
    80200162:	00004097          	auipc	ra,0x4
    80200166:	760080e7          	jalr	1888(ra) # 802048c2 <trapInit>
        __sync_synchronize();     
    8020016a:	0ff0000f          	fence
        initFinish = 0;
    8020016e:	001c2797          	auipc	a5,0x1c2
    80200172:	e807a923          	sw	zero,-366(a5) # 803c2000 <initFinish>
        PROCESS_CREATE_PRIORITY(SyscallTest, 1);
    80200176:	4605                	li	a2,1
    80200178:	001c1597          	auipc	a1,0x1c1
    8020017c:	ec05a583          	lw	a1,-320(a1) # 803c1038 <binarySyscallTestSize>
    80200180:	000b5517          	auipc	a0,0xb5
    80200184:	37050513          	addi	a0,a0,880 # 802b54f0 <binarySyscallTestStart>
    80200188:	00003097          	auipc	ra,0x3
    8020018c:	d68080e7          	jalr	-664(ra) # 80202ef0 <processCreatePriority>
    80200190:	bdf1                	j	8020006c <main+0x56>

0000000080200192 <consoleWrite>:
    if ((ret & UART_RXFIFO_DATA) == '\r')
        return '\n';
    return ret & UART_RXFIFO_DATA;
}

int consoleWrite(int user_src, u64 src, u64 start, u64 n) {
    80200192:	711d                	addi	sp,sp,-96
    80200194:	ec86                	sd	ra,88(sp)
    80200196:	e8a2                	sd	s0,80(sp)
    80200198:	e4a6                	sd	s1,72(sp)
    8020019a:	e0ca                	sd	s2,64(sp)
    8020019c:	fc4e                	sd	s3,56(sp)
    8020019e:	f852                	sd	s4,48(sp)
    802001a0:	f456                	sd	s5,40(sp)
    802001a2:	f05a                	sd	s6,32(sp)
    802001a4:	ec5e                	sd	s7,24(sp)
    802001a6:	e862                	sd	s8,16(sp)
    802001a8:	1080                	addi	s0,sp,96
    int i;
    for (i = 0; i < n; i++) {
    802001aa:	c6ad                	beqz	a3,80200214 <consoleWrite+0x82>
    802001ac:	8aaa                	mv	s5,a0
    802001ae:	892e                	mv	s2,a1
    802001b0:	00b68a33          	add	s4,a3,a1
    802001b4:	4981                	li	s3,0
        char c;
        if(either_copyin(&c, user_src, src+i, 1) == -1)
    802001b6:	5b7d                	li	s6,-1
            break;
        if (c == '\n')
    802001b8:	4ba9                	li	s7,10
	asm volatile("lw %0, 0(%1)" : "=r"(val) : "r"(addr));
    802001ba:	100104b7          	lui	s1,0x10010
	asm volatile("sw %0, 0(%1)" : : "r"(val), "r"(addr));
    802001be:	4c35                	li	s8,13
    802001c0:	a005                	j	802001e0 <consoleWrite+0x4e>
            putchar('\r');
        putchar(c);
    802001c2:	faf44703          	lbu	a4,-81(s0)
	asm volatile("lw %0, 0(%1)" : "=r"(val) : "r"(addr));
    802001c6:	409c                	lw	a5,0(s1)
	while (readl(uartRegTXFIFO) & UART_TXFIFO_FULL);
    802001c8:	0820000f          	fence	i,r
    802001cc:	2781                	sext.w	a5,a5
    802001ce:	fe07cce3          	bltz	a5,802001c6 <consoleWrite+0x34>
    writel(ch, uartRegTXFIFO);
    802001d2:	0140000f          	fence	w,o
	asm volatile("sw %0, 0(%1)" : : "r"(val), "r"(addr));
    802001d6:	c098                	sw	a4,0(s1)
    for (i = 0; i < n; i++) {
    802001d8:	2985                	addiw	s3,s3,1
    802001da:	0905                	addi	s2,s2,1
    802001dc:	03490d63          	beq	s2,s4,80200216 <consoleWrite+0x84>
        if(either_copyin(&c, user_src, src+i, 1) == -1)
    802001e0:	4685                	li	a3,1
    802001e2:	864a                	mv	a2,s2
    802001e4:	85d6                	mv	a1,s5
    802001e6:	faf40513          	addi	a0,s0,-81
    802001ea:	00003097          	auipc	ra,0x3
    802001ee:	098080e7          	jalr	152(ra) # 80203282 <either_copyin>
    802001f2:	03650263          	beq	a0,s6,80200216 <consoleWrite+0x84>
        if (c == '\n')
    802001f6:	faf44783          	lbu	a5,-81(s0)
    802001fa:	fd7794e3          	bne	a5,s7,802001c2 <consoleWrite+0x30>
	asm volatile("lw %0, 0(%1)" : "=r"(val) : "r"(addr));
    802001fe:	409c                	lw	a5,0(s1)
	while (readl(uartRegTXFIFO) & UART_TXFIFO_FULL);
    80200200:	0820000f          	fence	i,r
    80200204:	2781                	sext.w	a5,a5
    80200206:	fe07cce3          	bltz	a5,802001fe <consoleWrite+0x6c>
    writel(ch, uartRegTXFIFO);
    8020020a:	0140000f          	fence	w,o
	asm volatile("sw %0, 0(%1)" : : "r"(val), "r"(addr));
    8020020e:	0184a023          	sw	s8,0(s1) # 10010000 <_start-0x701f0000>
}
    80200212:	bf45                	j	802001c2 <consoleWrite+0x30>
    for (i = 0; i < n; i++) {
    80200214:	4981                	li	s3,0
    }
    return i;
}
    80200216:	854e                	mv	a0,s3
    80200218:	60e6                	ld	ra,88(sp)
    8020021a:	6446                	ld	s0,80(sp)
    8020021c:	64a6                	ld	s1,72(sp)
    8020021e:	6906                	ld	s2,64(sp)
    80200220:	79e2                	ld	s3,56(sp)
    80200222:	7a42                	ld	s4,48(sp)
    80200224:	7aa2                	ld	s5,40(sp)
    80200226:	7b02                	ld	s6,32(sp)
    80200228:	6be2                	ld	s7,24(sp)
    8020022a:	6c42                	ld	s8,16(sp)
    8020022c:	6125                	addi	sp,sp,96
    8020022e:	8082                	ret

0000000080200230 <consoleRead>:

//TODO, 未考虑多进程
//没有回显
#define GET_BUF_LEN 64
char buf[GET_BUF_LEN];
int consoleRead(int isUser, u64 dst, u64 start, u64 n) {
    80200230:	7159                	addi	sp,sp,-112
    80200232:	f486                	sd	ra,104(sp)
    80200234:	f0a2                	sd	s0,96(sp)
    80200236:	eca6                	sd	s1,88(sp)
    80200238:	e8ca                	sd	s2,80(sp)
    8020023a:	e4ce                	sd	s3,72(sp)
    8020023c:	e0d2                	sd	s4,64(sp)
    8020023e:	fc56                	sd	s5,56(sp)
    80200240:	f85a                	sd	s6,48(sp)
    80200242:	f45e                	sd	s7,40(sp)
    80200244:	f062                	sd	s8,32(sp)
    80200246:	ec66                	sd	s9,24(sp)
    80200248:	e86a                	sd	s10,16(sp)
    8020024a:	1880                	addi	s0,sp,112
    int i;
    for (i = 0; i < n; i++) {
    8020024c:	ce99                	beqz	a3,8020026a <consoleRead+0x3a>
    8020024e:	8b2a                	mv	s6,a0
    80200250:	892e                	mv	s2,a1
    80200252:	00b68ab3          	add	s5,a3,a1
    80200256:	4981                	li	s3,0
	asm volatile("lw %0, 0(%1)" : "=r"(val) : "r"(addr));
    80200258:	10010a37          	lui	s4,0x10010
    8020025c:	004a0493          	addi	s1,s4,4 # 10010004 <_start-0x701efffc>
    if ((ret & UART_RXFIFO_DATA) == '\r')
    80200260:	4c35                	li	s8,13
        char c = getchar();
    80200262:	4ca9                	li	s9,10
	asm volatile("sw %0, 0(%1)" : : "r"(val), "r"(addr));
    80200264:	4d35                	li	s10,13
        if (c == '\n')
            putchar('\r');
        if (either_copyout(isUser, dst + i, &c, 1) == -1)
    80200266:	5bfd                	li	s7,-1
    80200268:	a8a9                	j	802002c2 <consoleRead+0x92>
    for (i = 0; i < n; i++) {
    8020026a:	4981                	li	s3,0
            break;
    }
    return i;
}
    8020026c:	854e                	mv	a0,s3
    8020026e:	70a6                	ld	ra,104(sp)
    80200270:	7406                	ld	s0,96(sp)
    80200272:	64e6                	ld	s1,88(sp)
    80200274:	6946                	ld	s2,80(sp)
    80200276:	69a6                	ld	s3,72(sp)
    80200278:	6a06                	ld	s4,64(sp)
    8020027a:	7ae2                	ld	s5,56(sp)
    8020027c:	7b42                	ld	s6,48(sp)
    8020027e:	7ba2                	ld	s7,40(sp)
    80200280:	7c02                	ld	s8,32(sp)
    80200282:	6ce2                	ld	s9,24(sp)
    80200284:	6d42                	ld	s10,16(sp)
    80200286:	6165                	addi	sp,sp,112
    80200288:	8082                	ret
        char c = getchar();
    8020028a:	f9940fa3          	sb	s9,-97(s0)
	asm volatile("lw %0, 0(%1)" : "=r"(val) : "r"(addr));
    8020028e:	000a2783          	lw	a5,0(s4)
	while (readl(uartRegTXFIFO) & UART_TXFIFO_FULL);
    80200292:	0820000f          	fence	i,r
    80200296:	2781                	sext.w	a5,a5
    80200298:	fe07cbe3          	bltz	a5,8020028e <consoleRead+0x5e>
    writel(ch, uartRegTXFIFO);
    8020029c:	0140000f          	fence	w,o
	asm volatile("sw %0, 0(%1)" : : "r"(val), "r"(addr));
    802002a0:	01aa2023          	sw	s10,0(s4)
        if (either_copyout(isUser, dst + i, &c, 1) == -1)
    802002a4:	4685                	li	a3,1
    802002a6:	f9f40613          	addi	a2,s0,-97
    802002aa:	85ca                	mv	a1,s2
    802002ac:	855a                	mv	a0,s6
    802002ae:	00003097          	auipc	ra,0x3
    802002b2:	f7c080e7          	jalr	-132(ra) # 8020322a <either_copyout>
    802002b6:	fb750be3          	beq	a0,s7,8020026c <consoleRead+0x3c>
    for (i = 0; i < n; i++) {
    802002ba:	2985                	addiw	s3,s3,1
    802002bc:	0905                	addi	s2,s2,1
    802002be:	fb2a87e3          	beq	s5,s2,8020026c <consoleRead+0x3c>
	asm volatile("lw %0, 0(%1)" : "=r"(val) : "r"(addr));
    802002c2:	409c                	lw	a5,0(s1)
    802002c4:	0007871b          	sext.w	a4,a5
	u32 ret = readl(uartRegRXFIFO);
    802002c8:	0820000f          	fence	i,r
    while (ret & UART_RXFIFO_EMPTY) {
    802002cc:	87ba                	mv	a5,a4
    802002ce:	00075a63          	bgez	a4,802002e2 <consoleRead+0xb2>
	asm volatile("lw %0, 0(%1)" : "=r"(val) : "r"(addr));
    802002d2:	409c                	lw	a5,0(s1)
    802002d4:	0007871b          	sext.w	a4,a5
        ret = readl(uartRegRXFIFO);
    802002d8:	0820000f          	fence	i,r
    while (ret & UART_RXFIFO_EMPTY) {
    802002dc:	87ba                	mv	a5,a4
    802002de:	fe074ae3          	bltz	a4,802002d2 <consoleRead+0xa2>
    if ((ret & UART_RXFIFO_DATA) == '\r')
    802002e2:	0ff77713          	zext.b	a4,a4
    802002e6:	fb8702e3          	beq	a4,s8,8020028a <consoleRead+0x5a>
        char c = getchar();
    802002ea:	0ff7f793          	zext.b	a5,a5
    802002ee:	f8f40fa3          	sb	a5,-97(s0)
        if (c == '\n')
    802002f2:	fb9799e3          	bne	a5,s9,802002a4 <consoleRead+0x74>
    802002f6:	bf61                	j	8020028e <consoleRead+0x5e>

00000000802002f8 <consoleInterrupt>:
void consoleInterrupt(int c) {
    802002f8:	1141                	addi	sp,sp,-16
    802002fa:	e422                	sd	s0,8(sp)
    802002fc:	0800                	addi	s0,sp,16
}
    802002fe:	6422                	ld	s0,8(sp)
    80200300:	0141                	addi	sp,sp,16
    80200302:	8082                	ret

0000000080200304 <putchar>:
{
    80200304:	1141                	addi	sp,sp,-16
    80200306:	e422                	sd	s0,8(sp)
    80200308:	0800                	addi	s0,sp,16
	asm volatile("lw %0, 0(%1)" : "=r"(val) : "r"(addr));
    8020030a:	10010737          	lui	a4,0x10010
    8020030e:	431c                	lw	a5,0(a4)
	while (readl(uartRegTXFIFO) & UART_TXFIFO_FULL);
    80200310:	0820000f          	fence	i,r
    80200314:	2781                	sext.w	a5,a5
    80200316:	fe07cce3          	bltz	a5,8020030e <putchar+0xa>
    writel(ch, uartRegTXFIFO);
    8020031a:	0140000f          	fence	w,o
	asm volatile("sw %0, 0(%1)" : : "r"(val), "r"(addr));
    8020031e:	100107b7          	lui	a5,0x10010
    80200322:	c388                	sw	a0,0(a5)
}
    80200324:	6422                	ld	s0,8(sp)
    80200326:	0141                	addi	sp,sp,16
    80200328:	8082                	ret

000000008020032a <getchar>:
{
    8020032a:	1141                	addi	sp,sp,-16
    8020032c:	e422                	sd	s0,8(sp)
    8020032e:	0800                	addi	s0,sp,16
	asm volatile("lw %0, 0(%1)" : "=r"(val) : "r"(addr));
    80200330:	10010537          	lui	a0,0x10010
    80200334:	0511                	addi	a0,a0,4
    80200336:	4108                	lw	a0,0(a0)
    80200338:	0005079b          	sext.w	a5,a0
	u32 ret = readl(uartRegRXFIFO);
    8020033c:	0820000f          	fence	i,r
    while (ret & UART_RXFIFO_EMPTY) {
    80200340:	853e                	mv	a0,a5
    80200342:	0007dd63          	bgez	a5,8020035c <getchar+0x32>
	asm volatile("lw %0, 0(%1)" : "=r"(val) : "r"(addr));
    80200346:	10010737          	lui	a4,0x10010
    8020034a:	0711                	addi	a4,a4,4
    8020034c:	4308                	lw	a0,0(a4)
    8020034e:	0005079b          	sext.w	a5,a0
        ret = readl(uartRegRXFIFO);
    80200352:	0820000f          	fence	i,r
    while (ret & UART_RXFIFO_EMPTY) {
    80200356:	853e                	mv	a0,a5
    80200358:	fe07cae3          	bltz	a5,8020034c <getchar+0x22>
    if ((ret & UART_RXFIFO_DATA) == '\r')
    8020035c:	0ff7f793          	zext.b	a5,a5
    80200360:	4735                	li	a4,13
    80200362:	00e78763          	beq	a5,a4,80200370 <getchar+0x46>
    return ret & UART_RXFIFO_DATA;
    80200366:	0ff57513          	zext.b	a0,a0
}
    8020036a:	6422                	ld	s0,8(sp)
    8020036c:	0141                	addi	sp,sp,16
    8020036e:	8082                	ret
        return '\n';
    80200370:	4529                	li	a0,10
    80200372:	bfe5                	j	8020036a <getchar+0x40>

0000000080200374 <consoleInit>:

void consoleInit() {
    80200374:	1141                	addi	sp,sp,-16
    80200376:	e406                	sd	ra,8(sp)
    80200378:	e022                	sd	s0,0(sp)
    8020037a:	0800                	addi	s0,sp,16
    initLock(&consoleLock, "console");
    8020037c:	0000c597          	auipc	a1,0xc
    80200380:	cd458593          	addi	a1,a1,-812 # 8020c050 <textEnd+0x50>
    80200384:	001c2517          	auipc	a0,0x1c2
    80200388:	c8450513          	addi	a0,a0,-892 # 803c2008 <consoleLock>
    8020038c:	00005097          	auipc	ra,0x5
    80200390:	6d8080e7          	jalr	1752(ra) # 80205a64 <initLock>

    devsw[DEV_CONSOLE].read = consoleRead;
    80200394:	00419797          	auipc	a5,0x419
    80200398:	ca478793          	addi	a5,a5,-860 # 80619038 <devsw>
    8020039c:	00000717          	auipc	a4,0x0
    802003a0:	e9470713          	addi	a4,a4,-364 # 80200230 <consoleRead>
    802003a4:	eb98                	sd	a4,16(a5)
    devsw[DEV_CONSOLE].write = consoleWrite;
    802003a6:	00000717          	auipc	a4,0x0
    802003aa:	dec70713          	addi	a4,a4,-532 # 80200192 <consoleWrite>
    802003ae:	ef98                	sd	a4,24(a5)
    802003b0:	60a2                	ld	ra,8(sp)
    802003b2:	6402                	ld	s0,0(sp)
    802003b4:	0141                	addi	sp,sp,16
    802003b6:	8082                	ret

00000000802003b8 <printLockInit>:

struct Spinlock printLock;

#define IsDigit(x)  (((x) >= '0') && ((x) <= '9'))

inline void printLockInit(void) {
    802003b8:	1141                	addi	sp,sp,-16
    802003ba:	e406                	sd	ra,8(sp)
    802003bc:	e022                	sd	s0,0(sp)
    802003be:	0800                	addi	s0,sp,16
    initLock(&printLock, "printLock");
    802003c0:	0000c597          	auipc	a1,0xc
    802003c4:	c9858593          	addi	a1,a1,-872 # 8020c058 <textEnd+0x58>
    802003c8:	001c2517          	auipc	a0,0x1c2
    802003cc:	c9850513          	addi	a0,a0,-872 # 803c2060 <printLock>
    802003d0:	00005097          	auipc	ra,0x5
    802003d4:	694080e7          	jalr	1684(ra) # 80205a64 <initLock>
}
    802003d8:	60a2                	ld	ra,8(sp)
    802003da:	6402                	ld	s0,0(sp)
    802003dc:	0141                	addi	sp,sp,16
    802003de:	8082                	ret

00000000802003e0 <printChar>:
    print(fmt, ap);
    va_end(ap);
    releaseLock(&printLock);
}

void printChar(char *buf, char c, int length, int ladjust) {
    802003e0:	1141                	addi	sp,sp,-16
    802003e2:	e422                	sd	s0,8(sp)
    802003e4:	0800                	addi	s0,sp,16
    int i;

    if (length < 1)
    802003e6:	8732                	mv	a4,a2
    802003e8:	04c05063          	blez	a2,80200428 <printChar+0x48>
    802003ec:	2701                	sext.w	a4,a4
        length = 1;
    if (ladjust)
    802003ee:	ee9d                	bnez	a3,8020042c <printChar+0x4c>
        for (i = 1; i < length; i++)
            buf[i] = ' ';
    }
    else
    {
        for (i = 0; i < length - 1; i++)
    802003f0:	4785                	li	a5,1
    802003f2:	02c7d163          	bge	a5,a2,80200414 <printChar+0x34>
    802003f6:	87aa                	mv	a5,a0
    802003f8:	00150693          	addi	a3,a0,1
    802003fc:	ffe7061b          	addiw	a2,a4,-2
    80200400:	1602                	slli	a2,a2,0x20
    80200402:	9201                	srli	a2,a2,0x20
    80200404:	96b2                	add	a3,a3,a2
            buf[i] = ' ';
    80200406:	02000613          	li	a2,32
    8020040a:	00c78023          	sb	a2,0(a5)
        for (i = 0; i < length - 1; i++)
    8020040e:	0785                	addi	a5,a5,1
    80200410:	fed79de3          	bne	a5,a3,8020040a <printChar+0x2a>
        buf[length - 1] = c;
    80200414:	00e507b3          	add	a5,a0,a4
    80200418:	feb78fa3          	sb	a1,-1(a5)
    }
    buf[length] = '\0';
    8020041c:	953a                	add	a0,a0,a4
    8020041e:	00050023          	sb	zero,0(a0)
}
    80200422:	6422                	ld	s0,8(sp)
    80200424:	0141                	addi	sp,sp,16
    80200426:	8082                	ret
    80200428:	4705                	li	a4,1
    8020042a:	b7c9                	j	802003ec <printChar+0xc>
        *buf = c;
    8020042c:	00b50023          	sb	a1,0(a0)
        for (i = 1; i < length; i++)
    80200430:	4785                	li	a5,1
    80200432:	fec7d5e3          	bge	a5,a2,8020041c <printChar+0x3c>
            buf[i] = ' ';
    80200436:	02000613          	li	a2,32
    8020043a:	00f506b3          	add	a3,a0,a5
    8020043e:	00c68023          	sb	a2,0(a3)
        for (i = 1; i < length; i++)
    80200442:	0785                	addi	a5,a5,1
    80200444:	0007869b          	sext.w	a3,a5
    80200448:	fee6c9e3          	blt	a3,a4,8020043a <printChar+0x5a>
    8020044c:	bfc1                	j	8020041c <printChar+0x3c>

000000008020044e <printString>:

void printString(char * buf, char* s, int length, int ladjust) {
    8020044e:	1141                	addi	sp,sp,-16
    80200450:	e422                	sd	s0,8(sp)
    80200452:	0800                	addi	s0,sp,16
    int i;
    int len = 0;
    char *s1 = s;
    while (*s1++)
    80200454:	0005c783          	lbu	a5,0(a1)
    80200458:	c3f9                	beqz	a5,8020051e <printString+0xd0>
    8020045a:	00158713          	addi	a4,a1,1
    int len = 0;
    8020045e:	4781                	li	a5,0
        len++;
    80200460:	88be                	mv	a7,a5
    80200462:	2785                	addiw	a5,a5,1
    while (*s1++)
    80200464:	0705                	addi	a4,a4,1
    80200466:	fff74803          	lbu	a6,-1(a4)
    8020046a:	fe081be3          	bnez	a6,80200460 <printString+0x12>
    if (length < len)
    8020046e:	8732                	mv	a4,a2
    80200470:	00f65363          	bge	a2,a5,80200476 <printString+0x28>
    80200474:	873e                	mv	a4,a5
    80200476:	0007081b          	sext.w	a6,a4
        length = len;

    if (ladjust)
    8020047a:	e6b9                	bnez	a3,802004c8 <printString+0x7a>
        for (i = len; i < length; i++)
            buf[i] = ' ';
    }
    else
    {
        for (i = 0; i < length - len; i++)
    8020047c:	9f1d                	subw	a4,a4,a5
    8020047e:	02e05263          	blez	a4,802004a2 <printString+0x54>
    80200482:	86aa                	mv	a3,a0
    80200484:	00150613          	addi	a2,a0,1
    80200488:	fff7089b          	addiw	a7,a4,-1
    8020048c:	1882                	slli	a7,a7,0x20
    8020048e:	0208d893          	srli	a7,a7,0x20
    80200492:	9646                	add	a2,a2,a7
            buf[i] = ' ';
    80200494:	02000893          	li	a7,32
    80200498:	01168023          	sb	a7,0(a3)
        for (i = 0; i < length - len; i++)
    8020049c:	0685                	addi	a3,a3,1
    8020049e:	fec69de3          	bne	a3,a2,80200498 <printString+0x4a>
        for (i = length - len; i < length; i++)
    802004a2:	07075663          	bge	a4,a6,8020050e <printString+0xc0>
            buf[i] = s[i - length + len];
    802004a6:	410787b3          	sub	a5,a5,a6
    802004aa:	00e786b3          	add	a3,a5,a4
    802004ae:	96ae                	add	a3,a3,a1
    802004b0:	0006c603          	lbu	a2,0(a3)
    802004b4:	00e506b3          	add	a3,a0,a4
    802004b8:	00c68023          	sb	a2,0(a3)
        for (i = length - len; i < length; i++)
    802004bc:	0705                	addi	a4,a4,1
    802004be:	0007069b          	sext.w	a3,a4
    802004c2:	ff06c4e3          	blt	a3,a6,802004aa <printString+0x5c>
    802004c6:	a0a1                	j	8020050e <printString+0xc0>
        for (i = 0; i < len; i++)
    802004c8:	00f05f63          	blez	a5,802004e6 <printString+0x98>
    802004cc:	862a                	mv	a2,a0
    802004ce:	872e                	mv	a4,a1
            buf[i] = s[i];
    802004d0:	00074683          	lbu	a3,0(a4)
    802004d4:	00d60023          	sb	a3,0(a2)
        for (i = 0; i < len; i++)
    802004d8:	0705                	addi	a4,a4,1
    802004da:	0605                	addi	a2,a2,1
    802004dc:	40b706bb          	subw	a3,a4,a1
    802004e0:	36fd                	addiw	a3,a3,-1
    802004e2:	ff16c7e3          	blt	a3,a7,802004d0 <printString+0x82>
        for (i = len; i < length; i++)
    802004e6:	0307d463          	bge	a5,a6,8020050e <printString+0xc0>
    802004ea:	00f50733          	add	a4,a0,a5
    802004ee:	fff8069b          	addiw	a3,a6,-1
    802004f2:	9e9d                	subw	a3,a3,a5
    802004f4:	1682                	slli	a3,a3,0x20
    802004f6:	9281                	srli	a3,a3,0x20
    802004f8:	00150613          	addi	a2,a0,1
    802004fc:	97b2                	add	a5,a5,a2
    802004fe:	97b6                	add	a5,a5,a3
            buf[i] = ' ';
    80200500:	02000693          	li	a3,32
    80200504:	00d70023          	sb	a3,0(a4)
        for (i = len; i < length; i++)
    80200508:	0705                	addi	a4,a4,1
    8020050a:	fef71de3          	bne	a4,a5,80200504 <printString+0xb6>
    }
    buf[length] = '\0';
    8020050e:	982a                	add	a6,a6,a0
    80200510:	00080023          	sb	zero,0(a6)
}
    80200514:	6422                	ld	s0,8(sp)
    80200516:	0141                	addi	sp,sp,16
    80200518:	8082                	ret
    int len = 0;
    8020051a:	4781                	li	a5,0
    8020051c:	b7e9                	j	802004e6 <printString+0x98>
    if (length < len)
    8020051e:	fff64813          	not	a6,a2
    80200522:	43f85813          	srai	a6,a6,0x3f
    80200526:	00c87833          	and	a6,a6,a2
    if (ladjust)
    8020052a:	fae5                	bnez	a3,8020051a <printString+0xcc>
        for (i = 0; i < length - len; i++)
    8020052c:	8742                	mv	a4,a6
    int len = 0;
    8020052e:	87b6                	mv	a5,a3
        for (i = 0; i < length - len; i++)
    80200530:	f4c049e3          	bgtz	a2,80200482 <printString+0x34>
    80200534:	bfe9                	j	8020050e <printString+0xc0>

0000000080200536 <printNum>:

void printNum(char * buf, unsigned long u, int base, int negFlag, 
	 int length, int ladjust, char padc, int upcase)
{
    80200536:	1141                	addi	sp,sp,-16
    80200538:	e422                	sd	s0,8(sp)
    8020053a:	0800                	addi	s0,sp,16
    int actualLength = 0;
    char *p = buf;
    8020053c:	00150e13          	addi	t3,a0,1
    int i;

    do
    {
        int tmp = u % base;
    80200540:	8fb2                	mv	t6,a2
        if (tmp <= 9)
    80200542:	4f25                	li	t5,9
    80200544:	a005                	j	80200564 <printNum+0x2e>
        {
            *p++ = '0' + tmp;
        }
        else if (upcase)
    80200546:	02088b63          	beqz	a7,8020057c <printNum+0x46>
        {
            *p++ = 'A' + tmp - 10;
    8020054a:	8ef2                	mv	t4,t3
    8020054c:	0373031b          	addiw	t1,t1,55
    80200550:	0ff37313          	zext.b	t1,t1
            *p++ = '0' + tmp;
    80200554:	fe6e0fa3          	sb	t1,-1(t3)
        }
        else
        {
            *p++ = 'a' + tmp - 10;
        }
        u /= base;
    80200558:	02c5d333          	divu	t1,a1,a2
    } while (u != 0);
    8020055c:	0e05                	addi	t3,t3,1
    8020055e:	03f5e563          	bltu	a1,t6,80200588 <printNum+0x52>
        u /= base;
    80200562:	859a                	mv	a1,t1
        int tmp = u % base;
    80200564:	02c5f333          	remu	t1,a1,a2
        if (tmp <= 9)
    80200568:	00030e9b          	sext.w	t4,t1
    8020056c:	fddf4de3          	blt	t5,t4,80200546 <printNum+0x10>
            *p++ = '0' + tmp;
    80200570:	8ef2                	mv	t4,t3
    80200572:	0303031b          	addiw	t1,t1,48
    80200576:	0ff37313          	zext.b	t1,t1
    8020057a:	bfe9                	j	80200554 <printNum+0x1e>
            *p++ = 'a' + tmp - 10;
    8020057c:	8ef2                	mv	t4,t3
    8020057e:	0573031b          	addiw	t1,t1,87
    80200582:	0ff37313          	zext.b	t1,t1
    80200586:	b7f9                	j	80200554 <printNum+0x1e>

    if (negFlag)
    80200588:	c685                	beqz	a3,802005b0 <printNum+0x7a>
    {
        *p++ = '-';
    8020058a:	02d00613          	li	a2,45
    8020058e:	00ce8023          	sb	a2,0(t4)
    80200592:	0e85                	addi	t4,t4,1
    }

    /* figure out actual length and adjust the maximum length */
    actualLength = p - buf;
    80200594:	40ae8eb3          	sub	t4,t4,a0
    80200598:	000e859b          	sext.w	a1,t4
    if (length < actualLength)
    8020059c:	88ae                	mv	a7,a1
    8020059e:	00e5d363          	bge	a1,a4,802005a4 <printNum+0x6e>
    802005a2:	88ba                	mv	a7,a4
    802005a4:	2881                	sext.w	a7,a7
        length = actualLength;

    /* add padding */
    if (ladjust)
    802005a6:	e78d                	bnez	a5,802005d0 <printNum+0x9a>
    {
        padc = ' ';
    }
    if (negFlag && !ladjust && (padc == '0'))
    802005a8:	e2d1                	bnez	a3,8020062c <printNum+0xf6>
            buf[i] = padc;
        buf[length - 1] = '-';
    }
    else
    {
        for (i = actualLength; i < length; i++)
    802005aa:	0315c763          	blt	a1,a7,802005d8 <printNum+0xa2>
    802005ae:	a87d                	j	8020066c <printNum+0x136>
    actualLength = p - buf;
    802005b0:	40ae8eb3          	sub	t4,t4,a0
    802005b4:	000e859b          	sext.w	a1,t4
    if (length < actualLength)
    802005b8:	88ae                	mv	a7,a1
    802005ba:	00e5d363          	bge	a1,a4,802005c0 <printNum+0x8a>
    802005be:	88ba                	mv	a7,a4
    802005c0:	2881                	sext.w	a7,a7
    if (ladjust)
    802005c2:	d3fd                	beqz	a5,802005a8 <printNum+0x72>
    if (negFlag && !ladjust && (padc == '0'))
    802005c4:	e691                	bnez	a3,802005d0 <printNum+0x9a>
        padc = ' ';
    802005c6:	02000813          	li	a6,32
        for (i = actualLength; i < length; i++)
    802005ca:	0115c763          	blt	a1,a7,802005d8 <printNum+0xa2>
    802005ce:	a005                	j	802005ee <printNum+0xb8>
        padc = ' ';
    802005d0:	02000813          	li	a6,32
        for (i = actualLength; i < length; i++)
    802005d4:	0115dd63          	bge	a1,a7,802005ee <printNum+0xb8>
    802005d8:	872e                	mv	a4,a1
            buf[i] = padc;
    802005da:	00e506b3          	add	a3,a0,a4
    802005de:	01068023          	sb	a6,0(a3)
        for (i = actualLength; i < length; i++)
    802005e2:	0705                	addi	a4,a4,1
    802005e4:	0007069b          	sext.w	a3,a4
    802005e8:	ff16c9e3          	blt	a3,a7,802005da <printNum+0xa4>

    /* prepare to reverse the string */
    {
        int begin = 0;
        int end;
        if (ladjust)
    802005ec:	c3c1                	beqz	a5,8020066c <printNum+0x136>
        {
            end = actualLength - 1;
    802005ee:	35fd                	addiw	a1,a1,-1
        else
        {
            end = length - 1;
        }

        while (end > begin)
    802005f0:	02b05863          	blez	a1,80200620 <printNum+0xea>
    802005f4:	86aa                	mv	a3,a0
    802005f6:	00b50733          	add	a4,a0,a1
    802005fa:	4601                	li	a2,0
        {
            char tmp = buf[begin];
    802005fc:	0006c783          	lbu	a5,0(a3)
            buf[begin] = buf[end];
    80200600:	00074803          	lbu	a6,0(a4)
    80200604:	01068023          	sb	a6,0(a3)
            buf[end] = tmp;
    80200608:	00f70023          	sb	a5,0(a4)
            begin++;
    8020060c:	0016079b          	addiw	a5,a2,1
    80200610:	0007861b          	sext.w	a2,a5
        while (end > begin)
    80200614:	0685                	addi	a3,a3,1
    80200616:	177d                	addi	a4,a4,-1
    80200618:	40f587bb          	subw	a5,a1,a5
    8020061c:	fef640e3          	blt	a2,a5,802005fc <printNum+0xc6>
            end--;
        }
    }

    /* adjust the string pointer */
    buf[length] = '\0';
    80200620:	98aa                	add	a7,a7,a0
    80200622:	00088023          	sb	zero,0(a7)
}
    80200626:	6422                	ld	s0,8(sp)
    80200628:	0141                	addi	sp,sp,16
    8020062a:	8082                	ret
    if (negFlag && !ladjust && (padc == '0'))
    8020062c:	03000713          	li	a4,48
    80200630:	00e80563          	beq	a6,a4,8020063a <printNum+0x104>
        for (i = actualLength; i < length; i++)
    80200634:	fb15c2e3          	blt	a1,a7,802005d8 <printNum+0xa2>
    80200638:	a815                	j	8020066c <printNum+0x136>
        for (i = actualLength - 1; i < length - 1; i++)
    8020063a:	fff5871b          	addiw	a4,a1,-1
    8020063e:	0315d163          	bge	a1,a7,80200660 <printNum+0x12a>
    80200642:	972a                	add	a4,a4,a0
    80200644:	41d887bb          	subw	a5,a7,t4
    80200648:	37fd                	addiw	a5,a5,-1
    8020064a:	1782                	slli	a5,a5,0x20
    8020064c:	9381                	srli	a5,a5,0x20
    8020064e:	95aa                	add	a1,a1,a0
    80200650:	97ae                	add	a5,a5,a1
            buf[i] = padc;
    80200652:	03000693          	li	a3,48
    80200656:	00d70023          	sb	a3,0(a4)
        for (i = actualLength - 1; i < length - 1; i++)
    8020065a:	0705                	addi	a4,a4,1
    8020065c:	fef71de3          	bne	a4,a5,80200656 <printNum+0x120>
        buf[length - 1] = '-';
    80200660:	011507b3          	add	a5,a0,a7
    80200664:	02d00713          	li	a4,45
    80200668:	fee78fa3          	sb	a4,-1(a5)
            end = length - 1;
    8020066c:	fff8859b          	addiw	a1,a7,-1
    80200670:	b741                	j	802005f0 <printNum+0xba>

0000000080200672 <print>:
    for (i = 0; fmt[i]; i++) {
    80200672:	00054783          	lbu	a5,0(a0)
    80200676:	44078463          	beqz	a5,80200abe <print+0x44c>
static void print(const char *fmt, va_list ap) {
    8020067a:	7151                	addi	sp,sp,-240
    8020067c:	f586                	sd	ra,232(sp)
    8020067e:	f1a2                	sd	s0,224(sp)
    80200680:	eda6                	sd	s1,216(sp)
    80200682:	e9ca                	sd	s2,208(sp)
    80200684:	e5ce                	sd	s3,200(sp)
    80200686:	e1d2                	sd	s4,192(sp)
    80200688:	fd56                	sd	s5,184(sp)
    8020068a:	f95a                	sd	s6,176(sp)
    8020068c:	f55e                	sd	s7,168(sp)
    8020068e:	f162                	sd	s8,160(sp)
    80200690:	ed66                	sd	s9,152(sp)
    80200692:	e96a                	sd	s10,144(sp)
    80200694:	e56e                	sd	s11,136(sp)
    80200696:	1980                	addi	s0,sp,240
    80200698:	84aa                	mv	s1,a0
    8020069a:	8aae                	mv	s5,a1
    for (i = 0; fmt[i]; i++) {
    8020069c:	8a2a                	mv	s4,a0
    8020069e:	4901                	li	s2,0
        if (fmt[i] != '%'){
    802006a0:	02500993          	li	s3,37
        if (c == '-') {
    802006a4:	02d00c13          	li	s8,45
            ladjust = 0;
    802006a8:	4b01                	li	s6,0
        if (c == '0') {
    802006aa:	03000b93          	li	s7,48
        switch (c) {
    802006ae:	0000cc97          	auipc	s9,0xc
    802006b2:	9fac8c93          	addi	s9,s9,-1542 # 8020c0a8 <textEnd+0xa8>
    802006b6:	0000cd17          	auipc	s10,0xc
    802006ba:	ac6d0d13          	addi	s10,s10,-1338 # 8020c17c <textEnd+0x17c>
    802006be:	a831                	j	802006da <print+0x68>
            putchar(fmt[i]);
    802006c0:	000a4503          	lbu	a0,0(s4)
    802006c4:	00000097          	auipc	ra,0x0
    802006c8:	c40080e7          	jalr	-960(ra) # 80200304 <putchar>
    for (i = 0; fmt[i]; i++) {
    802006cc:	2905                	addiw	s2,s2,1
    802006ce:	01248a33          	add	s4,s1,s2
    802006d2:	000a4783          	lbu	a5,0(s4)
    802006d6:	3c078563          	beqz	a5,80200aa0 <print+0x42e>
        if (fmt[i] != '%'){
    802006da:	01378b63          	beq	a5,s3,802006f0 <print+0x7e>
            if (fmt[i] == '\n') {
    802006de:	4729                	li	a4,10
    802006e0:	fee790e3          	bne	a5,a4,802006c0 <print+0x4e>
                putchar('\r');
    802006e4:	4535                	li	a0,13
    802006e6:	00000097          	auipc	ra,0x0
    802006ea:	c1e080e7          	jalr	-994(ra) # 80200304 <putchar>
    802006ee:	bfc9                	j	802006c0 <print+0x4e>
        c = fmt[++i];
    802006f0:	00190a1b          	addiw	s4,s2,1
    802006f4:	014487b3          	add	a5,s1,s4
    802006f8:	0007c503          	lbu	a0,0(a5)
            ladjust = 0;
    802006fc:	87da                	mv	a5,s6
        if (c == '-') {
    802006fe:	09850263          	beq	a0,s8,80200782 <print+0x110>
            padc = ' ';
    80200702:	02000813          	li	a6,32
        if (c == '0') {
    80200706:	09750663          	beq	a0,s7,80200792 <print+0x120>
        while (IsDigit(c)) {
    8020070a:	fd05071b          	addiw	a4,a0,-48
    8020070e:	46a5                	li	a3,9
    80200710:	08e6e863          	bltu	a3,a4,802007a0 <print+0x12e>
    80200714:	001a089b          	addiw	a7,s4,1
        width = 0;
    80200718:	875a                	mv	a4,s6
        while (IsDigit(c)) {
    8020071a:	4325                	li	t1,9
            width = (width << 3) + (width << 1) + c - '0';
    8020071c:	0027159b          	slliw	a1,a4,0x2
    80200720:	9db9                	addw	a1,a1,a4
    80200722:	0015959b          	slliw	a1,a1,0x1
    80200726:	9da9                	addw	a1,a1,a0
    80200728:	fd05871b          	addiw	a4,a1,-48
            c = fmt[++i];
    8020072c:	00088a1b          	sext.w	s4,a7
    80200730:	01148633          	add	a2,s1,a7
    80200734:	00064583          	lbu	a1,0(a2)
    80200738:	0005851b          	sext.w	a0,a1
        while (IsDigit(c)) {
    8020073c:	0885                	addi	a7,a7,1
    8020073e:	fd05859b          	addiw	a1,a1,-48
    80200742:	fcb37de3          	bgeu	t1,a1,8020071c <print+0xaa>
        if (c == '.') {
    80200746:	02e00693          	li	a3,46
    8020074a:	04d50d63          	beq	a0,a3,802007a4 <print+0x132>
        if (c == 'l') {
    8020074e:	06c00693          	li	a3,108
    80200752:	08d50663          	beq	a0,a3,802007de <print+0x16c>
        switch (c) {
    80200756:	32050963          	beqz	a0,80200a88 <print+0x416>
    8020075a:	fbc5069b          	addiw	a3,a0,-68
    8020075e:	03400613          	li	a2,52
    80200762:	32d66763          	bltu	a2,a3,80200a90 <print+0x41e>
    80200766:	fbc5069b          	addiw	a3,a0,-68
    8020076a:	0006859b          	sext.w	a1,a3
    8020076e:	32b66163          	bltu	a2,a1,80200a90 <print+0x41e>
    80200772:	02069613          	slli	a2,a3,0x20
    80200776:	01e65693          	srli	a3,a2,0x1e
    8020077a:	96e6                	add	a3,a3,s9
    8020077c:	4294                	lw	a3,0(a3)
    8020077e:	96e6                	add	a3,a3,s9
    80200780:	8682                	jr	a3
            c = fmt[++i];
    80200782:	00290a1b          	addiw	s4,s2,2
    80200786:	014487b3          	add	a5,s1,s4
    8020078a:	0007c503          	lbu	a0,0(a5)
            ladjust = 1;
    8020078e:	4785                	li	a5,1
    80200790:	bf8d                	j	80200702 <print+0x90>
            c = fmt[++i];
    80200792:	2a05                	addiw	s4,s4,1
    80200794:	01448733          	add	a4,s1,s4
    80200798:	00074503          	lbu	a0,0(a4)
            padc = '0';
    8020079c:	885e                	mv	a6,s7
    8020079e:	b7b5                	j	8020070a <print+0x98>
        width = 0;
    802007a0:	875a                	mv	a4,s6
    802007a2:	b755                	j	80200746 <print+0xd4>
            c = fmt[++i];
    802007a4:	001a069b          	addiw	a3,s4,1
    802007a8:	00d48633          	add	a2,s1,a3
    802007ac:	00064503          	lbu	a0,0(a2)
            while (IsDigit(c)) {
    802007b0:	fd05031b          	addiw	t1,a0,-48
    802007b4:	48a5                	li	a7,9
    802007b6:	002a061b          	addiw	a2,s4,2
    802007ba:	45a5                	li	a1,9
            c = fmt[++i];
    802007bc:	2501                	sext.w	a0,a0
    802007be:	8a36                	mv	s4,a3
            while (IsDigit(c)) {
    802007c0:	f868e7e3          	bltu	a7,t1,8020074e <print+0xdc>
                c = fmt[++i];
    802007c4:	00060a1b          	sext.w	s4,a2
    802007c8:	00c486b3          	add	a3,s1,a2
    802007cc:	0006c503          	lbu	a0,0(a3)
            while (IsDigit(c)) {
    802007d0:	0605                	addi	a2,a2,1
    802007d2:	fd05069b          	addiw	a3,a0,-48
    802007d6:	fed5f7e3          	bgeu	a1,a3,802007c4 <print+0x152>
                c = fmt[++i];
    802007da:	2501                	sext.w	a0,a0
    802007dc:	bf8d                	j	8020074e <print+0xdc>
            c = fmt[++i];
    802007de:	2a05                	addiw	s4,s4,1
    802007e0:	014486b3          	add	a3,s1,s4
    802007e4:	0006c503          	lbu	a0,0(a3)
        switch (c) {
    802007e8:	2a050063          	beqz	a0,80200a88 <print+0x416>
    802007ec:	fbc5069b          	addiw	a3,a0,-68
    802007f0:	0ff6f693          	zext.b	a3,a3
    802007f4:	03400613          	li	a2,52
    802007f8:	28d66b63          	bltu	a2,a3,80200a8e <print+0x41c>
    802007fc:	fbc5069b          	addiw	a3,a0,-68
    80200800:	0ff6f593          	zext.b	a1,a3
    80200804:	28b66563          	bltu	a2,a1,80200a8e <print+0x41c>
    80200808:	00259693          	slli	a3,a1,0x2
    8020080c:	96ea                	add	a3,a3,s10
    8020080e:	4294                	lw	a3,0(a3)
    80200810:	96ea                	add	a3,a3,s10
    80200812:	8682                	jr	a3
    80200814:	8952                	mv	s2,s4
    80200816:	a011                	j	8020081a <print+0x1a8>
    80200818:	8952                	mv	s2,s4
                c = (char)va_arg(ap, u32);
    8020081a:	008a8a13          	addi	s4,s5,8
    8020081e:	000aca83          	lbu	s5,0(s5)
            	printChar(buf, c, width, ladjust);
    80200822:	86be                	mv	a3,a5
    80200824:	863a                	mv	a2,a4
    80200826:	85d6                	mv	a1,s5
    80200828:	f1040513          	addi	a0,s0,-240
    8020082c:	00000097          	auipc	ra,0x0
    80200830:	bb4080e7          	jalr	-1100(ra) # 802003e0 <printChar>
                putchar(c);
    80200834:	8556                	mv	a0,s5
    80200836:	00000097          	auipc	ra,0x0
    8020083a:	ace080e7          	jalr	-1330(ra) # 80200304 <putchar>
                c = (char)va_arg(ap, u32);
    8020083e:	8ad2                	mv	s5,s4
                break;
    80200840:	b571                	j	802006cc <print+0x5a>
                    num = va_arg(ap, i64);
    80200842:	000ab583          	ld	a1,0(s5)
    80200846:	8952                	mv	s2,s4
    80200848:	0aa1                	addi	s5,s5,8
        negFlag = 0;
    8020084a:	86da                	mv	a3,s6
                if (num < 0) {
    8020084c:	0205c763          	bltz	a1,8020087a <print+0x208>
	            printNum(buf, num, 10, negFlag, width, ladjust, padc, 0);
    80200850:	88da                	mv	a7,s6
    80200852:	4629                	li	a2,10
    80200854:	f1040513          	addi	a0,s0,-240
    80200858:	00000097          	auipc	ra,0x0
    8020085c:	cde080e7          	jalr	-802(ra) # 80200536 <printNum>
    while (*s) {
    80200860:	f1044783          	lbu	a5,-240(s0)
    80200864:	e60784e3          	beqz	a5,802006cc <print+0x5a>
    80200868:	f1040a13          	addi	s4,s0,-240
        if (*s == '\n') {
    8020086c:	4da9                	li	s11,10
    8020086e:	a02d                	j	80200898 <print+0x226>
                    num = va_arg(ap, i32);
    80200870:	000aa583          	lw	a1,0(s5)
    80200874:	8952                	mv	s2,s4
    80200876:	0aa1                	addi	s5,s5,8
    80200878:	bfc9                	j	8020084a <print+0x1d8>
                    num = -num;
    8020087a:	40b005b3          	neg	a1,a1
                    negFlag = 1;
    8020087e:	4685                	li	a3,1
    80200880:	bfc1                	j	80200850 <print+0x1de>
        putchar(*s++);
    80200882:	0a05                	addi	s4,s4,1
    80200884:	fffa4503          	lbu	a0,-1(s4)
    80200888:	00000097          	auipc	ra,0x0
    8020088c:	a7c080e7          	jalr	-1412(ra) # 80200304 <putchar>
    while (*s) {
    80200890:	000a4783          	lbu	a5,0(s4)
    80200894:	e2078ce3          	beqz	a5,802006cc <print+0x5a>
        if (*s == '\n') {
    80200898:	ffb795e3          	bne	a5,s11,80200882 <print+0x210>
            putchar('\r');
    8020089c:	4535                	li	a0,13
    8020089e:	00000097          	auipc	ra,0x0
    802008a2:	a66080e7          	jalr	-1434(ra) # 80200304 <putchar>
    802008a6:	bff1                	j	80200882 <print+0x210>
        switch (c) {
    802008a8:	8952                	mv	s2,s4
    802008aa:	4685                	li	a3,1
    802008ac:	a019                	j	802008b2 <print+0x240>
    802008ae:	8952                	mv	s2,s4
    802008b0:	86da                	mv	a3,s6
                if (longFlag) {
    802008b2:	c68d                	beqz	a3,802008dc <print+0x26a>
                    num = va_arg(ap, i64);
    802008b4:	000ab583          	ld	a1,0(s5)
    802008b8:	0aa1                	addi	s5,s5,8
                printNum(buf, num, 8, 0, width, ladjust, padc, 0);
    802008ba:	88da                	mv	a7,s6
    802008bc:	86da                	mv	a3,s6
    802008be:	4621                	li	a2,8
    802008c0:	f1040513          	addi	a0,s0,-240
    802008c4:	00000097          	auipc	ra,0x0
    802008c8:	c72080e7          	jalr	-910(ra) # 80200536 <printNum>
    while (*s) {
    802008cc:	f1044783          	lbu	a5,-240(s0)
    802008d0:	de078ee3          	beqz	a5,802006cc <print+0x5a>
    802008d4:	f1040a13          	addi	s4,s0,-240
        if (*s == '\n') {
    802008d8:	4da9                	li	s11,10
    802008da:	a005                	j	802008fa <print+0x288>
                    num = va_arg(ap, i32);
    802008dc:	000aa583          	lw	a1,0(s5)
    802008e0:	0aa1                	addi	s5,s5,8
    802008e2:	bfe1                	j	802008ba <print+0x248>
        putchar(*s++);
    802008e4:	0a05                	addi	s4,s4,1
    802008e6:	fffa4503          	lbu	a0,-1(s4)
    802008ea:	00000097          	auipc	ra,0x0
    802008ee:	a1a080e7          	jalr	-1510(ra) # 80200304 <putchar>
    while (*s) {
    802008f2:	000a4783          	lbu	a5,0(s4)
    802008f6:	dc078be3          	beqz	a5,802006cc <print+0x5a>
        if (*s == '\n') {
    802008fa:	ffb795e3          	bne	a5,s11,802008e4 <print+0x272>
            putchar('\r');
    802008fe:	4535                	li	a0,13
    80200900:	00000097          	auipc	ra,0x0
    80200904:	a04080e7          	jalr	-1532(ra) # 80200304 <putchar>
    80200908:	bff1                	j	802008e4 <print+0x272>
        switch (c) {
    8020090a:	8952                	mv	s2,s4
    8020090c:	4685                	li	a3,1
    8020090e:	a019                	j	80200914 <print+0x2a2>
    80200910:	8952                	mv	s2,s4
    80200912:	86da                	mv	a3,s6
                if (longFlag) {
    80200914:	c68d                	beqz	a3,8020093e <print+0x2cc>
                    num = va_arg(ap, i64);
    80200916:	000ab583          	ld	a1,0(s5)
    8020091a:	0aa1                	addi	s5,s5,8
	            printNum(buf, num, 10, 0, width, ladjust, padc, 0);
    8020091c:	88da                	mv	a7,s6
    8020091e:	86da                	mv	a3,s6
    80200920:	4629                	li	a2,10
    80200922:	f1040513          	addi	a0,s0,-240
    80200926:	00000097          	auipc	ra,0x0
    8020092a:	c10080e7          	jalr	-1008(ra) # 80200536 <printNum>
    while (*s) {
    8020092e:	f1044783          	lbu	a5,-240(s0)
    80200932:	d8078de3          	beqz	a5,802006cc <print+0x5a>
    80200936:	f1040a13          	addi	s4,s0,-240
        if (*s == '\n') {
    8020093a:	4da9                	li	s11,10
    8020093c:	a005                	j	8020095c <print+0x2ea>
                    num = va_arg(ap, i32);
    8020093e:	000aa583          	lw	a1,0(s5)
    80200942:	0aa1                	addi	s5,s5,8
    80200944:	bfe1                	j	8020091c <print+0x2aa>
        putchar(*s++);
    80200946:	0a05                	addi	s4,s4,1
    80200948:	fffa4503          	lbu	a0,-1(s4)
    8020094c:	00000097          	auipc	ra,0x0
    80200950:	9b8080e7          	jalr	-1608(ra) # 80200304 <putchar>
    while (*s) {
    80200954:	000a4783          	lbu	a5,0(s4)
    80200958:	d6078ae3          	beqz	a5,802006cc <print+0x5a>
        if (*s == '\n') {
    8020095c:	ffb795e3          	bne	a5,s11,80200946 <print+0x2d4>
            putchar('\r');
    80200960:	4535                	li	a0,13
    80200962:	00000097          	auipc	ra,0x0
    80200966:	9a2080e7          	jalr	-1630(ra) # 80200304 <putchar>
    8020096a:	bff1                	j	80200946 <print+0x2d4>
        switch (c) {
    8020096c:	8952                	mv	s2,s4
    8020096e:	4685                	li	a3,1
    80200970:	a019                	j	80200976 <print+0x304>
    80200972:	8952                	mv	s2,s4
    80200974:	86da                	mv	a3,s6
                if (longFlag) {
    80200976:	c68d                	beqz	a3,802009a0 <print+0x32e>
                    num = va_arg(ap, i64);
    80200978:	000ab583          	ld	a1,0(s5)
    8020097c:	0aa1                	addi	s5,s5,8
                printNum(buf, num, 16, 0, width, ladjust, padc, 0);
    8020097e:	88da                	mv	a7,s6
    80200980:	86da                	mv	a3,s6
    80200982:	4641                	li	a2,16
    80200984:	f1040513          	addi	a0,s0,-240
    80200988:	00000097          	auipc	ra,0x0
    8020098c:	bae080e7          	jalr	-1106(ra) # 80200536 <printNum>
    while (*s) {
    80200990:	f1044783          	lbu	a5,-240(s0)
    80200994:	d2078ce3          	beqz	a5,802006cc <print+0x5a>
    80200998:	f1040a13          	addi	s4,s0,-240
        if (*s == '\n') {
    8020099c:	4da9                	li	s11,10
    8020099e:	a005                	j	802009be <print+0x34c>
                    num = va_arg(ap, i32);
    802009a0:	000aa583          	lw	a1,0(s5)
    802009a4:	0aa1                	addi	s5,s5,8
    802009a6:	bfe1                	j	8020097e <print+0x30c>
        putchar(*s++);
    802009a8:	0a05                	addi	s4,s4,1
    802009aa:	fffa4503          	lbu	a0,-1(s4)
    802009ae:	00000097          	auipc	ra,0x0
    802009b2:	956080e7          	jalr	-1706(ra) # 80200304 <putchar>
    while (*s) {
    802009b6:	000a4783          	lbu	a5,0(s4)
    802009ba:	d00789e3          	beqz	a5,802006cc <print+0x5a>
        if (*s == '\n') {
    802009be:	ffb795e3          	bne	a5,s11,802009a8 <print+0x336>
            putchar('\r');
    802009c2:	4535                	li	a0,13
    802009c4:	00000097          	auipc	ra,0x0
    802009c8:	940080e7          	jalr	-1728(ra) # 80200304 <putchar>
    802009cc:	bff1                	j	802009a8 <print+0x336>
                    num = va_arg(ap, i64);
    802009ce:	000ab583          	ld	a1,0(s5)
            c = fmt[++i];
    802009d2:	8952                	mv	s2,s4
                    num = va_arg(ap, i64);
    802009d4:	0aa1                	addi	s5,s5,8
                printNum(buf, num, 16, 0, width, ladjust, padc, 1);
    802009d6:	4885                	li	a7,1
    802009d8:	86da                	mv	a3,s6
    802009da:	4641                	li	a2,16
    802009dc:	f1040513          	addi	a0,s0,-240
    802009e0:	00000097          	auipc	ra,0x0
    802009e4:	b56080e7          	jalr	-1194(ra) # 80200536 <printNum>
    while (*s) {
    802009e8:	f1044783          	lbu	a5,-240(s0)
    802009ec:	ce0780e3          	beqz	a5,802006cc <print+0x5a>
    802009f0:	f1040a13          	addi	s4,s0,-240
        if (*s == '\n') {
    802009f4:	4da9                	li	s11,10
    802009f6:	a00d                	j	80200a18 <print+0x3a6>
                    num = va_arg(ap, i32);
    802009f8:	000aa583          	lw	a1,0(s5)
    802009fc:	8952                	mv	s2,s4
    802009fe:	0aa1                	addi	s5,s5,8
    80200a00:	bfd9                	j	802009d6 <print+0x364>
        putchar(*s++);
    80200a02:	0a05                	addi	s4,s4,1
    80200a04:	fffa4503          	lbu	a0,-1(s4)
    80200a08:	00000097          	auipc	ra,0x0
    80200a0c:	8fc080e7          	jalr	-1796(ra) # 80200304 <putchar>
    while (*s) {
    80200a10:	000a4783          	lbu	a5,0(s4)
    80200a14:	ca078ce3          	beqz	a5,802006cc <print+0x5a>
        if (*s == '\n') {
    80200a18:	ffb795e3          	bne	a5,s11,80200a02 <print+0x390>
            putchar('\r');
    80200a1c:	4535                	li	a0,13
    80200a1e:	00000097          	auipc	ra,0x0
    80200a22:	8e6080e7          	jalr	-1818(ra) # 80200304 <putchar>
    80200a26:	bff1                	j	80200a02 <print+0x390>
        switch (c) {
    80200a28:	8952                	mv	s2,s4
    80200a2a:	a011                	j	80200a2e <print+0x3bc>
    80200a2c:	8952                	mv	s2,s4
                if ((s = va_arg(ap, char*)) == 0) {
    80200a2e:	008a8d93          	addi	s11,s5,8
    80200a32:	000ab583          	ld	a1,0(s5)
    80200a36:	c185                	beqz	a1,80200a56 <print+0x3e4>
                printString(buf, s, width, ladjust);
    80200a38:	86be                	mv	a3,a5
    80200a3a:	863a                	mv	a2,a4
    80200a3c:	f1040513          	addi	a0,s0,-240
    80200a40:	00000097          	auipc	ra,0x0
    80200a44:	a0e080e7          	jalr	-1522(ra) # 8020044e <printString>
    while (*s) {
    80200a48:	f1044783          	lbu	a5,-240(s0)
    80200a4c:	cba1                	beqz	a5,80200a9c <print+0x42a>
    80200a4e:	f1040a13          	addi	s4,s0,-240
        if (*s == '\n') {
    80200a52:	4aa9                	li	s5,10
    80200a54:	a005                	j	80200a74 <print+0x402>
                    s = "(null)";
    80200a56:	0000b597          	auipc	a1,0xb
    80200a5a:	61258593          	addi	a1,a1,1554 # 8020c068 <textEnd+0x68>
    80200a5e:	bfe9                	j	80200a38 <print+0x3c6>
        putchar(*s++);
    80200a60:	0a05                	addi	s4,s4,1
    80200a62:	fffa4503          	lbu	a0,-1(s4)
    80200a66:	00000097          	auipc	ra,0x0
    80200a6a:	89e080e7          	jalr	-1890(ra) # 80200304 <putchar>
    while (*s) {
    80200a6e:	000a4783          	lbu	a5,0(s4)
    80200a72:	cb89                	beqz	a5,80200a84 <print+0x412>
        if (*s == '\n') {
    80200a74:	ff5796e3          	bne	a5,s5,80200a60 <print+0x3ee>
            putchar('\r');
    80200a78:	4535                	li	a0,13
    80200a7a:	00000097          	auipc	ra,0x0
    80200a7e:	88a080e7          	jalr	-1910(ra) # 80200304 <putchar>
    80200a82:	bff9                	j	80200a60 <print+0x3ee>
                if ((s = va_arg(ap, char*)) == 0) {
    80200a84:	8aee                	mv	s5,s11
    80200a86:	b199                	j	802006cc <print+0x5a>
                i--;
    80200a88:	fffa091b          	addiw	s2,s4,-1
                break;
    80200a8c:	b181                	j	802006cc <print+0x5a>
            c = fmt[++i];
    80200a8e:	2501                	sext.w	a0,a0
                putchar(c);
    80200a90:	00000097          	auipc	ra,0x0
    80200a94:	874080e7          	jalr	-1932(ra) # 80200304 <putchar>
                break;
    80200a98:	8952                	mv	s2,s4
    80200a9a:	b90d                	j	802006cc <print+0x5a>
                if ((s = va_arg(ap, char*)) == 0) {
    80200a9c:	8aee                	mv	s5,s11
    80200a9e:	b13d                	j	802006cc <print+0x5a>
}
    80200aa0:	70ae                	ld	ra,232(sp)
    80200aa2:	740e                	ld	s0,224(sp)
    80200aa4:	64ee                	ld	s1,216(sp)
    80200aa6:	694e                	ld	s2,208(sp)
    80200aa8:	69ae                	ld	s3,200(sp)
    80200aaa:	6a0e                	ld	s4,192(sp)
    80200aac:	7aea                	ld	s5,184(sp)
    80200aae:	7b4a                	ld	s6,176(sp)
    80200ab0:	7baa                	ld	s7,168(sp)
    80200ab2:	7c0a                	ld	s8,160(sp)
    80200ab4:	6cea                	ld	s9,152(sp)
    80200ab6:	6d4a                	ld	s10,144(sp)
    80200ab8:	6daa                	ld	s11,136(sp)
    80200aba:	616d                	addi	sp,sp,240
    80200abc:	8082                	ret
    80200abe:	8082                	ret

0000000080200ac0 <printf>:
void printf(const char *fmt, ...) {
    80200ac0:	7159                	addi	sp,sp,-112
    80200ac2:	f406                	sd	ra,40(sp)
    80200ac4:	f022                	sd	s0,32(sp)
    80200ac6:	ec26                	sd	s1,24(sp)
    80200ac8:	e84a                	sd	s2,16(sp)
    80200aca:	1800                	addi	s0,sp,48
    80200acc:	84aa                	mv	s1,a0
    80200ace:	e40c                	sd	a1,8(s0)
    80200ad0:	e810                	sd	a2,16(s0)
    80200ad2:	ec14                	sd	a3,24(s0)
    80200ad4:	f018                	sd	a4,32(s0)
    80200ad6:	f41c                	sd	a5,40(s0)
    80200ad8:	03043823          	sd	a6,48(s0)
    80200adc:	03143c23          	sd	a7,56(s0)
    acquireLock(&printLock);
    80200ae0:	001c1917          	auipc	s2,0x1c1
    80200ae4:	58090913          	addi	s2,s2,1408 # 803c2060 <printLock>
    80200ae8:	854a                	mv	a0,s2
    80200aea:	00005097          	auipc	ra,0x5
    80200aee:	fc4080e7          	jalr	-60(ra) # 80205aae <acquireLock>
    va_start(ap, fmt);
    80200af2:	00840593          	addi	a1,s0,8
    80200af6:	fcb43c23          	sd	a1,-40(s0)
    print(fmt, ap);
    80200afa:	8526                	mv	a0,s1
    80200afc:	00000097          	auipc	ra,0x0
    80200b00:	b76080e7          	jalr	-1162(ra) # 80200672 <print>
    releaseLock(&printLock);
    80200b04:	854a                	mv	a0,s2
    80200b06:	00005097          	auipc	ra,0x5
    80200b0a:	024080e7          	jalr	36(ra) # 80205b2a <releaseLock>
}
    80200b0e:	70a2                	ld	ra,40(sp)
    80200b10:	7402                	ld	s0,32(sp)
    80200b12:	64e2                	ld	s1,24(sp)
    80200b14:	6942                	ld	s2,16(sp)
    80200b16:	6165                	addi	sp,sp,112
    80200b18:	8082                	ret

0000000080200b1a <panicPrintf>:

void panicPrintf(const char *fmt, ...) {
    80200b1a:	711d                	addi	sp,sp,-96
    80200b1c:	ec06                	sd	ra,24(sp)
    80200b1e:	e822                	sd	s0,16(sp)
    80200b20:	1000                	addi	s0,sp,32
    80200b22:	e40c                	sd	a1,8(s0)
    80200b24:	e810                	sd	a2,16(s0)
    80200b26:	ec14                	sd	a3,24(s0)
    80200b28:	f018                	sd	a4,32(s0)
    80200b2a:	f41c                	sd	a5,40(s0)
    80200b2c:	03043823          	sd	a6,48(s0)
    80200b30:	03143c23          	sd	a7,56(s0)
    va_list ap;
    va_start(ap, fmt);
    80200b34:	00840593          	addi	a1,s0,8
    80200b38:	feb43423          	sd	a1,-24(s0)
    print(fmt, ap);
    80200b3c:	00000097          	auipc	ra,0x0
    80200b40:	b36080e7          	jalr	-1226(ra) # 80200672 <print>
    va_end(ap);
}
    80200b44:	60e2                	ld	ra,24(sp)
    80200b46:	6442                	ld	s0,16(sp)
    80200b48:	6125                	addi	sp,sp,96
    80200b4a:	8082                	ret

0000000080200b4c <_panic_>:

void _panic_(const char *file, int line, const char *func,const char *fmt, ...) {
    80200b4c:	7159                	addi	sp,sp,-112
    80200b4e:	e486                	sd	ra,72(sp)
    80200b50:	e0a2                	sd	s0,64(sp)
    80200b52:	fc26                	sd	s1,56(sp)
    80200b54:	f84a                	sd	s2,48(sp)
    80200b56:	f44e                	sd	s3,40(sp)
    80200b58:	f052                	sd	s4,32(sp)
    80200b5a:	ec56                	sd	s5,24(sp)
    80200b5c:	0880                	addi	s0,sp,80
    80200b5e:	892a                	mv	s2,a0
    80200b60:	89ae                	mv	s3,a1
    80200b62:	8a32                	mv	s4,a2
    80200b64:	84b6                	mv	s1,a3
    80200b66:	e018                	sd	a4,0(s0)
    80200b68:	e41c                	sd	a5,8(s0)
    80200b6a:	01043823          	sd	a6,16(s0)
    80200b6e:	01143c23          	sd	a7,24(s0)
    acquireLock(&printLock);
    80200b72:	001c1a97          	auipc	s5,0x1c1
    80200b76:	4eea8a93          	addi	s5,s5,1262 # 803c2060 <printLock>
    80200b7a:	8556                	mv	a0,s5
    80200b7c:	00005097          	auipc	ra,0x5
    80200b80:	f32080e7          	jalr	-206(ra) # 80205aae <acquireLock>
#define HART_TOTAL_NUMBER 5

// which hart (core) is this?
static inline u64 r_hartid() {
    u64 x;
    asm volatile("mv %0, tp" : "=r" (x) );
    80200b84:	8592                	mv	a1,tp
    panicPrintf("hartId %d panic at %s: %d in %s(): ", r_hartid(), file, line, func);
    80200b86:	8752                	mv	a4,s4
    80200b88:	86ce                	mv	a3,s3
    80200b8a:	864a                	mv	a2,s2
    80200b8c:	0000b517          	auipc	a0,0xb
    80200b90:	4e450513          	addi	a0,a0,1252 # 8020c070 <textEnd+0x70>
    80200b94:	00000097          	auipc	ra,0x0
    80200b98:	f86080e7          	jalr	-122(ra) # 80200b1a <panicPrintf>
    va_list ap;
    va_start(ap, fmt);
    80200b9c:	fa843c23          	sd	s0,-72(s0)
    print(fmt, ap);
    80200ba0:	85a2                	mv	a1,s0
    80200ba2:	8526                	mv	a0,s1
    80200ba4:	00000097          	auipc	ra,0x0
    80200ba8:	ace080e7          	jalr	-1330(ra) # 80200672 <print>
    va_end(ap);
    putchar('\n');
    80200bac:	4529                	li	a0,10
    80200bae:	fffff097          	auipc	ra,0xfffff
    80200bb2:	756080e7          	jalr	1878(ra) # 80200304 <putchar>
    releaseLock(&printLock);
    80200bb6:	8556                	mv	a0,s5
    80200bb8:	00005097          	auipc	ra,0x5
    80200bbc:	f72080e7          	jalr	-142(ra) # 80205b2a <releaseLock>
    //timerTick();
    //w_sstatus(r_sstatus() | SSTATUS_SIE);
    while (true);
    80200bc0:	a001                	j	80200bc0 <_panic_+0x74>

0000000080200bc2 <_assert_>:
}

void _assert_(const char* file, int line, const char *func, int statement) {
    if (!statement) {
    80200bc2:	c291                	beqz	a3,80200bc6 <_assert_+0x4>
    80200bc4:	8082                	ret
void _assert_(const char* file, int line, const char *func, int statement) {
    80200bc6:	1141                	addi	sp,sp,-16
    80200bc8:	e406                	sd	ra,8(sp)
    80200bca:	e022                	sd	s0,0(sp)
    80200bcc:	0800                	addi	s0,sp,16
        _panic_(file, line, func, "assert failed\n");
    80200bce:	0000b697          	auipc	a3,0xb
    80200bd2:	4ca68693          	addi	a3,a3,1226 # 8020c098 <textEnd+0x98>
    80200bd6:	00000097          	auipc	ra,0x0
    80200bda:	f76080e7          	jalr	-138(ra) # 80200b4c <_panic_>

0000000080200bde <sd_cmd>:
{
	return spi_xfer(0xFF);
}

static u8 sd_cmd(u8 cmd, u32 arg, u8 crc)
{
    80200bde:	1101                	addi	sp,sp,-32
    80200be0:	ec06                	sd	ra,24(sp)
    80200be2:	e822                	sd	s0,16(sp)
    80200be4:	e426                	sd	s1,8(sp)
    80200be6:	1000                	addi	s0,sp,32
	unsigned long n;
	u8 r;

	REG32(spi, SPI_REG_CSMODE) = SPI_CSMODE_HOLD;
    80200be8:	100507b7          	lui	a5,0x10050
    80200bec:	4709                	li	a4,2
    80200bee:	cf98                	sw	a4,24(a5)
	REG32(spi, SPI_REG_TXFIFO) = d;
    80200bf0:	0ff00713          	li	a4,255
    80200bf4:	c7b8                	sw	a4,72(a5)
		r = REG32(spi, SPI_REG_RXFIFO);
    80200bf6:	10050737          	lui	a4,0x10050
    80200bfa:	477c                	lw	a5,76(a4)
	} while (r < 0);
    80200bfc:	fe07cfe3          	bltz	a5,80200bfa <sd_cmd+0x1c>
	REG32(spi, SPI_REG_TXFIFO) = d;
    80200c00:	2501                	sext.w	a0,a0
    80200c02:	100507b7          	lui	a5,0x10050
    80200c06:	c7a8                	sw	a0,72(a5)
		r = REG32(spi, SPI_REG_RXFIFO);
    80200c08:	10050737          	lui	a4,0x10050
    80200c0c:	477c                	lw	a5,76(a4)
	} while (r < 0);
    80200c0e:	fe07cfe3          	bltz	a5,80200c0c <sd_cmd+0x2e>
	sd_dummy();
	spi_xfer(cmd);
	spi_xfer(arg >> 24);
    80200c12:	0185d79b          	srliw	a5,a1,0x18
	REG32(spi, SPI_REG_TXFIFO) = d;
    80200c16:	10050737          	lui	a4,0x10050
    80200c1a:	c73c                	sw	a5,72(a4)
		r = REG32(spi, SPI_REG_RXFIFO);
    80200c1c:	477c                	lw	a5,76(a4)
	} while (r < 0);
    80200c1e:	fe07cfe3          	bltz	a5,80200c1c <sd_cmd+0x3e>
	spi_xfer(arg >> 16);
    80200c22:	0105d79b          	srliw	a5,a1,0x10
    80200c26:	0ff7f793          	zext.b	a5,a5
	REG32(spi, SPI_REG_TXFIFO) = d;
    80200c2a:	10050737          	lui	a4,0x10050
    80200c2e:	c73c                	sw	a5,72(a4)
		r = REG32(spi, SPI_REG_RXFIFO);
    80200c30:	477c                	lw	a5,76(a4)
	} while (r < 0);
    80200c32:	fe07cfe3          	bltz	a5,80200c30 <sd_cmd+0x52>
	spi_xfer(arg >> 8);
    80200c36:	0085d79b          	srliw	a5,a1,0x8
    80200c3a:	0ff7f793          	zext.b	a5,a5
	REG32(spi, SPI_REG_TXFIFO) = d;
    80200c3e:	10050737          	lui	a4,0x10050
    80200c42:	c73c                	sw	a5,72(a4)
		r = REG32(spi, SPI_REG_RXFIFO);
    80200c44:	477c                	lw	a5,76(a4)
	} while (r < 0);
    80200c46:	fe07cfe3          	bltz	a5,80200c44 <sd_cmd+0x66>
	REG32(spi, SPI_REG_TXFIFO) = d;
    80200c4a:	0ff5f593          	zext.b	a1,a1
    80200c4e:	100507b7          	lui	a5,0x10050
    80200c52:	c7ac                	sw	a1,72(a5)
		r = REG32(spi, SPI_REG_RXFIFO);
    80200c54:	10050737          	lui	a4,0x10050
    80200c58:	477c                	lw	a5,76(a4)
	} while (r < 0);
    80200c5a:	fe07cfe3          	bltz	a5,80200c58 <sd_cmd+0x7a>
	REG32(spi, SPI_REG_TXFIFO) = d;
    80200c5e:	0006079b          	sext.w	a5,a2
    80200c62:	10050737          	lui	a4,0x10050
    80200c66:	c73c                	sw	a5,72(a4)
		r = REG32(spi, SPI_REG_RXFIFO);
    80200c68:	477c                	lw	a5,76(a4)
	} while (r < 0);
    80200c6a:	fe07cfe3          	bltz	a5,80200c68 <sd_cmd+0x8a>
    80200c6e:	3e800693          	li	a3,1000
	REG32(spi, SPI_REG_TXFIFO) = d;
    80200c72:	10050737          	lui	a4,0x10050
    80200c76:	04870593          	addi	a1,a4,72 # 10050048 <_start-0x701affb8>
    80200c7a:	0ff00613          	li	a2,255
    80200c7e:	c190                	sw	a2,0(a1)
		r = REG32(spi, SPI_REG_RXFIFO);
    80200c80:	477c                	lw	a5,76(a4)
    80200c82:	0007849b          	sext.w	s1,a5
	} while (r < 0);
    80200c86:	fe07cde3          	bltz	a5,80200c80 <sd_cmd+0xa2>
	spi_xfer(crc);

	n = 1000;
	do {
		r = sd_dummy();
		if (!(r & 0x80)) {
    80200c8a:	0184979b          	slliw	a5,s1,0x18
    80200c8e:	4187d79b          	sraiw	a5,a5,0x18
    80200c92:	0007dc63          	bgez	a5,80200caa <sd_cmd+0xcc>
			//printf("sd:cmd: %x\r\n", r);
			goto done;
		}
	} while (--n > 0);
    80200c96:	16fd                	addi	a3,a3,-1
    80200c98:	f2fd                	bnez	a3,80200c7e <sd_cmd+0xa0>
	printf("sd_cmd: timeout\n");
    80200c9a:	0000b517          	auipc	a0,0xb
    80200c9e:	5b650513          	addi	a0,a0,1462 # 8020c250 <textEnd+0x250>
    80200ca2:	00000097          	auipc	ra,0x0
    80200ca6:	e1e080e7          	jalr	-482(ra) # 80200ac0 <printf>
done:
	return (r & 0xFF);
}
    80200caa:	0ff4f513          	zext.b	a0,s1
    80200cae:	60e2                	ld	ra,24(sp)
    80200cb0:	6442                	ld	s0,16(sp)
    80200cb2:	64a2                	ld	s1,8(sp)
    80200cb4:	6105                	addi	sp,sp,32
    80200cb6:	8082                	ret

0000000080200cb8 <sdRead>:
#define SPIN_INDEX(i)	(((i) >> SPIN_SHIFT) & 0x3)

//static const char spinner[] = { '-', '/', '|', '\\' };


int sdRead(u8 *buf, u64 startSector, u32 sectorNumber) {
    80200cb8:	711d                	addi	sp,sp,-96
    80200cba:	ec86                	sd	ra,88(sp)
    80200cbc:	e8a2                	sd	s0,80(sp)
    80200cbe:	e4a6                	sd	s1,72(sp)
    80200cc0:	e0ca                	sd	s2,64(sp)
    80200cc2:	fc4e                	sd	s3,56(sp)
    80200cc4:	f852                	sd	s4,48(sp)
    80200cc6:	f456                	sd	s5,40(sp)
    80200cc8:	f05a                	sd	s6,32(sp)
    80200cca:	ec5e                	sd	s7,24(sp)
    80200ccc:	e862                	sd	s8,16(sp)
    80200cce:	e466                	sd	s9,8(sp)
    80200cd0:	1080                	addi	s0,sp,96
    80200cd2:	8caa                	mv	s9,a0
    80200cd4:	8c32                	mv	s8,a2
	volatile u8 *p = (void *)buf;
	int rc = 0;
	int timeout;
	u8 x;
	#ifdef QEMU
	if (sd_cmd(0x52, startSector * 512, 0xE1) != 0x00) {
    80200cd6:	00959b9b          	slliw	s7,a1,0x9
	int readTimes = 0;
    80200cda:	4a01                	li	s4,0
    80200cdc:	6909                	lui	s2,0x2
    80200cde:	70f90b13          	addi	s6,s2,1807 # 270f <_start-0x801fd8f1>
	REG32(spi, SPI_REG_TXFIFO) = d;
    80200ce2:	0ff00993          	li	s3,255
    80200ce6:	84ce                	mv	s1,s3
	crc ^= (crc & 0xff) << 5;
    80200ce8:	1901                	addi	s2,s2,-32
    80200cea:	aa19                	j	80200e00 <sdRead+0x148>
	REG32(spi, SPI_REG_TXFIFO) = d;
    80200cec:	100507b7          	lui	a5,0x10050
    80200cf0:	0ff00713          	li	a4,255
    80200cf4:	c7b8                	sw	a4,72(a5)
		r = REG32(spi, SPI_REG_RXFIFO);
    80200cf6:	47f8                	lw	a4,76(a5)
	} while (r < 0);
    80200cf8:	fe074fe3          	bltz	a4,80200cf6 <sdRead+0x3e>
	REG32(spi, SPI_REG_CSMODE) = SPI_CSMODE_AUTO;
    80200cfc:	100507b7          	lui	a5,0x10050
    80200d00:	0007ac23          	sw	zero,24(a5) # 10050018 <_start-0x701affe8>
	#else
	if (sd_cmd(0x52, startSector, 0xE1) != 0x00) {
	#endif
		sd_cmd_end();
		panic("[SD Read]Read Error, retry times %x\n", readTimes);
    80200d04:	8752                	mv	a4,s4
    80200d06:	0000b697          	auipc	a3,0xb
    80200d0a:	56268693          	addi	a3,a3,1378 # 8020c268 <textEnd+0x268>
    80200d0e:	0000c617          	auipc	a2,0xc
    80200d12:	52a60613          	addi	a2,a2,1322 # 8020d238 <__func__.2>
    80200d16:	0bd00593          	li	a1,189
    80200d1a:	0000b517          	auipc	a0,0xb
    80200d1e:	57650513          	addi	a0,a0,1398 # 8020c290 <textEnd+0x290>
    80200d22:	00000097          	auipc	ra,0x0
    80200d26:	e2a080e7          	jalr	-470(ra) # 80200b4c <_panic_>
    80200d2a:	8746                	mv	a4,a7
	REG32(spi, SPI_REG_TXFIFO) = d;
    80200d2c:	04860513          	addi	a0,a2,72
    80200d30:	a011                	j	80200d34 <sdRead+0x7c>
			goto retry;
		}

		do {
			u8 x = sd_dummy();
			*p++ = x;
    80200d32:	8e1a                	mv	t3,t1
	REG32(spi, SPI_REG_TXFIFO) = d;
    80200d34:	c104                	sw	s1,0(a0)
		r = REG32(spi, SPI_REG_RXFIFO);
    80200d36:	467c                	lw	a5,76(a2)
    80200d38:	0007869b          	sext.w	a3,a5
	} while (r < 0);
    80200d3c:	fe07cde3          	bltz	a5,80200d36 <sdRead+0x7e>
	return (r & 0xFF);
    80200d40:	0ff6f693          	zext.b	a3,a3
			*p++ = x;
    80200d44:	001e0313          	addi	t1,t3,1
    80200d48:	00de0023          	sb	a3,0(t3)
	crc = (u8)(crc >> 8) | (crc << 8);
    80200d4c:	0087579b          	srliw	a5,a4,0x8
    80200d50:	0087171b          	slliw	a4,a4,0x8
    80200d54:	8fd9                	or	a5,a5,a4
    80200d56:	17c2                	slli	a5,a5,0x30
    80200d58:	93c1                	srli	a5,a5,0x30
	crc ^= data;
    80200d5a:	8fb5                	xor	a5,a5,a3
	crc ^= (u8)(crc >> 4) & 0xf;
    80200d5c:	0047d71b          	srliw	a4,a5,0x4
    80200d60:	8b3d                	andi	a4,a4,15
    80200d62:	8f3d                	xor	a4,a4,a5
	crc ^= crc << 12;
    80200d64:	00c7179b          	slliw	a5,a4,0xc
    80200d68:	8f3d                	xor	a4,a4,a5
	crc ^= (crc & 0xff) << 5;
    80200d6a:	0107179b          	slliw	a5,a4,0x10
    80200d6e:	0107d79b          	srliw	a5,a5,0x10
    80200d72:	0057979b          	slliw	a5,a5,0x5
    80200d76:	00f977b3          	and	a5,s2,a5
    80200d7a:	8f3d                	xor	a4,a4,a5
    80200d7c:	1742                	slli	a4,a4,0x30
    80200d7e:	9341                	srli	a4,a4,0x30
			crc = crc16_round(crc, x);
		} while (--n > 0);
    80200d80:	fab319e3          	bne	t1,a1,80200d32 <sdRead+0x7a>
	REG32(spi, SPI_REG_TXFIFO) = d;
    80200d84:	05362423          	sw	s3,72(a2)
		r = REG32(spi, SPI_REG_RXFIFO);
    80200d88:	467c                	lw	a5,76(a2)
    80200d8a:	0007869b          	sext.w	a3,a5
	} while (r < 0);
    80200d8e:	fe07cde3          	bltz	a5,80200d88 <sdRead+0xd0>

		crc_exp = ((u16)sd_dummy() << 8);
    80200d92:	0ff6f693          	zext.b	a3,a3
    80200d96:	0086969b          	slliw	a3,a3,0x8
    80200d9a:	16c2                	slli	a3,a3,0x30
    80200d9c:	92c1                	srli	a3,a3,0x30
	REG32(spi, SPI_REG_TXFIFO) = d;
    80200d9e:	05362423          	sw	s3,72(a2)
		r = REG32(spi, SPI_REG_RXFIFO);
    80200da2:	467c                	lw	a5,76(a2)
    80200da4:	0007851b          	sext.w	a0,a5
	} while (r < 0);
    80200da8:	fe07cde3          	bltz	a5,80200da2 <sdRead+0xea>
		crc_exp |= sd_dummy();
    80200dac:	0ff57793          	zext.b	a5,a0

		if (crc != crc_exp) {
    80200db0:	8fd5                	or	a5,a5,a3
    80200db2:	06e79c63          	bne	a5,a4,80200e2a <sdRead+0x172>
			printf("\b- CRC mismatch ");
			rc = 1;
			break;
		}
	} while (--tot > 0);
    80200db6:	3afd                	addiw	s5,s5,-1
    80200db8:	20058593          	addi	a1,a1,512
    80200dbc:	0b505a63          	blez	s5,80200e70 <sdRead+0x1b8>
    80200dc0:	e0058e13          	addi	t3,a1,-512
	int readTimes = 0;
    80200dc4:	86da                	mv	a3,s6
	REG32(spi, SPI_REG_TXFIFO) = d;
    80200dc6:	04860513          	addi	a0,a2,72
    80200dca:	c104                	sw	s1,0(a0)
		r = REG32(spi, SPI_REG_RXFIFO);
    80200dcc:	467c                	lw	a5,76(a2)
    80200dce:	0007871b          	sext.w	a4,a5
	} while (r < 0);
    80200dd2:	fe07cde3          	bltz	a5,80200dcc <sdRead+0x114>
			if (x == 0xFE)
    80200dd6:	0ff77713          	zext.b	a4,a4
    80200dda:	f50708e3          	beq	a4,a6,80200d2a <sdRead+0x72>
		while (--timeout) {
    80200dde:	36fd                	addiw	a3,a3,-1
    80200de0:	f6ed                	bnez	a3,80200dca <sdRead+0x112>
	// printf("\nread end\n");
	// printf("[SD Read]Finish\n");
	return rc;

retry:
	readTimes++;
    80200de2:	2a05                	addiw	s4,s4,1
	if (readTimes > 10) {
    80200de4:	47ad                	li	a5,11
    80200de6:	08fa0763          	beq	s4,a5,80200e74 <sdRead+0x1bc>
	REG32(spi, SPI_REG_TXFIFO) = d;
    80200dea:	100507b7          	lui	a5,0x10050
    80200dee:	0537a423          	sw	s3,72(a5) # 10050048 <_start-0x701affb8>
		r = REG32(spi, SPI_REG_RXFIFO);
    80200df2:	47f8                	lw	a4,76(a5)
	} while (r < 0);
    80200df4:	fe074fe3          	bltz	a4,80200df2 <sdRead+0x13a>
	REG32(spi, SPI_REG_CSMODE) = SPI_CSMODE_AUTO;
    80200df8:	100507b7          	lui	a5,0x10050
    80200dfc:	0007ac23          	sw	zero,24(a5) # 10050018 <_start-0x701affe8>
	tot = sectorNumber;
    80200e00:	000c0a9b          	sext.w	s5,s8
	if (sd_cmd(0x52, startSector * 512, 0xE1) != 0x00) {
    80200e04:	0e100613          	li	a2,225
    80200e08:	85de                	mv	a1,s7
    80200e0a:	05200513          	li	a0,82
    80200e0e:	00000097          	auipc	ra,0x0
    80200e12:	dd0080e7          	jalr	-560(ra) # 80200bde <sd_cmd>
    80200e16:	ec051be3          	bnez	a0,80200cec <sdRead+0x34>
    80200e1a:	200c8593          	addi	a1,s9,512
	REG32(spi, SPI_REG_TXFIFO) = d;
    80200e1e:	10050637          	lui	a2,0x10050
			if (x == 0xFE)
    80200e22:	0fe00813          	li	a6,254
    80200e26:	4881                	li	a7,0
    80200e28:	bf61                	j	80200dc0 <sdRead+0x108>
			printf("\b- CRC mismatch ");
    80200e2a:	0000b517          	auipc	a0,0xb
    80200e2e:	46e50513          	addi	a0,a0,1134 # 8020c298 <textEnd+0x298>
    80200e32:	00000097          	auipc	ra,0x0
    80200e36:	c8e080e7          	jalr	-882(ra) # 80200ac0 <printf>
			rc = 1;
    80200e3a:	4a85                	li	s5,1
	sd_cmd(0x4C, 0, 0x01);
    80200e3c:	4605                	li	a2,1
    80200e3e:	4581                	li	a1,0
    80200e40:	04c00513          	li	a0,76
    80200e44:	00000097          	auipc	ra,0x0
    80200e48:	d9a080e7          	jalr	-614(ra) # 80200bde <sd_cmd>
    80200e4c:	865a                	mv	a2,s6
	REG32(spi, SPI_REG_TXFIFO) = d;
    80200e4e:	100506b7          	lui	a3,0x10050
    80200e52:	04868593          	addi	a1,a3,72 # 10050048 <_start-0x701affb8>
    80200e56:	c184                	sw	s1,0(a1)
		r = REG32(spi, SPI_REG_RXFIFO);
    80200e58:	46fc                	lw	a5,76(a3)
    80200e5a:	0007871b          	sext.w	a4,a5
	} while (r < 0);
    80200e5e:	fe07cde3          	bltz	a5,80200e58 <sdRead+0x1a0>
		if (x == 0xFF) {
    80200e62:	0ff77713          	zext.b	a4,a4
    80200e66:	03370963          	beq	a4,s3,80200e98 <sdRead+0x1e0>
	while (--timeout) {
    80200e6a:	367d                	addiw	a2,a2,-1
    80200e6c:	f66d                	bnez	a2,80200e56 <sdRead+0x19e>
    80200e6e:	bf95                	j	80200de2 <sdRead+0x12a>
	int rc = 0;
    80200e70:	4a81                	li	s5,0
    80200e72:	b7e9                	j	80200e3c <sdRead+0x184>
		panic("[SD Read]There must be some error in sd read");
    80200e74:	0000b697          	auipc	a3,0xb
    80200e78:	43c68693          	addi	a3,a3,1084 # 8020c2b0 <textEnd+0x2b0>
    80200e7c:	0000c617          	auipc	a2,0xc
    80200e80:	3bc60613          	addi	a2,a2,956 # 8020d238 <__func__.2>
    80200e84:	0f800593          	li	a1,248
    80200e88:	0000b517          	auipc	a0,0xb
    80200e8c:	40850513          	addi	a0,a0,1032 # 8020c290 <textEnd+0x290>
    80200e90:	00000097          	auipc	ra,0x0
    80200e94:	cbc080e7          	jalr	-836(ra) # 80200b4c <_panic_>
	REG32(spi, SPI_REG_TXFIFO) = d;
    80200e98:	100507b7          	lui	a5,0x10050
    80200e9c:	0ff00713          	li	a4,255
    80200ea0:	c7b8                	sw	a4,72(a5)
		r = REG32(spi, SPI_REG_RXFIFO);
    80200ea2:	47f8                	lw	a4,76(a5)
	} while (r < 0);
    80200ea4:	fe074fe3          	bltz	a4,80200ea2 <sdRead+0x1ea>
	REG32(spi, SPI_REG_CSMODE) = SPI_CSMODE_AUTO;
    80200ea8:	100507b7          	lui	a5,0x10050
    80200eac:	0007ac23          	sw	zero,24(a5) # 10050018 <_start-0x701affe8>
	}
	sd_cmd_end();
	goto start;
}
    80200eb0:	8556                	mv	a0,s5
    80200eb2:	60e6                	ld	ra,88(sp)
    80200eb4:	6446                	ld	s0,80(sp)
    80200eb6:	64a6                	ld	s1,72(sp)
    80200eb8:	6906                	ld	s2,64(sp)
    80200eba:	79e2                	ld	s3,56(sp)
    80200ebc:	7a42                	ld	s4,48(sp)
    80200ebe:	7aa2                	ld	s5,40(sp)
    80200ec0:	7b02                	ld	s6,32(sp)
    80200ec2:	6be2                	ld	s7,24(sp)
    80200ec4:	6c42                	ld	s8,16(sp)
    80200ec6:	6ca2                	ld	s9,8(sp)
    80200ec8:	6125                	addi	sp,sp,96
    80200eca:	8082                	ret

0000000080200ecc <sdCardRead>:
	}
	sd_cmd_end();
	goto start;
}

int sdCardRead(int isUser, u64 dst, u64 startAddr, u64 n) {
    80200ecc:	dd010113          	addi	sp,sp,-560
    80200ed0:	22113423          	sd	ra,552(sp)
    80200ed4:	22813023          	sd	s0,544(sp)
    80200ed8:	20913c23          	sd	s1,536(sp)
    80200edc:	21213823          	sd	s2,528(sp)
    80200ee0:	21313423          	sd	s3,520(sp)
    80200ee4:	21413023          	sd	s4,512(sp)
    80200ee8:	1c00                	addi	s0,sp,560
	if (n & ((1 << 9) - 1)) {
    80200eea:	1ff6f793          	andi	a5,a3,511
    80200eee:	eba9                	bnez	a5,80200f40 <sdCardRead+0x74>
    80200ef0:	8a2a                	mv	s4,a0
    80200ef2:	84ae                	mv	s1,a1
		printf("[SD] Card Read error\n");
		return -1;
	}
	if (startAddr & ((1 << 9) - 1)) {
    80200ef4:	1ff67793          	andi	a5,a2,511
    80200ef8:	efb1                	bnez	a5,80200f54 <sdCardRead+0x88>
		printf("[SD] Card Read error\n");
		return -1;	
	}

	if (isUser) {
    80200efa:	e53d                	bnez	a0,80200f68 <sdCardRead+0x9c>
			dst += 512;
			st++;
		}
		return 0;
	}
	int st = (startAddr) >> 9;
    80200efc:	00965993          	srli	s3,a2,0x9
    80200f00:	2981                	sext.w	s3,s3
	for (int i = 0; i < n; i++) {
    80200f02:	ce99                	beqz	a3,80200f20 <sdCardRead+0x54>
    80200f04:	894e                	mv	s2,s3
    80200f06:	99b6                	add	s3,s3,a3
		sdRead((u8*)dst, st, 1);
    80200f08:	4605                	li	a2,1
    80200f0a:	85ca                	mv	a1,s2
    80200f0c:	8526                	mv	a0,s1
    80200f0e:	00000097          	auipc	ra,0x0
    80200f12:	daa080e7          	jalr	-598(ra) # 80200cb8 <sdRead>
		dst += 512;
    80200f16:	20048493          	addi	s1,s1,512
	for (int i = 0; i < n; i++) {
    80200f1a:	0905                	addi	s2,s2,1
    80200f1c:	ff3916e3          	bne	s2,s3,80200f08 <sdCardRead+0x3c>
		st++;
	}
	return 0;
}
    80200f20:	8552                	mv	a0,s4
    80200f22:	22813083          	ld	ra,552(sp)
    80200f26:	22013403          	ld	s0,544(sp)
    80200f2a:	21813483          	ld	s1,536(sp)
    80200f2e:	21013903          	ld	s2,528(sp)
    80200f32:	20813983          	ld	s3,520(sp)
    80200f36:	20013a03          	ld	s4,512(sp)
    80200f3a:	23010113          	addi	sp,sp,560
    80200f3e:	8082                	ret
		printf("[SD] Card Read error\n");
    80200f40:	0000b517          	auipc	a0,0xb
    80200f44:	3a050513          	addi	a0,a0,928 # 8020c2e0 <textEnd+0x2e0>
    80200f48:	00000097          	auipc	ra,0x0
    80200f4c:	b78080e7          	jalr	-1160(ra) # 80200ac0 <printf>
		return -1;
    80200f50:	5a7d                	li	s4,-1
    80200f52:	b7f9                	j	80200f20 <sdCardRead+0x54>
		printf("[SD] Card Read error\n");
    80200f54:	0000b517          	auipc	a0,0xb
    80200f58:	38c50513          	addi	a0,a0,908 # 8020c2e0 <textEnd+0x2e0>
    80200f5c:	00000097          	auipc	ra,0x0
    80200f60:	b64080e7          	jalr	-1180(ra) # 80200ac0 <printf>
		return -1;	
    80200f64:	5a7d                	li	s4,-1
    80200f66:	bf6d                	j	80200f20 <sdCardRead+0x54>
		int st = (startAddr) >> 9;
    80200f68:	00965913          	srli	s2,a2,0x9
    80200f6c:	2901                	sext.w	s2,s2
		for (int i = 0; i < n; i++) {
    80200f6e:	ce9d                	beqz	a3,80200fac <sdCardRead+0xe0>
    80200f70:	89ca                	mv	s3,s2
    80200f72:	9936                	add	s2,s2,a3
			sdRead((u8*)buf, st, 1);
    80200f74:	4605                	li	a2,1
    80200f76:	85ce                	mv	a1,s3
    80200f78:	dd040513          	addi	a0,s0,-560
    80200f7c:	00000097          	auipc	ra,0x0
    80200f80:	d3c080e7          	jalr	-708(ra) # 80200cb8 <sdRead>
			copyout(myproc()->pgdir, dst, buf, 512);
    80200f84:	00002097          	auipc	ra,0x2
    80200f88:	a2c080e7          	jalr	-1492(ra) # 802029b0 <myproc>
    80200f8c:	20000693          	li	a3,512
    80200f90:	dd040613          	addi	a2,s0,-560
    80200f94:	85a6                	mv	a1,s1
    80200f96:	16853503          	ld	a0,360(a0)
    80200f9a:	00001097          	auipc	ra,0x1
    80200f9e:	414080e7          	jalr	1044(ra) # 802023ae <copyout>
			dst += 512;
    80200fa2:	20048493          	addi	s1,s1,512
		for (int i = 0; i < n; i++) {
    80200fa6:	0985                	addi	s3,s3,1
    80200fa8:	fd2996e3          	bne	s3,s2,80200f74 <sdCardRead+0xa8>
		return 0;
    80200fac:	4a01                	li	s4,0
    80200fae:	bf8d                	j	80200f20 <sdCardRead+0x54>

0000000080200fb0 <sdWrite>:
	for (int i = 0; i < sectorNumber; i++) {
    80200fb0:	1e060163          	beqz	a2,80201192 <sdWrite+0x1e2>
int sdWrite(u8 *buf, u64 startSector, u32 sectorNumber) {
    80200fb4:	7119                	addi	sp,sp,-128
    80200fb6:	fc86                	sd	ra,120(sp)
    80200fb8:	f8a2                	sd	s0,112(sp)
    80200fba:	f4a6                	sd	s1,104(sp)
    80200fbc:	f0ca                	sd	s2,96(sp)
    80200fbe:	ecce                	sd	s3,88(sp)
    80200fc0:	e8d2                	sd	s4,80(sp)
    80200fc2:	e4d6                	sd	s5,72(sp)
    80200fc4:	e0da                	sd	s6,64(sp)
    80200fc6:	fc5e                	sd	s7,56(sp)
    80200fc8:	f862                	sd	s8,48(sp)
    80200fca:	f466                	sd	s9,40(sp)
    80200fcc:	f06a                	sd	s10,32(sp)
    80200fce:	ec6e                	sd	s11,24(sp)
    80200fd0:	0100                	addi	s0,sp,128
    80200fd2:	20050913          	addi	s2,a0,512
    80200fd6:	fff6079b          	addiw	a5,a2,-1
    80200fda:	02079693          	slli	a3,a5,0x20
    80200fde:	0176d793          	srli	a5,a3,0x17
    80200fe2:	40078793          	addi	a5,a5,1024
    80200fe6:	00f50b33          	add	s6,a0,a5
    80200fea:	0095971b          	slliw	a4,a1,0x9
    80200fee:	41270abb          	subw	s5,a4,s2
	REG32(spi, SPI_REG_TXFIFO) = d;
    80200ff2:	100504b7          	lui	s1,0x10050
    80200ff6:	0ff00993          	li	s3,255
    80200ffa:	6c09                	lui	s8,0x2
    80200ffc:	70fc0793          	addi	a5,s8,1807 # 270f <_start-0x801fd8f1>
    80201000:	f8f43023          	sd	a5,-128(s0)
    80201004:	8a4e                	mv	s4,s3
    80201006:	e0090793          	addi	a5,s2,-512
    8020100a:	f8f43423          	sd	a5,-120(s0)
		if (sd_cmd(24 | 0x40, now * 512, 0) != 0) {
    8020100e:	01590d3b          	addw	s10,s2,s5
		writeTimes = 0;
    80201012:	4b81                	li	s7,0
	REG32(spi, SPI_REG_TXFIFO) = d;
    80201014:	0fe00c93          	li	s9,254
	return (r & 0xFF);
    80201018:	710c0d93          	addi	s11,s8,1808
    8020101c:	a8c5                	j	8020110c <sdWrite+0x15c>
	REG32(spi, SPI_REG_TXFIFO) = d;
    8020101e:	100507b7          	lui	a5,0x10050
    80201022:	0ff00713          	li	a4,255
    80201026:	c7b8                	sw	a4,72(a5)
		r = REG32(spi, SPI_REG_RXFIFO);
    80201028:	47f8                	lw	a4,76(a5)
	} while (r < 0);
    8020102a:	fe074fe3          	bltz	a4,80201028 <sdWrite+0x78>
	REG32(spi, SPI_REG_CSMODE) = SPI_CSMODE_AUTO;
    8020102e:	100507b7          	lui	a5,0x10050
    80201032:	0007ac23          	sw	zero,24(a5) # 10050018 <_start-0x701affe8>
			panic("[SD Write]Write Error, can't use cmd24, retry times %x\n", writeTimes);
    80201036:	875e                	mv	a4,s7
    80201038:	0000b697          	auipc	a3,0xb
    8020103c:	2c068693          	addi	a3,a3,704 # 8020c2f8 <textEnd+0x2f8>
    80201040:	0000c617          	auipc	a2,0xc
    80201044:	1f060613          	addi	a2,a2,496 # 8020d230 <__func__.1>
    80201048:	19d00593          	li	a1,413
    8020104c:	0000b517          	auipc	a0,0xb
    80201050:	24450513          	addi	a0,a0,580 # 8020c290 <textEnd+0x290>
    80201054:	00000097          	auipc	ra,0x0
    80201058:	af8080e7          	jalr	-1288(ra) # 80200b4c <_panic_>
	return (r & 0xFF);
    8020105c:	0ff77593          	zext.b	a1,a4
    80201060:	86ee                	mv	a3,s11
		while (--timeout) {
    80201062:	36fd                	addiw	a3,a3,-1
    80201064:	caad                	beqz	a3,802010d6 <sdWrite+0x126>
	REG32(spi, SPI_REG_TXFIFO) = d;
    80201066:	0534a423          	sw	s3,72(s1) # 10050048 <_start-0x701affb8>
		r = REG32(spi, SPI_REG_RXFIFO);
    8020106a:	44f8                	lw	a4,76(s1)
    8020106c:	0007079b          	sext.w	a5,a4
	} while (r < 0);
    80201070:	fe074de3          	bltz	a4,8020106a <sdWrite+0xba>
	return (r & 0xFF);
    80201074:	0ff7f593          	zext.b	a1,a5
			if (x == 0xFF) {
    80201078:	ff3595e3          	bne	a1,s3,80201062 <sdWrite+0xb2>
	REG32(spi, SPI_REG_TXFIFO) = d;
    8020107c:	0534a423          	sw	s3,72(s1)
		r = REG32(spi, SPI_REG_RXFIFO);
    80201080:	44fc                	lw	a5,76(s1)
	} while (r < 0);
    80201082:	fe07cfe3          	bltz	a5,80201080 <sdWrite+0xd0>
	REG32(spi, SPI_REG_CSMODE) = SPI_CSMODE_AUTO;
    80201086:	0004ac23          	sw	zero,24(s1)
	for (int i = 0; i < sectorNumber; i++) {
    8020108a:	20090913          	addi	s2,s2,512
    8020108e:	f7691ce3          	bne	s2,s6,80201006 <sdWrite+0x56>
}
    80201092:	4501                	li	a0,0
    80201094:	70e6                	ld	ra,120(sp)
    80201096:	7446                	ld	s0,112(sp)
    80201098:	74a6                	ld	s1,104(sp)
    8020109a:	7906                	ld	s2,96(sp)
    8020109c:	69e6                	ld	s3,88(sp)
    8020109e:	6a46                	ld	s4,80(sp)
    802010a0:	6aa6                	ld	s5,72(sp)
    802010a2:	6b06                	ld	s6,64(sp)
    802010a4:	7be2                	ld	s7,56(sp)
    802010a6:	7c42                	ld	s8,48(sp)
    802010a8:	7ca2                	ld	s9,40(sp)
    802010aa:	7d02                	ld	s10,32(sp)
    802010ac:	6de2                	ld	s11,24(sp)
    802010ae:	6109                	addi	sp,sp,128
    802010b0:	8082                	ret
		panic("[SD Write]There must be some error in sd write");
    802010b2:	0000b697          	auipc	a3,0xb
    802010b6:	27e68693          	addi	a3,a3,638 # 8020c330 <textEnd+0x330>
    802010ba:	0000c617          	auipc	a2,0xc
    802010be:	17660613          	addi	a2,a2,374 # 8020d230 <__func__.1>
    802010c2:	1c800593          	li	a1,456
    802010c6:	0000b517          	auipc	a0,0xb
    802010ca:	1ca50513          	addi	a0,a0,458 # 8020c290 <textEnd+0x290>
    802010ce:	00000097          	auipc	ra,0x0
    802010d2:	a7e080e7          	jalr	-1410(ra) # 80200b4c <_panic_>
			printf("%x \n", x);
    802010d6:	0000b517          	auipc	a0,0xb
    802010da:	28a50513          	addi	a0,a0,650 # 8020c360 <textEnd+0x360>
    802010de:	00000097          	auipc	ra,0x0
    802010e2:	9e2080e7          	jalr	-1566(ra) # 80200ac0 <printf>
			printf("keep busy\n");
    802010e6:	0000b517          	auipc	a0,0xb
    802010ea:	28250513          	addi	a0,a0,642 # 8020c368 <textEnd+0x368>
    802010ee:	00000097          	auipc	ra,0x0
    802010f2:	9d2080e7          	jalr	-1582(ra) # 80200ac0 <printf>
	writeTimes++;
    802010f6:	2b85                	addiw	s7,s7,1
	if (writeTimes > 10) {
    802010f8:	47ad                	li	a5,11
    802010fa:	fafb8ce3          	beq	s7,a5,802010b2 <sdWrite+0x102>
	REG32(spi, SPI_REG_TXFIFO) = d;
    802010fe:	0534a423          	sw	s3,72(s1)
		r = REG32(spi, SPI_REG_RXFIFO);
    80201102:	44fc                	lw	a5,76(s1)
	} while (r < 0);
    80201104:	fe07cfe3          	bltz	a5,80201102 <sdWrite+0x152>
	REG32(spi, SPI_REG_CSMODE) = SPI_CSMODE_AUTO;
    80201108:	0004ac23          	sw	zero,24(s1)
		if (sd_cmd(24 | 0x40, now * 512, 0) != 0) {
    8020110c:	4601                	li	a2,0
    8020110e:	85ea                	mv	a1,s10
    80201110:	05800513          	li	a0,88
    80201114:	00000097          	auipc	ra,0x0
    80201118:	aca080e7          	jalr	-1334(ra) # 80200bde <sd_cmd>
    8020111c:	f109                	bnez	a0,8020101e <sdWrite+0x6e>
	REG32(spi, SPI_REG_TXFIFO) = d;
    8020111e:	0534a423          	sw	s3,72(s1)
		r = REG32(spi, SPI_REG_RXFIFO);
    80201122:	44fc                	lw	a5,76(s1)
	} while (r < 0);
    80201124:	fe07cfe3          	bltz	a5,80201122 <sdWrite+0x172>
	REG32(spi, SPI_REG_TXFIFO) = d;
    80201128:	0534a423          	sw	s3,72(s1)
		r = REG32(spi, SPI_REG_RXFIFO);
    8020112c:	44fc                	lw	a5,76(s1)
	} while (r < 0);
    8020112e:	fe07cfe3          	bltz	a5,8020112c <sdWrite+0x17c>
	REG32(spi, SPI_REG_TXFIFO) = d;
    80201132:	0534a423          	sw	s3,72(s1)
		r = REG32(spi, SPI_REG_RXFIFO);
    80201136:	44fc                	lw	a5,76(s1)
	} while (r < 0);
    80201138:	fe07cfe3          	bltz	a5,80201136 <sdWrite+0x186>
	REG32(spi, SPI_REG_TXFIFO) = d;
    8020113c:	0594a423          	sw	s9,72(s1)
		r = REG32(spi, SPI_REG_RXFIFO);
    80201140:	44fc                	lw	a5,76(s1)
	} while (r < 0);
    80201142:	fe07cfe3          	bltz	a5,80201140 <sdWrite+0x190>
    80201146:	f8843703          	ld	a4,-120(s0)
			spi_xfer(*p++);
    8020114a:	0705                	addi	a4,a4,1
	REG32(spi, SPI_REG_TXFIFO) = d;
    8020114c:	fff74783          	lbu	a5,-1(a4)
    80201150:	c4bc                	sw	a5,72(s1)
		r = REG32(spi, SPI_REG_RXFIFO);
    80201152:	44fc                	lw	a5,76(s1)
	} while (r < 0);
    80201154:	fe07cfe3          	bltz	a5,80201152 <sdWrite+0x1a2>
		} while (--n > 0);
    80201158:	ff2719e3          	bne	a4,s2,8020114a <sdWrite+0x19a>
    8020115c:	f8043683          	ld	a3,-128(s0)
	REG32(spi, SPI_REG_TXFIFO) = d;
    80201160:	04848593          	addi	a1,s1,72
			if (5 == (x & 0x1f)) {
    80201164:	4615                	li	a2,5
	REG32(spi, SPI_REG_TXFIFO) = d;
    80201166:	0145a023          	sw	s4,0(a1)
		r = REG32(spi, SPI_REG_RXFIFO);
    8020116a:	44fc                	lw	a5,76(s1)
    8020116c:	0007871b          	sext.w	a4,a5
	} while (r < 0);
    80201170:	fe07cde3          	bltz	a5,8020116a <sdWrite+0x1ba>
			if (5 == (x & 0x1f)) {
    80201174:	01f77793          	andi	a5,a4,31
    80201178:	eec782e3          	beq	a5,a2,8020105c <sdWrite+0xac>
		while (--timeout) {
    8020117c:	36fd                	addiw	a3,a3,-1
    8020117e:	f6e5                	bnez	a3,80201166 <sdWrite+0x1b6>
			printf("not receive 5\n");
    80201180:	0000b517          	auipc	a0,0xb
    80201184:	1f850513          	addi	a0,a0,504 # 8020c378 <textEnd+0x378>
    80201188:	00000097          	auipc	ra,0x0
    8020118c:	938080e7          	jalr	-1736(ra) # 80200ac0 <printf>
			goto retry;
    80201190:	b79d                	j	802010f6 <sdWrite+0x146>
}
    80201192:	4501                	li	a0,0
    80201194:	8082                	ret

0000000080201196 <sdCardWrite>:

int sdCardWrite(int isUser, u64 src, u64 startAddr, u64 n) {
    80201196:	dd010113          	addi	sp,sp,-560
    8020119a:	22113423          	sd	ra,552(sp)
    8020119e:	22813023          	sd	s0,544(sp)
    802011a2:	20913c23          	sd	s1,536(sp)
    802011a6:	21213823          	sd	s2,528(sp)
    802011aa:	21313423          	sd	s3,520(sp)
    802011ae:	21413023          	sd	s4,512(sp)
    802011b2:	1c00                	addi	s0,sp,560
	if (n & ((1 << 9) - 1)) {
    802011b4:	1ff6f793          	andi	a5,a3,511
    802011b8:	eba9                	bnez	a5,8020120a <sdCardWrite+0x74>
    802011ba:	8a2a                	mv	s4,a0
    802011bc:	84ae                	mv	s1,a1
		printf("[SD] Card Write error\n");
		return -1;
	}
	if (startAddr & ((1 << 9) - 1)) {
    802011be:	1ff67793          	andi	a5,a2,511
    802011c2:	efb1                	bnez	a5,8020121e <sdCardWrite+0x88>
		printf("[SD] Card Write error\n");
		return -1;	
	}

	if (isUser) {
    802011c4:	e53d                	bnez	a0,80201232 <sdCardWrite+0x9c>
			src += 512;
			st++;
		}
		return 0;
	}
	int st = (startAddr) >> 9;
    802011c6:	00965993          	srli	s3,a2,0x9
    802011ca:	2981                	sext.w	s3,s3
	for (int i = 0; i < n; i++) {
    802011cc:	ce99                	beqz	a3,802011ea <sdCardWrite+0x54>
    802011ce:	894e                	mv	s2,s3
    802011d0:	99b6                	add	s3,s3,a3
		sdWrite((u8*)src, st, 1);
    802011d2:	4605                	li	a2,1
    802011d4:	85ca                	mv	a1,s2
    802011d6:	8526                	mv	a0,s1
    802011d8:	00000097          	auipc	ra,0x0
    802011dc:	dd8080e7          	jalr	-552(ra) # 80200fb0 <sdWrite>
		src += 512;
    802011e0:	20048493          	addi	s1,s1,512
	for (int i = 0; i < n; i++) {
    802011e4:	0905                	addi	s2,s2,1
    802011e6:	ff3916e3          	bne	s2,s3,802011d2 <sdCardWrite+0x3c>
		st++;
	}
	return 0;
}
    802011ea:	8552                	mv	a0,s4
    802011ec:	22813083          	ld	ra,552(sp)
    802011f0:	22013403          	ld	s0,544(sp)
    802011f4:	21813483          	ld	s1,536(sp)
    802011f8:	21013903          	ld	s2,528(sp)
    802011fc:	20813983          	ld	s3,520(sp)
    80201200:	20013a03          	ld	s4,512(sp)
    80201204:	23010113          	addi	sp,sp,560
    80201208:	8082                	ret
		printf("[SD] Card Write error\n");
    8020120a:	0000b517          	auipc	a0,0xb
    8020120e:	17e50513          	addi	a0,a0,382 # 8020c388 <textEnd+0x388>
    80201212:	00000097          	auipc	ra,0x0
    80201216:	8ae080e7          	jalr	-1874(ra) # 80200ac0 <printf>
		return -1;
    8020121a:	5a7d                	li	s4,-1
    8020121c:	b7f9                	j	802011ea <sdCardWrite+0x54>
		printf("[SD] Card Write error\n");
    8020121e:	0000b517          	auipc	a0,0xb
    80201222:	16a50513          	addi	a0,a0,362 # 8020c388 <textEnd+0x388>
    80201226:	00000097          	auipc	ra,0x0
    8020122a:	89a080e7          	jalr	-1894(ra) # 80200ac0 <printf>
		return -1;	
    8020122e:	5a7d                	li	s4,-1
    80201230:	bf6d                	j	802011ea <sdCardWrite+0x54>
		int st = (startAddr) >> 9;
    80201232:	00965913          	srli	s2,a2,0x9
    80201236:	2901                	sext.w	s2,s2
		for (int i = 0; i < n; i++) {
    80201238:	ce9d                	beqz	a3,80201276 <sdCardWrite+0xe0>
    8020123a:	89ca                	mv	s3,s2
    8020123c:	9936                	add	s2,s2,a3
        	copyin(myproc()->pgdir, buf, src, 512);
    8020123e:	00001097          	auipc	ra,0x1
    80201242:	772080e7          	jalr	1906(ra) # 802029b0 <myproc>
    80201246:	20000693          	li	a3,512
    8020124a:	8626                	mv	a2,s1
    8020124c:	dd040593          	addi	a1,s0,-560
    80201250:	16853503          	ld	a0,360(a0)
    80201254:	00001097          	auipc	ra,0x1
    80201258:	0c8080e7          	jalr	200(ra) # 8020231c <copyin>
			sdWrite((u8*)buf, st, 1);
    8020125c:	4605                	li	a2,1
    8020125e:	85ce                	mv	a1,s3
    80201260:	dd040513          	addi	a0,s0,-560
    80201264:	00000097          	auipc	ra,0x0
    80201268:	d4c080e7          	jalr	-692(ra) # 80200fb0 <sdWrite>
			src += 512;
    8020126c:	20048493          	addi	s1,s1,512
		for (int i = 0; i < n; i++) {
    80201270:	0985                	addi	s3,s3,1
    80201272:	fd2996e3          	bne	s3,s2,8020123e <sdCardWrite+0xa8>
		return 0;
    80201276:	4a01                	li	s4,0
    80201278:	bf8d                	j	802011ea <sdCardWrite+0x54>

000000008020127a <sdInit>:


int sdInit(void) {
    8020127a:	7179                	addi	sp,sp,-48
    8020127c:	f406                	sd	ra,40(sp)
    8020127e:	f022                	sd	s0,32(sp)
    80201280:	ec26                	sd	s1,24(sp)
    80201282:	e84a                	sd	s2,16(sp)
    80201284:	e44e                	sd	s3,8(sp)
    80201286:	e052                	sd	s4,0(sp)
    80201288:	1800                	addi	s0,sp,48
	REG32(uart, UART_REG_TXCTRL) = UART_TXEN;
    8020128a:	100107b7          	lui	a5,0x10010
    8020128e:	4705                	li	a4,1
    80201290:	c798                	sw	a4,8(a5)
	REG32(spi, SPI_REG_FMT) = 0x80000;
    80201292:	100507b7          	lui	a5,0x10050
    80201296:	00080737          	lui	a4,0x80
    8020129a:	c3b8                	sw	a4,64(a5)
	REG32(spi, SPI_REG_CSDEF) |= 1;
    8020129c:	4bd8                	lw	a4,20(a5)
    8020129e:	00176713          	ori	a4,a4,1
    802012a2:	cbd8                	sw	a4,20(a5)
	REG32(spi, SPI_REG_CSID) = 0;
    802012a4:	0007a823          	sw	zero,16(a5) # 10050010 <_start-0x701afff0>
	REG32(spi, SPI_REG_SCKDIV) = f;
    802012a8:	6705                	lui	a4,0x1
    802012aa:	bb870713          	addi	a4,a4,-1096 # bb8 <_start-0x801ff448>
    802012ae:	c398                	sw	a4,0(a5)
	REG32(spi, SPI_REG_CSMODE) = SPI_CSMODE_OFF;
    802012b0:	470d                	li	a4,3
    802012b2:	cf98                	sw	a4,24(a5)
    802012b4:	46a9                	li	a3,10
	REG32(spi, SPI_REG_TXFIFO) = d;
    802012b6:	10050737          	lui	a4,0x10050
    802012ba:	04870593          	addi	a1,a4,72 # 10050048 <_start-0x701affb8>
    802012be:	0ff00613          	li	a2,255
    802012c2:	c190                	sw	a2,0(a1)
		r = REG32(spi, SPI_REG_RXFIFO);
    802012c4:	477c                	lw	a5,76(a4)
	} while (r < 0);
    802012c6:	fe07cfe3          	bltz	a5,802012c4 <sdInit+0x4a>
	for (i = 10; i > 0; i--) {
    802012ca:	16fd                	addi	a3,a3,-1
    802012cc:	fafd                	bnez	a3,802012c2 <sdInit+0x48>
	REG32(spi, SPI_REG_CSMODE) = SPI_CSMODE_AUTO;
    802012ce:	100507b7          	lui	a5,0x10050
    802012d2:	0007ac23          	sw	zero,24(a5) # 10050018 <_start-0x701affe8>

	sd_poweron(3000);

	int initTimes = 10;
    802012d6:	4929                	li	s2,10
	REG32(spi, SPI_REG_TXFIFO) = d;
    802012d8:	100504b7          	lui	s1,0x10050
    802012dc:	0ff00a13          	li	s4,255
	while (initTimes > 0 && sd_cmd0()) {
    802012e0:	4985                	li	s3,1
	rc = (sd_cmd(0x40, 0, 0x95) != 0x01);
    802012e2:	09500613          	li	a2,149
    802012e6:	4581                	li	a1,0
    802012e8:	04000513          	li	a0,64
    802012ec:	00000097          	auipc	ra,0x0
    802012f0:	8f2080e7          	jalr	-1806(ra) # 80200bde <sd_cmd>
	REG32(spi, SPI_REG_TXFIFO) = d;
    802012f4:	0544a423          	sw	s4,72(s1) # 10050048 <_start-0x701affb8>
		r = REG32(spi, SPI_REG_RXFIFO);
    802012f8:	44fc                	lw	a5,76(s1)
	} while (r < 0);
    802012fa:	fe07cfe3          	bltz	a5,802012f8 <sdInit+0x7e>
	REG32(spi, SPI_REG_CSMODE) = SPI_CSMODE_AUTO;
    802012fe:	0004ac23          	sw	zero,24(s1)
	while (initTimes > 0 && sd_cmd0()) {
    80201302:	03350763          	beq	a0,s3,80201330 <sdInit+0xb6>
		initTimes--;
    80201306:	397d                	addiw	s2,s2,-1
	while (initTimes > 0 && sd_cmd0()) {
    80201308:	fc091de3          	bnez	s2,802012e2 <sdInit+0x68>
	}

	if (!initTimes) {
		panic("[SD card]CMD0 error!\n");
    8020130c:	0000b697          	auipc	a3,0xb
    80201310:	09468693          	addi	a3,a3,148 # 8020c3a0 <textEnd+0x3a0>
    80201314:	0000c617          	auipc	a2,0xc
    80201318:	f1460613          	addi	a2,a2,-236 # 8020d228 <__func__.0>
    8020131c:	21600593          	li	a1,534
    80201320:	0000b517          	auipc	a0,0xb
    80201324:	f7050513          	addi	a0,a0,-144 # 8020c290 <textEnd+0x290>
    80201328:	00000097          	auipc	ra,0x0
    8020132c:	824080e7          	jalr	-2012(ra) # 80200b4c <_panic_>
	if (!initTimes) {
    80201330:	fc090ee3          	beqz	s2,8020130c <sdInit+0x92>
	rc = (sd_cmd(0x48, 0x000001AA, 0x87) != 0x01);
    80201334:	08700613          	li	a2,135
    80201338:	1aa00593          	li	a1,426
    8020133c:	04800513          	li	a0,72
    80201340:	00000097          	auipc	ra,0x0
    80201344:	89e080e7          	jalr	-1890(ra) # 80200bde <sd_cmd>
    80201348:	0005071b          	sext.w	a4,a0
    8020134c:	177d                	addi	a4,a4,-1
    8020134e:	00e03633          	snez	a2,a4
	REG32(spi, SPI_REG_TXFIFO) = d;
    80201352:	100507b7          	lui	a5,0x10050
    80201356:	0ff00713          	li	a4,255
    8020135a:	c7b8                	sw	a4,72(a5)
		r = REG32(spi, SPI_REG_RXFIFO);
    8020135c:	10050737          	lui	a4,0x10050
    80201360:	477c                	lw	a5,76(a4)
	} while (r < 0);
    80201362:	fe07cfe3          	bltz	a5,80201360 <sdInit+0xe6>
	REG32(spi, SPI_REG_TXFIFO) = d;
    80201366:	100507b7          	lui	a5,0x10050
    8020136a:	0ff00713          	li	a4,255
    8020136e:	c7b8                	sw	a4,72(a5)
		r = REG32(spi, SPI_REG_RXFIFO);
    80201370:	10050737          	lui	a4,0x10050
    80201374:	477c                	lw	a5,76(a4)
	} while (r < 0);
    80201376:	fe07cfe3          	bltz	a5,80201374 <sdInit+0xfa>
	REG32(spi, SPI_REG_TXFIFO) = d;
    8020137a:	100507b7          	lui	a5,0x10050
    8020137e:	0ff00713          	li	a4,255
    80201382:	c7b8                	sw	a4,72(a5)
		r = REG32(spi, SPI_REG_RXFIFO);
    80201384:	100506b7          	lui	a3,0x10050
    80201388:	46fc                	lw	a5,76(a3)
    8020138a:	0007871b          	sext.w	a4,a5
	} while (r < 0);
    8020138e:	fe07cde3          	bltz	a5,80201388 <sdInit+0x10e>
	rc |= ((sd_dummy() & 0xF) != 0x1); /* voltage */
    80201392:	8b3d                	andi	a4,a4,15
    80201394:	fff70793          	addi	a5,a4,-1 # 1004ffff <_start-0x701b0001>
    80201398:	00f03733          	snez	a4,a5
	REG32(spi, SPI_REG_TXFIFO) = d;
    8020139c:	100507b7          	lui	a5,0x10050
    802013a0:	0ff00693          	li	a3,255
    802013a4:	c7b4                	sw	a3,72(a5)
		r = REG32(spi, SPI_REG_RXFIFO);
    802013a6:	100505b7          	lui	a1,0x10050
    802013aa:	45fc                	lw	a5,76(a1)
    802013ac:	0007869b          	sext.w	a3,a5
	} while (r < 0);
    802013b0:	fe07cde3          	bltz	a5,802013aa <sdInit+0x130>
	rc |= (sd_dummy() != 0xAA); /* check pattern */
    802013b4:	0ff6f793          	zext.b	a5,a3
    802013b8:	f5678793          	addi	a5,a5,-170 # 1004ff56 <_start-0x701b00aa>
    802013bc:	00f037b3          	snez	a5,a5
    802013c0:	8fd9                	or	a5,a5,a4
    802013c2:	00f66733          	or	a4,a2,a5
    802013c6:	0ff77713          	zext.b	a4,a4
	REG32(spi, SPI_REG_TXFIFO) = d;
    802013ca:	100507b7          	lui	a5,0x10050
    802013ce:	0ff00693          	li	a3,255
    802013d2:	c7b4                	sw	a3,72(a5)
		r = REG32(spi, SPI_REG_RXFIFO);
    802013d4:	100506b7          	lui	a3,0x10050
    802013d8:	46fc                	lw	a5,76(a3)
	} while (r < 0);
    802013da:	fe07cfe3          	bltz	a5,802013d8 <sdInit+0x15e>
	REG32(spi, SPI_REG_CSMODE) = SPI_CSMODE_AUTO;
    802013de:	100507b7          	lui	a5,0x10050
    802013e2:	0007ac23          	sw	zero,24(a5) # 10050018 <_start-0x701affe8>
	}

	if (sd_cmd8()) {
    802013e6:	e36d                	bnez	a4,802014c8 <sdInit+0x24e>
	printf("ACMD41");
    802013e8:	0000b517          	auipc	a0,0xb
    802013ec:	fe850513          	addi	a0,a0,-24 # 8020c3d0 <textEnd+0x3d0>
    802013f0:	fffff097          	auipc	ra,0xfffff
    802013f4:	6d0080e7          	jalr	1744(ra) # 80200ac0 <printf>
	REG32(spi, SPI_REG_TXFIFO) = d;
    802013f8:	100504b7          	lui	s1,0x10050
    802013fc:	0ff00993          	li	s3,255
	} while (r == 0x01);
    80201400:	4905                	li	s2,1
	sd_cmd(0x77, 0, 0x65);
    80201402:	06500613          	li	a2,101
    80201406:	4581                	li	a1,0
    80201408:	07700513          	li	a0,119
    8020140c:	fffff097          	auipc	ra,0xfffff
    80201410:	7d2080e7          	jalr	2002(ra) # 80200bde <sd_cmd>
	REG32(spi, SPI_REG_TXFIFO) = d;
    80201414:	0534a423          	sw	s3,72(s1) # 10050048 <_start-0x701affb8>
		r = REG32(spi, SPI_REG_RXFIFO);
    80201418:	44fc                	lw	a5,76(s1)
	} while (r < 0);
    8020141a:	fe07cfe3          	bltz	a5,80201418 <sdInit+0x19e>
	REG32(spi, SPI_REG_CSMODE) = SPI_CSMODE_AUTO;
    8020141e:	0004ac23          	sw	zero,24(s1)
		r = sd_cmd(0x69, 0x40000000, 0x77); /* HCS = 1 */
    80201422:	07700613          	li	a2,119
    80201426:	400005b7          	lui	a1,0x40000
    8020142a:	06900513          	li	a0,105
    8020142e:	fffff097          	auipc	ra,0xfffff
    80201432:	7b0080e7          	jalr	1968(ra) # 80200bde <sd_cmd>
	} while (r == 0x01);
    80201436:	fd2506e3          	beq	a0,s2,80201402 <sdInit+0x188>
		panic("[SD card]CMD8 error!\n");
	}

	if (sd_acmd41()) {
    8020143a:	e94d                	bnez	a0,802014ec <sdInit+0x272>
	printf("CMD16");
    8020143c:	0000b517          	auipc	a0,0xb
    80201440:	fb450513          	addi	a0,a0,-76 # 8020c3f0 <textEnd+0x3f0>
    80201444:	fffff097          	auipc	ra,0xfffff
    80201448:	67c080e7          	jalr	1660(ra) # 80200ac0 <printf>
	rc = (sd_cmd(0x50, 0x200, 0x15) != 0x00);
    8020144c:	4655                	li	a2,21
    8020144e:	20000593          	li	a1,512
    80201452:	05000513          	li	a0,80
    80201456:	fffff097          	auipc	ra,0xfffff
    8020145a:	788080e7          	jalr	1928(ra) # 80200bde <sd_cmd>
	REG32(spi, SPI_REG_TXFIFO) = d;
    8020145e:	100507b7          	lui	a5,0x10050
    80201462:	0ff00713          	li	a4,255
    80201466:	c7b8                	sw	a4,72(a5)
		r = REG32(spi, SPI_REG_RXFIFO);
    80201468:	10050737          	lui	a4,0x10050
    8020146c:	477c                	lw	a5,76(a4)
	} while (r < 0);
    8020146e:	fe07cfe3          	bltz	a5,8020146c <sdInit+0x1f2>
	REG32(spi, SPI_REG_CSMODE) = SPI_CSMODE_AUTO;
    80201472:	100507b7          	lui	a5,0x10050
    80201476:	0007ac23          	sw	zero,24(a5) # 10050018 <_start-0x701affe8>

	if (sd_cmd58()) {
		panic("[SD card]CMD58 error!\n");
	}

	if (sd_cmd16()) {
    8020147a:	e959                	bnez	a0,80201510 <sdInit+0x296>
		panic("[SD card]CMD16 error!\n");
	}

	printf("[SD card]SD card init finish!\n");
    8020147c:	0000b517          	auipc	a0,0xb
    80201480:	f9450513          	addi	a0,a0,-108 # 8020c410 <textEnd+0x410>
    80201484:	fffff097          	auipc	ra,0xfffff
    80201488:	63c080e7          	jalr	1596(ra) # 80200ac0 <printf>

	REG32(spi, SPI_REG_SCKDIV) = (F_CLK / 16666666UL);
    8020148c:	100507b7          	lui	a5,0x10050
    80201490:	03c00713          	li	a4,60
    80201494:	c398                	sw	a4,0(a5)
	__asm__ __volatile__ ("fence.i" : : : "memory");
    80201496:	0000100f          	fence.i
	
	devsw[DEV_SD].read = sdCardRead;
    8020149a:	00418797          	auipc	a5,0x418
    8020149e:	b9e78793          	addi	a5,a5,-1122 # 80619038 <devsw>
    802014a2:	00000717          	auipc	a4,0x0
    802014a6:	a2a70713          	addi	a4,a4,-1494 # 80200ecc <sdCardRead>
    802014aa:	e398                	sd	a4,0(a5)
	devsw[DEV_SD].write = sdCardWrite;
    802014ac:	00000717          	auipc	a4,0x0
    802014b0:	cea70713          	addi	a4,a4,-790 # 80201196 <sdCardWrite>
    802014b4:	e798                	sd	a4,8(a5)
	return 0;
}
    802014b6:	4501                	li	a0,0
    802014b8:	70a2                	ld	ra,40(sp)
    802014ba:	7402                	ld	s0,32(sp)
    802014bc:	64e2                	ld	s1,24(sp)
    802014be:	6942                	ld	s2,16(sp)
    802014c0:	69a2                	ld	s3,8(sp)
    802014c2:	6a02                	ld	s4,0(sp)
    802014c4:	6145                	addi	sp,sp,48
    802014c6:	8082                	ret
		panic("[SD card]CMD8 error!\n");
    802014c8:	0000b697          	auipc	a3,0xb
    802014cc:	ef068693          	addi	a3,a3,-272 # 8020c3b8 <textEnd+0x3b8>
    802014d0:	0000c617          	auipc	a2,0xc
    802014d4:	d5860613          	addi	a2,a2,-680 # 8020d228 <__func__.0>
    802014d8:	21a00593          	li	a1,538
    802014dc:	0000b517          	auipc	a0,0xb
    802014e0:	db450513          	addi	a0,a0,-588 # 8020c290 <textEnd+0x290>
    802014e4:	fffff097          	auipc	ra,0xfffff
    802014e8:	668080e7          	jalr	1640(ra) # 80200b4c <_panic_>
		panic("[SD card]ACMD41 error!\n");
    802014ec:	0000b697          	auipc	a3,0xb
    802014f0:	eec68693          	addi	a3,a3,-276 # 8020c3d8 <textEnd+0x3d8>
    802014f4:	0000c617          	auipc	a2,0xc
    802014f8:	d3460613          	addi	a2,a2,-716 # 8020d228 <__func__.0>
    802014fc:	21e00593          	li	a1,542
    80201500:	0000b517          	auipc	a0,0xb
    80201504:	d9050513          	addi	a0,a0,-624 # 8020c290 <textEnd+0x290>
    80201508:	fffff097          	auipc	ra,0xfffff
    8020150c:	644080e7          	jalr	1604(ra) # 80200b4c <_panic_>
		panic("[SD card]CMD16 error!\n");
    80201510:	0000b697          	auipc	a3,0xb
    80201514:	ee868693          	addi	a3,a3,-280 # 8020c3f8 <textEnd+0x3f8>
    80201518:	0000c617          	auipc	a2,0xc
    8020151c:	d1060613          	addi	a2,a2,-752 # 8020d228 <__func__.0>
    80201520:	22600593          	li	a1,550
    80201524:	0000b517          	auipc	a0,0xb
    80201528:	d6c50513          	addi	a0,a0,-660 # 8020c290 <textEnd+0x290>
    8020152c:	fffff097          	auipc	ra,0xfffff
    80201530:	620080e7          	jalr	1568(ra) # 80200b4c <_panic_>

0000000080201534 <sdTest>:

u8 binary[1024];
int sdTest(void) {
    80201534:	7179                	addi	sp,sp,-48
    80201536:	f406                	sd	ra,40(sp)
    80201538:	f022                	sd	s0,32(sp)
    8020153a:	ec26                	sd	s1,24(sp)
    8020153c:	e84a                	sd	s2,16(sp)
    8020153e:	e44e                	sd	s3,8(sp)
    80201540:	e052                	sd	s4,0(sp)
    80201542:	1800                	addi	s0,sp,48
	sdInit();
    80201544:	00000097          	auipc	ra,0x0
    80201548:	d36080e7          	jalr	-714(ra) # 8020127a <sdInit>
    8020154c:	4481                	li	s1,0
        // }
        // sdWrite(binary, j, 2);
        // for (int i = 0; i < 1024; i++) {
        //     binary[i] = 0;
        // }
        sdRead(binary, j, 2);
    8020154e:	001c1a17          	auipc	s4,0x1c1
    80201552:	b2aa0a13          	addi	s4,s4,-1238 # 803c2078 <binary>
        //     if (binary[i] != (i & 7)) {
        //         panic("gg: %d ", j);
        //         break;
        //     }
        // }
        printf("finish %d\n", j);
    80201556:	0000b997          	auipc	s3,0xb
    8020155a:	eda98993          	addi	s3,s3,-294 # 8020c430 <textEnd+0x430>
    for (int j = 0; j < 20; j += 2) {
    8020155e:	4951                	li	s2,20
        sdRead(binary, j, 2);
    80201560:	4609                	li	a2,2
    80201562:	85a6                	mv	a1,s1
    80201564:	8552                	mv	a0,s4
    80201566:	fffff097          	auipc	ra,0xfffff
    8020156a:	752080e7          	jalr	1874(ra) # 80200cb8 <sdRead>
        printf("finish %d\n", j);
    8020156e:	0004859b          	sext.w	a1,s1
    80201572:	854e                	mv	a0,s3
    80201574:	fffff097          	auipc	ra,0xfffff
    80201578:	54c080e7          	jalr	1356(ra) # 80200ac0 <printf>
    for (int j = 0; j < 20; j += 2) {
    8020157c:	0489                	addi	s1,s1,2
    8020157e:	ff2491e3          	bne	s1,s2,80201560 <sdTest+0x2c>
    }
	return 0;
    80201582:	4501                	li	a0,0
    80201584:	70a2                	ld	ra,40(sp)
    80201586:	7402                	ld	s0,32(sp)
    80201588:	64e2                	ld	s1,24(sp)
    8020158a:	6942                	ld	s2,16(sp)
    8020158c:	69a2                	ld	s3,8(sp)
    8020158e:	6a02                	ld	s4,0(sp)
    80201590:	6145                	addi	sp,sp,48
    80201592:	8082                	ret

0000000080201594 <startPage>:
        PTE_READ | PTE_WRITE | PTE_EXECUTE | PTE_ACCESSED | PTE_DIRTY);
    pageInsert(kernelPageDirectory, TRAMPOLINE_BASE + PAGE_SIZE, (u64)trampoline + PAGE_SIZE, 
        PTE_READ | PTE_WRITE | PTE_EXECUTE | PTE_ACCESSED | PTE_DIRTY);
}

void startPage() {
    80201594:	1141                	addi	sp,sp,-16
    80201596:	e422                	sd	s0,8(sp)
    80201598:	0800                	addi	s0,sp,16
    w_satp(MAKE_SATP(kernelPageDirectory));
    8020159a:	00419797          	auipc	a5,0x419
    8020159e:	a6678793          	addi	a5,a5,-1434 # 8061a000 <_pgdir>
    802015a2:	83b1                	srli	a5,a5,0xc
    802015a4:	577d                	li	a4,-1
    802015a6:	177e                	slli	a4,a4,0x3f
    802015a8:	8fd9                	or	a5,a5,a4
#define MAKE_SATP(pagetable) (SATP_SV39 | (((u64)pagetable) >> 12))

// supervisor address translation and protection;
// holds the address of the page table.
static inline void w_satp(u64 x) {
	asm volatile("csrw satp, %0" : : "r" (x));
    802015aa:	18079073          	csrw	satp,a5

// flush the TLB.
static inline void sfence_vma() {
	// the zero, zero means flush all TLB entries.
	// asm volatile("sfence.vma zero, zero");
	asm volatile("sfence.vma");
    802015ae:	12000073          	sfence.vma
    sfence_vma();
}
    802015b2:	6422                	ld	s0,8(sp)
    802015b4:	0141                	addi	sp,sp,16
    802015b6:	8082                	ret

00000000802015b8 <memoryInit>:
    pageInsert(kernelPageDirectory, 1ll << 35, page2pa(p), PTE_READ | PTE_WRITE);
    *((u32*)page2pa(p)) = 65536;
    printf("value1 of %lx:  %d\n", 1ll << 35, *((u32*)(1ll<<35)));
}

void memoryInit() {
    802015b8:	711d                	addi	sp,sp,-96
    802015ba:	ec86                	sd	ra,88(sp)
    802015bc:	e8a2                	sd	s0,80(sp)
    802015be:	e4a6                	sd	s1,72(sp)
    802015c0:	e0ca                	sd	s2,64(sp)
    802015c2:	fc4e                	sd	s3,56(sp)
    802015c4:	f852                	sd	s4,48(sp)
    802015c6:	f456                	sd	s5,40(sp)
    802015c8:	f05a                	sd	s6,32(sp)
    802015ca:	ec5e                	sd	s7,24(sp)
    802015cc:	1080                	addi	s0,sp,96
    printf("Memory init start...\n");
    802015ce:	0000b517          	auipc	a0,0xb
    802015d2:	e7250513          	addi	a0,a0,-398 # 8020c440 <textEnd+0x440>
    802015d6:	fffff097          	auipc	ra,0xfffff
    802015da:	4ea080e7          	jalr	1258(ra) # 80200ac0 <printf>
    u32 n = PA2PPN(kernelEnd);
    802015de:	0041a917          	auipc	s2,0x41a
    802015e2:	a2290913          	addi	s2,s2,-1502 # 8061b000 <bssEnd>
    802015e6:	00c95913          	srli	s2,s2,0xc
    802015ea:	0009099b          	sext.w	s3,s2
    802015ee:	1942                	slli	s2,s2,0x30
    802015f0:	03095913          	srli	s2,s2,0x30
    for (i = 0; i < n; i++) {
    802015f4:	44090763          	beqz	s2,80201a42 <memoryInit+0x48a>
    802015f8:	001c1797          	auipc	a5,0x1c1
    802015fc:	e9078793          	addi	a5,a5,-368 # 803c2488 <pages+0x10>
    80201600:	fff9069b          	addiw	a3,s2,-1
    80201604:	1682                	slli	a3,a3,0x20
    80201606:	9281                	srli	a3,a3,0x20
    80201608:	00169713          	slli	a4,a3,0x1
    8020160c:	9736                	add	a4,a4,a3
    8020160e:	070e                	slli	a4,a4,0x3
    80201610:	001c1697          	auipc	a3,0x1c1
    80201614:	e9068693          	addi	a3,a3,-368 # 803c24a0 <pages+0x28>
    80201618:	9736                	add	a4,a4,a3
        pages[i].ref = 1;
    8020161a:	4685                	li	a3,1
    8020161c:	c394                	sw	a3,0(a5)
    for (i = 0; i < n; i++) {
    8020161e:	07e1                	addi	a5,a5,24
    80201620:	fee79ee3          	bne	a5,a4,8020161c <memoryInit+0x64>
    LIST_INIT(&freePages);
    80201624:	00281797          	auipc	a5,0x281
    80201628:	e407ba23          	sd	zero,-428(a5) # 80482478 <freePages>
    for (; i < n; i++) {
    8020162c:	00f9d793          	srli	a5,s3,0xf
    80201630:	8b85                	andi	a5,a5,1
    80201632:	e3c5                	bnez	a5,802016d2 <memoryInit+0x11a>
    for (i = 0; i < n; i++) {
    80201634:	834a                	mv	t1,s2
    80201636:	00281717          	auipc	a4,0x281
    8020163a:	e4273703          	ld	a4,-446(a4) # 80482478 <freePages>
    8020163e:	861a                	mv	a2,t1
        pages[i].ref = 0;
    80201640:	001c1597          	auipc	a1,0x1c1
    80201644:	e3858593          	addi	a1,a1,-456 # 803c2478 <pages>
        LIST_INSERT_HEAD(&freePages, &pages[i], link);
    80201648:	00281897          	auipc	a7,0x281
    8020164c:	e3088893          	addi	a7,a7,-464 # 80482478 <freePages>
    for (; i < n; i++) {
    80201650:	6821                	lui	a6,0x8
    80201652:	a02d                	j	8020167c <memoryInit+0xc4>
        LIST_INSERT_HEAD(&freePages, &pages[i], link);
    80201654:	00151793          	slli	a5,a0,0x1
    80201658:	97aa                	add	a5,a5,a0
    8020165a:	078e                	slli	a5,a5,0x3
    8020165c:	97ae                	add	a5,a5,a1
    8020165e:	e71c                	sd	a5,8(a4)
    80201660:	02061693          	slli	a3,a2,0x20
    80201664:	9281                	srli	a3,a3,0x20
    80201666:	00169793          	slli	a5,a3,0x1
    8020166a:	00d78733          	add	a4,a5,a3
    8020166e:	070e                	slli	a4,a4,0x3
    80201670:	972e                	add	a4,a4,a1
    80201672:	01173423          	sd	a7,8(a4)
    for (; i < n; i++) {
    80201676:	2605                	addiw	a2,a2,1
    80201678:	03067063          	bgeu	a2,a6,80201698 <memoryInit+0xe0>
        pages[i].ref = 0;
    8020167c:	02061513          	slli	a0,a2,0x20
    80201680:	9101                	srli	a0,a0,0x20
    80201682:	00151793          	slli	a5,a0,0x1
    80201686:	00a786b3          	add	a3,a5,a0
    8020168a:	068e                	slli	a3,a3,0x3
    8020168c:	96ae                	add	a3,a3,a1
    8020168e:	0006a823          	sw	zero,16(a3)
        LIST_INSERT_HEAD(&freePages, &pages[i], link);
    80201692:	e298                	sd	a4,0(a3)
    80201694:	f361                	bnez	a4,80201654 <memoryInit+0x9c>
    80201696:	b7e9                	j	80201660 <memoryInit+0xa8>
    80201698:	0013069b          	addiw	a3,t1,1
    8020169c:	6621                	lui	a2,0x8
    8020169e:	4781                	li	a5,0
    802016a0:	00d66663          	bltu	a2,a3,802016ac <memoryInit+0xf4>
    802016a4:	67a1                	lui	a5,0x8
    802016a6:	37fd                	addiw	a5,a5,-1
    802016a8:	406787bb          	subw	a5,a5,t1
    802016ac:	00281697          	auipc	a3,0x281
    802016b0:	dcc68693          	addi	a3,a3,-564 # 80482478 <freePages>
    802016b4:	e298                	sd	a4,0(a3)
    802016b6:	006787bb          	addw	a5,a5,t1
    802016ba:	1782                	slli	a5,a5,0x20
    802016bc:	9381                	srli	a5,a5,0x20
    802016be:	00179713          	slli	a4,a5,0x1
    802016c2:	97ba                	add	a5,a5,a4
    802016c4:	078e                	slli	a5,a5,0x3
    802016c6:	001c1717          	auipc	a4,0x1c1
    802016ca:	db270713          	addi	a4,a4,-590 # 803c2478 <pages>
    802016ce:	97ba                	add	a5,a5,a4
    802016d0:	e794                	sd	a3,8(a5)
    pageInsert(kernelPageDirectory, UART_V, UART, PTE_READ | PTE_WRITE | PTE_ACCESSED | PTE_DIRTY);
    802016d2:	0c600693          	li	a3,198
    802016d6:	10000637          	lui	a2,0x10000
    802016da:	3f100593          	li	a1,1009
    802016de:	05f2                	slli	a1,a1,0x1c
    802016e0:	00419517          	auipc	a0,0x419
    802016e4:	92050513          	addi	a0,a0,-1760 # 8061a000 <_pgdir>
    802016e8:	00001097          	auipc	ra,0x1
    802016ec:	8b2080e7          	jalr	-1870(ra) # 80201f9a <pageInsert>
    802016f0:	01f814b7          	lui	s1,0x1f81
    802016f4:	04b6                	slli	s1,s1,0xd
        pageInsert(kernelPageDirectory, va + i, pa + i, PTE_READ | PTE_WRITE | PTE_ACCESSED | PTE_DIRTY);
    802016f6:	fc100a93          	li	s5,-63
    802016fa:	1a82                	slli	s5,s5,0x20
    802016fc:	00419b97          	auipc	s7,0x419
    80201700:	904b8b93          	addi	s7,s7,-1788 # 8061a000 <_pgdir>
    for (u64 i = 0; i < 0x10000; i += PAGE_SIZE) {
    80201704:	6b05                	lui	s6,0x1
    80201706:	003f0a37          	lui	s4,0x3f0
    8020170a:	201a0a13          	addi	s4,s4,513 # 3f0201 <_start-0x7fe0fdff>
    8020170e:	0a42                	slli	s4,s4,0x10
        pageInsert(kernelPageDirectory, va + i, pa + i, PTE_READ | PTE_WRITE | PTE_ACCESSED | PTE_DIRTY);
    80201710:	0c600693          	li	a3,198
    80201714:	01548633          	add	a2,s1,s5
    80201718:	85a6                	mv	a1,s1
    8020171a:	855e                	mv	a0,s7
    8020171c:	00001097          	auipc	ra,0x1
    80201720:	87e080e7          	jalr	-1922(ra) # 80201f9a <pageInsert>
    for (u64 i = 0; i < 0x10000; i += PAGE_SIZE) {
    80201724:	94da                	add	s1,s1,s6
    80201726:	ff4495e3          	bne	s1,s4,80201710 <memoryInit+0x158>
    8020172a:	00fc34b7          	lui	s1,0xfc3
    8020172e:	04ba                	slli	s1,s1,0xe
        pageInsert(kernelPageDirectory, va + i, pa + i, PTE_READ | PTE_WRITE | PTE_ACCESSED | PTE_DIRTY);
    80201730:	fc100a93          	li	s5,-63
    80201734:	1a82                	slli	s5,s5,0x20
    80201736:	00419b97          	auipc	s7,0x419
    8020173a:	8cab8b93          	addi	s7,s7,-1846 # 8061a000 <_pgdir>
    for (u64 i = 0; i < 0x4000; i += PAGE_SIZE) {
    8020173e:	6b05                	lui	s6,0x1
    80201740:	00fc3a37          	lui	s4,0xfc3
    80201744:	0a05                	addi	s4,s4,1
    80201746:	0a3a                	slli	s4,s4,0xe
        pageInsert(kernelPageDirectory, va + i, pa + i, PTE_READ | PTE_WRITE | PTE_ACCESSED | PTE_DIRTY);
    80201748:	0c600693          	li	a3,198
    8020174c:	01548633          	add	a2,s1,s5
    80201750:	85a6                	mv	a1,s1
    80201752:	855e                	mv	a0,s7
    80201754:	00001097          	auipc	ra,0x1
    80201758:	846080e7          	jalr	-1978(ra) # 80201f9a <pageInsert>
    for (u64 i = 0; i < 0x4000; i += PAGE_SIZE) {
    8020175c:	94da                	add	s1,s1,s6
    8020175e:	ff4495e3          	bne	s1,s4,80201748 <memoryInit+0x190>
    80201762:	1f8614b7          	lui	s1,0x1f861
    80201766:	04a6                	slli	s1,s1,0x9
        pageInsert(kernelPageDirectory, va + i, pa + i, PTE_READ | PTE_WRITE | PTE_ACCESSED | PTE_DIRTY);
    80201768:	fc100a93          	li	s5,-63
    8020176c:	1a82                	slli	s5,s5,0x20
    8020176e:	00419b97          	auipc	s7,0x419
    80201772:	892b8b93          	addi	s7,s7,-1902 # 8061a000 <_pgdir>
    for (u64 i = 0; i < 0x4000; i += PAGE_SIZE) {
    80201776:	6b05                	lui	s6,0x1
    80201778:	00fc3a37          	lui	s4,0xfc3
    8020177c:	081a0a13          	addi	s4,s4,129 # fc3081 <_start-0x7f23cf7f>
    80201780:	0a3a                	slli	s4,s4,0xe
        pageInsert(kernelPageDirectory, va + i, pa + i, PTE_READ | PTE_WRITE | PTE_ACCESSED | PTE_DIRTY);
    80201782:	0c600693          	li	a3,198
    80201786:	01548633          	add	a2,s1,s5
    8020178a:	85a6                	mv	a1,s1
    8020178c:	855e                	mv	a0,s7
    8020178e:	00001097          	auipc	ra,0x1
    80201792:	80c080e7          	jalr	-2036(ra) # 80201f9a <pageInsert>
    for (u64 i = 0; i < 0x4000; i += PAGE_SIZE) {
    80201796:	94da                	add	s1,s1,s6
    80201798:	ff4495e3          	bne	s1,s4,80201782 <memoryInit+0x1ca>
    pageInsert(kernelPageDirectory, SPI_CTRL_ADDR, SPI_CTRL_ADDR, PTE_READ | PTE_WRITE | PTE_ACCESSED | PTE_DIRTY);
    8020179c:	0c600693          	li	a3,198
    802017a0:	10050637          	lui	a2,0x10050
    802017a4:	100505b7          	lui	a1,0x10050
    802017a8:	00419517          	auipc	a0,0x419
    802017ac:	85850513          	addi	a0,a0,-1960 # 8061a000 <_pgdir>
    802017b0:	00000097          	auipc	ra,0x0
    802017b4:	7ea080e7          	jalr	2026(ra) # 80201f9a <pageInsert>
    pageInsert(kernelPageDirectory, UART_CTRL_ADDR, UART_CTRL_ADDR, PTE_READ | PTE_WRITE | PTE_ACCESSED | PTE_DIRTY);
    802017b8:	0c600693          	li	a3,198
    802017bc:	10010637          	lui	a2,0x10010
    802017c0:	100105b7          	lui	a1,0x10010
    802017c4:	00419517          	auipc	a0,0x419
    802017c8:	83c50513          	addi	a0,a0,-1988 # 8061a000 <_pgdir>
    802017cc:	00000097          	auipc	ra,0x0
    802017d0:	7ce080e7          	jalr	1998(ra) # 80201f9a <pageInsert>
    va = pa = (u64)kernelStart;
    802017d4:	fffffa17          	auipc	s4,0xfffff
    802017d8:	82ca0a13          	addi	s4,s4,-2004 # 80200000 <_start>
    for (u64 i = 0; va + i < (u64)textEnd; i += PAGE_SIZE) {
    802017dc:	0000b497          	auipc	s1,0xb
    802017e0:	82448493          	addi	s1,s1,-2012 # 8020c000 <textEnd>
    802017e4:	029a7363          	bgeu	s4,s1,8020180a <memoryInit+0x252>
        pageInsert(kernelPageDirectory, va + i, pa + i, PTE_READ | PTE_EXECUTE | PTE_WRITE | PTE_ACCESSED | PTE_DIRTY);
    802017e8:	00419b17          	auipc	s6,0x419
    802017ec:	818b0b13          	addi	s6,s6,-2024 # 8061a000 <_pgdir>
    for (u64 i = 0; va + i < (u64)textEnd; i += PAGE_SIZE) {
    802017f0:	6a85                	lui	s5,0x1
        pageInsert(kernelPageDirectory, va + i, pa + i, PTE_READ | PTE_EXECUTE | PTE_WRITE | PTE_ACCESSED | PTE_DIRTY);
    802017f2:	0ce00693          	li	a3,206
    802017f6:	8652                	mv	a2,s4
    802017f8:	85d2                	mv	a1,s4
    802017fa:	855a                	mv	a0,s6
    802017fc:	00000097          	auipc	ra,0x0
    80201800:	79e080e7          	jalr	1950(ra) # 80201f9a <pageInsert>
    for (u64 i = 0; va + i < (u64)textEnd; i += PAGE_SIZE) {
    80201804:	9a56                	add	s4,s4,s5
    80201806:	fe9a66e3          	bltu	s4,s1,802017f2 <memoryInit+0x23a>
    for (u64 i = 0; va + i < PHYSICAL_MEMORY_TOP; i += PAGE_SIZE) {
    8020180a:	47c5                	li	a5,17
    8020180c:	07ee                	slli	a5,a5,0x1b
    8020180e:	02f4f463          	bgeu	s1,a5,80201836 <memoryInit+0x27e>
        pageInsert(kernelPageDirectory, va + i, pa + i, PTE_READ | PTE_WRITE | PTE_ACCESSED | PTE_DIRTY);
    80201812:	00418b17          	auipc	s6,0x418
    80201816:	7eeb0b13          	addi	s6,s6,2030 # 8061a000 <_pgdir>
    for (u64 i = 0; va + i < PHYSICAL_MEMORY_TOP; i += PAGE_SIZE) {
    8020181a:	6a85                	lui	s5,0x1
    8020181c:	8a3e                	mv	s4,a5
        pageInsert(kernelPageDirectory, va + i, pa + i, PTE_READ | PTE_WRITE | PTE_ACCESSED | PTE_DIRTY);
    8020181e:	0c600693          	li	a3,198
    80201822:	8626                	mv	a2,s1
    80201824:	85a6                	mv	a1,s1
    80201826:	855a                	mv	a0,s6
    80201828:	00000097          	auipc	ra,0x0
    8020182c:	772080e7          	jalr	1906(ra) # 80201f9a <pageInsert>
    for (u64 i = 0; va + i < PHYSICAL_MEMORY_TOP; i += PAGE_SIZE) {
    80201830:	94d6                	add	s1,s1,s5
    80201832:	ff44e6e3          	bltu	s1,s4,8020181e <memoryInit+0x266>
    pageInsert(kernelPageDirectory, TRAMPOLINE_BASE, (u64)trampoline, 
    80201836:	0ce00693          	li	a3,206
    8020183a:	00008617          	auipc	a2,0x8
    8020183e:	7c660613          	addi	a2,a2,1990 # 8020a000 <_trampoline>
    80201842:	020005b7          	lui	a1,0x2000
    80201846:	15fd                	addi	a1,a1,-1
    80201848:	05b6                	slli	a1,a1,0xd
    8020184a:	00418517          	auipc	a0,0x418
    8020184e:	7b650513          	addi	a0,a0,1974 # 8061a000 <_pgdir>
    80201852:	00000097          	auipc	ra,0x0
    80201856:	748080e7          	jalr	1864(ra) # 80201f9a <pageInsert>
    pageInsert(kernelPageDirectory, TRAMPOLINE_BASE + PAGE_SIZE, (u64)trampoline + PAGE_SIZE, 
    8020185a:	0ce00693          	li	a3,206
    8020185e:	00009617          	auipc	a2,0x9
    80201862:	7a260613          	addi	a2,a2,1954 # 8020b000 <trapframe>
    80201866:	040005b7          	lui	a1,0x4000
    8020186a:	15fd                	addi	a1,a1,-1
    8020186c:	05b2                	slli	a1,a1,0xc
    8020186e:	00418517          	auipc	a0,0x418
    80201872:	79250513          	addi	a0,a0,1938 # 8061a000 <_pgdir>
    80201876:	00000097          	auipc	ra,0x0
    8020187a:	724080e7          	jalr	1828(ra) # 80201f9a <pageInsert>
    for (; i < n; i++) {
    8020187e:	00f9d993          	srli	s3,s3,0xf
    80201882:	0019f993          	andi	s3,s3,1
    80201886:	02099563          	bnez	s3,802018b0 <memoryInit+0x2f8>
    8020188a:	02091713          	slli	a4,s2,0x20
    8020188e:	9301                	srli	a4,a4,0x20
    80201890:	00171793          	slli	a5,a4,0x1
    80201894:	97ba                	add	a5,a5,a4
    80201896:	078e                	slli	a5,a5,0x3
    80201898:	001c1717          	auipc	a4,0x1c1
    8020189c:	be070713          	addi	a4,a4,-1056 # 803c2478 <pages>
    802018a0:	97ba                	add	a5,a5,a4
    802018a2:	6721                	lui	a4,0x8
        pages[i].ref = 0;
    802018a4:	0007a823          	sw	zero,16(a5) # 8010 <_start-0x801f7ff0>
    for (; i < n; i++) {
    802018a8:	2905                	addiw	s2,s2,1
    802018aa:	07e1                	addi	a5,a5,24
    802018ac:	fee96ce3          	bltu	s2,a4,802018a4 <memoryInit+0x2ec>
    initFreePages();
    virtualMemory();
    resetRef();
    startPage();
    802018b0:	00000097          	auipc	ra,0x0
    802018b4:	ce4080e7          	jalr	-796(ra) # 80201594 <startPage>
    printf("Memory init finish!\n");
    802018b8:	0000b517          	auipc	a0,0xb
    802018bc:	ba050513          	addi	a0,a0,-1120 # 8020c458 <textEnd+0x458>
    802018c0:	fffff097          	auipc	ra,0xfffff
    802018c4:	200080e7          	jalr	512(ra) # 80200ac0 <printf>
    printf("Test memory start...\n");
    802018c8:	0000b517          	auipc	a0,0xb
    802018cc:	ba850513          	addi	a0,a0,-1112 # 8020c470 <textEnd+0x470>
    802018d0:	fffff097          	auipc	ra,0xfffff
    802018d4:	1f0080e7          	jalr	496(ra) # 80200ac0 <printf>
    pageAlloc(&p);
    802018d8:	fa840513          	addi	a0,s0,-88
    802018dc:	00000097          	auipc	ra,0x0
    802018e0:	332080e7          	jalr	818(ra) # 80201c0e <pageAlloc>
    int hartId;
} PhysicalPage;

inline u32 page2PPN(PhysicalPage *page) {
    extern PhysicalPage pages[];
    return page - pages;
    802018e4:	001c1997          	auipc	s3,0x1c1
    802018e8:	b9498993          	addi	s3,s3,-1132 # 803c2478 <pages>
    802018ec:	fa843583          	ld	a1,-88(s0)
    802018f0:	413585b3          	sub	a1,a1,s3
    802018f4:	858d                	srai	a1,a1,0x3
    802018f6:	0000c917          	auipc	s2,0xc
    802018fa:	9e293903          	ld	s2,-1566(s2) # 8020d2d8 <__func__.0+0x8>
    802018fe:	032585b3          	mul	a1,a1,s2
    return pages + ppn;
}


inline u64 page2pa(PhysicalPage *page) {
    return PHYSICAL_ADDRESS_BASE + (page2PPN(page) << PAGE_SHIFT);
    80201902:	00c5959b          	slliw	a1,a1,0xc
    80201906:	1582                	slli	a1,a1,0x20
    80201908:	9181                	srli	a1,a1,0x20
    8020190a:	4a05                	li	s4,1
    8020190c:	01fa1493          	slli	s1,s4,0x1f
    printf("alloced page1:  %lx\n", page2pa(p));
    80201910:	95a6                	add	a1,a1,s1
    80201912:	0000b517          	auipc	a0,0xb
    80201916:	b7650513          	addi	a0,a0,-1162 # 8020c488 <textEnd+0x488>
    8020191a:	fffff097          	auipc	ra,0xfffff
    8020191e:	1a6080e7          	jalr	422(ra) # 80200ac0 <printf>
    return page - pages;
    80201922:	fa843603          	ld	a2,-88(s0)
    80201926:	41360633          	sub	a2,a2,s3
    8020192a:	860d                	srai	a2,a2,0x3
    8020192c:	03260633          	mul	a2,a2,s2
    return PHYSICAL_ADDRESS_BASE + (page2PPN(page) << PAGE_SHIFT);
    80201930:	00c6161b          	slliw	a2,a2,0xc
    80201934:	1602                	slli	a2,a2,0x20
    80201936:	9201                	srli	a2,a2,0x20
    pageInsert(kernelPageDirectory, 1ll << 35, page2pa(p), PTE_READ | PTE_WRITE);
    80201938:	4699                	li	a3,6
    8020193a:	9626                	add	a2,a2,s1
    8020193c:	023a1593          	slli	a1,s4,0x23
    80201940:	00418517          	auipc	a0,0x418
    80201944:	6c050513          	addi	a0,a0,1728 # 8061a000 <_pgdir>
    80201948:	00000097          	auipc	ra,0x0
    8020194c:	652080e7          	jalr	1618(ra) # 80201f9a <pageInsert>
    return page - pages;
    80201950:	fa843783          	ld	a5,-88(s0)
    80201954:	413787b3          	sub	a5,a5,s3
    80201958:	878d                	srai	a5,a5,0x3
    8020195a:	032787b3          	mul	a5,a5,s2
    return PHYSICAL_ADDRESS_BASE + (page2PPN(page) << PAGE_SHIFT);
    8020195e:	00c7979b          	slliw	a5,a5,0xc
    80201962:	1782                	slli	a5,a5,0x20
    80201964:	9381                	srli	a5,a5,0x20
    *((u32*)page2pa(p)) = 147893;
    80201966:	97a6                	add	a5,a5,s1
    80201968:	00024737          	lui	a4,0x24
    8020196c:	1b570713          	addi	a4,a4,437 # 241b5 <_start-0x801dbe4b>
    80201970:	c398                	sw	a4,0(a5)
    printf("value1 of %lx:  %d\n", 1ll << 35, *((u32*)(1ll<<35)));
    80201972:	1a0e                	slli	s4,s4,0x23
    80201974:	000a2603          	lw	a2,0(s4)
    80201978:	85d2                	mv	a1,s4
    8020197a:	0000b517          	auipc	a0,0xb
    8020197e:	b2650513          	addi	a0,a0,-1242 # 8020c4a0 <textEnd+0x4a0>
    80201982:	fffff097          	auipc	ra,0xfffff
    80201986:	13e080e7          	jalr	318(ra) # 80200ac0 <printf>
    pageAlloc(&p);
    8020198a:	fa840513          	addi	a0,s0,-88
    8020198e:	00000097          	auipc	ra,0x0
    80201992:	280080e7          	jalr	640(ra) # 80201c0e <pageAlloc>
    return page - pages;
    80201996:	fa843583          	ld	a1,-88(s0)
    8020199a:	413585b3          	sub	a1,a1,s3
    8020199e:	858d                	srai	a1,a1,0x3
    802019a0:	032585b3          	mul	a1,a1,s2
    return PHYSICAL_ADDRESS_BASE + (page2PPN(page) << PAGE_SHIFT);
    802019a4:	00c5959b          	slliw	a1,a1,0xc
    802019a8:	1582                	slli	a1,a1,0x20
    802019aa:	9181                	srli	a1,a1,0x20
    printf("alloced page2:  %lx\n", page2pa(p));
    802019ac:	95a6                	add	a1,a1,s1
    802019ae:	0000b517          	auipc	a0,0xb
    802019b2:	b0a50513          	addi	a0,a0,-1270 # 8020c4b8 <textEnd+0x4b8>
    802019b6:	fffff097          	auipc	ra,0xfffff
    802019ba:	10a080e7          	jalr	266(ra) # 80200ac0 <printf>
    return page - pages;
    802019be:	fa843603          	ld	a2,-88(s0)
    802019c2:	41360633          	sub	a2,a2,s3
    802019c6:	860d                	srai	a2,a2,0x3
    802019c8:	03260633          	mul	a2,a2,s2
    return PHYSICAL_ADDRESS_BASE + (page2PPN(page) << PAGE_SHIFT);
    802019cc:	00c6161b          	slliw	a2,a2,0xc
    802019d0:	1602                	slli	a2,a2,0x20
    802019d2:	9201                	srli	a2,a2,0x20
    pageInsert(kernelPageDirectory, 1ll << 35, page2pa(p), PTE_READ | PTE_WRITE);
    802019d4:	4699                	li	a3,6
    802019d6:	9626                	add	a2,a2,s1
    802019d8:	85d2                	mv	a1,s4
    802019da:	00418517          	auipc	a0,0x418
    802019de:	62650513          	addi	a0,a0,1574 # 8061a000 <_pgdir>
    802019e2:	00000097          	auipc	ra,0x0
    802019e6:	5b8080e7          	jalr	1464(ra) # 80201f9a <pageInsert>
    return page - pages;
    802019ea:	fa843783          	ld	a5,-88(s0)
    802019ee:	413787b3          	sub	a5,a5,s3
    802019f2:	878d                	srai	a5,a5,0x3
    802019f4:	032787b3          	mul	a5,a5,s2
    return PHYSICAL_ADDRESS_BASE + (page2PPN(page) << PAGE_SHIFT);
    802019f8:	00c7979b          	slliw	a5,a5,0xc
    802019fc:	1782                	slli	a5,a5,0x20
    802019fe:	9381                	srli	a5,a5,0x20
    *((u32*)page2pa(p)) = 65536;
    80201a00:	94be                	add	s1,s1,a5
    80201a02:	67c1                	lui	a5,0x10
    80201a04:	c09c                	sw	a5,0(s1)
    printf("value1 of %lx:  %d\n", 1ll << 35, *((u32*)(1ll<<35)));
    80201a06:	000a2603          	lw	a2,0(s4)
    80201a0a:	85d2                	mv	a1,s4
    80201a0c:	0000b517          	auipc	a0,0xb
    80201a10:	a9450513          	addi	a0,a0,-1388 # 8020c4a0 <textEnd+0x4a0>
    80201a14:	fffff097          	auipc	ra,0xfffff
    80201a18:	0ac080e7          	jalr	172(ra) # 80200ac0 <printf>
    testMemory();
    printf("Test memory finish!\n");
    80201a1c:	0000b517          	auipc	a0,0xb
    80201a20:	ab450513          	addi	a0,a0,-1356 # 8020c4d0 <textEnd+0x4d0>
    80201a24:	fffff097          	auipc	ra,0xfffff
    80201a28:	09c080e7          	jalr	156(ra) # 80200ac0 <printf>
}
    80201a2c:	60e6                	ld	ra,88(sp)
    80201a2e:	6446                	ld	s0,80(sp)
    80201a30:	64a6                	ld	s1,72(sp)
    80201a32:	6906                	ld	s2,64(sp)
    80201a34:	79e2                	ld	s3,56(sp)
    80201a36:	7a42                	ld	s4,48(sp)
    80201a38:	7aa2                	ld	s5,40(sp)
    80201a3a:	7b02                	ld	s6,32(sp)
    80201a3c:	6be2                	ld	s7,24(sp)
    80201a3e:	6125                	addi	sp,sp,96
    80201a40:	8082                	ret
    LIST_INIT(&freePages);
    80201a42:	00281797          	auipc	a5,0x281
    80201a46:	a207bb23          	sd	zero,-1482(a5) # 80482478 <freePages>
    for (i = 0; i < n; i++) {
    80201a4a:	834a                	mv	t1,s2
    80201a4c:	b6ed                	j	80201636 <memoryInit+0x7e>

0000000080201a4e <bcopy>:

void bcopy(void *src, void *dst, u32 len) {
    80201a4e:	1141                	addi	sp,sp,-16
    80201a50:	e422                	sd	s0,8(sp)
    80201a52:	0800                	addi	s0,sp,16
    void *finish = src + len;
    80201a54:	1602                	slli	a2,a2,0x20
    80201a56:	9201                	srli	a2,a2,0x20
    80201a58:	962a                	add	a2,a2,a0

    while (src < finish) {
    80201a5a:	00c57a63          	bgeu	a0,a2,80201a6e <bcopy+0x20>
        *(u8*)dst = *(u8*)src;
    80201a5e:	00054783          	lbu	a5,0(a0)
    80201a62:	00f58023          	sb	a5,0(a1) # 4000000 <_start-0x7c200000>
        src++;
    80201a66:	0505                	addi	a0,a0,1
        dst++;
    80201a68:	0585                	addi	a1,a1,1
    while (src < finish) {
    80201a6a:	fea61ae3          	bne	a2,a0,80201a5e <bcopy+0x10>
    }
}
    80201a6e:	6422                	ld	s0,8(sp)
    80201a70:	0141                	addi	sp,sp,16
    80201a72:	8082                	ret

0000000080201a74 <bzero>:

void bzero(void *start, u32 len) {
    80201a74:	1141                	addi	sp,sp,-16
    80201a76:	e422                	sd	s0,8(sp)
    80201a78:	0800                	addi	s0,sp,16
    void *finish = start + len;
    80201a7a:	02059713          	slli	a4,a1,0x20
    80201a7e:	9301                	srli	a4,a4,0x20
    80201a80:	972a                	add	a4,a4,a0

    if (len <= 7) {
    80201a82:	479d                	li	a5,7
    80201a84:	04b7f463          	bgeu	a5,a1,80201acc <bzero+0x58>
        while (start < finish) {
            *(u8*)start++ = 0;
        }
        return;
    }
    while (((u64) start) & 7) {
    80201a88:	00757793          	andi	a5,a0,7
    80201a8c:	c799                	beqz	a5,80201a9a <bzero+0x26>
        *(u8*)start++ = 0;
    80201a8e:	0505                	addi	a0,a0,1
    80201a90:	fe050fa3          	sb	zero,-1(a0)
    while (((u64) start) & 7) {
    80201a94:	00757793          	andi	a5,a0,7
    80201a98:	fbfd                	bnez	a5,80201a8e <bzero+0x1a>
    }
    while (start + 7 < finish) {
    80201a9a:	00750793          	addi	a5,a0,7
    80201a9e:	02e7ff63          	bgeu	a5,a4,80201adc <bzero+0x68>
    80201aa2:	ff870793          	addi	a5,a4,-8
    80201aa6:	8f89                	sub	a5,a5,a0
    80201aa8:	9be1                	andi	a5,a5,-8
    80201aaa:	07a1                	addi	a5,a5,8
    80201aac:	97aa                	add	a5,a5,a0
        *(u64*)start = 0;
    80201aae:	00053023          	sd	zero,0(a0)
        start += 8;
    80201ab2:	0521                	addi	a0,a0,8
    while (start + 7 < finish) {
    80201ab4:	fef51de3          	bne	a0,a5,80201aae <bzero+0x3a>
    }
    while (start < finish) {
    80201ab8:	00e7f763          	bgeu	a5,a4,80201ac6 <bzero+0x52>
        *(u8*)start++ = 0;
    80201abc:	0785                	addi	a5,a5,1
    80201abe:	fe078fa3          	sb	zero,-1(a5)
    while (start < finish) {
    80201ac2:	fef71de3          	bne	a4,a5,80201abc <bzero+0x48>
    }
    80201ac6:	6422                	ld	s0,8(sp)
    80201ac8:	0141                	addi	sp,sp,16
    80201aca:	8082                	ret
        while (start < finish) {
    80201acc:	fee57de3          	bgeu	a0,a4,80201ac6 <bzero+0x52>
            *(u8*)start++ = 0;
    80201ad0:	0505                	addi	a0,a0,1
    80201ad2:	fe050fa3          	sb	zero,-1(a0)
        while (start < finish) {
    80201ad6:	fea71de3          	bne	a4,a0,80201ad0 <bzero+0x5c>
    80201ada:	b7f5                	j	80201ac6 <bzero+0x52>
    while (start + 7 < finish) {
    80201adc:	87aa                	mv	a5,a0
    80201ade:	bfe9                	j	80201ab8 <bzero+0x44>

0000000080201ae0 <paDecreaseRef>:
        LIST_INSERT_HEAD(&freePages, page, link);
        releaseLock(&pageListLock);
    }
}

static void paDecreaseRef(u64 pa) {
    80201ae0:	1101                	addi	sp,sp,-32
    80201ae2:	ec06                	sd	ra,24(sp)
    80201ae4:	e822                	sd	s0,16(sp)
    80201ae6:	e426                	sd	s1,8(sp)
    80201ae8:	1000                	addi	s0,sp,32
}

inline PhysicalPage* pa2page(u64 pa) {
    if (pa == 0)
    80201aea:	cd21                	beqz	a0,80201b42 <paDecreaseRef+0x62>
        return NULL;
    return ppn2page((pa - PHYSICAL_ADDRESS_BASE) >> PAGE_SHIFT);
    80201aec:	800007b7          	lui	a5,0x80000
    80201af0:	953e                	add	a0,a0,a5
    80201af2:	8131                	srli	a0,a0,0xc
    return pages + ppn;
    80201af4:	1502                	slli	a0,a0,0x20
    80201af6:	9101                	srli	a0,a0,0x20
    80201af8:	00151493          	slli	s1,a0,0x1
    80201afc:	94aa                	add	s1,s1,a0
    80201afe:	048e                	slli	s1,s1,0x3
    80201b00:	001c1797          	auipc	a5,0x1c1
    80201b04:	97878793          	addi	a5,a5,-1672 # 803c2478 <pages>
    80201b08:	94be                	add	s1,s1,a5
    PhysicalPage *page = pa2page(pa);
    page->ref--;
    80201b0a:	489c                	lw	a5,16(s1)
    80201b0c:	37fd                	addiw	a5,a5,-1
    80201b0e:	0007869b          	sext.w	a3,a5
    80201b12:	c89c                	sw	a5,16(s1)
    assert(page->ref==0);
    80201b14:	0016b693          	seqz	a3,a3
    80201b18:	0000b617          	auipc	a2,0xb
    80201b1c:	aa860613          	addi	a2,a2,-1368 # 8020c5c0 <__func__.3>
    80201b20:	07400593          	li	a1,116
    80201b24:	0000b517          	auipc	a0,0xb
    80201b28:	9c450513          	addi	a0,a0,-1596 # 8020c4e8 <textEnd+0x4e8>
    80201b2c:	fffff097          	auipc	ra,0xfffff
    80201b30:	096080e7          	jalr	150(ra) # 80200bc2 <_assert_>
    if (page->ref == 0) {
    80201b34:	489c                	lw	a5,16(s1)
    80201b36:	cb81                	beqz	a5,80201b46 <paDecreaseRef+0x66>
        acquireLock(&pageListLock);
        LIST_INSERT_HEAD(&freePages, page, link);
        releaseLock(&pageListLock);
    }
}
    80201b38:	60e2                	ld	ra,24(sp)
    80201b3a:	6442                	ld	s0,16(sp)
    80201b3c:	64a2                	ld	s1,8(sp)
    80201b3e:	6105                	addi	sp,sp,32
    80201b40:	8082                	ret
        return NULL;
    80201b42:	4481                	li	s1,0
    80201b44:	b7d9                	j	80201b0a <paDecreaseRef+0x2a>
        acquireLock(&pageListLock);
    80201b46:	00281517          	auipc	a0,0x281
    80201b4a:	93a50513          	addi	a0,a0,-1734 # 80482480 <pageListLock>
    80201b4e:	00004097          	auipc	ra,0x4
    80201b52:	f60080e7          	jalr	-160(ra) # 80205aae <acquireLock>
        LIST_INSERT_HEAD(&freePages, page, link);
    80201b56:	00281797          	auipc	a5,0x281
    80201b5a:	9227b783          	ld	a5,-1758(a5) # 80482478 <freePages>
    80201b5e:	e09c                	sd	a5,0(s1)
    80201b60:	c391                	beqz	a5,80201b64 <paDecreaseRef+0x84>
    80201b62:	e784                	sd	s1,8(a5)
    80201b64:	00281797          	auipc	a5,0x281
    80201b68:	91478793          	addi	a5,a5,-1772 # 80482478 <freePages>
    80201b6c:	e384                	sd	s1,0(a5)
    80201b6e:	e49c                	sd	a5,8(s1)
        releaseLock(&pageListLock);
    80201b70:	00281517          	auipc	a0,0x281
    80201b74:	91050513          	addi	a0,a0,-1776 # 80482480 <pageListLock>
    80201b78:	00004097          	auipc	ra,0x4
    80201b7c:	fb2080e7          	jalr	-78(ra) # 80205b2a <releaseLock>
}
    80201b80:	bf65                	j	80201b38 <paDecreaseRef+0x58>

0000000080201b82 <pageLockInit>:
inline void pageLockInit(void) {
    80201b82:	1141                	addi	sp,sp,-16
    80201b84:	e406                	sd	ra,8(sp)
    80201b86:	e022                	sd	s0,0(sp)
    80201b88:	0800                	addi	s0,sp,16
    initLock(&pageListLock, "pageListLock");
    80201b8a:	0000b597          	auipc	a1,0xb
    80201b8e:	96658593          	addi	a1,a1,-1690 # 8020c4f0 <textEnd+0x4f0>
    80201b92:	00281517          	auipc	a0,0x281
    80201b96:	8ee50513          	addi	a0,a0,-1810 # 80482480 <pageListLock>
    80201b9a:	00004097          	auipc	ra,0x4
    80201b9e:	eca080e7          	jalr	-310(ra) # 80205a64 <initLock>
    initLock(&cowBufferLock, "cowBufferLock");
    80201ba2:	0000b597          	auipc	a1,0xb
    80201ba6:	95e58593          	addi	a1,a1,-1698 # 8020c500 <textEnd+0x500>
    80201baa:	00281517          	auipc	a0,0x281
    80201bae:	8ee50513          	addi	a0,a0,-1810 # 80482498 <cowBufferLock>
    80201bb2:	00004097          	auipc	ra,0x4
    80201bb6:	eb2080e7          	jalr	-334(ra) # 80205a64 <initLock>
}
    80201bba:	60a2                	ld	ra,8(sp)
    80201bbc:	6402                	ld	s0,0(sp)
    80201bbe:	0141                	addi	sp,sp,16
    80201bc0:	8082                	ret

0000000080201bc2 <countFreePages>:
int countFreePages() {
    80201bc2:	1101                	addi	sp,sp,-32
    80201bc4:	ec06                	sd	ra,24(sp)
    80201bc6:	e822                	sd	s0,16(sp)
    80201bc8:	e426                	sd	s1,8(sp)
    80201bca:	1000                	addi	s0,sp,32
    acquireLock(&pageListLock);
    80201bcc:	00281517          	auipc	a0,0x281
    80201bd0:	8b450513          	addi	a0,a0,-1868 # 80482480 <pageListLock>
    80201bd4:	00004097          	auipc	ra,0x4
    80201bd8:	eda080e7          	jalr	-294(ra) # 80205aae <acquireLock>
    LIST_FOREACH(page, &freePages, link)
    80201bdc:	00281797          	auipc	a5,0x281
    80201be0:	89c7b783          	ld	a5,-1892(a5) # 80482478 <freePages>
    80201be4:	c39d                	beqz	a5,80201c0a <countFreePages+0x48>
    int count = 0;
    80201be6:	4481                	li	s1,0
        count++;
    80201be8:	2485                	addiw	s1,s1,1
    LIST_FOREACH(page, &freePages, link)
    80201bea:	639c                	ld	a5,0(a5)
    80201bec:	fff5                	bnez	a5,80201be8 <countFreePages+0x26>
    releaseLock(&pageListLock);
    80201bee:	00281517          	auipc	a0,0x281
    80201bf2:	89250513          	addi	a0,a0,-1902 # 80482480 <pageListLock>
    80201bf6:	00004097          	auipc	ra,0x4
    80201bfa:	f34080e7          	jalr	-204(ra) # 80205b2a <releaseLock>
}
    80201bfe:	8526                	mv	a0,s1
    80201c00:	60e2                	ld	ra,24(sp)
    80201c02:	6442                	ld	s0,16(sp)
    80201c04:	64a2                	ld	s1,8(sp)
    80201c06:	6105                	addi	sp,sp,32
    80201c08:	8082                	ret
    int count = 0;
    80201c0a:	4481                	li	s1,0
    80201c0c:	b7cd                	j	80201bee <countFreePages+0x2c>

0000000080201c0e <pageAlloc>:
int pageAlloc(PhysicalPage **pp) {
    80201c0e:	1101                	addi	sp,sp,-32
    80201c10:	ec06                	sd	ra,24(sp)
    80201c12:	e822                	sd	s0,16(sp)
    80201c14:	e426                	sd	s1,8(sp)
    80201c16:	e04a                	sd	s2,0(sp)
    80201c18:	1000                	addi	s0,sp,32
    80201c1a:	892a                	mv	s2,a0
    acquireLock(&pageListLock);
    80201c1c:	00281517          	auipc	a0,0x281
    80201c20:	86450513          	addi	a0,a0,-1948 # 80482480 <pageListLock>
    80201c24:	00004097          	auipc	ra,0x4
    80201c28:	e8a080e7          	jalr	-374(ra) # 80205aae <acquireLock>
    if ((page = LIST_FIRST(&freePages)) != NULL) {
    80201c2c:	00281497          	auipc	s1,0x281
    80201c30:	84c4b483          	ld	s1,-1972(s1) # 80482478 <freePages>
    80201c34:	c4a5                	beqz	s1,80201c9c <pageAlloc+0x8e>
        *pp = page;
    80201c36:	00993023          	sd	s1,0(s2)
    asm volatile("mv %0, tp" : "=r" (x) );
    80201c3a:	8792                	mv	a5,tp
        page->hartId = r_hartid();
    80201c3c:	c8dc                	sw	a5,20(s1)
        LIST_REMOVE(page, link);
    80201c3e:	609c                	ld	a5,0(s1)
    80201c40:	c399                	beqz	a5,80201c46 <pageAlloc+0x38>
    80201c42:	6498                	ld	a4,8(s1)
    80201c44:	e798                	sd	a4,8(a5)
    80201c46:	649c                	ld	a5,8(s1)
    80201c48:	6098                	ld	a4,0(s1)
    80201c4a:	e398                	sd	a4,0(a5)
        releaseLock(&pageListLock);
    80201c4c:	00281517          	auipc	a0,0x281
    80201c50:	83450513          	addi	a0,a0,-1996 # 80482480 <pageListLock>
    80201c54:	00004097          	auipc	ra,0x4
    80201c58:	ed6080e7          	jalr	-298(ra) # 80205b2a <releaseLock>
    return page - pages;
    80201c5c:	001c1797          	auipc	a5,0x1c1
    80201c60:	81c78793          	addi	a5,a5,-2020 # 803c2478 <pages>
    80201c64:	40f487b3          	sub	a5,s1,a5
    80201c68:	878d                	srai	a5,a5,0x3
    80201c6a:	0000b717          	auipc	a4,0xb
    80201c6e:	66e73703          	ld	a4,1646(a4) # 8020d2d8 <__func__.0+0x8>
    80201c72:	02e787b3          	mul	a5,a5,a4
    return PHYSICAL_ADDRESS_BASE + (page2PPN(page) << PAGE_SHIFT);
    80201c76:	00c7979b          	slliw	a5,a5,0xc
    80201c7a:	1782                	slli	a5,a5,0x20
    80201c7c:	9381                	srli	a5,a5,0x20
        bzero((void*)page2pa(page), PAGE_SIZE);
    80201c7e:	6585                	lui	a1,0x1
    80201c80:	4505                	li	a0,1
    80201c82:	057e                	slli	a0,a0,0x1f
    80201c84:	953e                	add	a0,a0,a5
    80201c86:	00000097          	auipc	ra,0x0
    80201c8a:	dee080e7          	jalr	-530(ra) # 80201a74 <bzero>
        return 0;
    80201c8e:	4501                	li	a0,0
}
    80201c90:	60e2                	ld	ra,24(sp)
    80201c92:	6442                	ld	s0,16(sp)
    80201c94:	64a2                	ld	s1,8(sp)
    80201c96:	6902                	ld	s2,0(sp)
    80201c98:	6105                	addi	sp,sp,32
    80201c9a:	8082                	ret
    releaseLock(&pageListLock);
    80201c9c:	00280517          	auipc	a0,0x280
    80201ca0:	7e450513          	addi	a0,a0,2020 # 80482480 <pageListLock>
    80201ca4:	00004097          	auipc	ra,0x4
    80201ca8:	e86080e7          	jalr	-378(ra) # 80205b2a <releaseLock>
    printf("there's no physical page left!\n");
    80201cac:	0000b517          	auipc	a0,0xb
    80201cb0:	86450513          	addi	a0,a0,-1948 # 8020c510 <textEnd+0x510>
    80201cb4:	fffff097          	auipc	ra,0xfffff
    80201cb8:	e0c080e7          	jalr	-500(ra) # 80200ac0 <printf>
    *pp = NULL;
    80201cbc:	00093023          	sd	zero,0(s2)
    return -NO_FREE_MEMORY;
    80201cc0:	5571                	li	a0,-4
    80201cc2:	b7f9                	j	80201c90 <pageAlloc+0x82>

0000000080201cc4 <pageWalk>:
static int pageWalk(u64 *pgdir, u64 va, bool create, u64 **pte) {
    80201cc4:	7159                	addi	sp,sp,-112
    80201cc6:	f486                	sd	ra,104(sp)
    80201cc8:	f0a2                	sd	s0,96(sp)
    80201cca:	eca6                	sd	s1,88(sp)
    80201ccc:	e8ca                	sd	s2,80(sp)
    80201cce:	e4ce                	sd	s3,72(sp)
    80201cd0:	e0d2                	sd	s4,64(sp)
    80201cd2:	fc56                	sd	s5,56(sp)
    80201cd4:	f85a                	sd	s6,48(sp)
    80201cd6:	f45e                	sd	s7,40(sp)
    80201cd8:	f062                	sd	s8,32(sp)
    80201cda:	ec66                	sd	s9,24(sp)
    80201cdc:	e86a                	sd	s10,16(sp)
    80201cde:	1880                	addi	s0,sp,112
    80201ce0:	892e                	mv	s2,a1
    80201ce2:	8b32                	mv	s6,a2
    80201ce4:	8ab6                	mv	s5,a3
    80201ce6:	49f9                	li	s3,30
    return page - pages;
    80201ce8:	001c0d17          	auipc	s10,0x1c0
    80201cec:	790d0d13          	addi	s10,s10,1936 # 803c2478 <pages>
    80201cf0:	0000bc97          	auipc	s9,0xb
    80201cf4:	5e8c8c93          	addi	s9,s9,1512 # 8020d2d8 <__func__.0+0x8>
    return PHYSICAL_ADDRESS_BASE + (page2PPN(page) << PAGE_SHIFT);
    80201cf8:	4b85                	li	s7,1
    80201cfa:	0bfe                	slli	s7,s7,0x1f
        addr = (u64*)PTE2PA(*addr);
    80201cfc:	fff00a37          	lui	s4,0xfff00
    80201d00:	008a5a13          	srli	s4,s4,0x8
    for (level = 2; level > 0; level--) {
    80201d04:	4c31                	li	s8,12
    80201d06:	a821                	j	80201d1e <pageWalk+0x5a>
                *pte = NULL;
    80201d08:	000ab023          	sd	zero,0(s5) # 1000 <_start-0x801ff000>
                return 0;
    80201d0c:	4501                	li	a0,0
    80201d0e:	a895                	j	80201d82 <pageWalk+0xbe>
        addr = (u64*)PTE2PA(*addr);
    80201d10:	6088                	ld	a0,0(s1)
    80201d12:	050a                	slli	a0,a0,0x2
    80201d14:	01457533          	and	a0,a0,s4
    for (level = 2; level > 0; level--) {
    80201d18:	39dd                	addiw	s3,s3,-9
    80201d1a:	05898b63          	beq	s3,s8,80201d70 <pageWalk+0xac>
        addr += GET_PAGE_TABLE_INDEX(va, level);
    80201d1e:	013957b3          	srl	a5,s2,s3
    80201d22:	1ff7f793          	andi	a5,a5,511
    80201d26:	078e                	slli	a5,a5,0x3
    80201d28:	00f504b3          	add	s1,a0,a5
        if (!(*addr) & PTE_VALID) {
    80201d2c:	609c                	ld	a5,0(s1)
    80201d2e:	f3ed                	bnez	a5,80201d10 <pageWalk+0x4c>
            if (!create) {
    80201d30:	fc0b0ce3          	beqz	s6,80201d08 <pageWalk+0x44>
            int ret = pageAlloc(&pp);
    80201d34:	f9840513          	addi	a0,s0,-104
    80201d38:	00000097          	auipc	ra,0x0
    80201d3c:	ed6080e7          	jalr	-298(ra) # 80201c0e <pageAlloc>
            if (ret < 0) {
    80201d40:	04054163          	bltz	a0,80201d82 <pageWalk+0xbe>
            (*addr) = page2pte(pp) | PTE_VALID;
    80201d44:	f9843703          	ld	a4,-104(s0)
    return page - pages;
    80201d48:	41a707b3          	sub	a5,a4,s10
    80201d4c:	878d                	srai	a5,a5,0x3
    80201d4e:	000cb683          	ld	a3,0(s9)
    80201d52:	02d787b3          	mul	a5,a5,a3
    return PHYSICAL_ADDRESS_BASE + (page2PPN(page) << PAGE_SHIFT);
    80201d56:	00c7979b          	slliw	a5,a5,0xc
    80201d5a:	1782                	slli	a5,a5,0x20
    80201d5c:	9381                	srli	a5,a5,0x20
    80201d5e:	97de                	add	a5,a5,s7
#define PTE2PERM(pte) (((u64)(pte)) & ~((1ull << 54) - (1ull << 10)))
#define PTE2PA(pte) (((((u64)(pte)) & ((1ull << 54) - (1ull << 10))) >> PERM_WIDTH) << PAGE_SHIFT)
#define PA2PTE(pa) ((((u64)(pa)) >> PAGE_SHIFT) << PERM_WIDTH)

inline u64 page2pte(PhysicalPage *page) {
    return (page2pa(page) >> PAGE_SHIFT) << PERM_WIDTH;
    80201d60:	8389                	srli	a5,a5,0x2
    80201d62:	0017e793          	ori	a5,a5,1
    80201d66:	e09c                	sd	a5,0(s1)
            pp->ref++;
    80201d68:	4b1c                	lw	a5,16(a4)
    80201d6a:	2785                	addiw	a5,a5,1
    80201d6c:	cb1c                	sw	a5,16(a4)
    80201d6e:	b74d                	j	80201d10 <pageWalk+0x4c>
    *pte = addr + GET_PAGE_TABLE_INDEX(va, 0);
    80201d70:	00c95913          	srli	s2,s2,0xc
    80201d74:	1ff97913          	andi	s2,s2,511
    80201d78:	090e                	slli	s2,s2,0x3
    80201d7a:	954a                	add	a0,a0,s2
    80201d7c:	00aab023          	sd	a0,0(s5)
    return 0;
    80201d80:	4501                	li	a0,0
}
    80201d82:	70a6                	ld	ra,104(sp)
    80201d84:	7406                	ld	s0,96(sp)
    80201d86:	64e6                	ld	s1,88(sp)
    80201d88:	6946                	ld	s2,80(sp)
    80201d8a:	69a6                	ld	s3,72(sp)
    80201d8c:	6a06                	ld	s4,64(sp)
    80201d8e:	7ae2                	ld	s5,56(sp)
    80201d90:	7b42                	ld	s6,48(sp)
    80201d92:	7ba2                	ld	s7,40(sp)
    80201d94:	7c02                	ld	s8,32(sp)
    80201d96:	6ce2                	ld	s9,24(sp)
    80201d98:	6d42                	ld	s10,16(sp)
    80201d9a:	6165                	addi	sp,sp,112
    80201d9c:	8082                	ret

0000000080201d9e <pageLookup>:
u64 pageLookup(u64 *pgdir, u64 va, u64 **pte) {
    80201d9e:	7179                	addi	sp,sp,-48
    80201da0:	f406                	sd	ra,40(sp)
    80201da2:	f022                	sd	s0,32(sp)
    80201da4:	ec26                	sd	s1,24(sp)
    80201da6:	1800                	addi	s0,sp,48
    80201da8:	84b2                	mv	s1,a2
    pageWalk(pgdir, va, false, &entry);
    80201daa:	fd840693          	addi	a3,s0,-40
    80201dae:	4601                	li	a2,0
    80201db0:	00000097          	auipc	ra,0x0
    80201db4:	f14080e7          	jalr	-236(ra) # 80201cc4 <pageWalk>
    if (entry == NULL || !(*entry & PTE_VALID)) {
    80201db8:	fd843783          	ld	a5,-40(s0)
    80201dbc:	c38d                	beqz	a5,80201dde <pageLookup+0x40>
    80201dbe:	6388                	ld	a0,0(a5)
    80201dc0:	8905                	andi	a0,a0,1
    80201dc2:	c909                	beqz	a0,80201dd4 <pageLookup+0x36>
    if (pte) {
    80201dc4:	c091                	beqz	s1,80201dc8 <pageLookup+0x2a>
        *pte = entry;
    80201dc6:	e09c                	sd	a5,0(s1)
    return PTE2PA(*entry);
    80201dc8:	6388                	ld	a0,0(a5)
    80201dca:	050a                	slli	a0,a0,0x2
    80201dcc:	fff007b7          	lui	a5,0xfff00
    80201dd0:	83a1                	srli	a5,a5,0x8
    80201dd2:	8d7d                	and	a0,a0,a5
}
    80201dd4:	70a2                	ld	ra,40(sp)
    80201dd6:	7402                	ld	s0,32(sp)
    80201dd8:	64e2                	ld	s1,24(sp)
    80201dda:	6145                	addi	sp,sp,48
    80201ddc:	8082                	ret
        return 0;
    80201dde:	4501                	li	a0,0
    80201de0:	bfd5                	j	80201dd4 <pageLookup+0x36>

0000000080201de2 <pageFree>:
    if (page->ref > 0) {
    80201de2:	491c                	lw	a5,16(a0)
    80201de4:	c391                	beqz	a5,80201de8 <pageFree+0x6>
    80201de6:	8082                	ret
void pageFree(PhysicalPage *page) {
    80201de8:	1101                	addi	sp,sp,-32
    80201dea:	ec06                	sd	ra,24(sp)
    80201dec:	e822                	sd	s0,16(sp)
    80201dee:	e426                	sd	s1,8(sp)
    80201df0:	1000                	addi	s0,sp,32
    80201df2:	84aa                	mv	s1,a0
        acquireLock(&pageListLock);
    80201df4:	00280517          	auipc	a0,0x280
    80201df8:	68c50513          	addi	a0,a0,1676 # 80482480 <pageListLock>
    80201dfc:	00004097          	auipc	ra,0x4
    80201e00:	cb2080e7          	jalr	-846(ra) # 80205aae <acquireLock>
        LIST_INSERT_HEAD(&freePages, page, link);
    80201e04:	00280797          	auipc	a5,0x280
    80201e08:	6747b783          	ld	a5,1652(a5) # 80482478 <freePages>
    80201e0c:	e09c                	sd	a5,0(s1)
    80201e0e:	c391                	beqz	a5,80201e12 <pageFree+0x30>
    80201e10:	e784                	sd	s1,8(a5)
    80201e12:	00280797          	auipc	a5,0x280
    80201e16:	66678793          	addi	a5,a5,1638 # 80482478 <freePages>
    80201e1a:	e384                	sd	s1,0(a5)
    80201e1c:	e49c                	sd	a5,8(s1)
        releaseLock(&pageListLock);
    80201e1e:	00280517          	auipc	a0,0x280
    80201e22:	66250513          	addi	a0,a0,1634 # 80482480 <pageListLock>
    80201e26:	00004097          	auipc	ra,0x4
    80201e2a:	d04080e7          	jalr	-764(ra) # 80205b2a <releaseLock>
}
    80201e2e:	60e2                	ld	ra,24(sp)
    80201e30:	6442                	ld	s0,16(sp)
    80201e32:	64a2                	ld	s1,8(sp)
    80201e34:	6105                	addi	sp,sp,32
    80201e36:	8082                	ret

0000000080201e38 <pageRemove>:
int pageRemove(u64 *pgdir, u64 va) {
    80201e38:	7179                	addi	sp,sp,-48
    80201e3a:	f406                	sd	ra,40(sp)
    80201e3c:	f022                	sd	s0,32(sp)
    80201e3e:	ec26                	sd	s1,24(sp)
    80201e40:	1800                	addi	s0,sp,48
    u64 pa = pageLookup(pgdir, va, &pte);
    80201e42:	fd840613          	addi	a2,s0,-40
    80201e46:	00000097          	auipc	ra,0x0
    80201e4a:	f58080e7          	jalr	-168(ra) # 80201d9e <pageLookup>
    if (!pte) {
    80201e4e:	fd843483          	ld	s1,-40(s0)
    80201e52:	c0b9                	beqz	s1,80201e98 <pageRemove+0x60>
    if (pa < PHYSICAL_ADDRESS_BASE || pa >= PHYSICAL_MEMORY_TOP) {
    80201e54:	800007b7          	lui	a5,0x80000
    80201e58:	953e                	add	a0,a0,a5
    80201e5a:	080007b7          	lui	a5,0x8000
    80201e5e:	02f57f63          	bgeu	a0,a5,80201e9c <pageRemove+0x64>
    return ppn2page((pa - PHYSICAL_ADDRESS_BASE) >> PAGE_SHIFT);
    80201e62:	8131                	srli	a0,a0,0xc
    return pages + ppn;
    80201e64:	00151793          	slli	a5,a0,0x1
    80201e68:	953e                	add	a0,a0,a5
    80201e6a:	050e                	slli	a0,a0,0x3
    80201e6c:	001c0797          	auipc	a5,0x1c0
    80201e70:	60c78793          	addi	a5,a5,1548 # 803c2478 <pages>
    80201e74:	953e                	add	a0,a0,a5
    page->ref--;
    80201e76:	491c                	lw	a5,16(a0)
    80201e78:	37fd                	addiw	a5,a5,-1
    80201e7a:	c91c                	sw	a5,16(a0)
    pageFree(page);
    80201e7c:	00000097          	auipc	ra,0x0
    80201e80:	f66080e7          	jalr	-154(ra) # 80201de2 <pageFree>
    *pte = 0;
    80201e84:	0004b023          	sd	zero,0(s1)
	asm volatile("sfence.vma");
    80201e88:	12000073          	sfence.vma
    return 0;
    80201e8c:	4501                	li	a0,0
}
    80201e8e:	70a2                	ld	ra,40(sp)
    80201e90:	7402                	ld	s0,32(sp)
    80201e92:	64e2                	ld	s1,24(sp)
    80201e94:	6145                	addi	sp,sp,48
    80201e96:	8082                	ret
        return -1;
    80201e98:	557d                	li	a0,-1
    80201e9a:	bfd5                	j	80201e8e <pageRemove+0x56>
        return -1;
    80201e9c:	557d                	li	a0,-1
    80201e9e:	bfc5                	j	80201e8e <pageRemove+0x56>

0000000080201ea0 <pgdirFree>:

void pgdirFree(u64* pgdir) {
    80201ea0:	7119                	addi	sp,sp,-128
    80201ea2:	fc86                	sd	ra,120(sp)
    80201ea4:	f8a2                	sd	s0,112(sp)
    80201ea6:	f4a6                	sd	s1,104(sp)
    80201ea8:	f0ca                	sd	s2,96(sp)
    80201eaa:	ecce                	sd	s3,88(sp)
    80201eac:	e8d2                	sd	s4,80(sp)
    80201eae:	e4d6                	sd	s5,72(sp)
    80201eb0:	e0da                	sd	s6,64(sp)
    80201eb2:	fc5e                	sd	s7,56(sp)
    80201eb4:	f862                	sd	s8,48(sp)
    80201eb6:	f466                	sd	s9,40(sp)
    80201eb8:	f06a                	sd	s10,32(sp)
    80201eba:	ec6e                	sd	s11,24(sp)
    80201ebc:	0100                	addi	s0,sp,128
    80201ebe:	8b2a                	mv	s6,a0
   // printf("jaoeifherigh   %lx\n", (u64)pgdir);
    u64 i, j, k;
    u64* pageTable;
    for (i = 0; i < PTE2PT; i++) {
    80201ec0:	6785                	lui	a5,0x1
    80201ec2:	97aa                	add	a5,a5,a0
    80201ec4:	f8f43023          	sd	a5,-128(s0)
void pgdirFree(u64* pgdir) {
    80201ec8:	f8a43423          	sd	a0,-120(s0)
    80201ecc:	4d81                	li	s11,0
        if (!(pgdir[i] & PTE_VALID))
            continue;
        pageTable = pgdir + i;
        u64* pa = (u64*) PTE2PA(*pageTable);
    80201ece:	fff00d37          	lui	s10,0xfff00
    80201ed2:	008d5d13          	srli	s10,s10,0x8
        for (j = 0; j < PTE2PT; j++) {
            if (!(pa[j] & PTE_VALID)) 
                continue;
            pageTable = (u64*) pa + j;
            u64* pa2 = (u64*) PTE2PA(*pageTable);
            for (k = 0; k < PTE2PT; k++) {
    80201ed6:	6985                	lui	s3,0x1
    80201ed8:	00200a37          	lui	s4,0x200
    80201edc:	a041                	j	80201f5c <pgdirFree+0xbc>
    80201ede:	0921                	addi	s2,s2,8
    80201ee0:	94ce                	add	s1,s1,s3
    80201ee2:	01448e63          	beq	s1,s4,80201efe <pgdirFree+0x5e>
                if (!(pa2[k] & PTE_VALID)) 
    80201ee6:	00093783          	ld	a5,0(s2)
    80201eea:	8b85                	andi	a5,a5,1
    80201eec:	dbed                	beqz	a5,80201ede <pgdirFree+0x3e>
                    continue;
                u64 addr = (i << 30) | (j << 21) | (k << 12);
                pageRemove(pgdir, addr);
    80201eee:	009ae5b3          	or	a1,s5,s1
    80201ef2:	855a                	mv	a0,s6
    80201ef4:	00000097          	auipc	ra,0x0
    80201ef8:	f44080e7          	jalr	-188(ra) # 80201e38 <pageRemove>
    80201efc:	b7cd                	j	80201ede <pgdirFree+0x3e>
            }
            pa2[j] = 0;
    80201efe:	018b87b3          	add	a5,s7,s8
    80201f02:	0007b023          	sd	zero,0(a5) # 1000 <_start-0x801ff000>
            paDecreaseRef((u64) pa2);
    80201f06:	855e                	mv	a0,s7
    80201f08:	00000097          	auipc	ra,0x0
    80201f0c:	bd8080e7          	jalr	-1064(ra) # 80201ae0 <paDecreaseRef>
        for (j = 0; j < PTE2PT; j++) {
    80201f10:	0c21                	addi	s8,s8,8
    80201f12:	033c0263          	beq	s8,s3,80201f36 <pgdirFree+0x96>
            if (!(pa[j] & PTE_VALID)) 
    80201f16:	018c87b3          	add	a5,s9,s8
    80201f1a:	639c                	ld	a5,0(a5)
    80201f1c:	0017f713          	andi	a4,a5,1
    80201f20:	db65                	beqz	a4,80201f10 <pgdirFree+0x70>
            u64* pa2 = (u64*) PTE2PA(*pageTable);
    80201f22:	078a                	slli	a5,a5,0x2
    80201f24:	01a7fbb3          	and	s7,a5,s10
                u64 addr = (i << 30) | (j << 21) | (k << 12);
    80201f28:	012c1a93          	slli	s5,s8,0x12
    80201f2c:	01baeab3          	or	s5,s5,s11
    80201f30:	895e                	mv	s2,s7
    80201f32:	4481                	li	s1,0
    80201f34:	bf4d                	j	80201ee6 <pgdirFree+0x46>
        }
        paDecreaseRef((u64) pa);
    80201f36:	8566                	mv	a0,s9
    80201f38:	00000097          	auipc	ra,0x0
    80201f3c:	ba8080e7          	jalr	-1112(ra) # 80201ae0 <paDecreaseRef>
    for (i = 0; i < PTE2PT; i++) {
    80201f40:	f8843783          	ld	a5,-120(s0)
    80201f44:	07a1                	addi	a5,a5,8
    80201f46:	873e                	mv	a4,a5
    80201f48:	f8f43423          	sd	a5,-120(s0)
    80201f4c:	400007b7          	lui	a5,0x40000
    80201f50:	9dbe                	add	s11,s11,a5
    80201f52:	87ba                	mv	a5,a4
    80201f54:	f8043703          	ld	a4,-128(s0)
    80201f58:	00e78d63          	beq	a5,a4,80201f72 <pgdirFree+0xd2>
        if (!(pgdir[i] & PTE_VALID))
    80201f5c:	f8843783          	ld	a5,-120(s0)
    80201f60:	639c                	ld	a5,0(a5)
    80201f62:	0017f713          	andi	a4,a5,1
    80201f66:	df69                	beqz	a4,80201f40 <pgdirFree+0xa0>
        u64* pa = (u64*) PTE2PA(*pageTable);
    80201f68:	078a                	slli	a5,a5,0x2
    80201f6a:	01a7fcb3          	and	s9,a5,s10
    80201f6e:	4c01                	li	s8,0
    80201f70:	b75d                	j	80201f16 <pgdirFree+0x76>
    }
    paDecreaseRef((u64) pgdir);
    80201f72:	855a                	mv	a0,s6
    80201f74:	00000097          	auipc	ra,0x0
    80201f78:	b6c080e7          	jalr	-1172(ra) # 80201ae0 <paDecreaseRef>
}
    80201f7c:	70e6                	ld	ra,120(sp)
    80201f7e:	7446                	ld	s0,112(sp)
    80201f80:	74a6                	ld	s1,104(sp)
    80201f82:	7906                	ld	s2,96(sp)
    80201f84:	69e6                	ld	s3,88(sp)
    80201f86:	6a46                	ld	s4,80(sp)
    80201f88:	6aa6                	ld	s5,72(sp)
    80201f8a:	6b06                	ld	s6,64(sp)
    80201f8c:	7be2                	ld	s7,56(sp)
    80201f8e:	7c42                	ld	s8,48(sp)
    80201f90:	7ca2                	ld	s9,40(sp)
    80201f92:	7d02                	ld	s10,32(sp)
    80201f94:	6de2                	ld	s11,24(sp)
    80201f96:	6109                	addi	sp,sp,128
    80201f98:	8082                	ret

0000000080201f9a <pageInsert>:

int pageInsert(u64 *pgdir, u64 va, u64 pa, u64 perm) {
    80201f9a:	7139                	addi	sp,sp,-64
    80201f9c:	fc06                	sd	ra,56(sp)
    80201f9e:	f822                	sd	s0,48(sp)
    80201fa0:	f426                	sd	s1,40(sp)
    80201fa2:	f04a                	sd	s2,32(sp)
    80201fa4:	ec4e                	sd	s3,24(sp)
    80201fa6:	e852                	sd	s4,16(sp)
    80201fa8:	0080                	addi	s0,sp,64
    80201faa:	89aa                	mv	s3,a0
    80201fac:	84b2                	mv	s1,a2
    80201fae:	8a36                	mv	s4,a3
    u64 *pte;
    va = DOWN_ALIGN(va, PAGE_SIZE);
    80201fb0:	77fd                	lui	a5,0xfffff
    80201fb2:	00f5f933          	and	s2,a1,a5
    pa = DOWN_ALIGN(pa, PAGE_SIZE);
    perm |= PTE_ACCESSED | PTE_DIRTY;
    int ret = pageWalk(pgdir, va, false, &pte);
    80201fb6:	fc840693          	addi	a3,s0,-56
    80201fba:	4601                	li	a2,0
    80201fbc:	85ca                	mv	a1,s2
    80201fbe:	00000097          	auipc	ra,0x0
    80201fc2:	d06080e7          	jalr	-762(ra) # 80201cc4 <pageWalk>
    if (ret < 0) {
    80201fc6:	06054663          	bltz	a0,80202032 <pageInsert+0x98>
        return ret;
    }
    if (pte != NULL && (*pte & PTE_VALID)) {
    80201fca:	fc843783          	ld	a5,-56(s0)
    80201fce:	c781                	beqz	a5,80201fd6 <pageInsert+0x3c>
    80201fd0:	639c                	ld	a5,0(a5)
    80201fd2:	8b85                	andi	a5,a5,1
    80201fd4:	e7bd                	bnez	a5,80202042 <pageInsert+0xa8>
        pageRemove(pgdir, va);
    }
    ret = pageWalk(pgdir, va, true, &pte);
    80201fd6:	fc840693          	addi	a3,s0,-56
    80201fda:	4605                	li	a2,1
    80201fdc:	85ca                	mv	a1,s2
    80201fde:	854e                	mv	a0,s3
    80201fe0:	00000097          	auipc	ra,0x0
    80201fe4:	ce4080e7          	jalr	-796(ra) # 80201cc4 <pageWalk>
    if (ret < 0) {
    80201fe8:	04054563          	bltz	a0,80202032 <pageInsert+0x98>
    pa = DOWN_ALIGN(pa, PAGE_SIZE);
    80201fec:	77fd                	lui	a5,0xfffff
    80201fee:	00f4f633          	and	a2,s1,a5
        return ret;
    }
    *pte = PA2PTE(pa) | perm | PTE_VALID;
    80201ff2:	00265793          	srli	a5,a2,0x2
    80201ff6:	0147e7b3          	or	a5,a5,s4
    80201ffa:	0c17e793          	ori	a5,a5,193
    80201ffe:	fc843703          	ld	a4,-56(s0)
    80202002:	e31c                	sd	a5,0(a4)
    if (pa >= PHYSICAL_ADDRESS_BASE && pa < PHYSICAL_MEMORY_TOP)
    80202004:	800007b7          	lui	a5,0x80000
    80202008:	963e                	add	a2,a2,a5
    8020200a:	080007b7          	lui	a5,0x8000
    8020200e:	00f67f63          	bgeu	a2,a5,8020202c <pageInsert+0x92>
    return ppn2page((pa - PHYSICAL_ADDRESS_BASE) >> PAGE_SHIFT);
    80202012:	00c65793          	srli	a5,a2,0xc
    return pages + ppn;
    80202016:	822d                	srli	a2,a2,0xb
    80202018:	963e                	add	a2,a2,a5
    8020201a:	060e                	slli	a2,a2,0x3
    8020201c:	001c0797          	auipc	a5,0x1c0
    80202020:	45c78793          	addi	a5,a5,1116 # 803c2478 <pages>
    80202024:	963e                	add	a2,a2,a5
        pa2page(pa)->ref++;
    80202026:	4a1c                	lw	a5,16(a2)
    80202028:	2785                	addiw	a5,a5,1
    8020202a:	ca1c                	sw	a5,16(a2)
    8020202c:	12000073          	sfence.vma
    sfence_vma();
    return 0;
    80202030:	4501                	li	a0,0
}
    80202032:	70e2                	ld	ra,56(sp)
    80202034:	7442                	ld	s0,48(sp)
    80202036:	74a2                	ld	s1,40(sp)
    80202038:	7902                	ld	s2,32(sp)
    8020203a:	69e2                	ld	s3,24(sp)
    8020203c:	6a42                	ld	s4,16(sp)
    8020203e:	6121                	addi	sp,sp,64
    80202040:	8082                	ret
        pageRemove(pgdir, va);
    80202042:	85ca                	mv	a1,s2
    80202044:	854e                	mv	a0,s3
    80202046:	00000097          	auipc	ra,0x0
    8020204a:	df2080e7          	jalr	-526(ra) # 80201e38 <pageRemove>
    8020204e:	b761                	j	80201fd6 <pageInsert+0x3c>

0000000080202050 <allocPgdir>:

int allocPgdir(PhysicalPage **page) {
    80202050:	1101                	addi	sp,sp,-32
    80202052:	ec06                	sd	ra,24(sp)
    80202054:	e822                	sd	s0,16(sp)
    80202056:	e426                	sd	s1,8(sp)
    80202058:	1000                	addi	s0,sp,32
    8020205a:	84aa                	mv	s1,a0
    int r;
    if ((r = pageAlloc(page)) < 0) {
    8020205c:	00000097          	auipc	ra,0x0
    80202060:	bb2080e7          	jalr	-1102(ra) # 80201c0e <pageAlloc>
    80202064:	00054763          	bltz	a0,80202072 <allocPgdir+0x22>
        return r;
    }
    (*page)->ref++;
    80202068:	6098                	ld	a4,0(s1)
    8020206a:	4b1c                	lw	a5,16(a4)
    8020206c:	2785                	addiw	a5,a5,1
    8020206e:	cb1c                	sw	a5,16(a4)
    return 0;
    80202070:	4501                	li	a0,0
}
    80202072:	60e2                	ld	ra,24(sp)
    80202074:	6442                	ld	s0,16(sp)
    80202076:	64a2                	ld	s1,8(sp)
    80202078:	6105                	addi	sp,sp,32
    8020207a:	8082                	ret

000000008020207c <pageout>:

void pageout(u64 *pgdir, u64 badAddr) {
    8020207c:	7179                	addi	sp,sp,-48
    8020207e:	f406                	sd	ra,40(sp)
    80202080:	f022                	sd	s0,32(sp)
    80202082:	ec26                	sd	s1,24(sp)
    80202084:	e84a                	sd	s2,16(sp)
    80202086:	1800                	addi	s0,sp,48
    if (badAddr <= PAGE_SIZE) {
    80202088:	6785                	lui	a5,0x1
    8020208a:	06b7f863          	bgeu	a5,a1,802020fa <pageout+0x7e>
    8020208e:	892a                	mv	s2,a0
    80202090:	84ae                	mv	s1,a1
        panic("^^^^^^^^^^TOO LOW^^^^^^^^^^^\n");
    }
    printf("[Page out]pageout at %lx\n", badAddr);
    80202092:	0000a517          	auipc	a0,0xa
    80202096:	4be50513          	addi	a0,a0,1214 # 8020c550 <textEnd+0x550>
    8020209a:	fffff097          	auipc	ra,0xfffff
    8020209e:	a26080e7          	jalr	-1498(ra) # 80200ac0 <printf>
    PhysicalPage *page;
    if (pageAlloc(&page) < 0) {
    802020a2:	fd840513          	addi	a0,s0,-40
    802020a6:	00000097          	auipc	ra,0x0
    802020aa:	b68080e7          	jalr	-1176(ra) # 80201c0e <pageAlloc>
    802020ae:	06054863          	bltz	a0,8020211e <pageout+0xa2>
    return page - pages;
    802020b2:	fd843783          	ld	a5,-40(s0)
    802020b6:	001c0717          	auipc	a4,0x1c0
    802020ba:	3c270713          	addi	a4,a4,962 # 803c2478 <pages>
    802020be:	8f99                	sub	a5,a5,a4
    802020c0:	878d                	srai	a5,a5,0x3
    802020c2:	0000b717          	auipc	a4,0xb
    802020c6:	21673703          	ld	a4,534(a4) # 8020d2d8 <__func__.0+0x8>
    802020ca:	02e787b3          	mul	a5,a5,a4
    return PHYSICAL_ADDRESS_BASE + (page2PPN(page) << PAGE_SHIFT);
    802020ce:	00c7979b          	slliw	a5,a5,0xc
    802020d2:	1782                	slli	a5,a5,0x20
    802020d4:	9381                	srli	a5,a5,0x20
        panic("");
    }
    if (pageInsert(pgdir, badAddr, page2pa(page), 
    802020d6:	46d9                	li	a3,22
    802020d8:	4605                	li	a2,1
    802020da:	067e                	slli	a2,a2,0x1f
    802020dc:	963e                	add	a2,a2,a5
    802020de:	85a6                	mv	a1,s1
    802020e0:	854a                	mv	a0,s2
    802020e2:	00000097          	auipc	ra,0x0
    802020e6:	eb8080e7          	jalr	-328(ra) # 80201f9a <pageInsert>
    802020ea:	04054c63          	bltz	a0,80202142 <pageout+0xc6>
        PTE_USER | PTE_READ | PTE_WRITE) < 0) {
        panic("");
    }
}
    802020ee:	70a2                	ld	ra,40(sp)
    802020f0:	7402                	ld	s0,32(sp)
    802020f2:	64e2                	ld	s1,24(sp)
    802020f4:	6942                	ld	s2,16(sp)
    802020f6:	6145                	addi	sp,sp,48
    802020f8:	8082                	ret
        panic("^^^^^^^^^^TOO LOW^^^^^^^^^^^\n");
    802020fa:	0000a697          	auipc	a3,0xa
    802020fe:	43668693          	addi	a3,a3,1078 # 8020c530 <textEnd+0x530>
    80202102:	0000b617          	auipc	a2,0xb
    80202106:	14660613          	addi	a2,a2,326 # 8020d248 <__func__.2>
    8020210a:	0ba00593          	li	a1,186
    8020210e:	0000a517          	auipc	a0,0xa
    80202112:	3da50513          	addi	a0,a0,986 # 8020c4e8 <textEnd+0x4e8>
    80202116:	fffff097          	auipc	ra,0xfffff
    8020211a:	a36080e7          	jalr	-1482(ra) # 80200b4c <_panic_>
        panic("");
    8020211e:	0000a697          	auipc	a3,0xa
    80202122:	5b268693          	addi	a3,a3,1458 # 8020c6d0 <__func__.1+0x100>
    80202126:	0000b617          	auipc	a2,0xb
    8020212a:	12260613          	addi	a2,a2,290 # 8020d248 <__func__.2>
    8020212e:	0bf00593          	li	a1,191
    80202132:	0000a517          	auipc	a0,0xa
    80202136:	3b650513          	addi	a0,a0,950 # 8020c4e8 <textEnd+0x4e8>
    8020213a:	fffff097          	auipc	ra,0xfffff
    8020213e:	a12080e7          	jalr	-1518(ra) # 80200b4c <_panic_>
        panic("");
    80202142:	0000a697          	auipc	a3,0xa
    80202146:	58e68693          	addi	a3,a3,1422 # 8020c6d0 <__func__.1+0x100>
    8020214a:	0000b617          	auipc	a2,0xb
    8020214e:	0fe60613          	addi	a2,a2,254 # 8020d248 <__func__.2>
    80202152:	0c300593          	li	a1,195
    80202156:	0000a517          	auipc	a0,0xa
    8020215a:	39250513          	addi	a0,a0,914 # 8020c4e8 <textEnd+0x4e8>
    8020215e:	fffff097          	auipc	ra,0xfffff
    80202162:	9ee080e7          	jalr	-1554(ra) # 80200b4c <_panic_>

0000000080202166 <cowHandler>:

u8 cowBuffer[PAGE_SIZE];
void cowHandler(u64 *pgdir, u64 badAddr) {
    80202166:	7139                	addi	sp,sp,-64
    80202168:	fc06                	sd	ra,56(sp)
    8020216a:	f822                	sd	s0,48(sp)
    8020216c:	f426                	sd	s1,40(sp)
    8020216e:	f04a                	sd	s2,32(sp)
    80202170:	ec4e                	sd	s3,24(sp)
    80202172:	e852                	sd	s4,16(sp)
    80202174:	0080                	addi	s0,sp,64
    80202176:	892a                	mv	s2,a0
    80202178:	89ae                	mv	s3,a1
    u64 pa;
    u64 *pte;
    pa = pageLookup(pgdir, badAddr, &pte);
    8020217a:	fc840613          	addi	a2,s0,-56
    8020217e:	00000097          	auipc	ra,0x0
    80202182:	c20080e7          	jalr	-992(ra) # 80201d9e <pageLookup>
    // printf("[COW] %x to cow %lx %lx\n", myproc()->id, badAddr, pa);
    if (!(*pte & PTE_COW)) {
    80202186:	fc843783          	ld	a5,-56(s0)
    8020218a:	639c                	ld	a5,0(a5)
    8020218c:	1007f793          	andi	a5,a5,256
    80202190:	c3e1                	beqz	a5,80202250 <cowHandler+0xea>
        printf("access denied");
        return;
    }
    PhysicalPage *page;
    int r = pageAlloc(&page);
    80202192:	fc040513          	addi	a0,s0,-64
    80202196:	00000097          	auipc	ra,0x0
    8020219a:	a78080e7          	jalr	-1416(ra) # 80201c0e <pageAlloc>
    if (r < 0) {
    8020219e:	0c054263          	bltz	a0,80202262 <cowHandler+0xfc>
        panic("cow handler error");
        return;
    }
    acquireLock(&cowBufferLock);
    802021a2:	00280a17          	auipc	s4,0x280
    802021a6:	2f6a0a13          	addi	s4,s4,758 # 80482498 <cowBufferLock>
    802021aa:	8552                	mv	a0,s4
    802021ac:	00004097          	auipc	ra,0x4
    802021b0:	902080e7          	jalr	-1790(ra) # 80205aae <acquireLock>
    pa = pageLookup(pgdir, badAddr, &pte);
    802021b4:	fc840613          	addi	a2,s0,-56
    802021b8:	85ce                	mv	a1,s3
    802021ba:	854a                	mv	a0,s2
    802021bc:	00000097          	auipc	ra,0x0
    802021c0:	be2080e7          	jalr	-1054(ra) # 80201d9e <pageLookup>
    bcopy((void *)pa, (void*)cowBuffer, PAGE_SIZE);
    802021c4:	6605                	lui	a2,0x1
    802021c6:	00280597          	auipc	a1,0x280
    802021ca:	2ea58593          	addi	a1,a1,746 # 804824b0 <cowBuffer>
    802021ce:	00000097          	auipc	ra,0x0
    802021d2:	880080e7          	jalr	-1920(ra) # 80201a4e <bcopy>
    return page - pages;
    802021d6:	fc043483          	ld	s1,-64(s0)
    802021da:	001c0797          	auipc	a5,0x1c0
    802021de:	29e78793          	addi	a5,a5,670 # 803c2478 <pages>
    802021e2:	8c9d                	sub	s1,s1,a5
    802021e4:	848d                	srai	s1,s1,0x3
    802021e6:	0000b797          	auipc	a5,0xb
    802021ea:	0f27b783          	ld	a5,242(a5) # 8020d2d8 <__func__.0+0x8>
    802021ee:	02f484b3          	mul	s1,s1,a5
    return PHYSICAL_ADDRESS_BASE + (page2PPN(page) << PAGE_SHIFT);
    802021f2:	00c4949b          	slliw	s1,s1,0xc
    802021f6:	1482                	slli	s1,s1,0x20
    802021f8:	9081                	srli	s1,s1,0x20
    802021fa:	4785                	li	a5,1
    802021fc:	07fe                	slli	a5,a5,0x1f
    802021fe:	94be                	add	s1,s1,a5
    pageInsert(pgdir, badAddr, page2pa(page), (PTE2PERM(*pte) | PTE_WRITE) & ~PTE_COW);
    80202200:	fc843783          	ld	a5,-56(s0)
    80202204:	6394                	ld	a3,0(a5)
    80202206:	57fd                	li	a5,-1
    80202208:	17da                	slli	a5,a5,0x36
    8020220a:	2fb78793          	addi	a5,a5,763
    8020220e:	8efd                	and	a3,a3,a5
    80202210:	0046e693          	ori	a3,a3,4
    80202214:	8626                	mv	a2,s1
    80202216:	85ce                	mv	a1,s3
    80202218:	854a                	mv	a0,s2
    8020221a:	00000097          	auipc	ra,0x0
    8020221e:	d80080e7          	jalr	-640(ra) # 80201f9a <pageInsert>
    bcopy((void*) cowBuffer, (void*) page2pa(page), PAGE_SIZE);
    80202222:	6605                	lui	a2,0x1
    80202224:	85a6                	mv	a1,s1
    80202226:	00280517          	auipc	a0,0x280
    8020222a:	28a50513          	addi	a0,a0,650 # 804824b0 <cowBuffer>
    8020222e:	00000097          	auipc	ra,0x0
    80202232:	820080e7          	jalr	-2016(ra) # 80201a4e <bcopy>
    releaseLock(&cowBufferLock);
    80202236:	8552                	mv	a0,s4
    80202238:	00004097          	auipc	ra,0x4
    8020223c:	8f2080e7          	jalr	-1806(ra) # 80205b2a <releaseLock>
}
    80202240:	70e2                	ld	ra,56(sp)
    80202242:	7442                	ld	s0,48(sp)
    80202244:	74a2                	ld	s1,40(sp)
    80202246:	7902                	ld	s2,32(sp)
    80202248:	69e2                	ld	s3,24(sp)
    8020224a:	6a42                	ld	s4,16(sp)
    8020224c:	6121                	addi	sp,sp,64
    8020224e:	8082                	ret
        printf("access denied");
    80202250:	0000a517          	auipc	a0,0xa
    80202254:	32050513          	addi	a0,a0,800 # 8020c570 <textEnd+0x570>
    80202258:	fffff097          	auipc	ra,0xfffff
    8020225c:	868080e7          	jalr	-1944(ra) # 80200ac0 <printf>
        return;
    80202260:	b7c5                	j	80202240 <cowHandler+0xda>
        panic("cow handler error");
    80202262:	0000a697          	auipc	a3,0xa
    80202266:	31e68693          	addi	a3,a3,798 # 8020c580 <textEnd+0x580>
    8020226a:	0000a617          	auipc	a2,0xa
    8020226e:	36660613          	addi	a2,a2,870 # 8020c5d0 <__func__.1>
    80202272:	0d400593          	li	a1,212
    80202276:	0000a517          	auipc	a0,0xa
    8020227a:	27250513          	addi	a0,a0,626 # 8020c4e8 <textEnd+0x4e8>
    8020227e:	fffff097          	auipc	ra,0xfffff
    80202282:	8ce080e7          	jalr	-1842(ra) # 80200b4c <_panic_>

0000000080202286 <vir2phy>:
// Can only be used to look up user pages.
u64 vir2phy(u64* pagetable, u64 va, int* cow) {
    u64* pte;
    u64 pa;

    if (va >= MAXVA)
    80202286:	57fd                	li	a5,-1
    80202288:	83e9                	srli	a5,a5,0x1a
    8020228a:	00b7f463          	bgeu	a5,a1,80202292 <vir2phy+0xc>
        return NULL;
    8020228e:	4501                	li	a0,0
        return NULL;
    if (cow)
        *cow = (*pte & PTE_COW) > 0;
    pa = PTE2PA(*pte) + (va&0xfff);
    return pa;
}
    80202290:	8082                	ret
u64 vir2phy(u64* pagetable, u64 va, int* cow) {
    80202292:	7179                	addi	sp,sp,-48
    80202294:	f406                	sd	ra,40(sp)
    80202296:	f022                	sd	s0,32(sp)
    80202298:	ec26                	sd	s1,24(sp)
    8020229a:	e84a                	sd	s2,16(sp)
    8020229c:	1800                	addi	s0,sp,48
    8020229e:	84ae                	mv	s1,a1
    802022a0:	8932                	mv	s2,a2
    int ret = pageWalk(pagetable, va, 0, &pte);
    802022a2:	fd840693          	addi	a3,s0,-40
    802022a6:	4601                	li	a2,0
    802022a8:	00000097          	auipc	ra,0x0
    802022ac:	a1c080e7          	jalr	-1508(ra) # 80201cc4 <pageWalk>
    if (ret < 0) {
    802022b0:	02054263          	bltz	a0,802022d4 <vir2phy+0x4e>
    if (pte == 0)
    802022b4:	fd843783          	ld	a5,-40(s0)
    802022b8:	c3a5                	beqz	a5,80202318 <vir2phy+0x92>
    if ((*pte & PTE_VALID) == 0)
    802022ba:	6398                	ld	a4,0(a5)
    if ((*pte & PTE_USER) == 0)
    802022bc:	01177613          	andi	a2,a4,17
    802022c0:	46c5                	li	a3,17
        return NULL;
    802022c2:	4501                	li	a0,0
    if ((*pte & PTE_USER) == 0)
    802022c4:	02d60a63          	beq	a2,a3,802022f8 <vir2phy+0x72>
}
    802022c8:	70a2                	ld	ra,40(sp)
    802022ca:	7402                	ld	s0,32(sp)
    802022cc:	64e2                	ld	s1,24(sp)
    802022ce:	6942                	ld	s2,16(sp)
    802022d0:	6145                	addi	sp,sp,48
    802022d2:	8082                	ret
        panic("pageWalk error in vir2phy function!");
    802022d4:	0000a697          	auipc	a3,0xa
    802022d8:	2c468693          	addi	a3,a3,708 # 8020c598 <textEnd+0x598>
    802022dc:	0000b617          	auipc	a2,0xb
    802022e0:	f6460613          	addi	a2,a2,-156 # 8020d240 <__func__.0>
    802022e4:	0eb00593          	li	a1,235
    802022e8:	0000a517          	auipc	a0,0xa
    802022ec:	20050513          	addi	a0,a0,512 # 8020c4e8 <textEnd+0x4e8>
    802022f0:	fffff097          	auipc	ra,0xfffff
    802022f4:	85c080e7          	jalr	-1956(ra) # 80200b4c <_panic_>
    if (cow)
    802022f8:	00090663          	beqz	s2,80202304 <vir2phy+0x7e>
        *cow = (*pte & PTE_COW) > 0;
    802022fc:	8321                	srli	a4,a4,0x8
    802022fe:	8b05                	andi	a4,a4,1
    80202300:	00e92023          	sw	a4,0(s2)
    pa = PTE2PA(*pte) + (va&0xfff);
    80202304:	6388                	ld	a0,0(a5)
    80202306:	050a                	slli	a0,a0,0x2
    80202308:	fff007b7          	lui	a5,0xfff00
    8020230c:	83a1                	srli	a5,a5,0x8
    8020230e:	8d7d                	and	a0,a0,a5
    80202310:	14d2                	slli	s1,s1,0x34
    80202312:	90d1                	srli	s1,s1,0x34
    80202314:	8d45                	or	a0,a0,s1
    return pa;
    80202316:	bf4d                	j	802022c8 <vir2phy+0x42>
        return NULL;
    80202318:	4501                	li	a0,0
    8020231a:	b77d                	j	802022c8 <vir2phy+0x42>

000000008020231c <copyin>:
// Return 0 on success, -1 on error.
int copyin(u64* pagetable, char* dst, u64 srcva, u64 len) {
    u64 n, va0, pa0;
    int cow;

    while (len > 0) {
    8020231c:	cab5                	beqz	a3,80202390 <copyin+0x74>
int copyin(u64* pagetable, char* dst, u64 srcva, u64 len) {
    8020231e:	711d                	addi	sp,sp,-96
    80202320:	ec86                	sd	ra,88(sp)
    80202322:	e8a2                	sd	s0,80(sp)
    80202324:	e4a6                	sd	s1,72(sp)
    80202326:	e0ca                	sd	s2,64(sp)
    80202328:	fc4e                	sd	s3,56(sp)
    8020232a:	f852                	sd	s4,48(sp)
    8020232c:	f456                	sd	s5,40(sp)
    8020232e:	f05a                	sd	s6,32(sp)
    80202330:	ec5e                	sd	s7,24(sp)
    80202332:	e862                	sd	s8,16(sp)
    80202334:	1080                	addi	s0,sp,96
    80202336:	8b2a                	mv	s6,a0
    80202338:	8a2e                	mv	s4,a1
    8020233a:	8c32                	mv	s8,a2
    8020233c:	89b6                	mv	s3,a3
        va0 = DOWN_ALIGN(srcva, PGSIZE);
    8020233e:	7bfd                	lui	s7,0xfffff
        pa0 = vir2phy(pagetable, va0, &cow);
        if (pa0 == NULL)
            return -1;
        n = PGSIZE - (srcva - va0);
    80202340:	6a85                	lui	s5,0x1
    80202342:	a01d                	j	80202368 <copyin+0x4c>
        if (n > len)
            n = len;
        memmove(dst, (void*)(pa0 + (srcva - va0)), n);
    80202344:	018505b3          	add	a1,a0,s8
    80202348:	0004861b          	sext.w	a2,s1
    8020234c:	412585b3          	sub	a1,a1,s2
    80202350:	8552                	mv	a0,s4
    80202352:	00004097          	auipc	ra,0x4
    80202356:	a6e080e7          	jalr	-1426(ra) # 80205dc0 <memmove>

        len -= n;
    8020235a:	409989b3          	sub	s3,s3,s1
        dst += n;
    8020235e:	9a26                	add	s4,s4,s1
        srcva = va0 + PGSIZE;
    80202360:	01590c33          	add	s8,s2,s5
    while (len > 0) {
    80202364:	02098463          	beqz	s3,8020238c <copyin+0x70>
        va0 = DOWN_ALIGN(srcva, PGSIZE);
    80202368:	017c7933          	and	s2,s8,s7
        pa0 = vir2phy(pagetable, va0, &cow);
    8020236c:	fac40613          	addi	a2,s0,-84
    80202370:	85ca                	mv	a1,s2
    80202372:	855a                	mv	a0,s6
    80202374:	00000097          	auipc	ra,0x0
    80202378:	f12080e7          	jalr	-238(ra) # 80202286 <vir2phy>
        if (pa0 == NULL)
    8020237c:	cd01                	beqz	a0,80202394 <copyin+0x78>
        n = PGSIZE - (srcva - va0);
    8020237e:	418904b3          	sub	s1,s2,s8
    80202382:	94d6                	add	s1,s1,s5
    80202384:	fc99f0e3          	bgeu	s3,s1,80202344 <copyin+0x28>
    80202388:	84ce                	mv	s1,s3
    8020238a:	bf6d                	j	80202344 <copyin+0x28>
    }
    return 0;
    8020238c:	4501                	li	a0,0
    8020238e:	a021                	j	80202396 <copyin+0x7a>
    80202390:	4501                	li	a0,0
}
    80202392:	8082                	ret
            return -1;
    80202394:	557d                	li	a0,-1
}
    80202396:	60e6                	ld	ra,88(sp)
    80202398:	6446                	ld	s0,80(sp)
    8020239a:	64a6                	ld	s1,72(sp)
    8020239c:	6906                	ld	s2,64(sp)
    8020239e:	79e2                	ld	s3,56(sp)
    802023a0:	7a42                	ld	s4,48(sp)
    802023a2:	7aa2                	ld	s5,40(sp)
    802023a4:	7b02                	ld	s6,32(sp)
    802023a6:	6be2                	ld	s7,24(sp)
    802023a8:	6c42                	ld	s8,16(sp)
    802023aa:	6125                	addi	sp,sp,96
    802023ac:	8082                	ret

00000000802023ae <copyout>:
// Return 0 on success, -1 on error.
int copyout(u64* pagetable, u64 dstva, char* src, u64 len) {
    u64 n, va0, pa0;
    int cow;

    while (len > 0) {
    802023ae:	cad9                	beqz	a3,80202444 <copyout+0x96>
int copyout(u64* pagetable, u64 dstva, char* src, u64 len) {
    802023b0:	711d                	addi	sp,sp,-96
    802023b2:	ec86                	sd	ra,88(sp)
    802023b4:	e8a2                	sd	s0,80(sp)
    802023b6:	e4a6                	sd	s1,72(sp)
    802023b8:	e0ca                	sd	s2,64(sp)
    802023ba:	fc4e                	sd	s3,56(sp)
    802023bc:	f852                	sd	s4,48(sp)
    802023be:	f456                	sd	s5,40(sp)
    802023c0:	f05a                	sd	s6,32(sp)
    802023c2:	ec5e                	sd	s7,24(sp)
    802023c4:	e862                	sd	s8,16(sp)
    802023c6:	1080                	addi	s0,sp,96
    802023c8:	8b2a                	mv	s6,a0
    802023ca:	89ae                	mv	s3,a1
    802023cc:	8ab2                	mv	s5,a2
    802023ce:	8a36                	mv	s4,a3
        va0 = DOWN_ALIGN(dstva, PGSIZE);
    802023d0:	7c7d                	lui	s8,0xfffff
        if (cow) {
            // printf("COW?\n");
            cowHandler(pagetable, va0);
        }
        pa0 = vir2phy(pagetable, va0, &cow);
        n = PGSIZE - (dstva - va0);
    802023d2:	6b85                	lui	s7,0x1
    802023d4:	a80d                	j	80202406 <copyout+0x58>
            cowHandler(pagetable, va0);
    802023d6:	85ca                	mv	a1,s2
    802023d8:	855a                	mv	a0,s6
    802023da:	00000097          	auipc	ra,0x0
    802023de:	d8c080e7          	jalr	-628(ra) # 80202166 <cowHandler>
    802023e2:	a081                	j	80202422 <copyout+0x74>
        if (n > len)
            n = len;
        memmove((void*)(pa0 + (dstva - va0)), src, n);
    802023e4:	412989b3          	sub	s3,s3,s2
    802023e8:	0004861b          	sext.w	a2,s1
    802023ec:	85d6                	mv	a1,s5
    802023ee:	954e                	add	a0,a0,s3
    802023f0:	00004097          	auipc	ra,0x4
    802023f4:	9d0080e7          	jalr	-1584(ra) # 80205dc0 <memmove>
        len -= n;
    802023f8:	409a0a33          	sub	s4,s4,s1
        src += n;
    802023fc:	9aa6                	add	s5,s5,s1
        dstva = va0 + PGSIZE;
    802023fe:	017909b3          	add	s3,s2,s7
    while (len > 0) {
    80202402:	020a0f63          	beqz	s4,80202440 <copyout+0x92>
        va0 = DOWN_ALIGN(dstva, PGSIZE);
    80202406:	0189f933          	and	s2,s3,s8
        pa0 = vir2phy(pagetable, va0, &cow);
    8020240a:	fac40613          	addi	a2,s0,-84
    8020240e:	85ca                	mv	a1,s2
    80202410:	855a                	mv	a0,s6
    80202412:	00000097          	auipc	ra,0x0
    80202416:	e74080e7          	jalr	-396(ra) # 80202286 <vir2phy>
        if (pa0 == NULL)
    8020241a:	c51d                	beqz	a0,80202448 <copyout+0x9a>
        if (cow) {
    8020241c:	fac42783          	lw	a5,-84(s0)
    80202420:	fbdd                	bnez	a5,802023d6 <copyout+0x28>
        pa0 = vir2phy(pagetable, va0, &cow);
    80202422:	fac40613          	addi	a2,s0,-84
    80202426:	85ca                	mv	a1,s2
    80202428:	855a                	mv	a0,s6
    8020242a:	00000097          	auipc	ra,0x0
    8020242e:	e5c080e7          	jalr	-420(ra) # 80202286 <vir2phy>
        n = PGSIZE - (dstva - va0);
    80202432:	413904b3          	sub	s1,s2,s3
    80202436:	94de                	add	s1,s1,s7
    80202438:	fa9a76e3          	bgeu	s4,s1,802023e4 <copyout+0x36>
    8020243c:	84d2                	mv	s1,s4
    8020243e:	b75d                	j	802023e4 <copyout+0x36>
    }
    return 0;
    80202440:	4501                	li	a0,0
    80202442:	a021                	j	8020244a <copyout+0x9c>
    80202444:	4501                	li	a0,0
}
    80202446:	8082                	ret
            return -1;
    80202448:	557d                	li	a0,-1
}
    8020244a:	60e6                	ld	ra,88(sp)
    8020244c:	6446                	ld	s0,80(sp)
    8020244e:	64a6                	ld	s1,72(sp)
    80202450:	6906                	ld	s2,64(sp)
    80202452:	79e2                	ld	s3,56(sp)
    80202454:	7a42                	ld	s4,48(sp)
    80202456:	7aa2                	ld	s5,40(sp)
    80202458:	7b02                	ld	s6,32(sp)
    8020245a:	6be2                	ld	s7,24(sp)
    8020245c:	6c42                	ld	s8,16(sp)
    8020245e:	6125                	addi	sp,sp,96
    80202460:	8082                	ret

0000000080202462 <growproc>:

int growproc(int n) {
    80202462:	1101                	addi	sp,sp,-32
    80202464:	ec06                	sd	ra,24(sp)
    80202466:	e822                	sd	s0,16(sp)
    80202468:	e426                	sd	s1,8(sp)
    8020246a:	1000                	addi	s0,sp,32
    8020246c:	84aa                	mv	s1,a0
    if (myproc()->heapBottom + n >= USER_HEAP_TOP)
    8020246e:	00000097          	auipc	ra,0x0
    80202472:	542080e7          	jalr	1346(ra) # 802029b0 <myproc>
    80202476:	5d053783          	ld	a5,1488(a0)
    8020247a:	97a6                	add	a5,a5,s1
    8020247c:	0000b717          	auipc	a4,0xb
    80202480:	e6473703          	ld	a4,-412(a4) # 8020d2e0 <__func__.0+0x10>
    80202484:	02f76163          	bltu	a4,a5,802024a6 <growproc+0x44>
        return -1;
    myproc()->heapBottom += n;
    80202488:	00000097          	auipc	ra,0x0
    8020248c:	528080e7          	jalr	1320(ra) # 802029b0 <myproc>
    80202490:	5d053783          	ld	a5,1488(a0)
    80202494:	97a6                	add	a5,a5,s1
    80202496:	5cf53823          	sd	a5,1488(a0)
    return 0;
    8020249a:	4501                	li	a0,0
}
    8020249c:	60e2                	ld	ra,24(sp)
    8020249e:	6442                	ld	s0,16(sp)
    802024a0:	64a2                	ld	s1,8(sp)
    802024a2:	6105                	addi	sp,sp,32
    802024a4:	8082                	ret
        return -1;
    802024a6:	557d                	li	a0,-1
    802024a8:	bfd5                	j	8020249c <growproc+0x3a>

00000000802024aa <sys_sbrk>:

u64 sys_sbrk(u32 len) {
    802024aa:	1101                	addi	sp,sp,-32
    802024ac:	ec06                	sd	ra,24(sp)
    802024ae:	e822                	sd	s0,16(sp)
    802024b0:	e426                	sd	s1,8(sp)
    802024b2:	e04a                	sd	s2,0(sp)
    802024b4:	1000                	addi	s0,sp,32
    802024b6:	84aa                	mv	s1,a0
    u64 addr = myproc()->heapBottom;
    802024b8:	00000097          	auipc	ra,0x0
    802024bc:	4f8080e7          	jalr	1272(ra) # 802029b0 <myproc>
    802024c0:	5d053903          	ld	s2,1488(a0)
    if (growproc(len) < 0)
    802024c4:	8526                	mv	a0,s1
    802024c6:	00000097          	auipc	ra,0x0
    802024ca:	f9c080e7          	jalr	-100(ra) # 80202462 <growproc>
    802024ce:	00054963          	bltz	a0,802024e0 <sys_sbrk+0x36>
        return -1;
    return addr;
    802024d2:	854a                	mv	a0,s2
    802024d4:	60e2                	ld	ra,24(sp)
    802024d6:	6442                	ld	s0,16(sp)
    802024d8:	64a2                	ld	s1,8(sp)
    802024da:	6902                	ld	s2,0(sp)
    802024dc:	6105                	addi	sp,sp,32
    802024de:	8082                	ret
        return -1;
    802024e0:	597d                	li	s2,-1
    802024e2:	bfc5                	j	802024d2 <sys_sbrk+0x28>

00000000802024e4 <loadElf>:
    u8 *ph_table = 0;
    u16 entry_cnt;
    u16 entry_size;
    int r;

    if (size < 4 || !is_elf_format(binary)) {
    802024e4:	478d                	li	a5,3
    802024e6:	0cb7d863          	bge	a5,a1,802025b6 <loadElf+0xd2>
    int (*map)(u64 va, u32 segmentSize, u8 *bin, u32 binSize, void *userData)) {
    802024ea:	711d                	addi	sp,sp,-96
    802024ec:	ec86                	sd	ra,88(sp)
    802024ee:	e8a2                	sd	s0,80(sp)
    802024f0:	e4a6                	sd	s1,72(sp)
    802024f2:	e0ca                	sd	s2,64(sp)
    802024f4:	fc4e                	sd	s3,56(sp)
    802024f6:	f852                	sd	s4,48(sp)
    802024f8:	f456                	sd	s5,40(sp)
    802024fa:	f05a                	sd	s6,32(sp)
    802024fc:	ec5e                	sd	s7,24(sp)
    802024fe:	e862                	sd	s8,16(sp)
    80202500:	e466                	sd	s9,8(sp)
    80202502:	1080                	addi	s0,sp,96
    80202504:	8b2a                	mv	s6,a0
    80202506:	8cb2                	mv	s9,a2
    80202508:	8bb6                	mv	s7,a3
    8020250a:	8c3a                	mv	s8,a4
int loadElf(u8 *binary, int size, u64 *entry, void *userData, 
    int (*map)(u64, u32, u8*, u32, void*));

inline bool is_elf_format(u8 *binary) {
    u8 *magic = ((Indent*) binary)->magic;
    if (magic[0] == ELF_MAGIC0 &&
    8020250c:	00054703          	lbu	a4,0(a0)
    80202510:	07f00793          	li	a5,127
        return -NOT_ELF_FILE;
    80202514:	5569                	li	a0,-6
    80202516:	08f71363          	bne	a4,a5,8020259c <loadElf+0xb8>
    8020251a:	001b4703          	lbu	a4,1(s6)
    8020251e:	04500793          	li	a5,69
    80202522:	06f71d63          	bne	a4,a5,8020259c <loadElf+0xb8>
        magic[1] == ELF_MAGIC1 &&
    80202526:	002b4703          	lbu	a4,2(s6)
    8020252a:	04c00793          	li	a5,76
    8020252e:	06f71763          	bne	a4,a5,8020259c <loadElf+0xb8>
    if (size < 4 || !is_elf_format(binary)) {
    80202532:	003b4703          	lbu	a4,3(s6)
    80202536:	04600793          	li	a5,70
    8020253a:	08f71063          	bne	a4,a5,802025ba <loadElf+0xd6>
    }

    ph_table = binary + ehdr->phoff;
    8020253e:	020b3903          	ld	s2,32(s6)
    80202542:	995a                	add	s2,s2,s6
    entry_cnt = ehdr->phnum;
    80202544:	038b5783          	lhu	a5,56(s6)
    entry_size = ehdr->phentsize;
    80202548:	036b5a83          	lhu	s5,54(s6)

    while (entry_cnt--) {
    8020254c:	fff7849b          	addiw	s1,a5,-1
    80202550:	14c2                	slli	s1,s1,0x30
    80202552:	90c1                	srli	s1,s1,0x30
    80202554:	cf9d                	beqz	a5,80202592 <loadElf+0xae>
        phdr = (Phdr*)ph_table;
        if (phdr->type == PT_LOAD) {
    80202556:	4a05                	li	s4,1
    while (entry_cnt--) {
    80202558:	69c1                	lui	s3,0x10
    8020255a:	19fd                	addi	s3,s3,-1
    8020255c:	a809                	j	8020256e <loadElf+0x8a>
            r = map(phdr->vaddr, phdr->memsz, binary + phdr->offset, phdr->filesz, userData);
            if (r < 0) {
                return r;
            }
        }
        ph_table += entry_size;
    8020255e:	9956                	add	s2,s2,s5
    while (entry_cnt--) {
    80202560:	34fd                	addiw	s1,s1,-1
    80202562:	14c2                	slli	s1,s1,0x30
    80202564:	90c1                	srli	s1,s1,0x30
    80202566:	0004879b          	sext.w	a5,s1
    8020256a:	03378463          	beq	a5,s3,80202592 <loadElf+0xae>
        if (phdr->type == PT_LOAD) {
    8020256e:	00092783          	lw	a5,0(s2)
    80202572:	ff4796e3          	bne	a5,s4,8020255e <loadElf+0x7a>
            r = map(phdr->vaddr, phdr->memsz, binary + phdr->offset, phdr->filesz, userData);
    80202576:	00893603          	ld	a2,8(s2)
    8020257a:	875e                	mv	a4,s7
    8020257c:	02092683          	lw	a3,32(s2)
    80202580:	965a                	add	a2,a2,s6
    80202582:	02892583          	lw	a1,40(s2)
    80202586:	01093503          	ld	a0,16(s2)
    8020258a:	9c02                	jalr	s8
            if (r < 0) {
    8020258c:	fc0559e3          	bgez	a0,8020255e <loadElf+0x7a>
    80202590:	a031                	j	8020259c <loadElf+0xb8>
    }
    
    *entry = ehdr->entry;
    80202592:	018b3783          	ld	a5,24(s6)
    80202596:	00fcb023          	sd	a5,0(s9)
    return 0;
    8020259a:	4501                	li	a0,0
    8020259c:	60e6                	ld	ra,88(sp)
    8020259e:	6446                	ld	s0,80(sp)
    802025a0:	64a6                	ld	s1,72(sp)
    802025a2:	6906                	ld	s2,64(sp)
    802025a4:	79e2                	ld	s3,56(sp)
    802025a6:	7a42                	ld	s4,48(sp)
    802025a8:	7aa2                	ld	s5,40(sp)
    802025aa:	7b02                	ld	s6,32(sp)
    802025ac:	6be2                	ld	s7,24(sp)
    802025ae:	6c42                	ld	s8,16(sp)
    802025b0:	6ca2                	ld	s9,8(sp)
    802025b2:	6125                	addi	sp,sp,96
    802025b4:	8082                	ret
        return -NOT_ELF_FILE;
    802025b6:	5569                	li	a0,-6
    802025b8:	8082                	ret
        return -NOT_ELF_FILE;
    802025ba:	5569                	li	a0,-6
    802025bc:	b7c5                	j	8020259c <loadElf+0xb8>
	...

00000000802025c0 <kernelVector>:
.globl kernelTrap
.section .text
.globl kernelVector
.align 2
kernelVector:
    addi sp, sp, -256
    802025c0:	7111                	addi	sp,sp,-256

    sd ra, 0(sp)
    802025c2:	e006                	sd	ra,0(sp)
    sd sp, 8(sp)
    802025c4:	e40a                	sd	sp,8(sp)
    sd gp, 16(sp)
    802025c6:	e80e                	sd	gp,16(sp)
    sd tp, 24(sp)
    802025c8:	ec12                	sd	tp,24(sp)
    sd t0, 32(sp)
    802025ca:	f016                	sd	t0,32(sp)
    sd t1, 40(sp)
    802025cc:	f41a                	sd	t1,40(sp)
    sd t2, 48(sp)
    802025ce:	f81e                	sd	t2,48(sp)
    sd s0, 56(sp)
    802025d0:	fc22                	sd	s0,56(sp)
    sd s1, 64(sp)
    802025d2:	e0a6                	sd	s1,64(sp)
    sd a0, 72(sp)
    802025d4:	e4aa                	sd	a0,72(sp)
    sd a1, 80(sp)
    802025d6:	e8ae                	sd	a1,80(sp)
    sd a2, 88(sp)
    802025d8:	ecb2                	sd	a2,88(sp)
    sd a3, 96(sp)
    802025da:	f0b6                	sd	a3,96(sp)
    sd a4, 104(sp)
    802025dc:	f4ba                	sd	a4,104(sp)
    sd a5, 112(sp)
    802025de:	f8be                	sd	a5,112(sp)
    sd a6, 120(sp)
    802025e0:	fcc2                	sd	a6,120(sp)
    sd a7, 128(sp)
    802025e2:	e146                	sd	a7,128(sp)
    sd s2, 136(sp)
    802025e4:	e54a                	sd	s2,136(sp)
    sd s3, 144(sp)
    802025e6:	e94e                	sd	s3,144(sp)
    sd s4, 152(sp)
    802025e8:	ed52                	sd	s4,152(sp)
    sd s5, 160(sp)
    802025ea:	f156                	sd	s5,160(sp)
    sd s6, 168(sp)
    802025ec:	f55a                	sd	s6,168(sp)
    sd s7, 176(sp)
    802025ee:	f95e                	sd	s7,176(sp)
    sd s8, 184(sp)
    802025f0:	fd62                	sd	s8,184(sp)
    sd s9, 192(sp)
    802025f2:	e1e6                	sd	s9,192(sp)
    sd s10, 200(sp)
    802025f4:	e5ea                	sd	s10,200(sp)
    sd s11, 208(sp)
    802025f6:	e9ee                	sd	s11,208(sp)
    sd t3, 216(sp)
    802025f8:	edf2                	sd	t3,216(sp)
    sd t4, 224(sp)
    802025fa:	f1f6                	sd	t4,224(sp)
    sd t5, 232(sp)
    802025fc:	f5fa                	sd	t5,232(sp)
    sd t6, 240(sp)
    802025fe:	f9fe                	sd	t6,240(sp)

	// call the C trap handler in trap.c
    call kernelTrap
    80202600:	554020ef          	jal	ra,80204b54 <kernelTrap>
    ld ra, 0(sp)
    80202604:	6082                	ld	ra,0(sp)
    ld sp, 8(sp)
    80202606:	6122                	ld	sp,8(sp)
    ld gp, 16(sp)
    80202608:	61c2                	ld	gp,16(sp)
    // not this, in case we moved CPUs: ld tp, 24(sp)
    ld t0, 32(sp)
    8020260a:	7282                	ld	t0,32(sp)
    ld t1, 40(sp)
    8020260c:	7322                	ld	t1,40(sp)
    ld t2, 48(sp)
    8020260e:	73c2                	ld	t2,48(sp)
    ld s0, 56(sp)
    80202610:	7462                	ld	s0,56(sp)
    ld s1, 64(sp)
    80202612:	6486                	ld	s1,64(sp)
    ld a0, 72(sp)
    80202614:	6526                	ld	a0,72(sp)
    ld a1, 80(sp)
    80202616:	65c6                	ld	a1,80(sp)
    ld a2, 88(sp)
    80202618:	6666                	ld	a2,88(sp)
    ld a3, 96(sp)
    8020261a:	7686                	ld	a3,96(sp)
    ld a4, 104(sp)
    8020261c:	7726                	ld	a4,104(sp)
    ld a5, 112(sp)
    8020261e:	77c6                	ld	a5,112(sp)
    ld a6, 120(sp)
    80202620:	7866                	ld	a6,120(sp)
    ld a7, 128(sp)
    80202622:	688a                	ld	a7,128(sp)
    ld s2, 136(sp)
    80202624:	692a                	ld	s2,136(sp)
    ld s3, 144(sp)
    80202626:	69ca                	ld	s3,144(sp)
    ld s4, 152(sp)
    80202628:	6a6a                	ld	s4,152(sp)
    ld s5, 160(sp)
    8020262a:	7a8a                	ld	s5,160(sp)
    ld s6, 168(sp)
    8020262c:	7b2a                	ld	s6,168(sp)
    ld s7, 176(sp)
    8020262e:	7bca                	ld	s7,176(sp)
    ld s8, 184(sp)
    80202630:	7c6a                	ld	s8,184(sp)
    ld s9, 192(sp)
    80202632:	6c8e                	ld	s9,192(sp)
    ld s10, 200(sp)
    80202634:	6d2e                	ld	s10,200(sp)
    ld s11, 208(sp)
    80202636:	6dce                	ld	s11,208(sp)
    ld t3, 216(sp)
    80202638:	6e6e                	ld	t3,216(sp)
    ld t4, 224(sp)
    8020263a:	7e8e                	ld	t4,224(sp)
    ld t5, 232(sp)
    8020263c:	7f2e                	ld	t5,232(sp)
    ld t6, 240(sp)
    8020263e:	7fce                	ld	t6,240(sp)

    addi sp, sp, 256
    80202640:	6111                	addi	sp,sp,256
    sret
    80202642:	10200073          	sret

0000000080202646 <codeMapper>:

    *new = p;
    return 0;
}

int codeMapper(u64 va, u32 segmentSize, u8 *binary, u32 binSize, void *userData) {
    80202646:	7119                	addi	sp,sp,-128
    80202648:	fc86                	sd	ra,120(sp)
    8020264a:	f8a2                	sd	s0,112(sp)
    8020264c:	f4a6                	sd	s1,104(sp)
    8020264e:	f0ca                	sd	s2,96(sp)
    80202650:	ecce                	sd	s3,88(sp)
    80202652:	e8d2                	sd	s4,80(sp)
    80202654:	e4d6                	sd	s5,72(sp)
    80202656:	e0da                	sd	s6,64(sp)
    80202658:	fc5e                	sd	s7,56(sp)
    8020265a:	f862                	sd	s8,48(sp)
    8020265c:	f466                	sd	s9,40(sp)
    8020265e:	f06a                	sd	s10,32(sp)
    80202660:	ec6e                	sd	s11,24(sp)
    80202662:	0100                	addi	s0,sp,128
    80202664:	8baa                	mv	s7,a0
    80202666:	8d2e                	mv	s10,a1
    80202668:	8db2                	mv	s11,a2
    8020266a:	89b6                	mv	s3,a3
    8020266c:	8c3a                	mv	s8,a4
    Process *process = (Process*)userData;
    PhysicalPage *p = NULL;
    8020266e:	f8043423          	sd	zero,-120(s0)
    u64 i;
    int r = 0;
    u64 offset = va - DOWN_ALIGN(va, PAGE_SIZE);
    80202672:	03451793          	slli	a5,a0,0x34
    80202676:	0347d913          	srli	s2,a5,0x34
    u64* j;

    if (offset > 0) {
    8020267a:	e39d                	bnez	a5,802026a0 <codeMapper+0x5a>
                PTE_EXECUTE | PTE_READ | PTE_WRITE | PTE_USER);
        }
        r = MIN(binSize, PAGE_SIZE - offset);
        bcopy(binary, (void*) page2pa(p) + offset, r);
    }
    for (i = r; i < binSize; i += r) {
    8020267c:	02069993          	slli	s3,a3,0x20
    80202680:	0209d993          	srli	s3,s3,0x20
    80202684:	2c098b63          	beqz	s3,8020295a <codeMapper+0x314>
    int hartId;
} PhysicalPage;

inline u32 page2PPN(PhysicalPage *page) {
    extern PhysicalPage pages[];
    return page - pages;
    80202688:	001c0b17          	auipc	s6,0x1c0
    8020268c:	df0b0b13          	addi	s6,s6,-528 # 803c2478 <pages>
    80202690:	0000ba97          	auipc	s5,0xb
    80202694:	c48a8a93          	addi	s5,s5,-952 # 8020d2d8 <__func__.0+0x8>
    return pages + ppn;
}


inline u64 page2pa(PhysicalPage *page) {
    return PHYSICAL_ADDRESS_BASE + (page2PPN(page) << PAGE_SHIFT);
    80202698:	4a05                	li	s4,1
    8020269a:	0a7e                	slli	s4,s4,0x1f
        if (pageAlloc(&p) != 0) {
            return -1;
        }
        pageInsert(process->pgdir, va + i, page2pa(p), 
            PTE_EXECUTE | PTE_READ | PTE_WRITE | PTE_USER);
        r = MIN(PAGE_SIZE, binSize - i);
    8020269c:	6c85                	lui	s9,0x1
    8020269e:	a8c5                	j	8020278e <codeMapper+0x148>
        p = pa2page(pageLookup(process->pgdir, va, &j));
    802026a0:	f8040613          	addi	a2,s0,-128
    802026a4:	85aa                	mv	a1,a0
    802026a6:	16873503          	ld	a0,360(a4)
    802026aa:	fffff097          	auipc	ra,0xfffff
    802026ae:	6f4080e7          	jalr	1780(ra) # 80201d9e <pageLookup>
}

inline PhysicalPage* pa2page(u64 pa) {
    if (pa == 0)
    802026b2:	2a050763          	beqz	a0,80202960 <codeMapper+0x31a>
        return NULL;
    return ppn2page((pa - PHYSICAL_ADDRESS_BASE) >> PAGE_SHIFT);
    802026b6:	800007b7          	lui	a5,0x80000
    802026ba:	97aa                	add	a5,a5,a0
    802026bc:	83b1                	srli	a5,a5,0xc
    return pages + ppn;
    802026be:	1782                	slli	a5,a5,0x20
    802026c0:	9381                	srli	a5,a5,0x20
    802026c2:	00179713          	slli	a4,a5,0x1
    802026c6:	97ba                	add	a5,a5,a4
    802026c8:	078e                	slli	a5,a5,0x3
    802026ca:	001c0717          	auipc	a4,0x1c0
    802026ce:	dae70713          	addi	a4,a4,-594 # 803c2478 <pages>
    802026d2:	97ba                	add	a5,a5,a4
    802026d4:	f8f43423          	sd	a5,-120(s0)
        r = MIN(binSize, PAGE_SIZE - offset);
    802026d8:	1982                	slli	s3,s3,0x20
    802026da:	0209d993          	srli	s3,s3,0x20
    802026de:	6485                	lui	s1,0x1
    802026e0:	412484b3          	sub	s1,s1,s2
    802026e4:	0099f363          	bgeu	s3,s1,802026ea <codeMapper+0xa4>
    802026e8:	84ce                	mv	s1,s3
    802026ea:	2481                	sext.w	s1,s1
    return page - pages;
    802026ec:	f8843583          	ld	a1,-120(s0)
    802026f0:	001c0797          	auipc	a5,0x1c0
    802026f4:	d8878793          	addi	a5,a5,-632 # 803c2478 <pages>
    802026f8:	8d9d                	sub	a1,a1,a5
    802026fa:	858d                	srai	a1,a1,0x3
    802026fc:	0000b797          	auipc	a5,0xb
    80202700:	bdc7b783          	ld	a5,-1060(a5) # 8020d2d8 <__func__.0+0x8>
    80202704:	02f585b3          	mul	a1,a1,a5
    return PHYSICAL_ADDRESS_BASE + (page2PPN(page) << PAGE_SHIFT);
    80202708:	00c5959b          	slliw	a1,a1,0xc
    8020270c:	1582                	slli	a1,a1,0x20
    8020270e:	9181                	srli	a1,a1,0x20
    80202710:	4785                	li	a5,1
    80202712:	07fe                	slli	a5,a5,0x1f
    80202714:	95be                	add	a1,a1,a5
        bcopy(binary, (void*) page2pa(p) + offset, r);
    80202716:	8626                	mv	a2,s1
    80202718:	95ca                	add	a1,a1,s2
    8020271a:	856e                	mv	a0,s11
    8020271c:	fffff097          	auipc	ra,0xfffff
    80202720:	332080e7          	jalr	818(ra) # 80201a4e <bcopy>
    for (i = r; i < binSize; i += r) {
    80202724:	8926                	mv	s2,s1
    80202726:	f734e1e3          	bltu	s1,s3,80202688 <codeMapper+0x42>
        bcopy(binary + i, (void*) page2pa(p), r);
    }

    offset = va + i - DOWN_ALIGN(va + i, PAGE_SIZE);
    8020272a:	012b8a33          	add	s4,s7,s2
    8020272e:	034a1793          	slli	a5,s4,0x34
    80202732:	0347d993          	srli	s3,a5,0x34
    if (offset > 0) {
    80202736:	e3cd                	bnez	a5,802027d8 <codeMapper+0x192>
                PTE_EXECUTE | PTE_READ | PTE_WRITE | PTE_USER);
        }
        r = MIN(segmentSize - i, PAGE_SIZE - offset);
        bzero((void*) page2pa(p) + offset, r);
    }
    for (i += r; i < segmentSize; i += r) {
    80202738:	94ca                	add	s1,s1,s2
    8020273a:	1d02                	slli	s10,s10,0x20
    8020273c:	020d5d13          	srli	s10,s10,0x20
    80202740:	1ba4fe63          	bgeu	s1,s10,802028fc <codeMapper+0x2b6>
    return page - pages;
    80202744:	001c0b17          	auipc	s6,0x1c0
    80202748:	d34b0b13          	addi	s6,s6,-716 # 803c2478 <pages>
    8020274c:	0000ba97          	auipc	s5,0xb
    80202750:	b8ca8a93          	addi	s5,s5,-1140 # 8020d2d8 <__func__.0+0x8>
    return PHYSICAL_ADDRESS_BASE + (page2PPN(page) << PAGE_SHIFT);
    80202754:	4a05                	li	s4,1
    80202756:	0a7e                	slli	s4,s4,0x1f
        if (pageAlloc(&p) != 0) {
            return -1;
        }
        pageInsert(process->pgdir, va + i, page2pa(p), 
            PTE_EXECUTE | PTE_READ | PTE_WRITE | PTE_USER);
        r = MIN(PAGE_SIZE, segmentSize - i);
    80202758:	6c85                	lui	s9,0x1
    8020275a:	aa1d                	j	80202890 <codeMapper+0x24a>
        r = MIN(PAGE_SIZE, binSize - i);
    8020275c:	2481                	sext.w	s1,s1
    return page - pages;
    8020275e:	f8843583          	ld	a1,-120(s0)
    80202762:	416585b3          	sub	a1,a1,s6
    80202766:	858d                	srai	a1,a1,0x3
    80202768:	000ab783          	ld	a5,0(s5)
    8020276c:	02f585b3          	mul	a1,a1,a5
    return PHYSICAL_ADDRESS_BASE + (page2PPN(page) << PAGE_SHIFT);
    80202770:	00c5959b          	slliw	a1,a1,0xc
    80202774:	1582                	slli	a1,a1,0x20
    80202776:	9181                	srli	a1,a1,0x20
        bcopy(binary + i, (void*) page2pa(p), r);
    80202778:	8626                	mv	a2,s1
    8020277a:	95d2                	add	a1,a1,s4
    8020277c:	012d8533          	add	a0,s11,s2
    80202780:	fffff097          	auipc	ra,0xfffff
    80202784:	2ce080e7          	jalr	718(ra) # 80201a4e <bcopy>
    for (i = r; i < binSize; i += r) {
    80202788:	9926                	add	s2,s2,s1
    8020278a:	fb3970e3          	bgeu	s2,s3,8020272a <codeMapper+0xe4>
        if (pageAlloc(&p) != 0) {
    8020278e:	f8840513          	addi	a0,s0,-120
    80202792:	fffff097          	auipc	ra,0xfffff
    80202796:	47c080e7          	jalr	1148(ra) # 80201c0e <pageAlloc>
    8020279a:	14051063          	bnez	a0,802028da <codeMapper+0x294>
    return page - pages;
    8020279e:	f8843603          	ld	a2,-120(s0)
    802027a2:	41660633          	sub	a2,a2,s6
    802027a6:	860d                	srai	a2,a2,0x3
    802027a8:	000ab783          	ld	a5,0(s5)
    802027ac:	02f60633          	mul	a2,a2,a5
    return PHYSICAL_ADDRESS_BASE + (page2PPN(page) << PAGE_SHIFT);
    802027b0:	00c6161b          	slliw	a2,a2,0xc
    802027b4:	1602                	slli	a2,a2,0x20
    802027b6:	9201                	srli	a2,a2,0x20
        pageInsert(process->pgdir, va + i, page2pa(p), 
    802027b8:	46f9                	li	a3,30
    802027ba:	9652                	add	a2,a2,s4
    802027bc:	012b85b3          	add	a1,s7,s2
    802027c0:	168c3503          	ld	a0,360(s8) # fffffffffffff168 <bssEnd+0xffffffff7f9e4168>
    802027c4:	fffff097          	auipc	ra,0xfffff
    802027c8:	7d6080e7          	jalr	2006(ra) # 80201f9a <pageInsert>
        r = MIN(PAGE_SIZE, binSize - i);
    802027cc:	412984b3          	sub	s1,s3,s2
    802027d0:	f89cf6e3          	bgeu	s9,s1,8020275c <codeMapper+0x116>
    802027d4:	84e6                	mv	s1,s9
    802027d6:	b759                	j	8020275c <codeMapper+0x116>
        p = pa2page(pageLookup(process->pgdir, va + i, &j));
    802027d8:	f8040613          	addi	a2,s0,-128
    802027dc:	85d2                	mv	a1,s4
    802027de:	168c3503          	ld	a0,360(s8)
    802027e2:	fffff097          	auipc	ra,0xfffff
    802027e6:	5bc080e7          	jalr	1468(ra) # 80201d9e <pageLookup>
    if (pa == 0)
    802027ea:	12050163          	beqz	a0,8020290c <codeMapper+0x2c6>
    return ppn2page((pa - PHYSICAL_ADDRESS_BASE) >> PAGE_SHIFT);
    802027ee:	800007b7          	lui	a5,0x80000
    802027f2:	97aa                	add	a5,a5,a0
    802027f4:	83b1                	srli	a5,a5,0xc
    return pages + ppn;
    802027f6:	1782                	slli	a5,a5,0x20
    802027f8:	9381                	srli	a5,a5,0x20
    802027fa:	00179713          	slli	a4,a5,0x1
    802027fe:	97ba                	add	a5,a5,a4
    80202800:	078e                	slli	a5,a5,0x3
    80202802:	001c0717          	auipc	a4,0x1c0
    80202806:	c7670713          	addi	a4,a4,-906 # 803c2478 <pages>
    8020280a:	97ba                	add	a5,a5,a4
    8020280c:	f8f43423          	sd	a5,-120(s0)
        r = MIN(segmentSize - i, PAGE_SIZE - offset);
    80202810:	020d1493          	slli	s1,s10,0x20
    80202814:	9081                	srli	s1,s1,0x20
    80202816:	6785                	lui	a5,0x1
    80202818:	413787b3          	sub	a5,a5,s3
    8020281c:	412484b3          	sub	s1,s1,s2
    80202820:	0097f363          	bgeu	a5,s1,80202826 <codeMapper+0x1e0>
    80202824:	84be                	mv	s1,a5
    80202826:	2481                	sext.w	s1,s1
    return page - pages;
    80202828:	f8843503          	ld	a0,-120(s0)
    8020282c:	001c0797          	auipc	a5,0x1c0
    80202830:	c4c78793          	addi	a5,a5,-948 # 803c2478 <pages>
    80202834:	8d1d                	sub	a0,a0,a5
    80202836:	850d                	srai	a0,a0,0x3
    80202838:	0000b797          	auipc	a5,0xb
    8020283c:	aa07b783          	ld	a5,-1376(a5) # 8020d2d8 <__func__.0+0x8>
    80202840:	02f50533          	mul	a0,a0,a5
    return PHYSICAL_ADDRESS_BASE + (page2PPN(page) << PAGE_SHIFT);
    80202844:	00c5151b          	slliw	a0,a0,0xc
    80202848:	1502                	slli	a0,a0,0x20
    8020284a:	9101                	srli	a0,a0,0x20
    8020284c:	4785                	li	a5,1
    8020284e:	07fe                	slli	a5,a5,0x1f
    80202850:	953e                	add	a0,a0,a5
        bzero((void*) page2pa(p) + offset, r);
    80202852:	85a6                	mv	a1,s1
    80202854:	954e                	add	a0,a0,s3
    80202856:	fffff097          	auipc	ra,0xfffff
    8020285a:	21e080e7          	jalr	542(ra) # 80201a74 <bzero>
    8020285e:	bde9                	j	80202738 <codeMapper+0xf2>
        bzero((void*) page2pa(p), r);
    80202860:	2901                	sext.w	s2,s2
    return page - pages;
    80202862:	f8843783          	ld	a5,-120(s0)
    80202866:	416787b3          	sub	a5,a5,s6
    8020286a:	878d                	srai	a5,a5,0x3
    8020286c:	000ab703          	ld	a4,0(s5)
    80202870:	02e787b3          	mul	a5,a5,a4
    return PHYSICAL_ADDRESS_BASE + (page2PPN(page) << PAGE_SHIFT);
    80202874:	00c7979b          	slliw	a5,a5,0xc
    80202878:	1782                	slli	a5,a5,0x20
    8020287a:	9381                	srli	a5,a5,0x20
    8020287c:	85ca                	mv	a1,s2
    8020287e:	01478533          	add	a0,a5,s4
    80202882:	fffff097          	auipc	ra,0xfffff
    80202886:	1f2080e7          	jalr	498(ra) # 80201a74 <bzero>
    for (i += r; i < segmentSize; i += r) {
    8020288a:	94ca                	add	s1,s1,s2
    8020288c:	05a4f863          	bgeu	s1,s10,802028dc <codeMapper+0x296>
        if (pageAlloc(&p) != 0) {
    80202890:	f8840513          	addi	a0,s0,-120
    80202894:	fffff097          	auipc	ra,0xfffff
    80202898:	37a080e7          	jalr	890(ra) # 80201c0e <pageAlloc>
    8020289c:	89aa                	mv	s3,a0
    8020289e:	e12d                	bnez	a0,80202900 <codeMapper+0x2ba>
    return page - pages;
    802028a0:	f8843603          	ld	a2,-120(s0)
    802028a4:	41660633          	sub	a2,a2,s6
    802028a8:	860d                	srai	a2,a2,0x3
    802028aa:	000ab783          	ld	a5,0(s5)
    802028ae:	02f60633          	mul	a2,a2,a5
    return PHYSICAL_ADDRESS_BASE + (page2PPN(page) << PAGE_SHIFT);
    802028b2:	00c6161b          	slliw	a2,a2,0xc
    802028b6:	1602                	slli	a2,a2,0x20
    802028b8:	9201                	srli	a2,a2,0x20
        pageInsert(process->pgdir, va + i, page2pa(p), 
    802028ba:	46f9                	li	a3,30
    802028bc:	9652                	add	a2,a2,s4
    802028be:	009b85b3          	add	a1,s7,s1
    802028c2:	168c3503          	ld	a0,360(s8)
    802028c6:	fffff097          	auipc	ra,0xfffff
    802028ca:	6d4080e7          	jalr	1748(ra) # 80201f9a <pageInsert>
        r = MIN(PAGE_SIZE, segmentSize - i);
    802028ce:	409d0933          	sub	s2,s10,s1
    802028d2:	f92cf7e3          	bgeu	s9,s2,80202860 <codeMapper+0x21a>
    802028d6:	8966                	mv	s2,s9
    802028d8:	b761                	j	80202860 <codeMapper+0x21a>
            return -1;
    802028da:	59fd                	li	s3,-1
    }
    return 0;
}
    802028dc:	854e                	mv	a0,s3
    802028de:	70e6                	ld	ra,120(sp)
    802028e0:	7446                	ld	s0,112(sp)
    802028e2:	74a6                	ld	s1,104(sp)
    802028e4:	7906                	ld	s2,96(sp)
    802028e6:	69e6                	ld	s3,88(sp)
    802028e8:	6a46                	ld	s4,80(sp)
    802028ea:	6aa6                	ld	s5,72(sp)
    802028ec:	6b06                	ld	s6,64(sp)
    802028ee:	7be2                	ld	s7,56(sp)
    802028f0:	7c42                	ld	s8,48(sp)
    802028f2:	7ca2                	ld	s9,40(sp)
    802028f4:	7d02                	ld	s10,32(sp)
    802028f6:	6de2                	ld	s11,24(sp)
    802028f8:	6109                	addi	sp,sp,128
    802028fa:	8082                	ret
    return 0;
    802028fc:	4981                	li	s3,0
    802028fe:	bff9                	j	802028dc <codeMapper+0x296>
            return -1;
    80202900:	59fd                	li	s3,-1
    80202902:	bfe9                	j	802028dc <codeMapper+0x296>
                return -1;
    80202904:	59fd                	li	s3,-1
    80202906:	bfd9                	j	802028dc <codeMapper+0x296>
                return -1;
    80202908:	59fd                	li	s3,-1
    8020290a:	bfc9                	j	802028dc <codeMapper+0x296>
        p = pa2page(pageLookup(process->pgdir, va + i, &j));
    8020290c:	f8043423          	sd	zero,-120(s0)
            if (pageAlloc(&p) != 0) {
    80202910:	f8840513          	addi	a0,s0,-120
    80202914:	fffff097          	auipc	ra,0xfffff
    80202918:	2fa080e7          	jalr	762(ra) # 80201c0e <pageAlloc>
    8020291c:	f565                	bnez	a0,80202904 <codeMapper+0x2be>
    return page - pages;
    8020291e:	f8843783          	ld	a5,-120(s0)
    80202922:	001c0717          	auipc	a4,0x1c0
    80202926:	b5670713          	addi	a4,a4,-1194 # 803c2478 <pages>
    8020292a:	8f99                	sub	a5,a5,a4
    8020292c:	878d                	srai	a5,a5,0x3
    8020292e:	0000b717          	auipc	a4,0xb
    80202932:	9aa73703          	ld	a4,-1622(a4) # 8020d2d8 <__func__.0+0x8>
    80202936:	02e787b3          	mul	a5,a5,a4
    return PHYSICAL_ADDRESS_BASE + (page2PPN(page) << PAGE_SHIFT);
    8020293a:	00c7979b          	slliw	a5,a5,0xc
    8020293e:	1782                	slli	a5,a5,0x20
    80202940:	9381                	srli	a5,a5,0x20
            pageInsert(process->pgdir, va + i, page2pa(p), 
    80202942:	46f9                	li	a3,30
    80202944:	4605                	li	a2,1
    80202946:	067e                	slli	a2,a2,0x1f
    80202948:	963e                	add	a2,a2,a5
    8020294a:	85d2                	mv	a1,s4
    8020294c:	168c3503          	ld	a0,360(s8)
    80202950:	fffff097          	auipc	ra,0xfffff
    80202954:	64a080e7          	jalr	1610(ra) # 80201f9a <pageInsert>
    80202958:	bd65                	j	80202810 <codeMapper+0x1ca>
    for (i = r; i < binSize; i += r) {
    8020295a:	894e                	mv	s2,s3
    int r = 0;
    8020295c:	4481                	li	s1,0
    8020295e:	bbe9                	j	80202738 <codeMapper+0xf2>
        p = pa2page(pageLookup(process->pgdir, va, &j));
    80202960:	f8043423          	sd	zero,-120(s0)
            if (pageAlloc(&p) < 0) {
    80202964:	f8840513          	addi	a0,s0,-120
    80202968:	fffff097          	auipc	ra,0xfffff
    8020296c:	2a6080e7          	jalr	678(ra) # 80201c0e <pageAlloc>
    80202970:	f8054ce3          	bltz	a0,80202908 <codeMapper+0x2c2>
    return page - pages;
    80202974:	f8843783          	ld	a5,-120(s0)
    80202978:	001c0717          	auipc	a4,0x1c0
    8020297c:	b0070713          	addi	a4,a4,-1280 # 803c2478 <pages>
    80202980:	8f99                	sub	a5,a5,a4
    80202982:	878d                	srai	a5,a5,0x3
    80202984:	0000b717          	auipc	a4,0xb
    80202988:	95473703          	ld	a4,-1708(a4) # 8020d2d8 <__func__.0+0x8>
    8020298c:	02e787b3          	mul	a5,a5,a4
    return PHYSICAL_ADDRESS_BASE + (page2PPN(page) << PAGE_SHIFT);
    80202990:	00c7979b          	slliw	a5,a5,0xc
    80202994:	1782                	slli	a5,a5,0x20
    80202996:	9381                	srli	a5,a5,0x20
            pageInsert(process->pgdir, va, page2pa(p), 
    80202998:	46f9                	li	a3,30
    8020299a:	4605                	li	a2,1
    8020299c:	067e                	slli	a2,a2,0x1f
    8020299e:	963e                	add	a2,a2,a5
    802029a0:	85de                	mv	a1,s7
    802029a2:	168c3503          	ld	a0,360(s8)
    802029a6:	fffff097          	auipc	ra,0xfffff
    802029aa:	5f4080e7          	jalr	1524(ra) # 80201f9a <pageInsert>
    802029ae:	b32d                	j	802026d8 <codeMapper+0x92>

00000000802029b0 <myproc>:
Process* myproc() {
    802029b0:	1101                	addi	sp,sp,-32
    802029b2:	ec06                	sd	ra,24(sp)
    802029b4:	e822                	sd	s0,16(sp)
    802029b6:	e426                	sd	s1,8(sp)
    802029b8:	1000                	addi	s0,sp,32
    interruptPush();
    802029ba:	00003097          	auipc	ra,0x3
    802029be:	ec0080e7          	jalr	-320(ra) # 8020587a <interruptPush>
#define HART_TOTAL_NUMBER 5

// which hart (core) is this?
static inline u64 r_hartid() {
    u64 x;
    asm volatile("mv %0, tp" : "=r" (x) );
    802029c2:	8792                	mv	a5,tp
    if (currentProcess[hartId] == NULL)
    802029c4:	2781                	sext.w	a5,a5
    802029c6:	078e                	slli	a5,a5,0x3
    802029c8:	00281717          	auipc	a4,0x281
    802029cc:	ae870713          	addi	a4,a4,-1304 # 804834b0 <currentProcess>
    802029d0:	97ba                	add	a5,a5,a4
    802029d2:	6384                	ld	s1,0(a5)
    802029d4:	c899                	beqz	s1,802029ea <myproc+0x3a>
    interruptPop();
    802029d6:	00003097          	auipc	ra,0x3
    802029da:	edc080e7          	jalr	-292(ra) # 802058b2 <interruptPop>
}
    802029de:	8526                	mv	a0,s1
    802029e0:	60e2                	ld	ra,24(sp)
    802029e2:	6442                	ld	s0,16(sp)
    802029e4:	64a2                	ld	s1,8(sp)
    802029e6:	6105                	addi	sp,sp,32
    802029e8:	8082                	ret
        panic("get current process error");
    802029ea:	0000a697          	auipc	a3,0xa
    802029ee:	bf668693          	addi	a3,a3,-1034 # 8020c5e0 <__func__.1+0x10>
    802029f2:	0000b617          	auipc	a2,0xb
    802029f6:	86660613          	addi	a2,a2,-1946 # 8020d258 <__func__.4>
    802029fa:	45e9                	li	a1,26
    802029fc:	0000a517          	auipc	a0,0xa
    80202a00:	c0450513          	addi	a0,a0,-1020 # 8020c600 <__func__.1+0x30>
    80202a04:	ffffe097          	auipc	ra,0xffffe
    80202a08:	148080e7          	jalr	328(ra) # 80200b4c <_panic_>

0000000080202a0c <getProcessTopSp>:
u64 getProcessTopSp(Process* p) {
    80202a0c:	1141                	addi	sp,sp,-16
    80202a0e:	e422                	sd	s0,8(sp)
    80202a10:	0800                	addi	s0,sp,16
    return KERNEL_PROCESS_SP_TOP - (u64)(p - processes) * 10 * PAGE_SIZE;
    80202a12:	00281797          	auipc	a5,0x281
    80202a16:	b7e78793          	addi	a5,a5,-1154 # 80483590 <processes>
    80202a1a:	40f507b3          	sub	a5,a0,a5
    80202a1e:	878d                	srai	a5,a5,0x3
    80202a20:	0000b717          	auipc	a4,0xb
    80202a24:	8c873703          	ld	a4,-1848(a4) # 8020d2e8 <__func__.0+0x18>
    80202a28:	02e787b3          	mul	a5,a5,a4
    80202a2c:	00279513          	slli	a0,a5,0x2
    80202a30:	97aa                	add	a5,a5,a0
    80202a32:	07b6                	slli	a5,a5,0xd
}
    80202a34:	4505                	li	a0,1
    80202a36:	1512                	slli	a0,a0,0x24
    80202a38:	8d1d                	sub	a0,a0,a5
    80202a3a:	6422                	ld	s0,8(sp)
    80202a3c:	0141                	addi	sp,sp,16
    80202a3e:	8082                	ret

0000000080202a40 <getSignalHandler>:
SignalAction *getSignalHandler(Process *p) {
    80202a40:	1141                	addi	sp,sp,-16
    80202a42:	e422                	sd	s0,8(sp)
    80202a44:	0800                	addi	s0,sp,16
    return (SignalAction*)(PROCESS_SIGNAL_BASE + (u64)(p - processes) * PAGE_SIZE);
    80202a46:	00281797          	auipc	a5,0x281
    80202a4a:	b4a78793          	addi	a5,a5,-1206 # 80483590 <processes>
    80202a4e:	8d1d                	sub	a0,a0,a5
    80202a50:	850d                	srai	a0,a0,0x3
    80202a52:	0000b797          	auipc	a5,0xb
    80202a56:	8967b783          	ld	a5,-1898(a5) # 8020d2e8 <__func__.0+0x18>
    80202a5a:	02f50533          	mul	a0,a0,a5
    80202a5e:	010407b7          	lui	a5,0x1040
    80202a62:	953e                	add	a0,a0,a5
}
    80202a64:	0532                	slli	a0,a0,0xc
    80202a66:	6422                	ld	s0,8(sp)
    80202a68:	0141                	addi	sp,sp,16
    80202a6a:	8082                	ret

0000000080202a6c <processInit>:
void processInit() {
    80202a6c:	1101                	addi	sp,sp,-32
    80202a6e:	ec06                	sd	ra,24(sp)
    80202a70:	e822                	sd	s0,16(sp)
    80202a72:	e426                	sd	s1,8(sp)
    80202a74:	1000                	addi	s0,sp,32
    printf("Process init start...\n");
    80202a76:	0000a517          	auipc	a0,0xa
    80202a7a:	b9a50513          	addi	a0,a0,-1126 # 8020c610 <__func__.1+0x40>
    80202a7e:	ffffe097          	auipc	ra,0xffffe
    80202a82:	042080e7          	jalr	66(ra) # 80200ac0 <printf>
    initLock(&freeProcessesLock, "freeProcess");
    80202a86:	00281497          	auipc	s1,0x281
    80202a8a:	a2a48493          	addi	s1,s1,-1494 # 804834b0 <currentProcess>
    80202a8e:	0000a597          	auipc	a1,0xa
    80202a92:	b9a58593          	addi	a1,a1,-1126 # 8020c628 <__func__.1+0x58>
    80202a96:	00281517          	auipc	a0,0x281
    80202a9a:	a4250513          	addi	a0,a0,-1470 # 804834d8 <freeProcessesLock>
    80202a9e:	00003097          	auipc	ra,0x3
    80202aa2:	fc6080e7          	jalr	-58(ra) # 80205a64 <initLock>
    initLock(&scheduleListLock, "scheduleList");
    80202aa6:	0000a597          	auipc	a1,0xa
    80202aaa:	b9258593          	addi	a1,a1,-1134 # 8020c638 <__func__.1+0x68>
    80202aae:	00281517          	auipc	a0,0x281
    80202ab2:	a4250513          	addi	a0,a0,-1470 # 804834f0 <scheduleListLock>
    80202ab6:	00003097          	auipc	ra,0x3
    80202aba:	fae080e7          	jalr	-82(ra) # 80205a64 <initLock>
    initLock(&processIdLock, "processId");
    80202abe:	0000a597          	auipc	a1,0xa
    80202ac2:	b8a58593          	addi	a1,a1,-1142 # 8020c648 <__func__.1+0x78>
    80202ac6:	00281517          	auipc	a0,0x281
    80202aca:	a4250513          	addi	a0,a0,-1470 # 80483508 <processIdLock>
    80202ace:	00003097          	auipc	ra,0x3
    80202ad2:	f96080e7          	jalr	-106(ra) # 80205a64 <initLock>
    initLock(&waitLock, "waitProcess");
    80202ad6:	0000a597          	auipc	a1,0xa
    80202ada:	b8258593          	addi	a1,a1,-1150 # 8020c658 <__func__.1+0x88>
    80202ade:	00281517          	auipc	a0,0x281
    80202ae2:	a4250513          	addi	a0,a0,-1470 # 80483520 <waitLock>
    80202ae6:	00003097          	auipc	ra,0x3
    80202aea:	f7e080e7          	jalr	-130(ra) # 80205a64 <initLock>
    initLock(&currentProcessLock, "currentProcess");
    80202aee:	0000a597          	auipc	a1,0xa
    80202af2:	b7a58593          	addi	a1,a1,-1158 # 8020c668 <__func__.1+0x98>
    80202af6:	00281517          	auipc	a0,0x281
    80202afa:	a4250513          	addi	a0,a0,-1470 # 80483538 <currentProcessLock>
    80202afe:	00003097          	auipc	ra,0x3
    80202b02:	f66080e7          	jalr	-154(ra) # 80205a64 <initLock>
    LIST_INIT(&scheduleList[0]);
    80202b06:	0a04b023          	sd	zero,160(s1)
    LIST_INIT(&scheduleList[1]);
    80202b0a:	0a04b423          	sd	zero,168(s1)
        processes[i].trapframe.kernelSatp = MAKE_SATP(kernelPageDirectory);
    80202b0e:	00417597          	auipc	a1,0x417
    80202b12:	4f258593          	addi	a1,a1,1266 # 8061a000 <_pgdir>
    80202b16:	81b1                	srli	a1,a1,0xc
    80202b18:	57fd                	li	a5,-1
    80202b1a:	17fe                	slli	a5,a5,0x3f
    80202b1c:	8ddd                	or	a1,a1,a5
    80202b1e:	003fa797          	auipc	a5,0x3fa
    80202b22:	48a78793          	addi	a5,a5,1162 # 805fcfa8 <processes+0x179a18>
    80202b26:	00281817          	auipc	a6,0x281
    80202b2a:	a6a80813          	addi	a6,a6,-1430 # 80483590 <processes>
    80202b2e:	4681                	li	a3,0
        LIST_INSERT_HEAD(&freeProcesses, &processes[i], link);
    80202b30:	003fb517          	auipc	a0,0x3fb
    80202b34:	a6850513          	addi	a0,a0,-1432 # 805fd598 <freeProcesses>
    80202b38:	a801                	j	80202b48 <processInit+0xdc>
    80202b3a:	14a6bc23          	sd	a0,344(a3)
    for (i = PROCESS_TOTAL_NUMBER - 1; i >= 0; i--) {
    80202b3e:	a1878713          	addi	a4,a5,-1512
    80202b42:	03078063          	beq	a5,a6,80202b62 <processInit+0xf6>
    80202b46:	87ba                	mv	a5,a4
        processes[i].state = UNUSED;
    80202b48:	8736                	mv	a4,a3
    80202b4a:	86be                	mv	a3,a5
    80202b4c:	1807a623          	sw	zero,396(a5)
        processes[i].trapframe.kernelSatp = MAKE_SATP(kernelPageDirectory);
    80202b50:	e38c                	sd	a1,0(a5)
        LIST_INSERT_HEAD(&freeProcesses, &processes[i], link);
    80202b52:	14e7b823          	sd	a4,336(a5)
    80202b56:	d375                	beqz	a4,80202b3a <processInit+0xce>
    80202b58:	15078613          	addi	a2,a5,336
    80202b5c:	14c73c23          	sd	a2,344(a4)
    80202b60:	bfe9                	j	80202b3a <processInit+0xce>
    80202b62:	003fb717          	auipc	a4,0x3fb
    80202b66:	a3670713          	addi	a4,a4,-1482 # 805fd598 <freeProcesses>
    80202b6a:	00281797          	auipc	a5,0x281
    80202b6e:	a2678793          	addi	a5,a5,-1498 # 80483590 <processes>
    80202b72:	e31c                	sd	a5,0(a4)
    80202b74:	14e7bc23          	sd	a4,344(a5)
    w_sscratch((u64)getHartTrapFrame());
    80202b78:	00003097          	auipc	ra,0x3
    80202b7c:	02c080e7          	jalr	44(ra) # 80205ba4 <getHartTrapFrame>
	return x;
}

// Supervisor Scratch register, for early trap handler in trampoline.S.
static inline void w_sscratch(u64 x) {
	asm volatile("csrw sscratch, %0" : : "r" (x));
    80202b80:	14051073          	csrw	sscratch,a0
    printf("Process init finish!\n");
    80202b84:	0000a517          	auipc	a0,0xa
    80202b88:	af450513          	addi	a0,a0,-1292 # 8020c678 <__func__.1+0xa8>
    80202b8c:	ffffe097          	auipc	ra,0xffffe
    80202b90:	f34080e7          	jalr	-204(ra) # 80200ac0 <printf>
}
    80202b94:	60e2                	ld	ra,24(sp)
    80202b96:	6442                	ld	s0,16(sp)
    80202b98:	64a2                	ld	s1,8(sp)
    80202b9a:	6105                	addi	sp,sp,32
    80202b9c:	8082                	ret

0000000080202b9e <generateProcessId>:
u32 generateProcessId(Process *p) {
    80202b9e:	1101                	addi	sp,sp,-32
    80202ba0:	ec06                	sd	ra,24(sp)
    80202ba2:	e822                	sd	s0,16(sp)
    80202ba4:	e426                	sd	s1,8(sp)
    80202ba6:	e04a                	sd	s2,0(sp)
    80202ba8:	1000                	addi	s0,sp,32
    80202baa:	84aa                	mv	s1,a0
    acquireLock(&processIdLock);
    80202bac:	00281917          	auipc	s2,0x281
    80202bb0:	95c90913          	addi	s2,s2,-1700 # 80483508 <processIdLock>
    80202bb4:	854a                	mv	a0,s2
    80202bb6:	00003097          	auipc	ra,0x3
    80202bba:	ef8080e7          	jalr	-264(ra) # 80205aae <acquireLock>
    u32 processId = (++nextId << (1 + LOG_PROCESS_NUM)) | (u32)(p - processes);
    80202bbe:	003fb717          	auipc	a4,0x3fb
    80202bc2:	9d670713          	addi	a4,a4,-1578 # 805fd594 <nextId.3>
    80202bc6:	431c                	lw	a5,0(a4)
    80202bc8:	2785                	addiw	a5,a5,1
    80202bca:	c31c                	sw	a5,0(a4)
    80202bcc:	00281717          	auipc	a4,0x281
    80202bd0:	9c470713          	addi	a4,a4,-1596 # 80483590 <processes>
    80202bd4:	8c99                	sub	s1,s1,a4
    80202bd6:	848d                	srai	s1,s1,0x3
    80202bd8:	0000a717          	auipc	a4,0xa
    80202bdc:	71073703          	ld	a4,1808(a4) # 8020d2e8 <__func__.0+0x18>
    80202be0:	02e484b3          	mul	s1,s1,a4
    80202be4:	00b7979b          	slliw	a5,a5,0xb
    80202be8:	8cdd                	or	s1,s1,a5
    80202bea:	2481                	sext.w	s1,s1
    releaseLock(&processIdLock);
    80202bec:	854a                	mv	a0,s2
    80202bee:	00003097          	auipc	ra,0x3
    80202bf2:	f3c080e7          	jalr	-196(ra) # 80205b2a <releaseLock>
}
    80202bf6:	8526                	mv	a0,s1
    80202bf8:	60e2                	ld	ra,24(sp)
    80202bfa:	6442                	ld	s0,16(sp)
    80202bfc:	64a2                	ld	s1,8(sp)
    80202bfe:	6902                	ld	s2,0(sp)
    80202c00:	6105                	addi	sp,sp,32
    80202c02:	8082                	ret

0000000080202c04 <pid2Process>:
int pid2Process(u32 processId, struct Process **process, int checkPerm) {
    80202c04:	1141                	addi	sp,sp,-16
    80202c06:	e422                	sd	s0,8(sp)
    80202c08:	0800                	addi	s0,sp,16
    asm volatile("mv %0, tp" : "=r" (x) );
    80202c0a:	8792                	mv	a5,tp
    int hartId = r_hartid();
    80202c0c:	0007871b          	sext.w	a4,a5
    if (processId == 0) {
    80202c10:	c921                	beqz	a0,80202c60 <pid2Process+0x5c>
    p = processes + PROCESS_OFFSET(processId);
    80202c12:	3ff57793          	andi	a5,a0,1023
    80202c16:	5e800693          	li	a3,1512
    80202c1a:	02d787b3          	mul	a5,a5,a3
    80202c1e:	00281697          	auipc	a3,0x281
    80202c22:	97268693          	addi	a3,a3,-1678 # 80483590 <processes>
    80202c26:	97b6                	add	a5,a5,a3
    if (p->state == UNUSED || p->id != processId) {
    80202c28:	18c7a683          	lw	a3,396(a5)
    80202c2c:	c6b1                	beqz	a3,80202c78 <pid2Process+0x74>
    80202c2e:	1707a683          	lw	a3,368(a5)
    80202c32:	04a69663          	bne	a3,a0,80202c7e <pid2Process+0x7a>
    return 0;
    80202c36:	8532                	mv	a0,a2
    if (checkPerm) {
    80202c38:	ce05                	beqz	a2,80202c70 <pid2Process+0x6c>
        if (p != currentProcess[hartId] && p->parentId != currentProcess[hartId]->id) {
    80202c3a:	070e                	slli	a4,a4,0x3
    80202c3c:	00281697          	auipc	a3,0x281
    80202c40:	87468693          	addi	a3,a3,-1932 # 804834b0 <currentProcess>
    80202c44:	9736                	add	a4,a4,a3
    80202c46:	6318                	ld	a4,0(a4)
    return 0;
    80202c48:	4501                	li	a0,0
        if (p != currentProcess[hartId] && p->parentId != currentProcess[hartId]->id) {
    80202c4a:	02f70363          	beq	a4,a5,80202c70 <pid2Process+0x6c>
    80202c4e:	1747a683          	lw	a3,372(a5)
    80202c52:	17072703          	lw	a4,368(a4)
    80202c56:	00e68d63          	beq	a3,a4,80202c70 <pid2Process+0x6c>
    80202c5a:	4781                	li	a5,0
            return -INVALID_PERM;
    80202c5c:	5561                	li	a0,-8
    80202c5e:	a809                	j	80202c70 <pid2Process+0x6c>
        *process = currentProcess[hartId];
    80202c60:	00371793          	slli	a5,a4,0x3
    80202c64:	00281717          	auipc	a4,0x281
    80202c68:	84c70713          	addi	a4,a4,-1972 # 804834b0 <currentProcess>
    80202c6c:	97ba                	add	a5,a5,a4
    80202c6e:	639c                	ld	a5,0(a5)
    80202c70:	e19c                	sd	a5,0(a1)
}
    80202c72:	6422                	ld	s0,8(sp)
    80202c74:	0141                	addi	sp,sp,16
    80202c76:	8082                	ret
    80202c78:	4781                	li	a5,0
        return -INVALID_PROCESS_STATUS;
    80202c7a:	5565                	li	a0,-7
    80202c7c:	bfd5                	j	80202c70 <pid2Process+0x6c>
    80202c7e:	4781                	li	a5,0
    80202c80:	5565                	li	a0,-7
    80202c82:	b7fd                	j	80202c70 <pid2Process+0x6c>

0000000080202c84 <setup>:
int setup(Process *p) {
