
ForkTest.b:     file format elf64-littleriscv


Disassembly of section .text:

0000000000a00000 <_text>:
  a00000:	09a000ef          	jal	ra,a0009a <libMain>

0000000000a00004 <userMain>:
  a00004:	1101                	addi	sp,sp,-32
  a00006:	ec06                	sd	ra,24(sp)
  a00008:	e822                	sd	s0,16(sp)
  a0000a:	e426                	sd	s1,8(sp)
  a0000c:	1000                	addi	s0,sp,32
  a0000e:	00001517          	auipc	a0,0x1
  a00012:	00a50513          	addi	a0,a0,10 # a01018 <digits+0x18>
  a00016:	00000097          	auipc	ra,0x0
  a0001a:	52c080e7          	jalr	1324(ra) # a00542 <uPrintf>
  a0001e:	4891                	li	a7,4
  a00020:	00000073          	ecall
  a00024:	0005079b          	sext.w	a5,a0
  a00028:	00001497          	auipc	s1,0x1
  a0002c:	05848493          	addi	s1,s1,88 # a01080 <digits+0x80>
  a00030:	efb1                	bnez	a5,a0008c <userMain+0x88>
  a00032:	4891                	li	a7,4
  a00034:	00000073          	ecall
  a00038:	0005079b          	sext.w	a5,a0
  a0003c:	00001497          	auipc	s1,0x1
  a00040:	02c48493          	addi	s1,s1,44 # a01068 <digits+0x68>
  a00044:	ef8d                	bnez	a5,a0007e <userMain+0x7a>
  a00046:	4891                	li	a7,4
  a00048:	00000073          	ecall
  a0004c:	0005079b          	sext.w	a5,a0
  a00050:	00001497          	auipc	s1,0x1
  a00054:	00048493          	mv	s1,s1
  a00058:	ef81                	bnez	a5,a00070 <userMain+0x6c>
  a0005a:	00001497          	auipc	s1,0x1
  a0005e:	fd648493          	addi	s1,s1,-42 # a01030 <digits+0x30>
  a00062:	459d                	li	a1,7
  a00064:	8526                	mv	a0,s1
  a00066:	00000097          	auipc	ra,0x0
  a0006a:	4dc080e7          	jalr	1244(ra) # a00542 <uPrintf>
  a0006e:	bfd5                	j	a00062 <userMain+0x5e>
  a00070:	458d                	li	a1,3
  a00072:	8526                	mv	a0,s1
  a00074:	00000097          	auipc	ra,0x0
  a00078:	4ce080e7          	jalr	1230(ra) # a00542 <uPrintf>
  a0007c:	bfd5                	j	a00070 <userMain+0x6c>
  a0007e:	4589                	li	a1,2
  a00080:	8526                	mv	a0,s1
  a00082:	00000097          	auipc	ra,0x0
  a00086:	4c0080e7          	jalr	1216(ra) # a00542 <uPrintf>
  a0008a:	bfd5                	j	a0007e <userMain+0x7a>
  a0008c:	4585                	li	a1,1
  a0008e:	8526                	mv	a0,s1
  a00090:	00000097          	auipc	ra,0x0
  a00094:	4b2080e7          	jalr	1202(ra) # a00542 <uPrintf>
  a00098:	bfd5                	j	a0008c <userMain+0x88>

0000000000a0009a <libMain>:
  a0009a:	1141                	addi	sp,sp,-16
  a0009c:	e406                	sd	ra,8(sp)
  a0009e:	e022                	sd	s0,0(sp)
  a000a0:	0800                	addi	s0,sp,16
  a000a2:	00000097          	auipc	ra,0x0
  a000a6:	f62080e7          	jalr	-158(ra) # a00004 <userMain>
  a000aa:	a001                	j	a000aa <libMain+0x10>

0000000000a000ac <uPrint>:
  a000ac:	00054703          	lbu	a4,0(a0)
  a000b0:	48070863          	beqz	a4,a00540 <uPrint+0x494>
  a000b4:	7119                	addi	sp,sp,-128
  a000b6:	fca2                	sd	s0,120(sp)
  a000b8:	f8a6                	sd	s1,112(sp)
  a000ba:	f4ca                	sd	s2,104(sp)
  a000bc:	f0ce                	sd	s3,96(sp)
  a000be:	ecd2                	sd	s4,88(sp)
  a000c0:	e8d6                	sd	s5,80(sp)
  a000c2:	e4da                	sd	s6,72(sp)
  a000c4:	e0de                	sd	s7,64(sp)
  a000c6:	fc62                	sd	s8,56(sp)
  a000c8:	f866                	sd	s9,48(sp)
  a000ca:	f46a                	sd	s10,40(sp)
  a000cc:	f06e                	sd	s11,32(sp)
  a000ce:	0100                	addi	s0,sp,128
  a000d0:	8f2a                	mv	t5,a0
  a000d2:	83ae                	mv	t2,a1
  a000d4:	86aa                	mv	a3,a0
  a000d6:	4301                	li	t1,0
  a000d8:	02500293          	li	t0,37
  a000dc:	06c00a93          	li	s5,108
  a000e0:	07300993          	li	s3,115
  a000e4:	07800b13          	li	s6,120
  a000e8:	4c01                	li	s8,0
  a000ea:	00001f97          	auipc	t6,0x1
  a000ee:	f16f8f93          	addi	t6,t6,-234 # a01000 <digits>
  a000f2:	493d                	li	s2,15
  a000f4:	00003797          	auipc	a5,0x3
  a000f8:	f0c78793          	addi	a5,a5,-244 # a03000 <bufferLen>
  a000fc:	00002617          	auipc	a2,0x2
  a00100:	f0460613          	addi	a2,a2,-252 # a02000 <printfBuffer>
  a00104:	08000813          	li	a6,128
  a00108:	06400a13          	li	s4,100
  a0010c:	4e29                	li	t3,10
  a0010e:	44a5                	li	s1,9
  a00110:	02d00d93          	li	s11,45
  a00114:	4d05                	li	s10,1
  a00116:	4bb5                	li	s7,13
  a00118:	00001c97          	auipc	s9,0x1
  a0011c:	f80c8c93          	addi	s9,s9,-128 # a01098 <digits+0x98>
  a00120:	a03d                	j	a0014e <uPrint+0xa2>
  a00122:	0bc70f63          	beq	a4,t3,a001e0 <uPrint+0x134>
  a00126:	0006c503          	lbu	a0,0(a3)
  a0012a:	4398                	lw	a4,0(a5)
  a0012c:	0017069b          	addiw	a3,a4,1
  a00130:	0006859b          	sext.w	a1,a3
  a00134:	c394                	sw	a3,0(a5)
  a00136:	9732                	add	a4,a4,a2
  a00138:	00a70023          	sb	a0,0(a4)
  a0013c:	0d058963          	beq	a1,a6,a0020e <uPrint+0x162>
  a00140:	2305                	addiw	t1,t1,1
  a00142:	006f06b3          	add	a3,t5,t1
  a00146:	0006c703          	lbu	a4,0(a3)
  a0014a:	3c070d63          	beqz	a4,a00524 <uPrint+0x478>
  a0014e:	fc571ae3          	bne	a4,t0,a00122 <uPrint+0x76>
  a00152:	00130e9b          	addiw	t4,t1,1
  a00156:	01df0733          	add	a4,t5,t4
  a0015a:	00074703          	lbu	a4,0(a4)
  a0015e:	0007069b          	sext.w	a3,a4
  a00162:	0b568e63          	beq	a3,s5,a0021e <uPrint+0x172>
  a00166:	29370b63          	beq	a4,s3,a003fc <uPrint+0x350>
  a0016a:	36e9e663          	bltu	s3,a4,a004d6 <uPrint+0x42a>
  a0016e:	10570d63          	beq	a4,t0,a00288 <uPrint+0x1dc>
  a00172:	31471c63          	bne	a4,s4,a0048a <uPrint+0x3de>
  a00176:	00838693          	addi	a3,t2,8
  a0017a:	0003a703          	lw	a4,0(t2)
  a0017e:	83ba                	mv	t2,a4
  a00180:	43f75593          	srai	a1,a4,0x3f
  a00184:	8f2d                	xor	a4,a4,a1
  a00186:	8f0d                	sub	a4,a4,a1
  a00188:	f8040893          	addi	a7,s0,-128
  a0018c:	85e2                	mv	a1,s8
  a0018e:	832e                	mv	t1,a1
  a00190:	2585                	addiw	a1,a1,1
  a00192:	03c77533          	remu	a0,a4,t3
  a00196:	957e                	add	a0,a0,t6
  a00198:	00054503          	lbu	a0,0(a0)
  a0019c:	00a88023          	sb	a0,0(a7)
  a001a0:	853a                	mv	a0,a4
  a001a2:	03c75733          	divu	a4,a4,t3
  a001a6:	0885                	addi	a7,a7,1
  a001a8:	fea4e3e3          	bltu	s1,a0,a0018e <uPrint+0xe2>
  a001ac:	0003da63          	bgez	t2,a001c0 <uPrint+0x114>
  a001b0:	fa058713          	addi	a4,a1,-96
  a001b4:	008705b3          	add	a1,a4,s0
  a001b8:	ffb58023          	sb	s11,-32(a1)
  a001bc:	0023059b          	addiw	a1,t1,2
  a001c0:	1cb05263          	blez	a1,a00384 <uPrint+0x2d8>
  a001c4:	f8040713          	addi	a4,s0,-128
  a001c8:	00b70333          	add	t1,a4,a1
  a001cc:	f7f40713          	addi	a4,s0,-129
  a001d0:	00b703b3          	add	t2,a4,a1
  a001d4:	35fd                	addiw	a1,a1,-1
  a001d6:	1582                	slli	a1,a1,0x20
  a001d8:	9181                	srli	a1,a1,0x20
  a001da:	40b383b3          	sub	t2,t2,a1
  a001de:	a261                	j	a00366 <uPrint+0x2ba>
  a001e0:	4398                	lw	a4,0(a5)
  a001e2:	0017059b          	addiw	a1,a4,1
  a001e6:	0005851b          	sext.w	a0,a1
  a001ea:	c38c                	sw	a1,0(a5)
  a001ec:	9732                	add	a4,a4,a2
  a001ee:	01770023          	sb	s7,0(a4)
  a001f2:	f3051ae3          	bne	a0,a6,a00126 <uPrint+0x7a>
  a001f6:	8532                	mv	a0,a2
  a001f8:	85c2                	mv	a1,a6
  a001fa:	4895                	li	a7,5
  a001fc:	00000073          	ecall
  a00200:	0006c703          	lbu	a4,0(a3)
  a00204:	01a7a023          	sw	s10,0(a5)
  a00208:	00e60023          	sb	a4,0(a2)
  a0020c:	bf15                	j	a00140 <uPrint+0x94>
  a0020e:	8532                	mv	a0,a2
  a00210:	85c2                	mv	a1,a6
  a00212:	4895                	li	a7,5
  a00214:	00000073          	ecall
  a00218:	0007a023          	sw	zero,0(a5)
  a0021c:	b715                	j	a00140 <uPrint+0x94>
  a0021e:	00230e9b          	addiw	t4,t1,2
  a00222:	01df0733          	add	a4,t5,t4
  a00226:	00074683          	lbu	a3,0(a4)
  a0022a:	09468363          	beq	a3,s4,a002b0 <uPrint+0x204>
  a0022e:	04da7b63          	bgeu	s4,a3,a00284 <uPrint+0x1d8>
  a00232:	1d368263          	beq	a3,s3,a003f6 <uPrint+0x34a>
  a00236:	25669963          	bne	a3,s6,a00488 <uPrint+0x3dc>
  a0023a:	00838693          	addi	a3,t2,8
  a0023e:	0003b583          	ld	a1,0(t2)
  a00242:	f8040313          	addi	t1,s0,-128
  a00246:	8562                	mv	a0,s8
  a00248:	88aa                	mv	a7,a0
  a0024a:	2505                	addiw	a0,a0,1
  a0024c:	00f5f713          	andi	a4,a1,15
  a00250:	977e                	add	a4,a4,t6
  a00252:	00074703          	lbu	a4,0(a4)
  a00256:	00e30023          	sb	a4,0(t1)
  a0025a:	872e                	mv	a4,a1
  a0025c:	8191                	srli	a1,a1,0x4
  a0025e:	0305                	addi	t1,t1,1
  a00260:	fee964e3          	bltu	s2,a4,a00248 <uPrint+0x19c>
  a00264:	1408cc63          	bltz	a7,a003bc <uPrint+0x310>
  a00268:	f8040713          	addi	a4,s0,-128
  a0026c:	01170333          	add	t1,a4,a7
  a00270:	f7f40713          	addi	a4,s0,-129
  a00274:	011703b3          	add	t2,a4,a7
  a00278:	1882                	slli	a7,a7,0x20
  a0027a:	0208d893          	srli	a7,a7,0x20
  a0027e:	411383b3          	sub	t2,t2,a7
  a00282:	aa31                	j	a0039e <uPrint+0x2f2>
  a00284:	20569263          	bne	a3,t0,a00488 <uPrint+0x3dc>
  a00288:	4398                	lw	a4,0(a5)
  a0028a:	0017069b          	addiw	a3,a4,1
  a0028e:	0006859b          	sext.w	a1,a3
  a00292:	c394                	sw	a3,0(a5)
  a00294:	9732                	add	a4,a4,a2
  a00296:	00570023          	sb	t0,0(a4)
  a0029a:	8376                	mv	t1,t4
  a0029c:	eb0592e3          	bne	a1,a6,a00140 <uPrint+0x94>
  a002a0:	8532                	mv	a0,a2
  a002a2:	85c2                	mv	a1,a6
  a002a4:	4895                	li	a7,5
  a002a6:	00000073          	ecall
  a002aa:	0007a023          	sw	zero,0(a5)
  a002ae:	bd49                	j	a00140 <uPrint+0x94>
  a002b0:	00838313          	addi	t1,t2,8
  a002b4:	0003b383          	ld	t2,0(t2)
  a002b8:	43f3d693          	srai	a3,t2,0x3f
  a002bc:	0076c733          	xor	a4,a3,t2
  a002c0:	8f15                	sub	a4,a4,a3
  a002c2:	f8040513          	addi	a0,s0,-128
  a002c6:	85e2                	mv	a1,s8
  a002c8:	88ae                	mv	a7,a1
  a002ca:	2585                	addiw	a1,a1,1
  a002cc:	03c776b3          	remu	a3,a4,t3
  a002d0:	96fe                	add	a3,a3,t6
  a002d2:	0006c683          	lbu	a3,0(a3)
  a002d6:	00d50023          	sb	a3,0(a0)
  a002da:	86ba                	mv	a3,a4
  a002dc:	03c75733          	divu	a4,a4,t3
  a002e0:	0505                	addi	a0,a0,1
  a002e2:	fed4e3e3          	bltu	s1,a3,a002c8 <uPrint+0x21c>
  a002e6:	0003da63          	bgez	t2,a002fa <uPrint+0x24e>
  a002ea:	fa058713          	addi	a4,a1,-96
  a002ee:	008705b3          	add	a1,a4,s0
  a002f2:	ffb58023          	sb	s11,-32(a1)
  a002f6:	0028859b          	addiw	a1,a7,2
  a002fa:	04b05963          	blez	a1,a0034c <uPrint+0x2a0>
  a002fe:	f8040713          	addi	a4,s0,-128
  a00302:	00b706b3          	add	a3,a4,a1
  a00306:	f7f40713          	addi	a4,s0,-129
  a0030a:	00b703b3          	add	t2,a4,a1
  a0030e:	35fd                	addiw	a1,a1,-1
  a00310:	1582                	slli	a1,a1,0x20
  a00312:	9181                	srli	a1,a1,0x20
  a00314:	40b383b3          	sub	t2,t2,a1
  a00318:	a819                	j	a0032e <uPrint+0x282>
  a0031a:	8532                	mv	a0,a2
  a0031c:	85c2                	mv	a1,a6
  a0031e:	4895                	li	a7,5
  a00320:	00000073          	ecall
  a00324:	0007a023          	sw	zero,0(a5)
  a00328:	16fd                	addi	a3,a3,-1
  a0032a:	02d38163          	beq	t2,a3,a0034c <uPrint+0x2a0>
  a0032e:	fff6c503          	lbu	a0,-1(a3)
  a00332:	4398                	lw	a4,0(a5)
  a00334:	0017089b          	addiw	a7,a4,1
  a00338:	0008859b          	sext.w	a1,a7
  a0033c:	0117a023          	sw	a7,0(a5)
  a00340:	9732                	add	a4,a4,a2
  a00342:	00a70023          	sb	a0,0(a4)
  a00346:	ff0591e3          	bne	a1,a6,a00328 <uPrint+0x27c>
  a0034a:	bfc1                	j	a0031a <uPrint+0x26e>
  a0034c:	839a                	mv	t2,t1
  a0034e:	8376                	mv	t1,t4
  a00350:	bbc5                	j	a00140 <uPrint+0x94>
  a00352:	8532                	mv	a0,a2
  a00354:	85c2                	mv	a1,a6
  a00356:	4895                	li	a7,5
  a00358:	00000073          	ecall
  a0035c:	0007a023          	sw	zero,0(a5)
  a00360:	137d                	addi	t1,t1,-1
  a00362:	02730163          	beq	t1,t2,a00384 <uPrint+0x2d8>
  a00366:	fff34503          	lbu	a0,-1(t1)
  a0036a:	4398                	lw	a4,0(a5)
  a0036c:	0017089b          	addiw	a7,a4,1
  a00370:	0008859b          	sext.w	a1,a7
  a00374:	0117a023          	sw	a7,0(a5)
  a00378:	9732                	add	a4,a4,a2
  a0037a:	00a70023          	sb	a0,0(a4)
  a0037e:	ff0591e3          	bne	a1,a6,a00360 <uPrint+0x2b4>
  a00382:	bfc1                	j	a00352 <uPrint+0x2a6>
  a00384:	83b6                	mv	t2,a3
  a00386:	8376                	mv	t1,t4
  a00388:	bb65                	j	a00140 <uPrint+0x94>
  a0038a:	8532                	mv	a0,a2
  a0038c:	85c2                	mv	a1,a6
  a0038e:	4895                	li	a7,5
  a00390:	00000073          	ecall
  a00394:	0007a023          	sw	zero,0(a5)
  a00398:	137d                	addi	t1,t1,-1
  a0039a:	02638163          	beq	t2,t1,a003bc <uPrint+0x310>
  a0039e:	00034503          	lbu	a0,0(t1)
  a003a2:	4398                	lw	a4,0(a5)
  a003a4:	0017089b          	addiw	a7,a4,1
  a003a8:	0008859b          	sext.w	a1,a7
  a003ac:	0117a023          	sw	a7,0(a5)
  a003b0:	9732                	add	a4,a4,a2
  a003b2:	00a70023          	sb	a0,0(a4)
  a003b6:	ff0591e3          	bne	a1,a6,a00398 <uPrint+0x2ec>
  a003ba:	bfc1                	j	a0038a <uPrint+0x2de>
  a003bc:	8376                	mv	t1,t4
  a003be:	a089                	j	a00400 <uPrint+0x354>
  a003c0:	8532                	mv	a0,a2
  a003c2:	85c2                	mv	a1,a6
  a003c4:	4895                	li	a7,5
  a003c6:	00000073          	ecall
  a003ca:	0007a023          	sw	zero,0(a5)
  a003ce:	137d                	addi	t1,t1,-1
  a003d0:	02730163          	beq	t1,t2,a003f2 <uPrint+0x346>
  a003d4:	00034503          	lbu	a0,0(t1)
  a003d8:	4398                	lw	a4,0(a5)
  a003da:	0017089b          	addiw	a7,a4,1
  a003de:	0008859b          	sext.w	a1,a7
  a003e2:	0117a023          	sw	a7,0(a5)
  a003e6:	9732                	add	a4,a4,a2
  a003e8:	00a70023          	sb	a0,0(a4)
  a003ec:	ff0591e3          	bne	a1,a6,a003ce <uPrint+0x322>
  a003f0:	bfc1                	j	a003c0 <uPrint+0x314>
  a003f2:	8376                	mv	t1,t4
  a003f4:	a031                	j	a00400 <uPrint+0x354>
  a003f6:	8376                	mv	t1,t4
  a003f8:	869e                	mv	a3,t2
  a003fa:	a019                	j	a00400 <uPrint+0x354>
  a003fc:	8376                	mv	t1,t4
  a003fe:	869e                	mv	a3,t2
  a00400:	00868393          	addi	t2,a3,8
  a00404:	6294                	ld	a3,0(a3)
  a00406:	c699                	beqz	a3,a00414 <uPrint+0x368>
  a00408:	0006c703          	lbu	a4,0(a3)
  a0040c:	d2070ae3          	beqz	a4,a00140 <uPrint+0x94>
  a00410:	0685                	addi	a3,a3,1
  a00412:	a80d                	j	a00444 <uPrint+0x398>
  a00414:	86e6                	mv	a3,s9
  a00416:	02800713          	li	a4,40
  a0041a:	bfdd                	j	a00410 <uPrint+0x364>
  a0041c:	8eb6                	mv	t4,a3
  a0041e:	fff6c503          	lbu	a0,-1(a3)
  a00422:	4398                	lw	a4,0(a5)
  a00424:	0017089b          	addiw	a7,a4,1
  a00428:	0008859b          	sext.w	a1,a7
  a0042c:	0117a023          	sw	a7,0(a5)
  a00430:	9732                	add	a4,a4,a2
  a00432:	00a70023          	sb	a0,0(a4)
  a00436:	05058163          	beq	a1,a6,a00478 <uPrint+0x3cc>
  a0043a:	000ec703          	lbu	a4,0(t4)
  a0043e:	0685                	addi	a3,a3,1
  a00440:	d00700e3          	beqz	a4,a00140 <uPrint+0x94>
  a00444:	fdc71ce3          	bne	a4,t3,a0041c <uPrint+0x370>
  a00448:	4398                	lw	a4,0(a5)
  a0044a:	0017059b          	addiw	a1,a4,1
  a0044e:	0005851b          	sext.w	a0,a1
  a00452:	c38c                	sw	a1,0(a5)
  a00454:	9732                	add	a4,a4,a2
  a00456:	01770023          	sb	s7,0(a4)
  a0045a:	fd0511e3          	bne	a0,a6,a0041c <uPrint+0x370>
  a0045e:	8532                	mv	a0,a2
  a00460:	85c2                	mv	a1,a6
  a00462:	4895                	li	a7,5
  a00464:	00000073          	ecall
  a00468:	8eb6                	mv	t4,a3
  a0046a:	fff6c703          	lbu	a4,-1(a3)
  a0046e:	01a7a023          	sw	s10,0(a5)
  a00472:	00e60023          	sb	a4,0(a2)
  a00476:	b7d1                	j	a0043a <uPrint+0x38e>
  a00478:	8532                	mv	a0,a2
  a0047a:	85c2                	mv	a1,a6
  a0047c:	4895                	li	a7,5
  a0047e:	00000073          	ecall
  a00482:	0007a023          	sw	zero,0(a5)
  a00486:	bf55                	j	a0043a <uPrint+0x38e>
  a00488:	2681                	sext.w	a3,a3
  a0048a:	4398                	lw	a4,0(a5)
  a0048c:	0017059b          	addiw	a1,a4,1
  a00490:	00e60533          	add	a0,a2,a4
  a00494:	00550023          	sb	t0,0(a0)
  a00498:	03058463          	beq	a1,a6,a004c0 <uPrint+0x414>
  a0049c:	2709                	addiw	a4,a4,2
  a0049e:	0007051b          	sext.w	a0,a4
  a004a2:	c398                	sw	a4,0(a5)
  a004a4:	95b2                	add	a1,a1,a2
  a004a6:	00d58023          	sb	a3,0(a1)
  a004aa:	8376                	mv	t1,t4
  a004ac:	c9051ae3          	bne	a0,a6,a00140 <uPrint+0x94>
  a004b0:	8532                	mv	a0,a2
  a004b2:	85c2                	mv	a1,a6
  a004b4:	4895                	li	a7,5
  a004b6:	00000073          	ecall
  a004ba:	0007a023          	sw	zero,0(a5)
  a004be:	b149                	j	a00140 <uPrint+0x94>
  a004c0:	8532                	mv	a0,a2
  a004c2:	85c2                	mv	a1,a6
  a004c4:	4895                	li	a7,5
  a004c6:	00000073          	ecall
  a004ca:	01a7a023          	sw	s10,0(a5)
  a004ce:	00d60023          	sb	a3,0(a2)
  a004d2:	8376                	mv	t1,t4
  a004d4:	b1b5                	j	a00140 <uPrint+0x94>
  a004d6:	fb671ae3          	bne	a4,s6,a0048a <uPrint+0x3de>
  a004da:	00838693          	addi	a3,t2,8
  a004de:	0003e583          	lwu	a1,0(t2)
  a004e2:	f8040313          	addi	t1,s0,-128
  a004e6:	8562                	mv	a0,s8
  a004e8:	88aa                	mv	a7,a0
  a004ea:	2505                	addiw	a0,a0,1
  a004ec:	00f5f713          	andi	a4,a1,15
  a004f0:	977e                	add	a4,a4,t6
  a004f2:	00074703          	lbu	a4,0(a4)
  a004f6:	00e30023          	sb	a4,0(t1)
  a004fa:	872e                	mv	a4,a1
  a004fc:	8191                	srli	a1,a1,0x4
  a004fe:	0305                	addi	t1,t1,1
  a00500:	fee964e3          	bltu	s2,a4,a004e8 <uPrint+0x43c>
  a00504:	ee08c7e3          	bltz	a7,a003f2 <uPrint+0x346>
  a00508:	f8040713          	addi	a4,s0,-128
  a0050c:	01170333          	add	t1,a4,a7
  a00510:	f7f40713          	addi	a4,s0,-129
  a00514:	011703b3          	add	t2,a4,a7
  a00518:	1882                	slli	a7,a7,0x20
  a0051a:	0208d893          	srli	a7,a7,0x20
  a0051e:	411383b3          	sub	t2,t2,a7
  a00522:	bd4d                	j	a003d4 <uPrint+0x328>
  a00524:	7466                	ld	s0,120(sp)
  a00526:	74c6                	ld	s1,112(sp)
  a00528:	7926                	ld	s2,104(sp)
  a0052a:	7986                	ld	s3,96(sp)
  a0052c:	6a66                	ld	s4,88(sp)
  a0052e:	6ac6                	ld	s5,80(sp)
  a00530:	6b26                	ld	s6,72(sp)
  a00532:	6b86                	ld	s7,64(sp)
  a00534:	7c62                	ld	s8,56(sp)
  a00536:	7cc2                	ld	s9,48(sp)
  a00538:	7d22                	ld	s10,40(sp)
  a0053a:	7d82                	ld	s11,32(sp)
  a0053c:	6109                	addi	sp,sp,128
  a0053e:	8082                	ret
  a00540:	8082                	ret

0000000000a00542 <uPrintf>:
  a00542:	711d                	addi	sp,sp,-96
  a00544:	ec06                	sd	ra,24(sp)
  a00546:	e822                	sd	s0,16(sp)
  a00548:	1000                	addi	s0,sp,32
  a0054a:	e40c                	sd	a1,8(s0)
  a0054c:	e810                	sd	a2,16(s0)
  a0054e:	ec14                	sd	a3,24(s0)
  a00550:	f018                	sd	a4,32(s0)
  a00552:	f41c                	sd	a5,40(s0)
  a00554:	03043823          	sd	a6,48(s0)
  a00558:	03143c23          	sd	a7,56(s0)
  a0055c:	00840593          	addi	a1,s0,8
  a00560:	feb43423          	sd	a1,-24(s0)
  a00564:	00000097          	auipc	ra,0x0
  a00568:	b48080e7          	jalr	-1208(ra) # a000ac <uPrint>
  a0056c:	00003597          	auipc	a1,0x3
  a00570:	a945a583          	lw	a1,-1388(a1) # a03000 <bufferLen>
  a00574:	00b05d63          	blez	a1,a0058e <uPrintf+0x4c>
  a00578:	00002517          	auipc	a0,0x2
  a0057c:	a8850513          	addi	a0,a0,-1400 # a02000 <printfBuffer>
  a00580:	4895                	li	a7,5
  a00582:	00000073          	ecall
  a00586:	00003797          	auipc	a5,0x3
  a0058a:	a607ad23          	sw	zero,-1414(a5) # a03000 <bufferLen>
  a0058e:	60e2                	ld	ra,24(sp)
  a00590:	6442                	ld	s0,16(sp)
  a00592:	6125                	addi	sp,sp,96
  a00594:	8082                	ret

0000000000a00596 <_uPanic_>:
  a00596:	711d                	addi	sp,sp,-96
  a00598:	f406                	sd	ra,40(sp)
  a0059a:	f022                	sd	s0,32(sp)
  a0059c:	ec26                	sd	s1,24(sp)
  a0059e:	1800                	addi	s0,sp,48
  a005a0:	84b2                	mv	s1,a2
  a005a2:	e414                	sd	a3,8(s0)
  a005a4:	e818                	sd	a4,16(s0)
  a005a6:	ec1c                	sd	a5,24(s0)
  a005a8:	03043023          	sd	a6,32(s0)
  a005ac:	03143423          	sd	a7,40(s0)
  a005b0:	862e                	mv	a2,a1
  a005b2:	85aa                	mv	a1,a0
  a005b4:	00001517          	auipc	a0,0x1
  a005b8:	aec50513          	addi	a0,a0,-1300 # a010a0 <digits+0xa0>
  a005bc:	00000097          	auipc	ra,0x0
  a005c0:	f86080e7          	jalr	-122(ra) # a00542 <uPrintf>
  a005c4:	00840593          	addi	a1,s0,8
  a005c8:	fcb43c23          	sd	a1,-40(s0)
  a005cc:	8526                	mv	a0,s1
  a005ce:	00000097          	auipc	ra,0x0
  a005d2:	ade080e7          	jalr	-1314(ra) # a000ac <uPrint>
  a005d6:	4529                	li	a0,10
  a005d8:	4881                	li	a7,0
  a005da:	00000073          	ecall
  a005de:	a001                	j	a005de <_uPanic_+0x48>

Disassembly of section .data:

0000000000a01000 <digits>:
  a01000:	3130                	fld	fa2,96(a0)
  a01002:	3332                	fld	ft6,296(sp)
  a01004:	3534                	fld	fa3,104(a0)
  a01006:	3736                	fld	fa4,360(sp)
  a01008:	3938                	fld	fa4,112(a0)
  a0100a:	6261                	lui	tp,0x18
  a0100c:	66656463          	bltu	a0,t1,a01674 <digits+0x674>
	...
  a01018:	72617473          	csrrci	s0,0x726,2
  a0101c:	2074                	fld	fa3,192(s0)
  a0101e:	6f66                	ld	t5,88(sp)
  a01020:	6b72                	ld	s6,280(sp)
  a01022:	7420                	ld	s0,104(s0)
  a01024:	7365                	lui	t1,0xffff9
  a01026:	2e74                	fld	fa3,216(a2)
  a01028:	2e2e                	fld	ft8,200(sp)
  a0102a:	0a2e                	slli	s4,s4,0xb
  a0102c:	0000                	unimp
  a0102e:	0000                	unimp
  a01030:	2020                	fld	fs0,64(s0)
  a01032:	7420                	ld	s0,104(s0)
  a01034:	6968                	ld	a0,208(a0)
  a01036:	73692073          	csrs	0x736,s2
  a0103a:	6320                	ld	s0,64(a4)
  a0103c:	6968                	ld	a0,208(a0)
  a0103e:	646c                	ld	a1,200(s0)
  a01040:	613a2033          	0x613a2033
  a01044:	253a                	fld	fa0,392(sp)
  a01046:	0a64                	addi	s1,sp,284
	...
  a01050:	2020                	fld	fs0,64(s0)
  a01052:	6874                	ld	a3,208(s0)
  a01054:	7369                	lui	t1,0xffffa
  a01056:	6920                	ld	s0,80(a0)
  a01058:	68632073          	csrs	0x686,t1
  a0105c:	6c69                	lui	s8,0x1a
  a0105e:	3264                	fld	fs1,224(a2)
  a01060:	3a20                	fld	fs0,112(a2)
  a01062:	3a61                	addiw	s4,s4,-8
  a01064:	6425                	lui	s0,0x9
  a01066:	000a                	c.slli	zero,0x2
  a01068:	7420                	ld	s0,104(s0)
  a0106a:	6968                	ld	a0,208(a0)
  a0106c:	73692073          	csrs	0x736,s2
  a01070:	6320                	ld	s0,64(a4)
  a01072:	6968                	ld	a0,208(a0)
  a01074:	646c                	ld	a1,200(s0)
  a01076:	3a20                	fld	fs0,112(a2)
  a01078:	3a61                	addiw	s4,s4,-8
  a0107a:	6425                	lui	s0,0x9
  a0107c:	000a                	c.slli	zero,0x2
  a0107e:	0000                	unimp
  a01080:	6874                	ld	a3,208(s0)
  a01082:	7369                	lui	t1,0xffffa
  a01084:	6920                	ld	s0,80(a0)
  a01086:	61662073          	csrs	0x616,a2
  a0108a:	6874                	ld	a3,208(s0)
  a0108c:	7265                	lui	tp,0xffff9
  a0108e:	203a                	fld	ft0,392(sp)
  a01090:	3a61                	addiw	s4,s4,-8
  a01092:	6425                	lui	s0,0x9
  a01094:	000a                	c.slli	zero,0x2
  a01096:	0000                	unimp
  a01098:	6e28                	ld	a0,88(a2)
  a0109a:	6c75                	lui	s8,0x1d
  a0109c:	296c                	fld	fa1,208(a0)
  a0109e:	0000                	unimp
  a010a0:	7375                	lui	t1,0xffffd
  a010a2:	7265                	lui	tp,0xffff9
  a010a4:	7020                	ld	s0,96(s0)
  a010a6:	6e61                	lui	t3,0x18
  a010a8:	6369                	lui	t1,0x1a
  a010aa:	6120                	ld	s0,64(a0)
  a010ac:	2074                	fld	fa3,192(s0)
  a010ae:	7325                	lui	t1,0xfffe9
  a010b0:	203a                	fld	ft0,392(sp)
  a010b2:	6425                	lui	s0,0x9
  a010b4:	203a                	fld	ft0,392(sp)
	...

Disassembly of section .bss:

0000000000a02000 <printfBuffer>:
	...

Disassembly of section .sbss:

0000000000a03000 <bufferLen>:
  a03000:	0000                	unimp
	...

Disassembly of section .riscv.attributes:

0000000000000000 <.riscv.attributes>:
   0:	3441                	addiw	s0,s0,-16
   2:	0000                	unimp
   4:	7200                	ld	s0,32(a2)
   6:	7369                	lui	t1,0xffffa
   8:	01007663          	bgeu	zero,a6,14 <_text-0x9fffec>
   c:	002a                	c.slli	zero,0xa
   e:	0000                	unimp
  10:	1004                	addi	s1,sp,32
  12:	7205                	lui	tp,0xfffe1
  14:	3676                	fld	fa2,376(sp)
  16:	6934                	ld	a3,80(a0)
  18:	7032                	0x7032
  1a:	5f30                	lw	a2,120(a4)
  1c:	326d                	addiw	tp,tp,-5
  1e:	3070                	fld	fa2,224(s0)
  20:	615f 7032 5f30      	0x5f307032615f
  26:	3266                	fld	ft4,120(sp)
  28:	3070                	fld	fa2,224(s0)
  2a:	645f 7032 5f30      	0x5f307032645f
  30:	30703263          	0x30703263
	...

Disassembly of section .comment:

0000000000000000 <.comment>:
   0:	3a434347          	fmsub.d	ft6,ft6,ft4,ft7,rmm
   4:	2820                	fld	fs0,80(s0)
   6:	29554e47          	fmsub.s	ft8,fa0,fs5,ft5,rmm
   a:	3120                	fld	fs0,96(a0)
   c:	2e31                	addiw	t3,t3,12
   e:	2e31                	addiw	t3,t3,12
  10:	0030                	addi	a2,sp,8

Disassembly of section .debug_line:

0000000000000000 <.debug_line>:
       0:	0044                	addi	s1,sp,4
       2:	0000                	unimp
       4:	0005                	c.nop	1
       6:	0008                	0x8
       8:	002a                	c.slli	zero,0xa
       a:	0000                	unimp
       c:	0101                	addi	sp,sp,0
       e:	fb01                	bnez	a4,ffffffffffffff1e <bufferLen+0xffffffffff5fcf1e>
      10:	0d0e                	slli	s10,s10,0x3
      12:	0100                	addi	s0,sp,128
      14:	0101                	addi	sp,sp,0
      16:	0001                	nop
      18:	0000                	unimp
      1a:	0001                	nop
      1c:	0100                	addi	s0,sp,128
      1e:	0101                	addi	sp,sp,0
      20:	011f 0000 0000      	0x11f
      26:	0102                	c.slli64	sp
      28:	021f 020f 0040      	0x40020f021f
      2e:	0000                	unimp
      30:	4000                	lw	s0,0(s0)
      32:	0000                	unimp
      34:	0000                	unimp
      36:	0900                	addi	s0,sp,144
      38:	0002                	c.slli64	zero
      3a:	a000                	fsd	fs0,0(s0)
      3c:	0000                	unimp
      3e:	0000                	unimp
      40:	1500                	addi	s0,sp,672
      42:	0409                	addi	s0,s0,2
      44:	0000                	unimp
      46:	0101                	addi	sp,sp,0
      48:	00000203          	lb	tp,0(zero) # 0 <_text-0xa00000>
      4c:	0005                	c.nop	1
      4e:	0008                	0x8
      50:	003d                	c.nop	15
      52:	0000                	unimp
      54:	0101                	addi	sp,sp,0
      56:	fb01                	bnez	a4,ffffffffffffff66 <bufferLen+0xffffffffff5fcf66>
      58:	0d0e                	slli	s10,s10,0x3
      5a:	0100                	addi	s0,sp,128
      5c:	0101                	addi	sp,sp,0
      5e:	0001                	nop
      60:	0000                	unimp
      62:	0001                	nop
      64:	0100                	addi	s0,sp,128
      66:	0101                	addi	sp,sp,0
      68:	021f 0000 0000      	0x21f
      6e:	008e                	slli	ra,ra,0x3
      70:	0000                	unimp
      72:	0102                	c.slli64	sp
      74:	021f 050f 0048      	0x48050f021f
      7a:	0000                	unimp
      7c:	4800                	lw	s0,16(s0)
      7e:	0000                	unimp
      80:	0000                	unimp
      82:	00000053          	fadd.s	ft0,ft0,ft0,rne
      86:	5a01                	li	s4,-32
      88:	0000                	unimp
      8a:	0100                	addi	s0,sp,128
      8c:	0064                	addi	s1,sp,12
      8e:	0000                	unimp
      90:	0501                	addi	a0,a0,0
      92:	0015                	c.nop	5
      94:	0209                	addi	tp,tp,2
      96:	0004                	0x4
      98:	00a0                	addi	s0,sp,72
      9a:	0000                	unimp
      9c:	0000                	unimp
      9e:	0516                	slli	a0,a0,0x5
      a0:	0305                	addi	t1,t1,1
      a2:	0901                	addi	s2,s2,0
      a4:	000a                	c.slli	zero,0x2
      a6:	0301                	addi	t1,t1,0
      a8:	0901                	addi	s2,s2,0
      aa:	0010                	0x10
      ac:	0301                	addi	t1,t1,0
      ae:	0901                	addi	s2,s2,0
      b0:	0000                	unimp
      b2:	0301                	addi	t1,t1,0
      b4:	0901                	addi	s2,s2,0
      b6:	0000                	unimp
      b8:	0401                	addi	s0,s0,0
      ba:	0302                	c.slli64	t1
      bc:	097e                	slli	s2,s2,0x1f
      be:	0000                	unimp
      c0:	0401                	addi	s0,s0,0
      c2:	09070303          	lb	t1,144(a4)
      c6:	0000                	unimp
      c8:	0501                	addi	a0,a0,0
      ca:	00030613          	mv	a2,t1
      ce:	0009                	c.nop	2
      d0:	0100                	addi	s0,sp,128
      d2:	0505                	addi	a0,a0,1
      d4:	0306                	slli	t1,t1,0x1
      d6:	0901                	addi	s2,s2,0
      d8:	0002                	c.slli64	zero
      da:	0301                	addi	t1,t1,0
      dc:	0901                	addi	s2,s2,0
      de:	0000                	unimp
      e0:	0301                	addi	t1,t1,0
      e2:	0901                	addi	s2,s2,0
      e4:	0004                	0x4
      e6:	0401                	addi	s0,s0,0
      e8:	0501                	addi	a0,a0,0
      ea:	0608                	addi	a0,sp,768
      ec:	00097803          	0x97803
      f0:	0100                	addi	s0,sp,128
      f2:	0905                	addi	s2,s2,1
      f4:	04091403          	lh	s0,64(s2)
      f8:	0100                	addi	s0,sp,128
      fa:	0805                	addi	a6,a6,1
      fc:	08096c03          	lwu	s8,128(s2)
     100:	0100                	addi	s0,sp,128
     102:	0905                	addi	s2,s2,1
     104:	0306                	slli	t1,t1,0x1
     106:	0901                	addi	s2,s2,0
     108:	0002                	c.slli64	zero
     10a:	0401                	addi	s0,s0,0
     10c:	0502                	c.slli64	a0
     10e:	0305                	addi	t1,t1,1
     110:	097d                	addi	s2,s2,31
     112:	0000                	unimp
     114:	0401                	addi	s0,s0,0
     116:	09070303          	lb	t1,144(a4)
     11a:	0000                	unimp
     11c:	0501                	addi	a0,a0,0
     11e:	00030613          	mv	a2,t1
     122:	0009                	c.nop	2
     124:	0100                	addi	s0,sp,128
     126:	0505                	addi	a0,a0,1
     128:	0306                	slli	t1,t1,0x1
     12a:	0901                	addi	s2,s2,0
     12c:	0002                	c.slli64	zero
     12e:	0301                	addi	t1,t1,0
     130:	0901                	addi	s2,s2,0
     132:	0000                	unimp
     134:	0301                	addi	t1,t1,0
     136:	0901                	addi	s2,s2,0
     138:	0004                	0x4
     13a:	0401                	addi	s0,s0,0
     13c:	0501                	addi	a0,a0,0
     13e:	060c                	addi	a1,sp,768
     140:	00097903          	0x97903
     144:	0100                	addi	s0,sp,128
     146:	0d05                	addi	s10,s10,1
     148:	04090e03          	lb	t3,64(s2)
     14c:	0100                	addi	s0,sp,128
     14e:	0c05                	addi	s8,s8,1
     150:	08097203          	0x8097203
     154:	0100                	addi	s0,sp,128
     156:	0d05                	addi	s10,s10,1
     158:	0306                	slli	t1,t1,0x1
     15a:	0901                	addi	s2,s2,0
     15c:	0002                	c.slli64	zero
     15e:	0301                	addi	t1,t1,0
     160:	0901                	addi	s2,s2,0
     162:	0000                	unimp
     164:	0401                	addi	s0,s0,0
     166:	0502                	c.slli64	a0
     168:	0305                	addi	t1,t1,1
     16a:	0000097b          	0x97b
     16e:	0401                	addi	s0,s0,0
     170:	09070303          	lb	t1,144(a4)
     174:	0000                	unimp
     176:	0501                	addi	a0,a0,0
     178:	00030613          	mv	a2,t1
     17c:	0009                	c.nop	2
     17e:	0100                	addi	s0,sp,128
     180:	0505                	addi	a0,a0,1
     182:	0306                	slli	t1,t1,0x1
     184:	0901                	addi	s2,s2,0
     186:	0002                	c.slli64	zero
     188:	0301                	addi	t1,t1,0
     18a:	0901                	addi	s2,s2,0
     18c:	0000                	unimp
     18e:	0301                	addi	t1,t1,0
     190:	0901                	addi	s2,s2,0
     192:	0004                	0x4
     194:	0401                	addi	s0,s0,0
     196:	0501                	addi	a0,a0,0
     198:	0610                	addi	a2,sp,768
     19a:	00097b03          	0x97b03
     19e:	0100                	addi	s0,sp,128
     1a0:	1105                	addi	sp,sp,-31
     1a2:	04090703          	lb	a4,64(s2)
     1a6:	0100                	addi	s0,sp,128
     1a8:	1005                	c.nop	-31
     1aa:	08097903          	0x8097903
     1ae:	0100                	addi	s0,sp,128
     1b0:	1505                	addi	a0,a0,-31
     1b2:	02090303          	lb	t1,32(s2)
     1b6:	0100                	addi	s0,sp,128
     1b8:	1105                	addi	sp,sp,-31
     1ba:	0200                	addi	s0,sp,256
     1bc:	0104                	addi	s1,sp,128
     1be:	0306                	slli	t1,t1,0x1
     1c0:	097f                	0x97f
     1c2:	0008                	0x8
     1c4:	0501                	addi	a0,a0,0
     1c6:	0015                	c.nop	5
     1c8:	0402                	c.slli64	s0
     1ca:	0301                	addi	t1,t1,0
     1cc:	0901                	addi	s2,s2,0
     1ce:	0000                	unimp
     1d0:	0501                	addi	a0,a0,0
     1d2:	0011                	c.nop	4
     1d4:	0402                	c.slli64	s0
     1d6:	0301                	addi	t1,t1,0
     1d8:	097f                	0x97f
     1da:	000c                	0xc
     1dc:	0501                	addi	a0,a0,0
     1de:	000d                	c.nop	3
     1e0:	0402                	c.slli64	s0
     1e2:	0301                	addi	t1,t1,0
     1e4:	0904                	addi	s1,sp,144
     1e6:	0002                	c.slli64	zero
     1e8:	0501                	addi	a0,a0,0
     1ea:	0011                	c.nop	4
     1ec:	0402                	c.slli64	s0
     1ee:	0301                	addi	t1,t1,0
     1f0:	0901                	addi	s2,s2,0
     1f2:	0000                	unimp
     1f4:	0501                	addi	a0,a0,0
     1f6:	000d                	c.nop	3
     1f8:	0402                	c.slli64	s0
     1fa:	0301                	addi	t1,t1,0
     1fc:	097f                	0x97f
     1fe:	000c                	0xc
     200:	0501                	addi	a0,a0,0
     202:	0009                	c.nop	2
     204:	0402                	c.slli64	s0
     206:	0301                	addi	t1,t1,0
     208:	0905                	addi	s2,s2,1
     20a:	0002                	c.slli64	zero
     20c:	0501                	addi	a0,a0,0
     20e:	000d                	c.nop	3
     210:	0402                	c.slli64	s0
     212:	0301                	addi	t1,t1,0
     214:	0901                	addi	s2,s2,0
     216:	0000                	unimp
     218:	0501                	addi	a0,a0,0
     21a:	0009                	c.nop	2
     21c:	0402                	c.slli64	s0
     21e:	0301                	addi	t1,t1,0
     220:	097f                	0x97f
     222:	000c                	0xc
     224:	0501                	addi	a0,a0,0
     226:	0005                	c.nop	1
     228:	0402                	c.slli64	s0
     22a:	0301                	addi	t1,t1,0
     22c:	0905                	addi	s2,s2,1
     22e:	0002                	c.slli64	zero
     230:	0501                	addi	a0,a0,0
     232:	0009                	c.nop	2
     234:	0402                	c.slli64	s0
     236:	0301                	addi	t1,t1,0
     238:	0901                	addi	s2,s2,0
     23a:	0000                	unimp
     23c:	0501                	addi	a0,a0,0
     23e:	0005                	c.nop	1
     240:	0402                	c.slli64	s0
     242:	0301                	addi	t1,t1,0
     244:	097f                	0x97f
     246:	000c                	0xc
     248:	0901                	addi	s2,s2,0
     24a:	0002                	c.slli64	zero
     24c:	0100                	addi	s0,sp,128
     24e:	6401                	0x6401
     250:	0000                	unimp
     252:	0500                	addi	s0,sp,640
     254:	0800                	addi	s0,sp,16
     256:	2a00                	fld	fs0,16(a2)
     258:	0000                	unimp
     25a:	0100                	addi	s0,sp,128
     25c:	0101                	addi	sp,sp,0
     25e:	000d0efb          	0xd0efb
     262:	0101                	addi	sp,sp,0
     264:	0101                	addi	sp,sp,0
     266:	0000                	unimp
     268:	0100                	addi	s0,sp,128
     26a:	0000                	unimp
     26c:	0101                	addi	sp,sp,0
     26e:	1f01                	addi	t5,t5,-32
     270:	0001                	nop
     272:	0000                	unimp
     274:	0200                	addi	s0,sp,256
     276:	1f01                	addi	t5,t5,-32
     278:	0f02                	c.slli64	t5
     27a:	6d02                	ld	s10,0(sp)
     27c:	0000                	unimp
     27e:	0000                	unimp
     280:	006d                	c.nop	27
     282:	0000                	unimp
     284:	0500                	addi	s0,sp,640
     286:	0010                	0x10
     288:	0209                	addi	tp,tp,2
     28a:	009a                	slli	ra,ra,0x6
     28c:	00a0                	addi	s0,sp,72
     28e:	0000                	unimp
     290:	0000                	unimp
     292:	03050513          	addi	a0,a0,48
     296:	0901                	addi	s2,s2,0
     298:	0008                	0x8
     29a:	0001                	nop
     29c:	0402                	c.slli64	s0
     29e:	0301                	addi	t1,t1,0
     2a0:	0901                	addi	s2,s2,0
     2a2:	0008                	0x8
     2a4:	0501                	addi	a0,a0,0
     2a6:	0402000b          	0x402000b
     2aa:	0301                	addi	t1,t1,0
     2ac:	0900                	addi	s0,sp,144
     2ae:	0000                	unimp
     2b0:	0901                	addi	s2,s2,0
     2b2:	0002                	c.slli64	zero
     2b4:	0100                	addi	s0,sp,128
     2b6:	a701                	j	9b6 <_text-0x9ff64a>
     2b8:	000e                	c.slli	zero,0x3
     2ba:	0500                	addi	s0,sp,640
     2bc:	0800                	addi	s0,sp,16
     2be:	4100                	lw	s0,0(a0)
     2c0:	0000                	unimp
     2c2:	0100                	addi	s0,sp,128
     2c4:	0101                	addi	sp,sp,0
     2c6:	000d0efb          	0xd0efb
     2ca:	0101                	addi	sp,sp,0
     2cc:	0101                	addi	sp,sp,0
     2ce:	0000                	unimp
     2d0:	0100                	addi	s0,sp,128
     2d2:	0000                	unimp
     2d4:	0101                	addi	sp,sp,0
     2d6:	1f01                	addi	t5,t5,-32
     2d8:	00000003          	lb	zero,0(zero) # 0 <_text-0xa00000>
     2dc:	8e00                	0x8e00
     2de:	0000                	unimp
     2e0:	8000                	0x8000
     2e2:	0000                	unimp
     2e4:	0200                	addi	s0,sp,256
     2e6:	1f01                	addi	t5,t5,-32
     2e8:	0f02                	c.slli64	t5
     2ea:	7705                	lui	a4,0xfffe1
     2ec:	0000                	unimp
     2ee:	0000                	unimp
     2f0:	00000077          	0x77
     2f4:	6400                	ld	s0,8(s0)
     2f6:	0000                	unimp
     2f8:	0100                	addi	s0,sp,128
     2fa:	005a                	c.slli	zero,0x16
     2fc:	0000                	unimp
     2fe:	9801                	andi	s0,s0,-32
     300:	0000                	unimp
     302:	0200                	addi	s0,sp,256
     304:	3105                	addiw	sp,sp,-31
     306:	0900                	addi	s0,sp,144
     308:	ac02                	fsd	ft0,24(sp)
     30a:	a000                	fsd	fs0,0(s0)
     30c:	0000                	unimp
     30e:	0000                	unimp
     310:	1600                	addi	s0,sp,800
     312:	0505                	addi	a0,a0,1
     314:	00090103          	lb	sp,0(s2)
     318:	0100                	addi	s0,sp,128
     31a:	00090103          	lb	sp,0(s2)
     31e:	0100                	addi	s0,sp,128
     320:	00090203          	lb	tp,0(s2)
     324:	0100                	addi	s0,sp,128
     326:	1105                	addi	sp,sp,-31
     328:	00090003          	lb	zero,0(s2)
     32c:	0100                	addi	s0,sp,128
     32e:	1405                	addi	s0,s0,-31
     330:	0306                	slli	t1,t1,0x1
     332:	0900                	addi	s0,sp,144
     334:	0000                	unimp
     336:	0501                	addi	a0,a0,0
     338:	0311                	addi	t1,t1,4
     33a:	0900                	addi	s0,sp,144
     33c:	0004                	0x4
     33e:	0501                	addi	a0,a0,0
     340:	0331                	addi	t1,t1,12
     342:	097c                	addi	a5,sp,156
     344:	0004                	0x4
     346:	0501                	addi	a0,a0,0
     348:	0314                	addi	a3,sp,384
     34a:	0904                	addi	s1,sp,144
     34c:	0020                	addi	s0,sp,8
     34e:	0501                	addi	a0,a0,0
     350:	030c                	addi	a1,sp,384
     352:	0900                	addi	s0,sp,144
     354:	0002                	c.slli64	zero
     356:	0301                	addi	t1,t1,0
     358:	0901                	addi	s2,s2,0
     35a:	0002                	c.slli64	zero
     35c:	0301                	addi	t1,t1,0
     35e:	0909                	addi	s2,s2,2
     360:	0004                	0x4
     362:	0501                	addi	a0,a0,0
     364:	0309                	addi	t1,t1,2
     366:	0904                	addi	s1,sp,144
     368:	0004                	0x4
     36a:	0401                	addi	s0,s0,0
     36c:	0502                	c.slli64	a0
     36e:	09180307          	0x9180307
     372:	0008                	0x8
     374:	0501                	addi	a0,a0,0
     376:	031a                	slli	t1,t1,0x6
     378:	0902                	c.slli64	s2
     37a:	0002                	c.slli64	zero
     37c:	0501                	addi	a0,a0,0
     37e:	0319                	addi	t1,t1,6
     380:	0901                	addi	s2,s2,0
     382:	0008                	0x8
     384:	0501                	addi	a0,a0,0
     386:	0962031b          	addiw	t1,tp,150
     38a:	0002                	c.slli64	zero
     38c:	0501                	addi	a0,a0,0
     38e:	031f 0900 0008      	0x80900031f
     394:	0501                	addi	a0,a0,0
     396:	0308                	addi	a0,sp,384
     398:	0979                	addi	s2,s2,30
     39a:	0008                	0x8
     39c:	0401                	addi	s0,s0,0
     39e:	0501                	addi	a0,a0,0
     3a0:	0309                	addi	t1,t1,2
     3a2:	090a                	slli	s2,s2,0x2
     3a4:	0004                	0x4
     3a6:	0401                	addi	s0,s0,0
     3a8:	0502                	c.slli64	a0
     3aa:	031d                	addi	t1,t1,7
     3ac:	091a                	slli	s2,s2,0x6
     3ae:	0004                	0x4
     3b0:	0501                	addi	a0,a0,0
     3b2:	0319                	addi	t1,t1,6
     3b4:	0901                	addi	s2,s2,0
     3b6:	0002                	c.slli64	zero
     3b8:	0501                	addi	a0,a0,0
     3ba:	0312                	slli	t1,t1,0x4
     3bc:	00020903          	lb	s2,0(tp) # fffffffffffe1000 <bufferLen+0xffffffffff5de000>
     3c0:	0501                	addi	a0,a0,0
     3c2:	095f031b          	addiw	t1,t5,149
     3c6:	0004                	0x4
     3c8:	0501                	addi	a0,a0,0
     3ca:	031f 0900 0002      	0x20900031f
     3d0:	0401                	addi	s0,s0,0
     3d2:	0501                	addi	a0,a0,0
     3d4:	09130317          	auipc	t1,0x9130
     3d8:	0002                	c.slli64	zero
     3da:	0501                	addi	a0,a0,0
     3dc:	060d                	addi	a2,a2,3
     3de:	0a096403          	lwu	s0,160(s2)
     3e2:	0100                	addi	s0,sp,128
     3e4:	1005                	c.nop	-31
     3e6:	0306                	slli	t1,t1,0x1
     3e8:	0900                	addi	s0,sp,144
     3ea:	0000                	unimp
     3ec:	0501                	addi	a0,a0,0
     3ee:	060d                	addi	a2,a2,3
     3f0:	04090303          	lb	t1,64(s2)
     3f4:	0100                	addi	s0,sp,128
     3f6:	0204                	addi	s1,sp,256
     3f8:	0505                	addi	a0,a0,1
     3fa:	04090603          	lb	a2,64(s2)
     3fe:	0100                	addi	s0,sp,128
     400:	1b05                	addi	s6,s6,-31
     402:	0306                	slli	t1,t1,0x1
     404:	0900                	addi	s0,sp,144
     406:	0000                	unimp
     408:	0501                	addi	a0,a0,0
     40a:	031f 0900 000c      	0xc0900031f
     410:	0501                	addi	a0,a0,0
     412:	0605                	addi	a2,a2,1
     414:	06090103          	lb	sp,96(s2)
     418:	0100                	addi	s0,sp,128
     41a:	0905                	addi	s2,s2,1
     41c:	00090103          	lb	sp,0(s2)
     420:	0100                	addi	s0,sp,128
     422:	0505                	addi	a0,a0,1
     424:	00097703          	0x97703
     428:	0100                	addi	s0,sp,128
     42a:	0805                	addi	a6,a6,1
     42c:	0306                	slli	t1,t1,0x1
     42e:	0900                	addi	s0,sp,144
     430:	0000                	unimp
     432:	0401                	addi	s0,s0,0
     434:	0501                	addi	a0,a0,0
     436:	001a                	c.slli	zero,0x6
     438:	0402                	c.slli64	s0
     43a:	0602                	c.slli64	a2
     43c:	04097c03          	0x4097c03
     440:	0100                	addi	s0,sp,128
     442:	1105                	addi	sp,sp,-31
     444:	0200                	addi	s0,sp,256
     446:	0204                	addi	s1,sp,256
     448:	02090003          	lb	zero,32(s2)
     44c:	0100                	addi	s0,sp,128
     44e:	1405                	addi	s0,s0,-31
     450:	0200                	addi	s0,sp,256
     452:	0204                	addi	s1,sp,256
     454:	0306                	slli	t1,t1,0x1
     456:	0900                	addi	s0,sp,144
     458:	0000                	unimp
     45a:	0501                	addi	a0,a0,0
     45c:	0011                	c.nop	4
     45e:	0402                	c.slli64	s0
     460:	0302                	c.slli64	t1
     462:	0900                	addi	s0,sp,144
     464:	0008                	0x8
     466:	0501                	addi	a0,a0,0
     468:	0609                	addi	a2,a2,2
     46a:	04090103          	lb	sp,64(s2)
     46e:	0100                	addi	s0,sp,128
     470:	0c05                	addi	s8,s8,1
     472:	0306                	slli	t1,t1,0x1
     474:	0900                	addi	s0,sp,144
     476:	0000                	unimp
     478:	0501                	addi	a0,a0,0
     47a:	0609                	addi	a2,a2,2
     47c:	04090703          	lb	a4,64(s2)
     480:	0100                	addi	s0,sp,128
     482:	0b05                	addi	s6,s6,1
     484:	0306                	slli	t1,t1,0x1
     486:	0900                	addi	s0,sp,144
     488:	0000                	unimp
     48a:	0501                	addi	a0,a0,0
     48c:	0310                	addi	a2,sp,384
     48e:	0900                	addi	s0,sp,144
     490:	0004                	0x4
     492:	0501                	addi	a0,a0,0
     494:	0900030b          	0x900030b
     498:	0008                	0x8
     49a:	0501                	addi	a0,a0,0
     49c:	0609                	addi	a2,a2,2
     49e:	04090103          	lb	sp,64(s2)
     4a2:	0100                	addi	s0,sp,128
     4a4:	00090103          	lb	sp,0(s2)
     4a8:	0100                	addi	s0,sp,128
     4aa:	0c05                	addi	s8,s8,1
     4ac:	0306                	slli	t1,t1,0x1
     4ae:	0900                	addi	s0,sp,144
     4b0:	0000                	unimp
     4b2:	0501                	addi	a0,a0,0
     4b4:	0609                	addi	a2,a2,2
     4b6:	04090403          	lb	s0,64(s2)
     4ba:	0100                	addi	s0,sp,128
     4bc:	1105                	addi	sp,sp,-31
     4be:	10090203          	lb	tp,256(s2)
     4c2:	0100                	addi	s0,sp,128
     4c4:	1505                	addi	a0,a0,-31
     4c6:	00090303          	lb	t1,0(s2)
     4ca:	0100                	addi	s0,sp,128
     4cc:	2505                	addiw	a0,a0,1
     4ce:	0306                	slli	t1,t1,0x1
     4d0:	0900                	addi	s0,sp,144
     4d2:	0000                	unimp
     4d4:	0501                	addi	a0,a0,0
     4d6:	0315                	addi	t1,t1,5
     4d8:	0900                	addi	s0,sp,144
     4da:	0008                	0x8
     4dc:	0401                	addi	s0,s0,0
     4de:	0502                	c.slli64	a0
     4e0:	0605                	addi	a2,a2,1
     4e2:	02090903          	lb	s2,32(s2)
     4e6:	0100                	addi	s0,sp,128
     4e8:	00090103          	lb	sp,0(s2)
     4ec:	0100                	addi	s0,sp,128
     4ee:	00090103          	lb	sp,0(s2)
     4f2:	0100                	addi	s0,sp,128
     4f4:	00090203          	lb	tp,0(s2)
     4f8:	0100                	addi	s0,sp,128
     4fa:	0d05                	addi	s10,s10,1
     4fc:	0306                	slli	t1,t1,0x1
     4fe:	0901                	addi	s2,s2,0
     500:	0000                	unimp
     502:	0501                	addi	a0,a0,0
     504:	030e                	slli	t1,t1,0x3
     506:	0008090b          	0x8090b
     50a:	0501                	addi	a0,a0,0
     50c:	0605                	addi	a2,a2,1
     50e:	06097b03          	0x6097b03
     512:	0100                	addi	s0,sp,128
     514:	0905                	addi	s2,s2,1
     516:	00090103          	lb	sp,0(s2)
     51a:	0100                	addi	s0,sp,128
     51c:	0e05                	addi	t3,t3,1
     51e:	0306                	slli	t1,t1,0x1
     520:	0900                	addi	s0,sp,144
     522:	0002                	c.slli64	zero
     524:	0501                	addi	a0,a0,0
     526:	031d                	addi	t1,t1,7
     528:	0900                	addi	s0,sp,144
     52a:	0002                	c.slli64	zero
     52c:	0501                	addi	a0,a0,0
     52e:	031a                	slli	t1,t1,0x6
     530:	0900                	addi	s0,sp,144
     532:	0004                	0x4
     534:	0501                	addi	a0,a0,0
     536:	0312                	slli	t1,t1,0x4
     538:	0900                	addi	s0,sp,144
     53a:	0002                	c.slli64	zero
     53c:	0501                	addi	a0,a0,0
     53e:	0619                	addi	a2,a2,6
     540:	08090103          	lb	sp,128(s2)
     544:	0100                	addi	s0,sp,128
     546:	1005                	c.nop	-31
     548:	0306                	slli	t1,t1,0x1
     54a:	0900                	addi	s0,sp,144
     54c:	0002                	c.slli64	zero
     54e:	0501                	addi	a0,a0,0
     550:	0319                	addi	t1,t1,6
     552:	0900                	addi	s0,sp,144
     554:	0004                	0x4
     556:	0501                	addi	a0,a0,0
     558:	0605                	addi	a2,a2,1
     55a:	06090203          	lb	tp,96(s2)
     55e:	0100                	addi	s0,sp,128
     560:	0805                	addi	a6,a6,1
     562:	0306                	slli	t1,t1,0x1
     564:	0900                	addi	s0,sp,144
     566:	0000                	unimp
     568:	0501                	addi	a0,a0,0
     56a:	0609                	addi	a2,a2,2
     56c:	04090103          	lb	sp,64(s2)
     570:	0100                	addi	s0,sp,128
     572:	1205                	addi	tp,tp,-31
     574:	0306                	slli	t1,t1,0x1
     576:	0900                	addi	s0,sp,144
     578:	0000                	unimp
     57a:	0501                	addi	a0,a0,0
     57c:	030e                	slli	t1,t1,0x3
     57e:	0900                	addi	s0,sp,144
     580:	000c                	0xc
     582:	0501                	addi	a0,a0,0
     584:	0610                	addi	a2,sp,768
     586:	04090303          	lb	t1,64(s2)
     58a:	0100                	addi	s0,sp,128
     58c:	0104                	addi	s1,sp,128
     58e:	1105                	addi	sp,sp,-31
     590:	20095403          	lhu	s0,512(s2)
     594:	0100                	addi	s0,sp,128
     596:	0204                	addi	s1,sp,256
     598:	0505                	addi	a0,a0,1
     59a:	00090803          	lb	a6,0(s2)
     59e:	0100                	addi	s0,sp,128
     5a0:	1b05                	addi	s6,s6,-31
     5a2:	0306                	slli	t1,t1,0x1
     5a4:	0900                	addi	s0,sp,144
     5a6:	0000                	unimp
     5a8:	0501                	addi	a0,a0,0
     5aa:	031f 0900 000c      	0xc0900031f
     5b0:	0501                	addi	a0,a0,0
     5b2:	0605                	addi	a2,a2,1
     5b4:	06090103          	lb	sp,96(s2)
     5b8:	0100                	addi	s0,sp,128
     5ba:	0905                	addi	s2,s2,1
     5bc:	00090103          	lb	sp,0(s2)
     5c0:	0100                	addi	s0,sp,128
     5c2:	0505                	addi	a0,a0,1
     5c4:	00097703          	0x97703
     5c8:	0100                	addi	s0,sp,128
     5ca:	0805                	addi	a6,a6,1
     5cc:	0306                	slli	t1,t1,0x1
     5ce:	0900                	addi	s0,sp,144
     5d0:	0000                	unimp
     5d2:	0501                	addi	a0,a0,0
     5d4:	0609                	addi	a2,a2,2
     5d6:	04090103          	lb	sp,64(s2)
     5da:	0100                	addi	s0,sp,128
     5dc:	0304                	addi	s1,sp,384
     5de:	0505                	addi	a0,a0,1
     5e0:	00090703          	lb	a4,0(s2)
     5e4:	0100                	addi	s0,sp,128
     5e6:	1305                	addi	t1,t1,-31
     5e8:	0306                	slli	t1,t1,0x1
     5ea:	0900                	addi	s0,sp,144
     5ec:	0000                	unimp
     5ee:	0501                	addi	a0,a0,0
     5f0:	0605                	addi	a2,a2,1
     5f2:	02090103          	lb	sp,32(s2)
     5f6:	0100                	addi	s0,sp,128
     5f8:	1305                	addi	t1,t1,-31
     5fa:	0306                	slli	t1,t1,0x1
     5fc:	0900                	addi	s0,sp,144
     5fe:	0000                	unimp
     600:	0501                	addi	a0,a0,0
     602:	0605                	addi	a2,a2,1
     604:	02090103          	lb	sp,32(s2)
     608:	0100                	addi	s0,sp,128
     60a:	1305                	addi	t1,t1,-31
     60c:	0306                	slli	t1,t1,0x1
     60e:	0900                	addi	s0,sp,144
     610:	0000                	unimp
     612:	0501                	addi	a0,a0,0
     614:	0605                	addi	a2,a2,1
     616:	02090103          	lb	sp,32(s2)
     61a:	0100                	addi	s0,sp,128
     61c:	0204                	addi	s1,sp,256
     61e:	0905                	addi	s2,s2,1
     620:	04097703          	0x4097703
     624:	0100                	addi	s0,sp,128
     626:	0104                	addi	s1,sp,128
     628:	0d05                	addi	s10,s10,1
     62a:	00097f03          	0x97f03
     62e:	0100                	addi	s0,sp,128
     630:	0204                	addi	s1,sp,256
     632:	0505                	addi	a0,a0,1
     634:	04090603          	lb	a2,64(s2)
     638:	0100                	addi	s0,sp,128
     63a:	1b05                	addi	s6,s6,-31
     63c:	0306                	slli	t1,t1,0x1
     63e:	0900                	addi	s0,sp,144
     640:	0000                	unimp
     642:	0501                	addi	a0,a0,0
     644:	031f 0900 0004      	0x40900031f
     64a:	0501                	addi	a0,a0,0
     64c:	0605                	addi	a2,a2,1
     64e:	04090103          	lb	sp,64(s2)
     652:	0100                	addi	s0,sp,128
     654:	0905                	addi	s2,s2,1
     656:	00090103          	lb	sp,0(s2)
     65a:	0100                	addi	s0,sp,128
     65c:	0505                	addi	a0,a0,1
     65e:	00097703          	0x97703
     662:	0100                	addi	s0,sp,128
     664:	0905                	addi	s2,s2,1
     666:	02090103          	lb	sp,32(s2)
     66a:	0100                	addi	s0,sp,128
     66c:	0304                	addi	s1,sp,384
     66e:	0505                	addi	a0,a0,1
     670:	00090703          	lb	a4,0(s2)
     674:	0100                	addi	s0,sp,128
     676:	1305                	addi	t1,t1,-31
     678:	0306                	slli	t1,t1,0x1
     67a:	0900                	addi	s0,sp,144
     67c:	0000                	unimp
     67e:	0501                	addi	a0,a0,0
     680:	0605                	addi	a2,a2,1
     682:	02090103          	lb	sp,32(s2)
     686:	0100                	addi	s0,sp,128
     688:	1305                	addi	t1,t1,-31
     68a:	0306                	slli	t1,t1,0x1
     68c:	0900                	addi	s0,sp,144
     68e:	0000                	unimp
     690:	0501                	addi	a0,a0,0
     692:	0605                	addi	a2,a2,1
     694:	02090103          	lb	sp,32(s2)
     698:	0100                	addi	s0,sp,128
     69a:	1305                	addi	t1,t1,-31
     69c:	0306                	slli	t1,t1,0x1
     69e:	0900                	addi	s0,sp,144
     6a0:	0000                	unimp
     6a2:	0501                	addi	a0,a0,0
     6a4:	0605                	addi	a2,a2,1
     6a6:	02090103          	lb	sp,32(s2)
     6aa:	0100                	addi	s0,sp,128
     6ac:	0204                	addi	s1,sp,256
     6ae:	0905                	addi	s2,s2,1
     6b0:	04097703          	0x4097703
     6b4:	0100                	addi	s0,sp,128
     6b6:	1305                	addi	t1,t1,-31
     6b8:	0306                	slli	t1,t1,0x1
     6ba:	0900                	addi	s0,sp,144
     6bc:	0000                	unimp
     6be:	0401                	addi	s0,s0,0
     6c0:	0501                	addi	a0,a0,0
     6c2:	060d                	addi	a2,a2,3
     6c4:	06090503          	lb	a0,96(s2)
     6c8:	0100                	addi	s0,sp,128
     6ca:	00090103          	lb	sp,0(s2)
     6ce:	0100                	addi	s0,sp,128
     6d0:	0f05                	addi	t5,t5,1
     6d2:	0306                	slli	t1,t1,0x1
     6d4:	0900                	addi	s0,sp,144
     6d6:	0000                	unimp
     6d8:	0501                	addi	a0,a0,0
     6da:	0314                	addi	a3,sp,384
     6dc:	0900                	addi	s0,sp,144
     6de:	0004                	0x4
     6e0:	0501                	addi	a0,a0,0
     6e2:	0609                	addi	a2,a2,2
     6e4:	08090203          	lb	tp,128(s2)
     6e8:	0100                	addi	s0,sp,128
     6ea:	1105                	addi	sp,sp,-31
     6ec:	10090903          	lb	s2,256(s2)
     6f0:	0100                	addi	s0,sp,128
     6f2:	1505                	addi	a0,a0,-31
     6f4:	00090103          	lb	sp,0(s2)
     6f8:	0100                	addi	s0,sp,128
     6fa:	1f05                	addi	t5,t5,-31
     6fc:	0306                	slli	t1,t1,0x1
     6fe:	0900                	addi	s0,sp,144
     700:	0000                	unimp
     702:	0401                	addi	s0,s0,0
     704:	0502                	c.slli64	a0
     706:	0605                	addi	a2,a2,1
     708:	08090403          	lb	s0,128(s2)
     70c:	0100                	addi	s0,sp,128
     70e:	00090103          	lb	sp,0(s2)
     712:	0100                	addi	s0,sp,128
     714:	00090103          	lb	sp,0(s2)
     718:	0100                	addi	s0,sp,128
     71a:	00090203          	lb	tp,0(s2)
     71e:	0100                	addi	s0,sp,128
     720:	0905                	addi	s2,s2,1
     722:	00090303          	lb	t1,0(s2)
     726:	0100                	addi	s0,sp,128
     728:	0505                	addi	a0,a0,1
     72a:	00090303          	lb	t1,0(s2)
     72e:	0100                	addi	s0,sp,128
     730:	0104                	addi	s1,sp,128
     732:	1f05                	addi	t5,t5,-31
     734:	0306                	slli	t1,t1,0x1
     736:	0972                	slli	s2,s2,0x1c
     738:	0000                	unimp
     73a:	0401                	addi	s0,s0,0
     73c:	0502                	c.slli64	a0
     73e:	090e0307          	0x90e0307
     742:	0004                	0x4
     744:	0501                	addi	a0,a0,0
     746:	0605                	addi	a2,a2,1
     748:	02090103          	lb	sp,32(s2)
     74c:	0100                	addi	s0,sp,128
     74e:	0905                	addi	s2,s2,1
     750:	00090103          	lb	sp,0(s2)
     754:	0100                	addi	s0,sp,128
     756:	0e05                	addi	t3,t3,1
     758:	0306                	slli	t1,t1,0x1
     75a:	0900                	addi	s0,sp,144
     75c:	0002                	c.slli64	zero
     75e:	0501                	addi	a0,a0,0
     760:	031d                	addi	t1,t1,7
     762:	0900                	addi	s0,sp,144
     764:	0002                	c.slli64	zero
     766:	0501                	addi	a0,a0,0
     768:	031a                	slli	t1,t1,0x6
     76a:	0900                	addi	s0,sp,144
     76c:	0004                	0x4
     76e:	0501                	addi	a0,a0,0
     770:	0312                	slli	t1,t1,0x4
     772:	0900                	addi	s0,sp,144
     774:	0002                	c.slli64	zero
     776:	0501                	addi	a0,a0,0
     778:	0619                	addi	a2,a2,6
     77a:	08090103          	lb	sp,128(s2)
     77e:	0100                	addi	s0,sp,128
     780:	1005                	c.nop	-31
     782:	0306                	slli	t1,t1,0x1
     784:	0900                	addi	s0,sp,144
     786:	0002                	c.slli64	zero
     788:	0501                	addi	a0,a0,0
     78a:	0319                	addi	t1,t1,6
     78c:	0900                	addi	s0,sp,144
     78e:	0002                	c.slli64	zero
     790:	0501                	addi	a0,a0,0
     792:	0610                	addi	a2,sp,768
     794:	06090603          	lb	a2,96(s2)
     798:	0100                	addi	s0,sp,128
     79a:	0104                	addi	s1,sp,128
     79c:	0905                	addi	s2,s2,1
     79e:	0306                	slli	t1,t1,0x1
     7a0:	095f 0020 0501      	0x5010020095f
     7a6:	0611                	addi	a2,a2,4
     7a8:	04091503          	lh	a0,64(s2)
     7ac:	0100                	addi	s0,sp,128
     7ae:	0204                	addi	s1,sp,256
     7b0:	0505                	addi	a0,a0,1
     7b2:	00096803          	lwu	a6,0(s2)
     7b6:	0100                	addi	s0,sp,128
     7b8:	1b05                	addi	s6,s6,-31
     7ba:	0306                	slli	t1,t1,0x1
     7bc:	0900                	addi	s0,sp,144
     7be:	0000                	unimp
     7c0:	0501                	addi	a0,a0,0
     7c2:	031f 0900 000c      	0xc0900031f
     7c8:	0501                	addi	a0,a0,0
     7ca:	0605                	addi	a2,a2,1
     7cc:	06090103          	lb	sp,96(s2)
     7d0:	0100                	addi	s0,sp,128
     7d2:	0905                	addi	s2,s2,1
     7d4:	00090103          	lb	sp,0(s2)
     7d8:	0100                	addi	s0,sp,128
     7da:	0505                	addi	a0,a0,1
     7dc:	00097703          	0x97703
     7e0:	0100                	addi	s0,sp,128
     7e2:	0805                	addi	a6,a6,1
     7e4:	0306                	slli	t1,t1,0x1
     7e6:	0900                	addi	s0,sp,144
     7e8:	0002                	c.slli64	zero
     7ea:	0501                	addi	a0,a0,0
     7ec:	0609                	addi	a2,a2,2
     7ee:	04090103          	lb	sp,64(s2)
     7f2:	0100                	addi	s0,sp,128
     7f4:	0304                	addi	s1,sp,384
     7f6:	0505                	addi	a0,a0,1
     7f8:	00090703          	lb	a4,0(s2)
     7fc:	0100                	addi	s0,sp,128
     7fe:	1305                	addi	t1,t1,-31
     800:	0306                	slli	t1,t1,0x1
     802:	0900                	addi	s0,sp,144
     804:	0000                	unimp
     806:	0501                	addi	a0,a0,0
     808:	0605                	addi	a2,a2,1
     80a:	02090103          	lb	sp,32(s2)
     80e:	0100                	addi	s0,sp,128
     810:	1305                	addi	t1,t1,-31
     812:	0306                	slli	t1,t1,0x1
     814:	0900                	addi	s0,sp,144
     816:	0000                	unimp
     818:	0501                	addi	a0,a0,0
     81a:	0605                	addi	a2,a2,1
     81c:	02090103          	lb	sp,32(s2)
     820:	0100                	addi	s0,sp,128
     822:	1305                	addi	t1,t1,-31
     824:	0306                	slli	t1,t1,0x1
     826:	0900                	addi	s0,sp,144
     828:	0000                	unimp
     82a:	0501                	addi	a0,a0,0
     82c:	0605                	addi	a2,a2,1
     82e:	02090103          	lb	sp,32(s2)
     832:	0100                	addi	s0,sp,128
     834:	0204                	addi	s1,sp,256
     836:	0905                	addi	s2,s2,1
     838:	04097703          	0x4097703
     83c:	0100                	addi	s0,sp,128
     83e:	1305                	addi	t1,t1,-31
     840:	0306                	slli	t1,t1,0x1
     842:	0900                	addi	s0,sp,144
     844:	0000                	unimp
     846:	0401                	addi	s0,s0,0
     848:	0501                	addi	a0,a0,0
     84a:	0611                	addi	a2,a2,4
     84c:	06090a03          	lb	s4,96(s2)
     850:	0100                	addi	s0,sp,128
     852:	1505                	addi	a0,a0,-31
     854:	00090103          	lb	sp,0(s2)
     858:	0100                	addi	s0,sp,128
     85a:	0204                	addi	s1,sp,256
     85c:	0505                	addi	a0,a0,1
     85e:	08090b03          	lb	s6,128(s2)
     862:	0100                	addi	s0,sp,128
     864:	00090103          	lb	sp,0(s2)
     868:	0100                	addi	s0,sp,128
     86a:	00090103          	lb	sp,0(s2)
     86e:	0100                	addi	s0,sp,128
     870:	00090203          	lb	tp,0(s2)
     874:	0100                	addi	s0,sp,128
     876:	0d05                	addi	s10,s10,1
     878:	0306                	slli	t1,t1,0x1
     87a:	0901                	addi	s2,s2,0
     87c:	0000                	unimp
     87e:	0401                	addi	s0,s0,0
     880:	0501                	addi	a0,a0,0
     882:	030c                	addi	a1,sp,384
     884:	095f 000a 0401      	0x401000a095f
     88a:	0502                	c.slli64	a0
     88c:	0605                	addi	a2,a2,1
     88e:	06092703          	lw	a4,96(s2)
     892:	0100                	addi	s0,sp,128
     894:	0905                	addi	s2,s2,1
     896:	00090103          	lb	sp,0(s2)
     89a:	0100                	addi	s0,sp,128
     89c:	0e05                	addi	t3,t3,1
     89e:	0306                	slli	t1,t1,0x1
     8a0:	0900                	addi	s0,sp,144
     8a2:	0002                	c.slli64	zero
     8a4:	0501                	addi	a0,a0,0
     8a6:	031d                	addi	t1,t1,7
     8a8:	0900                	addi	s0,sp,144
     8aa:	0002                	c.slli64	zero
     8ac:	0501                	addi	a0,a0,0
     8ae:	031a                	slli	t1,t1,0x6
     8b0:	0900                	addi	s0,sp,144
     8b2:	0004                	0x4
     8b4:	0501                	addi	a0,a0,0
     8b6:	0312                	slli	t1,t1,0x4
     8b8:	0900                	addi	s0,sp,144
     8ba:	0002                	c.slli64	zero
     8bc:	0501                	addi	a0,a0,0
     8be:	0619                	addi	a2,a2,6
     8c0:	08090103          	lb	sp,128(s2)
     8c4:	0100                	addi	s0,sp,128
     8c6:	1005                	c.nop	-31
     8c8:	0306                	slli	t1,t1,0x1
     8ca:	0900                	addi	s0,sp,144
     8cc:	0002                	c.slli64	zero
     8ce:	0501                	addi	a0,a0,0
     8d0:	0319                	addi	t1,t1,6
     8d2:	0900                	addi	s0,sp,144
     8d4:	0004                	0x4
     8d6:	0501                	addi	a0,a0,0
     8d8:	0605                	addi	a2,a2,1
     8da:	06090203          	lb	tp,96(s2)
     8de:	0100                	addi	s0,sp,128
     8e0:	0805                	addi	a6,a6,1
     8e2:	0306                	slli	t1,t1,0x1
     8e4:	0900                	addi	s0,sp,144
     8e6:	0000                	unimp
     8e8:	0501                	addi	a0,a0,0
     8ea:	0609                	addi	a2,a2,2
     8ec:	04090103          	lb	sp,64(s2)
     8f0:	0100                	addi	s0,sp,128
     8f2:	1205                	addi	tp,tp,-31
     8f4:	0306                	slli	t1,t1,0x1
     8f6:	0900                	addi	s0,sp,144
     8f8:	0000                	unimp
     8fa:	0501                	addi	a0,a0,0
     8fc:	030e                	slli	t1,t1,0x3
     8fe:	0900                	addi	s0,sp,144
     900:	000c                	0xc
     902:	0501                	addi	a0,a0,0
     904:	0610                	addi	a2,sp,768
     906:	04090303          	lb	t1,64(s2)
     90a:	0100                	addi	s0,sp,128
     90c:	0905                	addi	s2,s2,1
     90e:	20095603          	lhu	a2,512(s2)
     912:	0100                	addi	s0,sp,128
     914:	0304                	addi	s1,sp,384
     916:	0505                	addi	a0,a0,1
     918:	00090703          	lb	a4,0(s2)
     91c:	0100                	addi	s0,sp,128
     91e:	1305                	addi	t1,t1,-31
     920:	0306                	slli	t1,t1,0x1
     922:	0900                	addi	s0,sp,144
     924:	0000                	unimp
     926:	0501                	addi	a0,a0,0
     928:	0605                	addi	a2,a2,1
     92a:	02090103          	lb	sp,32(s2)
     92e:	0100                	addi	s0,sp,128
     930:	1305                	addi	t1,t1,-31
     932:	0306                	slli	t1,t1,0x1
     934:	0900                	addi	s0,sp,144
     936:	0000                	unimp
     938:	0501                	addi	a0,a0,0
     93a:	0605                	addi	a2,a2,1
     93c:	02090103          	lb	sp,32(s2)
     940:	0100                	addi	s0,sp,128
     942:	1305                	addi	t1,t1,-31
     944:	0306                	slli	t1,t1,0x1
     946:	0900                	addi	s0,sp,144
     948:	0000                	unimp
     94a:	0501                	addi	a0,a0,0
     94c:	0605                	addi	a2,a2,1
     94e:	02090103          	lb	sp,32(s2)
     952:	0100                	addi	s0,sp,128
     954:	0204                	addi	s1,sp,256
     956:	0905                	addi	s2,s2,1
     958:	04097703          	0x4097703
     95c:	0100                	addi	s0,sp,128
     95e:	1305                	addi	t1,t1,-31
     960:	0306                	slli	t1,t1,0x1
     962:	0900                	addi	s0,sp,144
     964:	0000                	unimp
     966:	0501                	addi	a0,a0,0
     968:	0610                	addi	a2,sp,768
     96a:	04092903          	lw	s2,64(s2)
     96e:	0100                	addi	s0,sp,128
     970:	0905                	addi	s2,s2,1
     972:	06090103          	lb	sp,96(s2)
     976:	0100                	addi	s0,sp,128
     978:	0505                	addi	a0,a0,1
     97a:	04095b03          	lhu	s6,64(s2)
     97e:	0100                	addi	s0,sp,128
     980:	1b05                	addi	s6,s6,-31
     982:	0306                	slli	t1,t1,0x1
     984:	0900                	addi	s0,sp,144
     986:	0000                	unimp
     988:	0501                	addi	a0,a0,0
     98a:	031f 0900 000e      	0xe0900031f
     990:	0501                	addi	a0,a0,0
     992:	0605                	addi	a2,a2,1
     994:	06090103          	lb	sp,96(s2)
     998:	0100                	addi	s0,sp,128
     99a:	0905                	addi	s2,s2,1
     99c:	00090103          	lb	sp,0(s2)
     9a0:	0100                	addi	s0,sp,128
     9a2:	0505                	addi	a0,a0,1
     9a4:	00097703          	0x97703
     9a8:	0100                	addi	s0,sp,128
     9aa:	0805                	addi	a6,a6,1
     9ac:	0306                	slli	t1,t1,0x1
     9ae:	0900                	addi	s0,sp,144
     9b0:	0000                	unimp
     9b2:	0401                	addi	s0,s0,0
     9b4:	0501                	addi	a0,a0,0
     9b6:	0315                	addi	t1,t1,5
     9b8:	090d                	addi	s2,s2,3
     9ba:	0006                	c.slli	zero,0x1
     9bc:	0501                	addi	a0,a0,0
     9be:	097b030f          	0x97b030f
     9c2:	0002                	c.slli64	zero
     9c4:	0401                	addi	s0,s0,0
     9c6:	0502                	c.slli64	a0
     9c8:	0301                	addi	t1,t1,0
     9ca:	0926                	slli	s2,s2,0x9
     9cc:	0002                	c.slli64	zero
     9ce:	0501                	addi	a0,a0,0
     9d0:	0609                	addi	a2,a2,2
     9d2:	02095303          	lhu	t1,32(s2)
     9d6:	0100                	addi	s0,sp,128
     9d8:	0304                	addi	s1,sp,384
     9da:	0505                	addi	a0,a0,1
     9dc:	00090703          	lb	a4,0(s2)
     9e0:	0100                	addi	s0,sp,128
     9e2:	1305                	addi	t1,t1,-31
     9e4:	0306                	slli	t1,t1,0x1
     9e6:	0900                	addi	s0,sp,144
     9e8:	0000                	unimp
     9ea:	0501                	addi	a0,a0,0
     9ec:	0605                	addi	a2,a2,1
     9ee:	02090103          	lb	sp,32(s2)
     9f2:	0100                	addi	s0,sp,128
     9f4:	1305                	addi	t1,t1,-31
     9f6:	0306                	slli	t1,t1,0x1
     9f8:	0900                	addi	s0,sp,144
     9fa:	0000                	unimp
     9fc:	0501                	addi	a0,a0,0
     9fe:	0605                	addi	a2,a2,1
     a00:	02090103          	lb	sp,32(s2)
     a04:	0100                	addi	s0,sp,128
     a06:	1305                	addi	t1,t1,-31
     a08:	0306                	slli	t1,t1,0x1
     a0a:	0900                	addi	s0,sp,144
     a0c:	0000                	unimp
     a0e:	0501                	addi	a0,a0,0
     a10:	0605                	addi	a2,a2,1
     a12:	02090103          	lb	sp,32(s2)
     a16:	0100                	addi	s0,sp,128
     a18:	0204                	addi	s1,sp,256
     a1a:	0905                	addi	s2,s2,1
     a1c:	04097703          	0x4097703
     a20:	0100                	addi	s0,sp,128
     a22:	1305                	addi	t1,t1,-31
     a24:	0306                	slli	t1,t1,0x1
     a26:	0900                	addi	s0,sp,144
     a28:	0000                	unimp
     a2a:	0501                	addi	a0,a0,0
     a2c:	0610                	addi	a2,sp,768
     a2e:	04092903          	lw	s2,64(s2)
     a32:	0100                	addi	s0,sp,128
     a34:	0905                	addi	s2,s2,1
     a36:	06090103          	lb	sp,96(s2)
     a3a:	0100                	addi	s0,sp,128
     a3c:	0505                	addi	a0,a0,1
     a3e:	04095b03          	lhu	s6,64(s2)
     a42:	0100                	addi	s0,sp,128
     a44:	1b05                	addi	s6,s6,-31
     a46:	0306                	slli	t1,t1,0x1
     a48:	0900                	addi	s0,sp,144
     a4a:	0000                	unimp
     a4c:	0501                	addi	a0,a0,0
     a4e:	031f 0900 000e      	0xe0900031f
     a54:	0501                	addi	a0,a0,0
     a56:	0605                	addi	a2,a2,1
     a58:	06090103          	lb	sp,96(s2)
     a5c:	0100                	addi	s0,sp,128
     a5e:	0905                	addi	s2,s2,1
     a60:	00090103          	lb	sp,0(s2)
     a64:	0100                	addi	s0,sp,128
     a66:	0505                	addi	a0,a0,1
     a68:	00097703          	0x97703
     a6c:	0100                	addi	s0,sp,128
     a6e:	0805                	addi	a6,a6,1
     a70:	0306                	slli	t1,t1,0x1
     a72:	0900                	addi	s0,sp,144
     a74:	0000                	unimp
     a76:	0401                	addi	s0,s0,0
     a78:	0501                	addi	a0,a0,0
     a7a:	0325                	addi	t1,t1,9
     a7c:	0006090f          	0x6090f
     a80:	0501                	addi	a0,a0,0
     a82:	0975030b          	0x975030b
     a86:	0002                	c.slli64	zero
     a88:	0401                	addi	s0,s0,0
     a8a:	0502                	c.slli64	a0
     a8c:	0301                	addi	t1,t1,0
     a8e:	092a                	slli	s2,s2,0xa
     a90:	0002                	c.slli64	zero
     a92:	0501                	addi	a0,a0,0
     a94:	0609                	addi	a2,a2,2
     a96:	02095303          	lhu	t1,32(s2)
     a9a:	0100                	addi	s0,sp,128
     a9c:	0304                	addi	s1,sp,384
     a9e:	0505                	addi	a0,a0,1
     aa0:	00090703          	lb	a4,0(s2)
     aa4:	0100                	addi	s0,sp,128
     aa6:	1305                	addi	t1,t1,-31
     aa8:	0306                	slli	t1,t1,0x1
     aaa:	0900                	addi	s0,sp,144
     aac:	0000                	unimp
     aae:	0501                	addi	a0,a0,0
     ab0:	0605                	addi	a2,a2,1
     ab2:	02090103          	lb	sp,32(s2)
     ab6:	0100                	addi	s0,sp,128
     ab8:	1305                	addi	t1,t1,-31
     aba:	0306                	slli	t1,t1,0x1
     abc:	0900                	addi	s0,sp,144
     abe:	0000                	unimp
     ac0:	0501                	addi	a0,a0,0
     ac2:	0605                	addi	a2,a2,1
     ac4:	02090103          	lb	sp,32(s2)
     ac8:	0100                	addi	s0,sp,128
     aca:	1305                	addi	t1,t1,-31
     acc:	0306                	slli	t1,t1,0x1
     ace:	0900                	addi	s0,sp,144
     ad0:	0000                	unimp
     ad2:	0501                	addi	a0,a0,0
     ad4:	0605                	addi	a2,a2,1
     ad6:	02090103          	lb	sp,32(s2)
     ada:	0100                	addi	s0,sp,128
     adc:	0204                	addi	s1,sp,256
     ade:	0905                	addi	s2,s2,1
     ae0:	04097703          	0x4097703
     ae4:	0100                	addi	s0,sp,128
     ae6:	1305                	addi	t1,t1,-31
     ae8:	0306                	slli	t1,t1,0x1
     aea:	0900                	addi	s0,sp,144
     aec:	0000                	unimp
     aee:	0501                	addi	a0,a0,0
     af0:	0610                	addi	a2,sp,768
     af2:	04092903          	lw	s2,64(s2)
     af6:	0100                	addi	s0,sp,128
     af8:	0905                	addi	s2,s2,1
     afa:	06090103          	lb	sp,96(s2)
     afe:	0100                	addi	s0,sp,128
     b00:	0505                	addi	a0,a0,1
     b02:	04095b03          	lhu	s6,64(s2)
     b06:	0100                	addi	s0,sp,128
     b08:	1b05                	addi	s6,s6,-31
     b0a:	0306                	slli	t1,t1,0x1
     b0c:	0900                	addi	s0,sp,144
     b0e:	0000                	unimp
     b10:	0501                	addi	a0,a0,0
     b12:	031f 0900 000e      	0xe0900031f
     b18:	0501                	addi	a0,a0,0
     b1a:	0605                	addi	a2,a2,1
     b1c:	06090103          	lb	sp,96(s2)
     b20:	0100                	addi	s0,sp,128
     b22:	0905                	addi	s2,s2,1
     b24:	00090103          	lb	sp,0(s2)
     b28:	0100                	addi	s0,sp,128
     b2a:	0505                	addi	a0,a0,1
     b2c:	00097703          	0x97703
     b30:	0100                	addi	s0,sp,128
     b32:	0805                	addi	a6,a6,1
     b34:	0306                	slli	t1,t1,0x1
     b36:	0900                	addi	s0,sp,144
     b38:	0000                	unimp
     b3a:	0501                	addi	a0,a0,0
     b3c:	0301                	addi	t1,t1,0
     b3e:	092e                	slli	s2,s2,0xb
     b40:	0006                	c.slli	zero,0x1
     b42:	0501                	addi	a0,a0,0
     b44:	0609                	addi	a2,a2,2
     b46:	04095303          	lhu	t1,64(s2)
     b4a:	0100                	addi	s0,sp,128
     b4c:	0304                	addi	s1,sp,384
     b4e:	0505                	addi	a0,a0,1
     b50:	00090703          	lb	a4,0(s2)
     b54:	0100                	addi	s0,sp,128
     b56:	1305                	addi	t1,t1,-31
     b58:	0306                	slli	t1,t1,0x1
     b5a:	0900                	addi	s0,sp,144
     b5c:	0000                	unimp
     b5e:	0501                	addi	a0,a0,0
     b60:	0605                	addi	a2,a2,1
     b62:	02090103          	lb	sp,32(s2)
     b66:	0100                	addi	s0,sp,128
     b68:	1305                	addi	t1,t1,-31
     b6a:	0306                	slli	t1,t1,0x1
     b6c:	0900                	addi	s0,sp,144
     b6e:	0000                	unimp
     b70:	0501                	addi	a0,a0,0
     b72:	0605                	addi	a2,a2,1
     b74:	02090103          	lb	sp,32(s2)
     b78:	0100                	addi	s0,sp,128
     b7a:	1305                	addi	t1,t1,-31
     b7c:	0306                	slli	t1,t1,0x1
     b7e:	0900                	addi	s0,sp,144
     b80:	0000                	unimp
     b82:	0501                	addi	a0,a0,0
     b84:	0605                	addi	a2,a2,1
     b86:	02090103          	lb	sp,32(s2)
     b8a:	0100                	addi	s0,sp,128
     b8c:	0204                	addi	s1,sp,256
     b8e:	0905                	addi	s2,s2,1
     b90:	04097703          	0x4097703
     b94:	0100                	addi	s0,sp,128
     b96:	1305                	addi	t1,t1,-31
     b98:	0306                	slli	t1,t1,0x1
     b9a:	0900                	addi	s0,sp,144
     b9c:	0000                	unimp
     b9e:	0501                	addi	a0,a0,0
     ba0:	0610                	addi	a2,sp,768
     ba2:	04092903          	lw	s2,64(s2)
     ba6:	0100                	addi	s0,sp,128
     ba8:	0905                	addi	s2,s2,1
     baa:	06090103          	lb	sp,96(s2)
     bae:	0100                	addi	s0,sp,128
     bb0:	0505                	addi	a0,a0,1
     bb2:	04095b03          	lhu	s6,64(s2)
     bb6:	0100                	addi	s0,sp,128
     bb8:	1b05                	addi	s6,s6,-31
     bba:	0306                	slli	t1,t1,0x1
     bbc:	0900                	addi	s0,sp,144
     bbe:	0000                	unimp
     bc0:	0501                	addi	a0,a0,0
     bc2:	031f 0900 000e      	0xe0900031f
     bc8:	0501                	addi	a0,a0,0
     bca:	0605                	addi	a2,a2,1
     bcc:	06090103          	lb	sp,96(s2)
     bd0:	0100                	addi	s0,sp,128
     bd2:	0905                	addi	s2,s2,1
     bd4:	00090103          	lb	sp,0(s2)
     bd8:	0100                	addi	s0,sp,128
     bda:	0505                	addi	a0,a0,1
     bdc:	00097703          	0x97703
     be0:	0100                	addi	s0,sp,128
     be2:	0805                	addi	a6,a6,1
     be4:	0306                	slli	t1,t1,0x1
     be6:	0900                	addi	s0,sp,144
     be8:	0000                	unimp
     bea:	0501                	addi	a0,a0,0
     bec:	0301                	addi	t1,t1,0
     bee:	092e                	slli	s2,s2,0xb
     bf0:	0006                	c.slli	zero,0x1
     bf2:	0401                	addi	s0,s0,0
     bf4:	0501                	addi	a0,a0,0
     bf6:	0309                	addi	t1,t1,2
     bf8:	095c                	addi	a5,sp,148
     bfa:	0004                	0x4
     bfc:	0501                	addi	a0,a0,0
     bfe:	0611                	addi	a2,a2,4
     c00:	0a090f03          	lb	t5,160(s2)
     c04:	0100                	addi	s0,sp,128
     c06:	1805                	addi	a6,a6,-31
     c08:	0306                	slli	t1,t1,0x1
     c0a:	0900                	addi	s0,sp,144
     c0c:	0000                	unimp
     c0e:	0501                	addi	a0,a0,0
     c10:	0314                	addi	a3,sp,384
     c12:	0900                	addi	s0,sp,144
     c14:	0006                	c.slli	zero,0x1
     c16:	0401                	addi	s0,s0,0
     c18:	0502                	c.slli64	a0
     c1a:	060c                	addi	a1,sp,768
     c1c:	02097503          	0x2097503
     c20:	0100                	addi	s0,sp,128
     c22:	0104                	addi	s1,sp,128
     c24:	1705                	addi	a4,a4,-31
     c26:	0306                	slli	t1,t1,0x1
     c28:	090c                	addi	a1,sp,144
     c2a:	000c                	0xc
     c2c:	0401                	addi	s0,s0,0
     c2e:	0502                	c.slli64	a0
     c30:	030c                	addi	a1,sp,384
     c32:	0974                	addi	a3,sp,156
     c34:	0002                	c.slli64	zero
     c36:	0501                	addi	a0,a0,0
     c38:	0609                	addi	a2,a2,2
     c3a:	06090303          	lb	t1,96(s2)
     c3e:	0100                	addi	s0,sp,128
     c40:	1b05                	addi	s6,s6,-31
     c42:	0306                	slli	t1,t1,0x1
     c44:	0900                	addi	s0,sp,144
     c46:	0000                	unimp
     c48:	0501                	addi	a0,a0,0
     c4a:	0309                	addi	t1,t1,2
     c4c:	0900                	addi	s0,sp,144
     c4e:	0002                	c.slli64	zero
     c50:	0501                	addi	a0,a0,0
     c52:	0605                	addi	a2,a2,1
     c54:	04097603          	0x4097603
     c58:	0100                	addi	s0,sp,128
     c5a:	1b05                	addi	s6,s6,-31
     c5c:	0306                	slli	t1,t1,0x1
     c5e:	0900                	addi	s0,sp,144
     c60:	0000                	unimp
     c62:	0501                	addi	a0,a0,0
     c64:	031f 0900 000e      	0xe0900031f
     c6a:	0501                	addi	a0,a0,0
     c6c:	0605                	addi	a2,a2,1
     c6e:	06090103          	lb	sp,96(s2)
     c72:	0100                	addi	s0,sp,128
     c74:	0905                	addi	s2,s2,1
     c76:	00090103          	lb	sp,0(s2)
     c7a:	0100                	addi	s0,sp,128
     c7c:	0505                	addi	a0,a0,1
     c7e:	00097703          	0x97703
     c82:	0100                	addi	s0,sp,128
     c84:	0805                	addi	a6,a6,1
     c86:	0306                	slli	t1,t1,0x1
     c88:	0900                	addi	s0,sp,144
     c8a:	0000                	unimp
     c8c:	0501                	addi	a0,a0,0
     c8e:	060c                	addi	a1,sp,768
     c90:	04090e03          	lb	t3,64(s2)
     c94:	0100                	addi	s0,sp,128
     c96:	0905                	addi	s2,s2,1
     c98:	0a090103          	lb	sp,160(s2)
     c9c:	0100                	addi	s0,sp,128
     c9e:	0c05                	addi	s8,s8,1
     ca0:	0306                	slli	t1,t1,0x1
     ca2:	0900                	addi	s0,sp,144
     ca4:	0000                	unimp
     ca6:	0501                	addi	a0,a0,0
     ca8:	060d                	addi	a2,a2,3
     caa:	04090103          	lb	sp,64(s2)
     cae:	0100                	addi	s0,sp,128
     cb0:	0505                	addi	a0,a0,1
     cb2:	00097703          	0x97703
     cb6:	0100                	addi	s0,sp,128
     cb8:	1b05                	addi	s6,s6,-31
     cba:	0306                	slli	t1,t1,0x1
     cbc:	0900                	addi	s0,sp,144
     cbe:	0000                	unimp
     cc0:	0501                	addi	a0,a0,0
     cc2:	031f 0900 000c      	0xc0900031f
     cc8:	0501                	addi	a0,a0,0
     cca:	0605                	addi	a2,a2,1
     ccc:	06090103          	lb	sp,96(s2)
     cd0:	0100                	addi	s0,sp,128
     cd2:	0905                	addi	s2,s2,1
     cd4:	00090103          	lb	sp,0(s2)
     cd8:	0100                	addi	s0,sp,128
     cda:	0505                	addi	a0,a0,1
     cdc:	00097703          	0x97703
     ce0:	0100                	addi	s0,sp,128
     ce2:	0805                	addi	a6,a6,1
     ce4:	0306                	slli	t1,t1,0x1
     ce6:	0900                	addi	s0,sp,144
     ce8:	0000                	unimp
     cea:	0501                	addi	a0,a0,0
     cec:	0609                	addi	a2,a2,2
     cee:	04090103          	lb	sp,64(s2)
     cf2:	0100                	addi	s0,sp,128
     cf4:	0304                	addi	s1,sp,384
     cf6:	0505                	addi	a0,a0,1
     cf8:	00090703          	lb	a4,0(s2)
     cfc:	0100                	addi	s0,sp,128
     cfe:	1305                	addi	t1,t1,-31
     d00:	0306                	slli	t1,t1,0x1
     d02:	0900                	addi	s0,sp,144
     d04:	0000                	unimp
     d06:	0501                	addi	a0,a0,0
     d08:	0605                	addi	a2,a2,1
     d0a:	02090103          	lb	sp,32(s2)
     d0e:	0100                	addi	s0,sp,128
     d10:	1305                	addi	t1,t1,-31
     d12:	0306                	slli	t1,t1,0x1
     d14:	0900                	addi	s0,sp,144
     d16:	0000                	unimp
     d18:	0501                	addi	a0,a0,0
     d1a:	0605                	addi	a2,a2,1
     d1c:	02090103          	lb	sp,32(s2)
     d20:	0100                	addi	s0,sp,128
     d22:	1305                	addi	t1,t1,-31
     d24:	0306                	slli	t1,t1,0x1
     d26:	0900                	addi	s0,sp,144
     d28:	0000                	unimp
     d2a:	0501                	addi	a0,a0,0
     d2c:	0605                	addi	a2,a2,1
     d2e:	02090103          	lb	sp,32(s2)
     d32:	0100                	addi	s0,sp,128
     d34:	0204                	addi	s1,sp,256
     d36:	0905                	addi	s2,s2,1
     d38:	04097703          	0x4097703
     d3c:	0100                	addi	s0,sp,128
     d3e:	00090f03          	lb	t5,0(s2)
     d42:	0100                	addi	s0,sp,128
     d44:	1b05                	addi	s6,s6,-31
     d46:	0306                	slli	t1,t1,0x1
     d48:	0900                	addi	s0,sp,144
     d4a:	0000                	unimp
     d4c:	0501                	addi	a0,a0,0
     d4e:	0309                	addi	t1,t1,2
     d50:	0900                	addi	s0,sp,144
     d52:	0002                	c.slli64	zero
     d54:	0501                	addi	a0,a0,0
     d56:	0605                	addi	a2,a2,1
     d58:	04097603          	0x4097603
     d5c:	0100                	addi	s0,sp,128
     d5e:	1b05                	addi	s6,s6,-31
     d60:	0306                	slli	t1,t1,0x1
     d62:	0900                	addi	s0,sp,144
     d64:	0000                	unimp
     d66:	0501                	addi	a0,a0,0
     d68:	031f 0900 0004      	0x40900031f
     d6e:	0501                	addi	a0,a0,0
     d70:	0605                	addi	a2,a2,1
     d72:	04090103          	lb	sp,64(s2)
     d76:	0100                	addi	s0,sp,128
     d78:	0905                	addi	s2,s2,1
     d7a:	00090103          	lb	sp,0(s2)
     d7e:	0100                	addi	s0,sp,128
     d80:	0505                	addi	a0,a0,1
     d82:	00097703          	0x97703
     d86:	0100                	addi	s0,sp,128
     d88:	0905                	addi	s2,s2,1
     d8a:	02090103          	lb	sp,32(s2)
     d8e:	0100                	addi	s0,sp,128
     d90:	0304                	addi	s1,sp,384
     d92:	0505                	addi	a0,a0,1
     d94:	00090703          	lb	a4,0(s2)
     d98:	0100                	addi	s0,sp,128
     d9a:	1305                	addi	t1,t1,-31
     d9c:	0306                	slli	t1,t1,0x1
     d9e:	0900                	addi	s0,sp,144
     da0:	0000                	unimp
     da2:	0501                	addi	a0,a0,0
     da4:	0605                	addi	a2,a2,1
     da6:	02090103          	lb	sp,32(s2)
     daa:	0100                	addi	s0,sp,128
     dac:	1305                	addi	t1,t1,-31
     dae:	0306                	slli	t1,t1,0x1
     db0:	0900                	addi	s0,sp,144
     db2:	0000                	unimp
     db4:	0501                	addi	a0,a0,0
     db6:	0605                	addi	a2,a2,1
     db8:	02090103          	lb	sp,32(s2)
     dbc:	0100                	addi	s0,sp,128
     dbe:	1305                	addi	t1,t1,-31
     dc0:	0306                	slli	t1,t1,0x1
     dc2:	0900                	addi	s0,sp,144
     dc4:	0000                	unimp
     dc6:	0501                	addi	a0,a0,0
     dc8:	0605                	addi	a2,a2,1
     dca:	02090103          	lb	sp,32(s2)
     dce:	0100                	addi	s0,sp,128
     dd0:	0204                	addi	s1,sp,256
     dd2:	0905                	addi	s2,s2,1
     dd4:	04097703          	0x4097703
     dd8:	0100                	addi	s0,sp,128
     dda:	1305                	addi	t1,t1,-31
     ddc:	0306                	slli	t1,t1,0x1
     dde:	0900                	addi	s0,sp,144
     de0:	0000                	unimp
     de2:	0401                	addi	s0,s0,0
     de4:	0501                	addi	a0,a0,0
     de6:	0906030f          	0x906030f
     dea:	0006                	c.slli	zero,0x1
     dec:	0501                	addi	a0,a0,0
     dee:	0611                	addi	a2,a2,4
     df0:	02091a03          	lh	s4,32(s2)
     df4:	0100                	addi	s0,sp,128
     df6:	0204                	addi	s1,sp,256
     df8:	0505                	addi	a0,a0,1
     dfa:	00096503          	lwu	a0,0(s2)
     dfe:	0100                	addi	s0,sp,128
     e00:	1b05                	addi	s6,s6,-31
     e02:	0306                	slli	t1,t1,0x1
     e04:	0900                	addi	s0,sp,144
     e06:	0000                	unimp
     e08:	0501                	addi	a0,a0,0
     e0a:	031f 0900 0006      	0x60900031f
     e10:	0501                	addi	a0,a0,0
     e12:	0605                	addi	a2,a2,1
     e14:	08090103          	lb	sp,128(s2)
     e18:	0100                	addi	s0,sp,128
     e1a:	0905                	addi	s2,s2,1
     e1c:	00090103          	lb	sp,0(s2)
     e20:	0100                	addi	s0,sp,128
     e22:	0505                	addi	a0,a0,1
     e24:	00097703          	0x97703
     e28:	0100                	addi	s0,sp,128
     e2a:	0805                	addi	a6,a6,1
     e2c:	0306                	slli	t1,t1,0x1
     e2e:	0900                	addi	s0,sp,144
     e30:	0000                	unimp
     e32:	0401                	addi	s0,s0,0
     e34:	0501                	addi	a0,a0,0
     e36:	0611                	addi	a2,a2,4
     e38:	04092303          	lw	t1,64(s2)
     e3c:	0100                	addi	s0,sp,128
     e3e:	0204                	addi	s1,sp,256
     e40:	0505                	addi	a0,a0,1
     e42:	00096403          	lwu	s0,0(s2)
     e46:	0100                	addi	s0,sp,128
     e48:	1b05                	addi	s6,s6,-31
     e4a:	0306                	slli	t1,t1,0x1
     e4c:	0900                	addi	s0,sp,144
     e4e:	0000                	unimp
     e50:	0501                	addi	a0,a0,0
     e52:	031f 0900 0008      	0x80900031f
     e58:	0401                	addi	s0,s0,0
     e5a:	0501                	addi	a0,a0,0
     e5c:	0311                	addi	t1,t1,4
     e5e:	091c                	addi	a5,sp,144
     e60:	0002                	c.slli64	zero
     e62:	0401                	addi	s0,s0,0
     e64:	0502                	c.slli64	a0
     e66:	0605                	addi	a2,a2,1
     e68:	04096503          	lwu	a0,64(s2)
     e6c:	0100                	addi	s0,sp,128
     e6e:	0905                	addi	s2,s2,1
     e70:	00090103          	lb	sp,0(s2)
     e74:	0100                	addi	s0,sp,128
     e76:	0505                	addi	a0,a0,1
     e78:	00097703          	0x97703
     e7c:	0100                	addi	s0,sp,128
     e7e:	0805                	addi	a6,a6,1
     e80:	0306                	slli	t1,t1,0x1
     e82:	0900                	addi	s0,sp,144
     e84:	0002                	c.slli64	zero
     e86:	0501                	addi	a0,a0,0
     e88:	0609                	addi	a2,a2,2
     e8a:	04090103          	lb	sp,64(s2)
     e8e:	0100                	addi	s0,sp,128
     e90:	0304                	addi	s1,sp,384
     e92:	0505                	addi	a0,a0,1
     e94:	00090703          	lb	a4,0(s2)
     e98:	0100                	addi	s0,sp,128
     e9a:	1305                	addi	t1,t1,-31
     e9c:	0306                	slli	t1,t1,0x1
     e9e:	0900                	addi	s0,sp,144
     ea0:	0000                	unimp
     ea2:	0501                	addi	a0,a0,0
     ea4:	0605                	addi	a2,a2,1
     ea6:	02090103          	lb	sp,32(s2)
     eaa:	0100                	addi	s0,sp,128
     eac:	1305                	addi	t1,t1,-31
     eae:	0306                	slli	t1,t1,0x1
     eb0:	0900                	addi	s0,sp,144
     eb2:	0000                	unimp
     eb4:	0501                	addi	a0,a0,0
     eb6:	0605                	addi	a2,a2,1
     eb8:	02090103          	lb	sp,32(s2)
     ebc:	0100                	addi	s0,sp,128
     ebe:	1305                	addi	t1,t1,-31
     ec0:	0306                	slli	t1,t1,0x1
     ec2:	0900                	addi	s0,sp,144
     ec4:	0000                	unimp
     ec6:	0501                	addi	a0,a0,0
     ec8:	0605                	addi	a2,a2,1
     eca:	02090103          	lb	sp,32(s2)
     ece:	0100                	addi	s0,sp,128
     ed0:	0204                	addi	s1,sp,256
     ed2:	0905                	addi	s2,s2,1
     ed4:	04097703          	0x4097703
     ed8:	0100                	addi	s0,sp,128
     eda:	1305                	addi	t1,t1,-31
     edc:	0306                	slli	t1,t1,0x1
     ede:	0900                	addi	s0,sp,144
     ee0:	0000                	unimp
     ee2:	0501                	addi	a0,a0,0
     ee4:	0609                	addi	a2,a2,2
     ee6:	06097f03          	0x6097f03
     eea:	0100                	addi	s0,sp,128
     eec:	0304                	addi	s1,sp,384
     eee:	0505                	addi	a0,a0,1
     ef0:	00090703          	lb	a4,0(s2)
     ef4:	0100                	addi	s0,sp,128
     ef6:	1305                	addi	t1,t1,-31
     ef8:	0306                	slli	t1,t1,0x1
     efa:	0900                	addi	s0,sp,144
     efc:	0000                	unimp
     efe:	0501                	addi	a0,a0,0
     f00:	0605                	addi	a2,a2,1
     f02:	02090103          	lb	sp,32(s2)
     f06:	0100                	addi	s0,sp,128
     f08:	1305                	addi	t1,t1,-31
     f0a:	0306                	slli	t1,t1,0x1
     f0c:	0900                	addi	s0,sp,144
     f0e:	0000                	unimp
     f10:	0501                	addi	a0,a0,0
     f12:	0605                	addi	a2,a2,1
     f14:	02090103          	lb	sp,32(s2)
     f18:	0100                	addi	s0,sp,128
     f1a:	1305                	addi	t1,t1,-31
     f1c:	0306                	slli	t1,t1,0x1
     f1e:	0900                	addi	s0,sp,144
     f20:	0000                	unimp
     f22:	0501                	addi	a0,a0,0
     f24:	0605                	addi	a2,a2,1
     f26:	02090103          	lb	sp,32(s2)
     f2a:	0100                	addi	s0,sp,128
     f2c:	0204                	addi	s1,sp,256
     f2e:	0905                	addi	s2,s2,1
     f30:	04097703          	0x4097703
     f34:	0100                	addi	s0,sp,128
     f36:	0104                	addi	s1,sp,128
     f38:	1105                	addi	sp,sp,-31
     f3a:	00092103          	lw	sp,0(s2)
     f3e:	0100                	addi	s0,sp,128
     f40:	0204                	addi	s1,sp,256
     f42:	0505                	addi	a0,a0,1
     f44:	00096403          	lwu	s0,0(s2)
     f48:	0100                	addi	s0,sp,128
     f4a:	1b05                	addi	s6,s6,-31
     f4c:	0306                	slli	t1,t1,0x1
     f4e:	0900                	addi	s0,sp,144
     f50:	0000                	unimp
     f52:	0401                	addi	s0,s0,0
     f54:	0501                	addi	a0,a0,0
     f56:	0311                	addi	t1,t1,4
     f58:	091c                	addi	a5,sp,144
     f5a:	0004                	0x4
     f5c:	0401                	addi	s0,s0,0
     f5e:	0502                	c.slli64	a0
     f60:	0605                	addi	a2,a2,1
     f62:	04096503          	lwu	a0,64(s2)
     f66:	0100                	addi	s0,sp,128
     f68:	0905                	addi	s2,s2,1
     f6a:	00090103          	lb	sp,0(s2)
     f6e:	0100                	addi	s0,sp,128
     f70:	0505                	addi	a0,a0,1
     f72:	00097703          	0x97703
     f76:	0100                	addi	s0,sp,128
     f78:	1f05                	addi	t5,t5,-31
     f7a:	0306                	slli	t1,t1,0x1
     f7c:	00000907          	0x907
     f80:	0401                	addi	s0,s0,0
     f82:	0501                	addi	a0,a0,0
     f84:	0309                	addi	t1,t1,2
     f86:	00040903          	lb	s2,0(s0) # 9000 <_text-0x9f7000>
     f8a:	0501                	addi	a0,a0,0
     f8c:	0611                	addi	a2,a2,4
     f8e:	04090903          	lb	s2,64(s2)
     f92:	0100                	addi	s0,sp,128
     f94:	1505                	addi	a0,a0,-31
     f96:	00090303          	lb	t1,0(s2)
     f9a:	0100                	addi	s0,sp,128
     f9c:	2505                	addiw	a0,a0,1
     f9e:	0306                	slli	t1,t1,0x1
     fa0:	0900                	addi	s0,sp,144
     fa2:	0000                	unimp
     fa4:	0401                	addi	s0,s0,0
     fa6:	0502                	c.slli64	a0
     fa8:	0605                	addi	a2,a2,1
     faa:	04090203          	lb	tp,64(s2)
     fae:	0100                	addi	s0,sp,128
     fb0:	00090103          	lb	sp,0(s2)
     fb4:	0100                	addi	s0,sp,128
     fb6:	00090103          	lb	sp,0(s2)
     fba:	0100                	addi	s0,sp,128
     fbc:	00090203          	lb	tp,0(s2)
     fc0:	0100                	addi	s0,sp,128
     fc2:	0905                	addi	s2,s2,1
     fc4:	00090303          	lb	t1,0(s2)
     fc8:	0100                	addi	s0,sp,128
     fca:	0b05                	addi	s6,s6,1
     fcc:	0306                	slli	t1,t1,0x1
     fce:	0900                	addi	s0,sp,144
     fd0:	0000                	unimp
     fd2:	0501                	addi	a0,a0,0
     fd4:	0605                	addi	a2,a2,1
     fd6:	04090303          	lb	t1,64(s2)
     fda:	0100                	addi	s0,sp,128
     fdc:	0b05                	addi	s6,s6,1
     fde:	0306                	slli	t1,t1,0x1
     fe0:	097d                	addi	s2,s2,31
     fe2:	0000                	unimp
     fe4:	0501                	addi	a0,a0,0
     fe6:	09030307          	0x9030307
     fea:	0004                	0x4
     fec:	0501                	addi	a0,a0,0
     fee:	0605                	addi	a2,a2,1
     ff0:	02090103          	lb	sp,32(s2)
     ff4:	0100                	addi	s0,sp,128
     ff6:	0905                	addi	s2,s2,1
     ff8:	00090103          	lb	sp,0(s2)
     ffc:	0100                	addi	s0,sp,128
     ffe:	0e05                	addi	t3,t3,1
    1000:	0306                	slli	t1,t1,0x1
    1002:	0900                	addi	s0,sp,144
    1004:	0002                	c.slli64	zero
    1006:	0501                	addi	a0,a0,0
    1008:	031d                	addi	t1,t1,7
    100a:	0900                	addi	s0,sp,144
    100c:	0002                	c.slli64	zero
    100e:	0501                	addi	a0,a0,0
    1010:	031a                	slli	t1,t1,0x6
    1012:	0900                	addi	s0,sp,144
    1014:	0004                	0x4
    1016:	0501                	addi	a0,a0,0
    1018:	0312                	slli	t1,t1,0x4
    101a:	0900                	addi	s0,sp,144
    101c:	0002                	c.slli64	zero
    101e:	0501                	addi	a0,a0,0
    1020:	0619                	addi	a2,a2,6
    1022:	08090103          	lb	sp,128(s2)
    1026:	0100                	addi	s0,sp,128
    1028:	1005                	c.nop	-31
    102a:	0306                	slli	t1,t1,0x1
    102c:	0900                	addi	s0,sp,144
    102e:	0002                	c.slli64	zero
    1030:	0501                	addi	a0,a0,0
    1032:	0319                	addi	t1,t1,6
    1034:	0900                	addi	s0,sp,144
    1036:	0002                	c.slli64	zero
    1038:	0501                	addi	a0,a0,0
    103a:	0610                	addi	a2,sp,768
    103c:	06090603          	lb	a2,96(s2)
    1040:	0100                	addi	s0,sp,128
    1042:	0104                	addi	s1,sp,128
    1044:	0105                	addi	sp,sp,1
    1046:	0306                	slli	t1,t1,0x1
    1048:	097c                	addi	a5,sp,156
    104a:	0020                	addi	s0,sp,8
    104c:	0501                	addi	a0,a0,0
    104e:	0624                	addi	s1,sp,776
    1050:	1e090203          	lb	tp,480(s2)
    1054:	0100                	addi	s0,sp,128
    1056:	0505                	addi	a0,a0,1
    1058:	1a090103          	lb	sp,416(s2)
    105c:	0100                	addi	s0,sp,128
    105e:	00090103          	lb	sp,0(s2)
    1062:	0100                	addi	s0,sp,128
    1064:	08090103          	lb	sp,128(s2)
    1068:	0100                	addi	s0,sp,128
    106a:	08090103          	lb	sp,128(s2)
    106e:	0100                	addi	s0,sp,128
    1070:	00090103          	lb	sp,0(s2)
    1074:	0100                	addi	s0,sp,128
    1076:	0204                	addi	s1,sp,256
    1078:	00095203          	lhu	tp,0(s2)
    107c:	0100                	addi	s0,sp,128
    107e:	1305                	addi	t1,t1,-31
    1080:	0306                	slli	t1,t1,0x1
    1082:	0900                	addi	s0,sp,144
    1084:	0000                	unimp
    1086:	0501                	addi	a0,a0,0
    1088:	0308                	addi	a0,sp,384
    108a:	0900                	addi	s0,sp,144
    108c:	0008                	0x8
    108e:	0501                	addi	a0,a0,0
    1090:	0609                	addi	a2,a2,2
    1092:	04090103          	lb	sp,64(s2)
    1096:	0100                	addi	s0,sp,128
    1098:	0304                	addi	s1,sp,384
    109a:	0505                	addi	a0,a0,1
    109c:	00090703          	lb	a4,0(s2)
    10a0:	0100                	addi	s0,sp,128
    10a2:	1305                	addi	t1,t1,-31
    10a4:	0306                	slli	t1,t1,0x1
    10a6:	0900                	addi	s0,sp,144
    10a8:	0000                	unimp
    10aa:	0501                	addi	a0,a0,0
    10ac:	0605                	addi	a2,a2,1
    10ae:	08090103          	lb	sp,128(s2)
    10b2:	0100                	addi	s0,sp,128
    10b4:	00090103          	lb	sp,0(s2)
    10b8:	0100                	addi	s0,sp,128
    10ba:	1305                	addi	t1,t1,-31
    10bc:	0306                	slli	t1,t1,0x1
    10be:	0900                	addi	s0,sp,144
    10c0:	0000                	unimp
    10c2:	0501                	addi	a0,a0,0
    10c4:	0605                	addi	a2,a2,1
    10c6:	02090103          	lb	sp,32(s2)
    10ca:	0100                	addi	s0,sp,128
    10cc:	0204                	addi	s1,sp,256
    10ce:	0905                	addi	s2,s2,1
    10d0:	04097703          	0x4097703
    10d4:	0100                	addi	s0,sp,128
    10d6:	1305                	addi	t1,t1,-31
    10d8:	0306                	slli	t1,t1,0x1
    10da:	0900                	addi	s0,sp,144
    10dc:	0000                	unimp
    10de:	0401                	addi	s0,s0,0
    10e0:	0501                	addi	a0,a0,0
    10e2:	0301                	addi	t1,t1,0
    10e4:	092d                	addi	s2,s2,11
    10e6:	0008                	0x8
    10e8:	0501                	addi	a0,a0,0
    10ea:	0641                	addi	a2,a2,16
    10ec:	08090203          	lb	tp,128(s2)
    10f0:	0100                	addi	s0,sp,128
    10f2:	0505                	addi	a0,a0,1
    10f4:	1a090103          	lb	sp,416(s2)
    10f8:	0100                	addi	s0,sp,128
    10fa:	14090103          	lb	sp,320(s2)
    10fe:	0100                	addi	s0,sp,128
    1100:	00090103          	lb	sp,0(s2)
    1104:	0100                	addi	s0,sp,128
    1106:	08090103          	lb	sp,128(s2)
    110a:	0100                	addi	s0,sp,128
    110c:	0a090103          	lb	sp,160(s2)
    1110:	0100                	addi	s0,sp,128
    1112:	00090103          	lb	sp,0(s2)
    1116:	0100                	addi	s0,sp,128
    1118:	0304                	addi	s1,sp,384
    111a:	00094403          	lbu	s0,0(s2)
    111e:	0100                	addi	s0,sp,128
    1120:	1305                	addi	t1,t1,-31
    1122:	0306                	slli	t1,t1,0x1
    1124:	0900                	addi	s0,sp,144
    1126:	0000                	unimp
    1128:	0501                	addi	a0,a0,0
    112a:	0605                	addi	a2,a2,1
    112c:	02090103          	lb	sp,32(s2)
    1130:	0100                	addi	s0,sp,128
    1132:	1305                	addi	t1,t1,-31
    1134:	0306                	slli	t1,t1,0x1
    1136:	0900                	addi	s0,sp,144
    1138:	0000                	unimp
    113a:	0501                	addi	a0,a0,0
    113c:	0605                	addi	a2,a2,1
    113e:	02090103          	lb	sp,32(s2)
    1142:	0100                	addi	s0,sp,128
    1144:	0104                	addi	s1,sp,128
    1146:	0200                	addi	s0,sp,256
    1148:	0104                	addi	s1,sp,128
    114a:	04093b03          	ld	s6,64(s2)
    114e:	0100                	addi	s0,sp,128
    1150:	0b05                	addi	s6,s6,1
    1152:	0200                	addi	s0,sp,256
    1154:	0104                	addi	s1,sp,128
    1156:	00090003          	lb	zero,0(s2)
    115a:	0100                	addi	s0,sp,128
    115c:	0209                	addi	tp,tp,2
    115e:	0000                	unimp
    1160:	0101                	addi	sp,sp,0

Disassembly of section .debug_line_str:

0000000000000000 <.debug_line_str>:
   0:	6d6f682f          	0x6d6f682f
   4:	2f65                	addiw	t5,t5,25
   6:	2f707967          	0x2f707967
   a:	6544                	ld	s1,136(a0)
   c:	6f746b73          	csrrsi	s6,0x6f7,8
  10:	2f70                	fld	fa2,216(a4)
  12:	4456                	lw	s0,84(sp)
  14:	65706f2f          	0x65706f2f
  18:	6172                	ld	sp,280(sp)
  1a:	6974                	ld	a3,208(a0)
  1c:	676e                	ld	a4,216(sp)
  1e:	732d                	lui	t1,0xfffeb
  20:	7379                	lui	t1,0xffffe
  22:	6574                	ld	a3,200(a0)
  24:	2f6d                	addiw	t5,t5,27
  26:	706d6f63          	bltu	s10,t1,744 <_text-0x9ff8bc>
  2a:	7465                	lui	s0,0xffff9
  2c:	7469                	lui	s0,0xffffa
  2e:	6f69                	lui	t5,0x1a
  30:	2f6e                	fld	ft10,216(sp)
  32:	522d534f          	fnmadd.d	ft6,fs10,ft2,fa0,unknown
  36:	5349                	li	t1,-14
  38:	752f5643          	0x752f5643
  3c:	00726573          	csrrsi	a0,0x7,4
  40:	6e45                	lui	t3,0x11
  42:	7274                	ld	a3,224(a2)
  44:	2e79                	addiw	t3,t3,30
  46:	6f460053          	0x6f460053
  4a:	6b72                	ld	s6,280(sp)
  4c:	6554                	ld	a3,136(a0)
  4e:	632e7473          	csrrci	s0,0x632,28
  52:	4600                	lw	s0,8(a2)
  54:	2e6b726f          	jal	tp,b733a <_text-0x948cc6>
  58:	0068                	addi	a0,sp,12
  5a:	63737953          	0x63737953
  5e:	6c61                	lui	s8,0x18
  60:	2e6c                	fld	fa1,216(a2)
  62:	0068                	addi	a0,sp,12
  64:	7250                	ld	a2,160(a2)
  66:	6e69                	lui	t3,0x1a
  68:	6674                	ld	a3,200(a2)
  6a:	682e                	ld	a6,200(sp)
  6c:	4c00                	lw	s0,24(s0)
  6e:	6269                	lui	tp,0x1a
  70:	614d                	addi	sp,sp,176
  72:	6e69                	lui	t3,0x1a
  74:	632e                	ld	t1,200(sp)
  76:	5000                	lw	s0,32(s0)
  78:	6972                	ld	s2,280(sp)
  7a:	746e                	ld	s0,248(sp)
  7c:	2e66                	fld	ft8,88(sp)
  7e:	2f2e0063          	beq	t3,s2,35e <_text-0x9ffca2>
  82:	6e69                	lui	t3,0x1a
  84:	64756c63          	bltu	a0,t2,6dc <_text-0x9ff924>
  88:	2f65                	addiw	t5,t5,25
  8a:	2e2e                	fld	ft8,200(sp)
  8c:	2f2e2e2f          	0x2f2e2e2f
  90:	6e69                	lui	t3,0x1a
  92:	64756c63          	bltu	a0,t2,6ea <_text-0x9ff916>
  96:	0065                	c.nop	25
  98:	7954                	ld	a3,176(a0)
  9a:	6570                	ld	a2,200(a0)
  9c:	682e                	ld	a6,200(sp)
	...

Disassembly of section .debug_info:

0000000000000000 <.debug_info>:
   0:	0024                	addi	s1,sp,8
   2:	0000                	unimp
   4:	0005                	c.nop	1
   6:	0801                	addi	a6,a6,0
   8:	0000                	unimp
   a:	0000                	unimp
   c:	0001                	nop
   e:	0000                	unimp
  10:	0000                	unimp
  12:	a000                	fsd	fs0,0(s0)
  14:	0000                	unimp
  16:	0000                	unimp
  18:	0800                	addi	s0,sp,16
  1a:	0000                	unimp
  1c:	0000                	unimp
  1e:	0008                	0x8
  20:	0000                	unimp
  22:	0048                	addi	a0,sp,4
  24:	0000                	unimp
  26:	8001                	c.srli64	s0
  28:	0285                	addi	t0,t0,1
  2a:	0000                	unimp
  2c:	0005                	c.nop	1
  2e:	0801                	addi	a6,a6,0
  30:	0014                	0x14
  32:	0000                	unimp
  34:	0000540b          	0x540b
  38:	1d00                	addi	s0,sp,688
  3a:	0048                	addi	a0,sp,4
  3c:	0000                	unimp
  3e:	0000                	unimp
  40:	0000                	unimp
  42:	0004                	0x4
  44:	00a0                	addi	s0,sp,72
  46:	0000                	unimp
  48:	0000                	unimp
  4a:	0096                	slli	ra,ra,0x5
  4c:	0000                	unimp
  4e:	0000                	unimp
  50:	0000                	unimp
  52:	0048                	addi	a0,sp,4
  54:	0000                	unimp
  56:	0102                	c.slli64	sp
  58:	3708                	fld	fa0,40(a4)
  5a:	0001                	nop
  5c:	0200                	addi	s0,sp,256
  5e:	0702                	c.slli64	a4
  60:	015f 0000 0402      	0x4020000015f
  66:	00012a07          	flw	fs4,0(sp)
  6a:	0200                	addi	s0,sp,256
  6c:	0708                	addi	a0,sp,896
  6e:	0125                	addi	sp,sp,9
  70:	0000                	unimp
  72:	0102                	c.slli64	sp
  74:	3906                	fld	fs2,96(sp)
  76:	0001                	nop
  78:	0200                	addi	s0,sp,256
  7a:	0502                	c.slli64	a0
  7c:	019d                	addi	gp,gp,7
  7e:	0000                	unimp
  80:	040c                	addi	a1,sp,512
  82:	6905                	lui	s2,0x1
  84:	746e                	ld	s0,248(sp)
  86:	0200                	addi	s0,sp,256
  88:	0508                	addi	a0,sp,640
  8a:	0145                	addi	sp,sp,17
  8c:	0000                	unimp
  8e:	00007607          	0x7607
  92:	7600                	ld	s0,40(a2)
  94:	0000                	unimp
  96:	0800                	addi	s0,sp,16
  98:	00000043          	fmadd.s	ft0,ft0,ft0,ft0,rne
  9c:	007f                	0x7f
  9e:	0102                	c.slli64	sp
  a0:	4008                	lw	a0,0(s0)
  a2:	0001                	nop
  a4:	0d00                	addi	s0,sp,656
  a6:	0076                	c.slli	zero,0x1d
  a8:	0000                	unimp
  aa:	7a0e                	ld	s4,224(sp)
  ac:	0001                	nop
  ae:	0400                	addi	s0,sp,512
  b0:	0d09                	addi	s10,s10,2
  b2:	0066                	c.slli	zero,0x19
  b4:	0000                	unimp
  b6:	0001550f          	0x1550f
  ba:	0400                	addi	s0,sp,512
  bc:	0c0a                	slli	s8,s8,0x2
  be:	0058                	addi	a4,sp,4
  c0:	0000                	unimp
  c2:	0700                	addi	s0,sp,896
  c4:	0076                	c.slli	zero,0x1d
  c6:	0000                	unimp
  c8:	000000ab          	0xab
  cc:	4308                	lw	a0,0(a4)
  ce:	0000                	unimp
  d0:	1000                	addi	s0,sp,32
  d2:	1000                	addi	s0,sp,32
  d4:	014e                	slli	sp,sp,0x13
  d6:	0000                	unimp
  d8:	2204                	fld	fs1,0(a2)
  da:	9b0d                	andi	a4,a4,-29
  dc:	0000                	unimp
  de:	8c00                	0x8c00
  e0:	0001                	nop
  e2:	1100                	addi	s0,sp,160
  e4:	0172                	slli	sp,sp,0x1c
  e6:	0000                	unimp
  e8:	3d04                	fld	fs1,56(a0)
  ea:	ce06                	sw	ra,28(sp)
  ec:	0000                	unimp
  ee:	1200                	addi	s0,sp,288
  f0:	00ce                	slli	ra,ra,0x13
  f2:	0000                	unimp
  f4:	08140013          	addi	zero,s0,129 # ffffffffffffa081 <bufferLen+0xffffffffff5f7081>
  f8:	007d                	c.nop	31
  fa:	0000                	unimp
  fc:	1015                	c.nop	-27
  fe:	0001                	nop
 100:	0100                	addi	s0,sp,128
 102:	0605                	addi	a2,a2,1
 104:	0004                	0x4
 106:	00a0                	addi	s0,sp,72
 108:	0000                	unimp
 10a:	0000                	unimp
 10c:	0096                	slli	ra,ra,0x5
 10e:	0000                	unimp
 110:	0000                	unimp
 112:	0000                	unimp
 114:	9c01                	subw	s0,s0,s0
 116:	0000025b          	0x25b
 11a:	6109                	addi	sp,sp,128
 11c:	0700                	addi	s0,sp,896
 11e:	0058                	addi	a4,sp,4
 120:	0000                	unimp
 122:	000c                	0xc
 124:	0000                	unimp
 126:	6909                	lui	s2,0x2
 128:	0064                	addi	s1,sp,12
 12a:	5808                	lw	a0,48(s0)
 12c:	0000                	unimp
 12e:	4900                	lw	s0,16(a0)
 130:	0000                	unimp
 132:	0500                	addi	s0,sp,640
 134:	0000025b          	0x25b
 138:	001e                	c.slli	zero,0x7
 13a:	00a0                	addi	s0,sp,72
 13c:	0000                	unimp
 13e:	0000                	unimp
 140:	0006                	c.slli	zero,0x1
 142:	0000                	unimp
 144:	0000                	unimp
 146:	0000                	unimp
 148:	0f09                	addi	t5,t5,2
 14a:	0000014b          	fnmsub.s	ft2,ft0,ft0,ft0,rne
 14e:	6806                	ld	a6,64(sp)
 150:	0002                	c.slli64	zero
 152:	1e00                	addi	s0,sp,816
 154:	a000                	fsd	fs0,0(s0)
 156:	0000                	unimp
 158:	0000                	unimp
 15a:	0600                	addi	s0,sp,768
 15c:	0000                	unimp
 15e:	0000                	unimp
 160:	0000                	unimp
 162:	0300                	addi	s0,sp,384
 164:	0275                	addi	tp,tp,29
 166:	0000                	unimp
 168:	6101                	addi	sp,sp,0
 16a:	00027e03          	0x27e03
 16e:	0100                	addi	s0,sp,128
 170:	005a                	c.slli	zero,0x16
 172:	0500                	addi	s0,sp,640
 174:	0000025b          	0x25b
 178:	0032                	c.slli	zero,0xc
 17a:	00a0                	addi	s0,sp,72
 17c:	0000                	unimp
 17e:	0000                	unimp
 180:	0006                	c.slli	zero,0x1
 182:	0000                	unimp
 184:	0000                	unimp
 186:	0000                	unimp
 188:	130a                	slli	t1,t1,0x22
 18a:	0000018b          	0x18b
 18e:	6806                	ld	a6,64(sp)
 190:	0002                	c.slli64	zero
 192:	3200                	fld	fs0,32(a2)
 194:	a000                	fsd	fs0,0(s0)
 196:	0000                	unimp
 198:	0000                	unimp
 19a:	0600                	addi	s0,sp,768
 19c:	0000                	unimp
 19e:	0000                	unimp
 1a0:	0000                	unimp
 1a2:	0300                	addi	s0,sp,384
 1a4:	0275                	addi	tp,tp,29
 1a6:	0000                	unimp
 1a8:	6101                	addi	sp,sp,0
 1aa:	00027e03          	0x27e03
 1ae:	0100                	addi	s0,sp,128
 1b0:	005a                	c.slli	zero,0x16
 1b2:	0500                	addi	s0,sp,640
 1b4:	0000025b          	0x25b
 1b8:	0046                	c.slli	zero,0x11
 1ba:	00a0                	addi	s0,sp,72
 1bc:	0000                	unimp
 1be:	0000                	unimp
 1c0:	0006                	c.slli	zero,0x1
 1c2:	0000                	unimp
 1c4:	0000                	unimp
 1c6:	0000                	unimp
 1c8:	170c                	addi	a1,sp,928
 1ca:	000001cb          	fnmsub.s	ft3,ft0,ft0,ft0,rne
 1ce:	6806                	ld	a6,64(sp)
 1d0:	0002                	c.slli64	zero
 1d2:	4600                	lw	s0,8(a2)
 1d4:	a000                	fsd	fs0,0(s0)
 1d6:	0000                	unimp
 1d8:	0000                	unimp
 1da:	0600                	addi	s0,sp,768
 1dc:	0000                	unimp
 1de:	0000                	unimp
 1e0:	0000                	unimp
 1e2:	0300                	addi	s0,sp,384
 1e4:	0275                	addi	tp,tp,29
 1e6:	0000                	unimp
 1e8:	6101                	addi	sp,sp,0
 1ea:	00027e03          	0x27e03
 1ee:	0100                	addi	s0,sp,128
 1f0:	005a                	c.slli	zero,0x16
 1f2:	0400                	addi	s0,sp,512
 1f4:	001e                	c.slli	zero,0x7
 1f6:	00a0                	addi	s0,sp,72
 1f8:	0000                	unimp
 1fa:	0000                	unimp
 1fc:	000000bb          	addw	ra,zero,zero
 200:	01ea                	slli	gp,gp,0x1a
 202:	0000                	unimp
 204:	0101                	addi	sp,sp,0
 206:	095a                	slli	s2,s2,0x16
 208:	a0101803          	lh	a6,-1535(zero) # fffffffffffffa01 <bufferLen+0xffffffffff5fca01>
 20c:	0000                	unimp
 20e:	0000                	unimp
 210:	0000                	unimp
 212:	6e04                	ld	s1,24(a2)
 214:	a000                	fsd	fs0,0(s0)
 216:	0000                	unimp
 218:	0000                	unimp
 21a:	bb00                	fsd	fs0,48(a4)
 21c:	0000                	unimp
 21e:	0700                	addi	s0,sp,896
 220:	0002                	c.slli64	zero
 222:	0100                	addi	s0,sp,128
 224:	5a01                	li	s4,-32
 226:	7902                	ld	s2,32(sp)
 228:	0100                	addi	s0,sp,128
 22a:	5b01                	li	s6,-32
 22c:	3701                	addiw	a4,a4,-32
 22e:	0400                	addi	s0,sp,512
 230:	007c                	addi	a5,sp,12
 232:	00a0                	addi	s0,sp,72
 234:	0000                	unimp
 236:	0000                	unimp
 238:	000000bb          	addw	ra,zero,zero
 23c:	0224                	addi	s1,sp,264
 23e:	0000                	unimp
 240:	0101                	addi	sp,sp,0
 242:	025a                	slli	tp,tp,0x16
 244:	0079                	c.nop	30
 246:	0101                	addi	sp,sp,0
 248:	0033015b          	0x33015b
 24c:	8a04                	0x8a04
 24e:	a000                	fsd	fs0,0(s0)
 250:	0000                	unimp
 252:	0000                	unimp
 254:	bb00                	fsd	fs0,48(a4)
 256:	0000                	unimp
 258:	4100                	lw	s0,0(a0)
 25a:	0002                	c.slli64	zero
 25c:	0100                	addi	s0,sp,128
 25e:	5a01                	li	s4,-32
 260:	7902                	ld	s2,32(sp)
 262:	0100                	addi	s0,sp,128
 264:	5b01                	li	s6,-32
 266:	3201                	addiw	tp,tp,-32
 268:	1600                	addi	s0,sp,800
 26a:	0098                	addi	a4,sp,64
 26c:	00a0                	addi	s0,sp,72
 26e:	0000                	unimp
 270:	0000                	unimp
 272:	000000bb          	addw	ra,zero,zero
 276:	0101                	addi	sp,sp,0
 278:	025a                	slli	tp,tp,0x16
 27a:	0079                	c.nop	30
 27c:	0101                	addi	sp,sp,0
 27e:	0031015b          	0x31015b
 282:	1700                	addi	s0,sp,928
 284:	00000187          	0x187
 288:	0602                	c.slli64	a2
 28a:	5f0d                	li	t5,-29
 28c:	0000                	unimp
 28e:	0300                	addi	s0,sp,384
 290:	1918                	addi	a4,sp,176
 292:	0001                	nop
 294:	0300                	addi	s0,sp,384
 296:	0d0d                	addi	s10,s10,3
 298:	005f 0000 0a03      	0xa030000005f
 29e:	3761                	addiw	a4,a4,-8
 2a0:	0e00                	addi	s0,sp,784
 2a2:	005f 0000 610a      	0x610a0000005f
 2a8:	0030                	addi	a2,sp,8
 2aa:	00005f0f          	0x5f0f
 2ae:	0000                	unimp
 2b0:	6100                	ld	s0,0(a0)
 2b2:	0000                	unimp
 2b4:	0500                	addi	s0,sp,640
 2b6:	0100                	addi	s0,sp,128
 2b8:	6508                	ld	a0,8(a0)
 2ba:	0001                	nop
 2bc:	0100                	addi	s0,sp,128
 2be:	0054                	addi	a3,sp,4
 2c0:	0000                	unimp
 2c2:	6d1d                	lui	s10,0x7
 2c4:	0000                	unimp
 2c6:	0000                	unimp
 2c8:	0000                	unimp
 2ca:	9a00                	0x9a00
 2cc:	a000                	fsd	fs0,0(s0)
 2ce:	0000                	unimp
 2d0:	0000                	unimp
 2d2:	1200                	addi	s0,sp,288
 2d4:	0000                	unimp
 2d6:	0000                	unimp
 2d8:	0000                	unimp
 2da:	4f00                	lw	s0,24(a4)
 2dc:	0002                	c.slli64	zero
 2de:	0200                	addi	s0,sp,256
 2e0:	0110                	addi	a2,sp,128
 2e2:	0000                	unimp
 2e4:	0101                	addi	sp,sp,0
 2e6:	3c06                	fld	fs8,96(sp)
 2e8:	0000                	unimp
 2ea:	0300                	addi	s0,sp,384
 2ec:	0400                	addi	s0,sp,512
 2ee:	000001a7          	0x1a7
 2f2:	0201                	addi	tp,tp,0
 2f4:	9a06                	add	s4,s4,ra
 2f6:	a000                	fsd	fs0,0(s0)
 2f8:	0000                	unimp
 2fa:	0000                	unimp
 2fc:	1200                	addi	s0,sp,288
 2fe:	0000                	unimp
 300:	0000                	unimp
 302:	0000                	unimp
 304:	0100                	addi	s0,sp,128
 306:	059c                	addi	a5,sp,704
 308:	00aa                	slli	ra,ra,0xa
 30a:	00a0                	addi	s0,sp,72
 30c:	0000                	unimp
 30e:	0000                	unimp
 310:	002e                	c.slli	zero,0xb
 312:	0000                	unimp
 314:	0000                	unimp
 316:	0a65                	addi	s4,s4,25
 318:	0000                	unimp
 31a:	0005                	c.nop	1
 31c:	0801                	addi	a6,a6,0
 31e:	01b1                	addi	gp,gp,12
 320:	0000                	unimp
 322:	541d                	li	s0,-25
 324:	0000                	unimp
 326:	1d00                	addi	s0,sp,688
 328:	00000077          	0x77
 32c:	0000                	unimp
 32e:	0000                	unimp
 330:	00ac                	addi	a1,sp,72
 332:	00a0                	addi	s0,sp,72
 334:	0000                	unimp
 336:	0000                	unimp
 338:	0534                	addi	a3,sp,648
 33a:	0000                	unimp
 33c:	0000                	unimp
 33e:	0000                	unimp
 340:	000002b7          	lui	t0,0x0
 344:	0805                	addi	a6,a6,1
 346:	00012507          	flw	fa0,0(sp)
 34a:	0f00                	addi	s0,sp,912
 34c:	3875                	addiw	a6,a6,-3
 34e:	0400                	addi	s0,sp,512
 350:	3f30                	fld	fa2,120(a4)
 352:	0000                	unimp
 354:	0500                	addi	s0,sp,640
 356:	0801                	addi	a6,a6,0
 358:	00000137          	lui	sp,0x0
 35c:	0205                	addi	tp,tp,1
 35e:	00015f07          	0x15f07
 362:	0500                	addi	s0,sp,640
 364:	0704                	addi	s1,sp,896
 366:	012a                	slli	sp,sp,0xa
 368:	0000                	unimp
 36a:	3436750f          	0x3436750f
 36e:	0700                	addi	s0,sp,896
 370:	2e30                	fld	fa2,88(a2)
 372:	0000                	unimp
 374:	0500                	addi	s0,sp,640
 376:	0601                	addi	a2,a2,0
 378:	0139                	addi	sp,sp,14
 37a:	0000                	unimp
 37c:	0205                	addi	tp,tp,1
 37e:	9d05                	subw	a0,a0,s1
 380:	0001                	nop
 382:	1e00                	addi	s0,sp,816
 384:	0504                	addi	s1,sp,640
 386:	6e69                	lui	t3,0x1a
 388:	0074                	addi	a3,sp,12
 38a:	3436690f          	0x3436690f
 38e:	0b00                	addi	s0,sp,400
 390:	00007f2b          	0x7f2b
 394:	0500                	addi	s0,sp,640
 396:	0508                	addi	a0,sp,640
 398:	0145                	addi	sp,sp,17
 39a:	0000                	unimp
 39c:	0001c817          	auipc	a6,0x1c
 3a0:	0d00                	addi	s0,sp,656
 3a2:	350c                	fld	fa1,40(a0)
 3a4:	0000                	unimp
 3a6:	1700                	addi	s0,sp,928
 3a8:	01b9                	addi	gp,gp,14
 3aa:	0000                	unimp
 3ac:	1b11                	addi	s6,s6,-28
 3ae:	009c                	addi	a5,sp,64
 3b0:	0000                	unimp
 3b2:	081f 01af 0000      	0x1af081f
 3b8:	b210                	fsd	fa2,32(a2)
 3ba:	0000                	unimp
 3bc:	b200                	fsd	fs0,32(a2)
 3be:	0000                	unimp
 3c0:	1100                	addi	s0,sp,160
 3c2:	002e                	c.slli	zero,0xb
 3c4:	0000                	unimp
 3c6:	007f                	0x7f
 3c8:	0105                	addi	sp,sp,1
 3ca:	4008                	lw	a0,0(s0)
 3cc:	0001                	nop
 3ce:	2000                	fld	fs0,0(s0)
 3d0:	00b2                	slli	ra,ra,0xc
 3d2:	0000                	unimp
 3d4:	7a12                	ld	s4,288(sp)
 3d6:	0001                	nop
 3d8:	0900                	addi	s0,sp,144
 3da:	a20d                	j	4fc <_text-0x9ffb04>
 3dc:	0000                	unimp
 3de:	0900                	addi	s0,sp,144
 3e0:	a0200003          	lb	zero,-1534(zero) # fffffffffffffa02 <bufferLen+0xffffffffff5fca02>
 3e4:	0000                	unimp
 3e6:	0000                	unimp
 3e8:	1200                	addi	s0,sp,288
 3ea:	0155                	addi	sp,sp,21
 3ec:	0000                	unimp
 3ee:	0c0a                	slli	s8,s8,0x2
 3f0:	006d                	c.nop	27
 3f2:	0000                	unimp
 3f4:	0309                	addi	t1,t1,2
 3f6:	3000                	fld	fs0,32(s0)
 3f8:	00a0                	addi	s0,sp,72
 3fa:	0000                	unimp
 3fc:	0000                	unimp
 3fe:	b210                	fsd	fa2,32(a2)
 400:	0000                	unimp
 402:	f800                	sd	s0,48(s0)
 404:	0000                	unimp
 406:	1100                	addi	s0,sp,160
 408:	002e                	c.slli	zero,0xb
 40a:	0000                	unimp
 40c:	0010                	0x10
 40e:	4e12                	lw	t3,4(sp)
 410:	0001                	nop
 412:	2200                	fld	fs0,0(a2)
 414:	e80d                	bnez	s0,446 <_text-0x9ffbba>
 416:	0000                	unimp
 418:	0900                	addi	s0,sp,144
 41a:	a0100003          	lb	zero,-1535(zero) # fffffffffffffa01 <bufferLen+0xffffffffff5fca01>
 41e:	0000                	unimp
 420:	0000                	unimp
 422:	1800                	addi	s0,sp,48
 424:	0216                	slli	tp,tp,0x5
 426:	0000                	unimp
 428:	963e                	add	a2,a2,a5
 42a:	a005                	j	44a <_text-0x9ffbb6>
 42c:	0000                	unimp
 42e:	0000                	unimp
 430:	4a00                	lw	s0,16(a2)
 432:	0000                	unimp
 434:	0000                	unimp
 436:	0000                	unimp
 438:	0100                	addi	s0,sp,128
 43a:	d79c                	sw	a5,40(a5)
 43c:	0001                	nop
 43e:	1900                	addi	s0,sp,176
 440:	01cd                	addi	gp,gp,19
 442:	0000                	unimp
 444:	0001d71b          	srliw	a4,gp,0x0
 448:	7d00                	ld	s0,56(a0)
 44a:	0000                	unimp
 44c:	1900                	addi	s0,sp,176
 44e:	01e2                	slli	gp,gp,0x18
 450:	0000                	unimp
 452:	6d25                	lui	s10,0x9
 454:	0000                	unimp
 456:	ba00                	fsd	fs0,48(a2)
 458:	0000                	unimp
 45a:	0c00                	addi	s0,sp,528
 45c:	6d66                	ld	s10,88(sp)
 45e:	0074                	addi	a3,sp,12
 460:	373e                	fld	fa4,488(sp)
 462:	000001d7          	0x1d7
 466:	00e4                	addi	s1,sp,76
 468:	0000                	unimp
 46a:	131a                	slli	t1,t1,0x26
 46c:	7061                	c.lui	zero,0xffff8
 46e:	4000                	lw	s0,0(s0)
 470:	910d                	srli	a0,a0,0x23
 472:	0000                	unimp
 474:	0300                	addi	s0,sp,384
 476:	a891                	j	4ca <_text-0x9ffb36>
 478:	0d7f                	0xd7f
 47a:	0a3e                	slli	s4,s4,0xf
 47c:	0000                	unimp
 47e:	05d6                	slli	a1,a1,0x15
 480:	00a0                	addi	s0,sp,72
 482:	0000                	unimp
 484:	0000                	unimp
 486:	0008                	0x8
 488:	0000                	unimp
 48a:	0000                	unimp
 48c:	0000                	unimp
 48e:	0544                	addi	s1,sp,644
 490:	0196                	slli	gp,gp,0x5
 492:	0000                	unimp
 494:	4701                	li	a4,0
 496:	000a                	c.slli	zero,0x2
 498:	0b00                	addi	s0,sp,400
 49a:	0001                	nop
 49c:	0200                	addi	s0,sp,256
 49e:	0a51                	addi	s4,s4,20
 4a0:	0000                	unimp
 4a2:	5a01                	li	s4,-32
 4a4:	5c02                	lw	s8,32(sp)
 4a6:	000a                	c.slli	zero,0x2
 4a8:	0100                	addi	s0,sp,128
 4aa:	0061                	c.nop	24
 4ac:	c421                	beqz	s0,4f4 <_text-0x9ffb0c>
 4ae:	a005                	j	4ce <_text-0x9ffb32>
 4b0:	0000                	unimp
 4b2:	0000                	unimp
 4b4:	dc00                	sw	s0,56(s0)
 4b6:	0001                	nop
 4b8:	bc00                	fsd	fs0,56(s0)
 4ba:	0001                	nop
 4bc:	0900                	addi	s0,sp,144
 4be:	5a01                	li	s4,-32
 4c0:	0309                	addi	t1,t1,2
 4c2:	10a0                	addi	s0,sp,104
 4c4:	00a0                	addi	s0,sp,72
 4c6:	0000                	unimp
 4c8:	0000                	unimp
 4ca:	0109                	addi	sp,sp,2
 4cc:	01a3035b          	0x1a3035b
 4d0:	005a                	c.slli	zero,0x16
 4d2:	a005d61b          	0xa005d61b
 4d6:	0000                	unimp
 4d8:	0000                	unimp
 4da:	8c00                	0x8c00
 4dc:	0002                	c.slli64	zero
 4de:	0900                	addi	s0,sp,144
 4e0:	5a01                	li	s4,-32
 4e2:	7902                	ld	s2,32(sp)
 4e4:	0900                	addi	s0,sp,144
 4e6:	5b01                	li	s6,-32
 4e8:	9102                	jalr	sp
 4ea:	0058                	addi	a4,sp,4
 4ec:	1c00                	addi	s0,sp,560
 4ee:	00b9                	addi	ra,ra,14
 4f0:	0000                	unimp
 4f2:	7218                	ld	a4,32(a2)
 4f4:	0001                	nop
 4f6:	3600                	fld	fs0,40(a2)
 4f8:	0542                	slli	a0,a0,0x10
 4fa:	00a0                	addi	s0,sp,72
 4fc:	0000                	unimp
 4fe:	0000                	unimp
 500:	0054                	addi	a3,sp,4
 502:	0000                	unimp
 504:	0000                	unimp
 506:	0000                	unimp
 508:	9c01                	subw	s0,s0,s0
 50a:	028c                	addi	a1,sp,320
 50c:	0000                	unimp
 50e:	660c                	ld	a1,8(a2)
 510:	746d                	lui	s0,0xffffb
 512:	3600                	fld	fs0,40(a2)
 514:	d71a                	sw	t1,172(sp)
 516:	0001                	nop
 518:	2000                	fld	fs0,0(s0)
 51a:	0001                	nop
 51c:	1a00                	addi	s0,sp,304
 51e:	00706113          	ori	sp,zero,7
 522:	00910d37          	lui	s10,0x910
 526:	0000                	unimp
 528:	7fa89103          	lh	sp,2042(a7)
 52c:	ee0d                	bnez	a2,566 <_text-0x9ffa9a>
 52e:	0009                	c.nop	2
 530:	6c00                	ld	s0,24(s0)
 532:	a005                	j	552 <_text-0x9ffaae>
 534:	0000                	unimp
 536:	0000                	unimp
 538:	2200                	fld	fs0,0(a2)
 53a:	0000                	unimp
 53c:	0000                	unimp
 53e:	0000                	unimp
 540:	3b00                	fld	fs0,48(a4)
 542:	7005                	c.lui	zero,0xfffe1
 544:	0002                	c.slli64	zero
 546:	0300                	addi	s0,sp,384
 548:	000009f7          	0x9f7
 54c:	0578                	addi	a4,sp,652
 54e:	00a0                	addi	s0,sp,72
 550:	0000                	unimp
 552:	0000                	unimp
 554:	000e                	c.slli	zero,0x3
 556:	0000                	unimp
 558:	0000                	unimp
 55a:	0000                	unimp
 55c:	010e                	slli	sp,sp,0x3
 55e:	0a10                	addi	a2,sp,272
 560:	0000                	unimp
 562:	014a                	slli	sp,sp,0x12
 564:	0000                	unimp
 566:	0401                	addi	s0,s0,0
 568:	000a                	c.slli	zero,0x2
 56a:	6600                	ld	s0,8(a2)
 56c:	0001                	nop
 56e:	0200                	addi	s0,sp,256
 570:	0a1c                	addi	a5,sp,272
 572:	0000                	unimp
 574:	5a01                	li	s4,-32
 576:	2702                	fld	fa4,0(sp)
 578:	000a                	c.slli	zero,0x2
 57a:	0100                	addi	s0,sp,128
 57c:	0a32025b          	0xa32025b
 580:	0000                	unimp
 582:	6101                	addi	sp,sp,0
 584:	0000                	unimp
 586:	a0056c1b          	0xa0056c1b
 58a:	0000                	unimp
 58c:	0000                	unimp
 58e:	8c00                	0x8c00
 590:	0002                	c.slli64	zero
 592:	0900                	addi	s0,sp,144
 594:	5a01                	li	s4,-32
 596:	5a01a303          	lw	t1,1440(gp)
 59a:	0109                	addi	sp,sp,2
 59c:	4891025b          	0x4891025b
 5a0:	0000                	unimp
 5a2:	c122                	sw	s0,128(sp)
 5a4:	0001                	nop
 5a6:	0100                	addi	s0,sp,128
 5a8:	0d05                	addi	s10,s10,1
 5aa:	00ac                	addi	a1,sp,72
 5ac:	00a0                	addi	s0,sp,72
 5ae:	0000                	unimp
 5b0:	0000                	unimp
 5b2:	0496                	slli	s1,s1,0x5
 5b4:	0000                	unimp
 5b6:	0000                	unimp
 5b8:	0000                	unimp
 5ba:	9c01                	subw	s0,s0,s0
 5bc:	0961                	addi	s2,s2,24
 5be:	0000                	unimp
 5c0:	660c                	ld	a1,8(a2)
 5c2:	746d                	lui	s0,0xffffb
 5c4:	0500                	addi	s0,sp,640
 5c6:	d720                	sw	s0,104(a4)
 5c8:	0001                	nop
 5ca:	8300                	0x8300
 5cc:	0001                	nop
 5ce:	0c00                	addi	s0,sp,528
 5d0:	7061                	c.lui	zero,0xffff8
 5d2:	0500                	addi	s0,sp,640
 5d4:	912d                	srli	a0,a0,0x2b
 5d6:	0000                	unimp
 5d8:	bd00                	fsd	fs0,56(a0)
 5da:	0001                	nop
 5dc:	1400                	addi	s0,sp,544
 5de:	0069                	c.nop	26
 5e0:	0906                	slli	s2,s2,0x1
 5e2:	006d                	c.nop	27
 5e4:	0000                	unimp
 5e6:	000002db          	0x2db
 5ea:	6314                	ld	a3,0(a4)
 5ec:	0600                	addi	s0,sp,768
 5ee:	6d0c                	ld	a1,24(a0)
 5f0:	0000                	unimp
 5f2:	fa00                	sd	s0,48(a2)
 5f4:	13000003          	lb	zero,304(zero) # 130 <_text-0x9ffed0>
 5f8:	0b070073          	0xb070073
 5fc:	0961                	addi	s2,s2,24
 5fe:	0000                	unimp
 600:	5d01                	li	s10,-32
 602:	0c0a                	slli	s8,s8,0x2
 604:	0000                	unimp
 606:	1400                	addi	s0,sp,544
 608:	006c                	addi	a1,sp,12
 60a:	0e12                	slli	t3,t3,0x4
 60c:	0086                	slli	ra,ra,0x1
 60e:	0000                	unimp
 610:	000005a7          	0x5a7
 614:	6606                	ld	a2,64(sp)
 616:	0009                	c.nop	2
 618:	e800                	sd	s0,16(s0)
 61a:	a000                	fsd	fs0,0(s0)
 61c:	0000                	unimp
 61e:	0000                	unimp
 620:	4000                	lw	s0,0(s0)
 622:	0000                	unimp
 624:	0100                	addi	s0,sp,128
 626:	03c01523          	sh	t3,42(zero) # 2a <_text-0x9fffd6>
 62a:	0000                	unimp
 62c:	8701                	c.srai64	a4
 62e:	0009                	c.nop	2
 630:	7000                	ld	s0,32(s0)
 632:	0006                	c.slli	zero,0x1
 634:	0100                	addi	s0,sp,128
 636:	0000097b          	0x97b
 63a:	0699                	addi	a3,a3,6
 63c:	0000                	unimp
 63e:	700e                	0x700e
 640:	0009                	c.nop	2
 642:	0a00                	addi	s0,sp,272
 644:	0040                	addi	s0,sp,4
 646:	0000                	unimp
 648:	9302                	jalr	t1
 64a:	0009                	c.nop	2
 64c:	0300                	addi	s0,sp,384
 64e:	8091                	srli	s1,s1,0x4
 650:	077f                	0x77f
 652:	099f 0000 06c2      	0x6c20000099f
 658:	0000                	unimp
 65a:	0009a907          	flw	fs2,0(s3)
 65e:	ff00                	sd	s0,56(a4)
 660:	0006                	c.slli	zero,0x1
 662:	0400                	addi	s0,sp,512
 664:	09d9                	addi	s3,s3,22
 666:	0000                	unimp
 668:	00f4                	addi	a3,sp,76
 66a:	00a0                	addi	s0,sp,72
 66c:	0000                	unimp
 66e:	0000                	unimp
 670:	0074                	addi	a3,sp,12
 672:	0000                	unimp
 674:	3902                	fld	fs2,32(sp)
 676:	0109                	addi	sp,sp,2
 678:	000009e3          	beqz	zero,e8a <_text-0x9ff176>
 67c:	00000713          	li	a4,0
 680:	ee04                	sd	s1,24(a2)
 682:	0009                	c.nop	2
 684:	0400                	addi	s0,sp,512
 686:	a001                	j	686 <_text-0x9ff97a>
 688:	0000                	unimp
 68a:	0000                	unimp
 68c:	a800                	fsd	fs0,16(s0)
 68e:	0000                	unimp
 690:	0200                	addi	s0,sp,256
 692:	0916                	slli	s2,s2,0x5
 694:	0009f703          	0x9f703
 698:	c000                	sw	s0,0(s0)
 69a:	0000a003          	lw	zero,0(ra)
 69e:	0000                	unimp
 6a0:	0a00                	addi	s0,sp,272
 6a2:	0000                	unimp
 6a4:	0000                	unimp
 6a6:	0000                	unimp
 6a8:	0e00                	addi	s0,sp,784
 6aa:	1001                	c.nop	-32
 6ac:	000a                	c.slli	zero,0x2
 6ae:	3c00                	fld	fs0,56(s0)
 6b0:	01000007          	0x1000007
 6b4:	0a04                	addi	s1,sp,272
 6b6:	0000                	unimp
 6b8:	0752                	slli	a4,a4,0x14
 6ba:	0000                	unimp
 6bc:	1c02                	slli	s8,s8,0x20
 6be:	000a                	c.slli	zero,0x2
 6c0:	0100                	addi	s0,sp,128
 6c2:	025a                	slli	tp,tp,0x16
 6c4:	00000a27          	0xa27
 6c8:	5b01                	li	s6,-32
 6ca:	3202                	fld	ft4,32(sp)
 6cc:	000a                	c.slli	zero,0x2
 6ce:	0100                	addi	s0,sp,128
 6d0:	0061                	c.nop	24
 6d2:	0000                	unimp
 6d4:	0000                	unimp
 6d6:	6606                	ld	a2,64(sp)
 6d8:	0009                	c.nop	2
 6da:	0c00                	addi	s0,sp,528
 6dc:	a001                	j	6dc <_text-0x9ff924>
 6de:	0000                	unimp
 6e0:	0000                	unimp
 6e2:	dc00                	sw	s0,56(s0)
 6e4:	0000                	unimp
 6e6:	0100                	addi	s0,sp,128
 6e8:	151c                	addi	a5,sp,672
 6ea:	0486                	slli	s1,s1,0x1
 6ec:	0000                	unimp
 6ee:	8701                	c.srai64	a4
 6f0:	0009                	c.nop	2
 6f2:	6f00                	ld	s0,24(a4)
 6f4:	01000007          	0x1000007
 6f8:	0000097b          	0x97b
 6fc:	00000787          	0x787
 700:	7001                	c.lui	zero,0xfffe0
 702:	0009                	c.nop	2
 704:	b000                	fsd	fs0,32(s0)
 706:	0a000007          	0xa000007
 70a:	00dc                	addi	a5,sp,68
 70c:	0000                	unimp
 70e:	9302                	jalr	t1
 710:	0009                	c.nop	2
 712:	0300                	addi	s0,sp,384
 714:	8091                	srli	s1,s1,0x4
 716:	077f                	0x77f
 718:	099f 0000 07c4      	0x7c40000099f
 71e:	0000                	unimp
 720:	0009a907          	flw	fs2,0(s3)
 724:	1700                	addi	s0,sp,928
 726:	0008                	0x8
 728:	0400                	addi	s0,sp,512
 72a:	09d9                	addi	s3,s3,22
 72c:	0000                	unimp
 72e:	0352                	slli	t1,t1,0x14
 730:	00a0                	addi	s0,sp,72
 732:	0000                	unimp
 734:	0000                	unimp
 736:	0132                	slli	sp,sp,0xc
 738:	0000                	unimp
 73a:	3902                	fld	fs2,32(sp)
 73c:	0109                	addi	sp,sp,2
 73e:	000009e3          	beqz	zero,f50 <_text-0x9ff0b0>
 742:	0849                	addi	a6,a6,18
 744:	0000                	unimp
 746:	ee04                	sd	s1,24(a2)
 748:	0009                	c.nop	2
 74a:	5200                	lw	s0,32(a2)
 74c:	0000a003          	lw	zero,0(ra)
 750:	0000                	unimp
 752:	5500                	lw	s0,40(a0)
 754:	0001                	nop
 756:	0200                	addi	s0,sp,256
 758:	0916                	slli	s2,s2,0x5
 75a:	0009f703          	0x9f703
 75e:	5200                	lw	s0,32(a2)
 760:	0000a003          	lw	zero,0(ra)
 764:	0000                	unimp
 766:	0a00                	addi	s0,sp,272
 768:	0000                	unimp
 76a:	0000                	unimp
 76c:	0000                	unimp
 76e:	0e00                	addi	s0,sp,784
 770:	1001                	c.nop	-32
 772:	000a                	c.slli	zero,0x2
 774:	7200                	ld	s0,32(a2)
 776:	0008                	0x8
 778:	0100                	addi	s0,sp,128
 77a:	0a04                	addi	s1,sp,272
 77c:	0000                	unimp
 77e:	0888                	addi	a0,sp,80
 780:	0000                	unimp
 782:	1c02                	slli	s8,s8,0x20
 784:	000a                	c.slli	zero,0x2
 786:	0100                	addi	s0,sp,128
 788:	025a                	slli	tp,tp,0x16
 78a:	00000a27          	0xa27
 78e:	5b01                	li	s6,-32
 790:	3202                	fld	ft4,32(sp)
 792:	000a                	c.slli	zero,0x2
 794:	0100                	addi	s0,sp,128
 796:	0061                	c.nop	24
 798:	0000                	unimp
 79a:	0000                	unimp
 79c:	d906                	sw	ra,176(sp)
 79e:	0009                	c.nop	2
 7a0:	1400                	addi	s0,sp,544
 7a2:	a001                	j	7a2 <_text-0x9ff85e>
 7a4:	0000                	unimp
 7a6:	0000                	unimp
 7a8:	7800                	ld	s0,48(s0)
 7aa:	0001                	nop
 7ac:	0100                	addi	s0,sp,128
 7ae:	1130                	addi	a2,sp,168
 7b0:	000004fb          	0x4fb
 7b4:	e301                	bnez	a4,7b4 <_text-0x9ff84c>
 7b6:	0009                	c.nop	2
 7b8:	a500                	fsd	fs0,8(a0)
 7ba:	0008                	0x8
 7bc:	0400                	addi	s0,sp,512
 7be:	09ee                	slli	s3,s3,0x1b
 7c0:	0000                	unimp
 7c2:	04aa                	slli	s1,s1,0xa
 7c4:	00a0                	addi	s0,sp,72
 7c6:	0000                	unimp
 7c8:	0000                	unimp
 7ca:	01ce                	slli	gp,gp,0x13
 7cc:	0000                	unimp
 7ce:	1602                	slli	a2,a2,0x20
 7d0:	0309                	addi	t1,t1,2
 7d2:	000009f7          	0x9f7
 7d6:	04b0                	addi	a2,sp,584
 7d8:	00a0                	addi	s0,sp,72
 7da:	0000                	unimp
 7dc:	0000                	unimp
 7de:	000a                	c.slli	zero,0x2
 7e0:	0000                	unimp
 7e2:	0000                	unimp
 7e4:	0000                	unimp
 7e6:	010e                	slli	sp,sp,0x3
 7e8:	0a10                	addi	a2,sp,272
 7ea:	0000                	unimp
 7ec:	08cc                	addi	a1,sp,84
 7ee:	0000                	unimp
 7f0:	0401                	addi	s0,s0,0
 7f2:	000a                	c.slli	zero,0x2
 7f4:	e200                	sd	s0,0(a2)
 7f6:	0008                	0x8
 7f8:	0200                	addi	s0,sp,256
 7fa:	0a1c                	addi	a5,sp,272
 7fc:	0000                	unimp
 7fe:	5a01                	li	s4,-32
 800:	2702                	fld	fa4,0(sp)
 802:	000a                	c.slli	zero,0x2
 804:	0100                	addi	s0,sp,128
 806:	0a32025b          	0xa32025b
 80a:	0000                	unimp
 80c:	6101                	addi	sp,sp,0
 80e:	0000                	unimp
 810:	0600                	addi	s0,sp,768
 812:	09c4                	addi	s1,sp,212
 814:	0000                	unimp
 816:	0116                	slli	sp,sp,0x5
 818:	00a0                	addi	s0,sp,72
 81a:	0000                	unimp
 81c:	0000                	unimp
 81e:	01f1                	addi	gp,gp,28
 820:	0000                	unimp
 822:	2901                	sext.w	s2,s2
 824:	0511                	addi	a0,a0,4
 826:	0006                	c.slli	zero,0x1
 828:	0100                	addi	s0,sp,128
 82a:	09ce                	slli	s3,s3,0x13
 82c:	0000                	unimp
 82e:	08ff                	0x8ff
 830:	0000                	unimp
 832:	d906                	sw	ra,176(sp)
 834:	0009                	c.nop	2
 836:	1600                	addi	s0,sp,800
 838:	a001                	j	838 <_text-0x9ff7c8>
 83a:	0000                	unimp
 83c:	0000                	unimp
 83e:	2500                	fld	fs0,8(a0)
 840:	0002                	c.slli64	zero
 842:	0200                	addi	s0,sp,256
 844:	0d1d                	addi	s10,s10,7
 846:	00000593          	li	a1,0
 84a:	e301                	bnez	a4,84a <_text-0x9ff7b6>
 84c:	0009                	c.nop	2
 84e:	8900                	0x8900
 850:	0009                	c.nop	2
 852:	0300                	addi	s0,sp,384
 854:	09ee                	slli	s3,s3,0x1b
 856:	0000                	unimp
 858:	045a                	slli	s0,s0,0x16
 85a:	00a0                	addi	s0,sp,72
 85c:	0000                	unimp
 85e:	0000                	unimp
 860:	000e                	c.slli	zero,0x3
 862:	0000                	unimp
 864:	0000                	unimp
 866:	0000                	unimp
 868:	0316                	slli	t1,t1,0x5
 86a:	000009f7          	0x9f7
 86e:	045e                	slli	s0,s0,0x17
 870:	00a0                	addi	s0,sp,72
 872:	0000                	unimp
 874:	0000                	unimp
 876:	000a                	c.slli	zero,0x2
 878:	0000                	unimp
 87a:	0000                	unimp
 87c:	0000                	unimp
 87e:	010e                	slli	sp,sp,0x3
 880:	0a10                	addi	a2,sp,272
 882:	0000                	unimp
 884:	099e                	slli	s3,s3,0x7
 886:	0000                	unimp
 888:	0401                	addi	s0,s0,0
 88a:	000a                	c.slli	zero,0x2
 88c:	b400                	fsd	fs0,40(s0)
 88e:	0009                	c.nop	2
 890:	0200                	addi	s0,sp,256
 892:	0a1c                	addi	a5,sp,272
 894:	0000                	unimp
 896:	5a01                	li	s4,-32
 898:	2702                	fld	fa4,0(sp)
 89a:	000a                	c.slli	zero,0x2
 89c:	0100                	addi	s0,sp,128
 89e:	0a32025b          	0xa32025b
 8a2:	0000                	unimp
 8a4:	6101                	addi	sp,sp,0
 8a6:	0000                	unimp
 8a8:	0400                	addi	s0,sp,512
 8aa:	09d9                	addi	s3,s3,22
 8ac:	0000                	unimp
 8ae:	0422                	slli	s0,s0,0x8
 8b0:	00a0                	addi	s0,sp,72
 8b2:	0000                	unimp
 8b4:	0000                	unimp
 8b6:	0248                	addi	a0,sp,260
 8b8:	0000                	unimp
 8ba:	1e02                	slli	t3,t3,0x20
 8bc:	0109                	addi	sp,sp,2
 8be:	000009e3          	beqz	zero,10d0 <_text-0x9fef30>
 8c2:	09d1                	addi	s3,s3,20
 8c4:	0000                	unimp
 8c6:	ee04                	sd	s1,24(a2)
 8c8:	0009                	c.nop	2
 8ca:	3600                	fld	fs0,40(a2)
 8cc:	a004                	fsd	fs1,0(s0)
 8ce:	0000                	unimp
 8d0:	0000                	unimp
 8d2:	6b00                	ld	s0,16(a4)
 8d4:	0002                	c.slli64	zero
 8d6:	0200                	addi	s0,sp,256
 8d8:	0916                	slli	s2,s2,0x5
 8da:	0009f703          	0x9f703
 8de:	7800                	ld	s0,48(s0)
 8e0:	a004                	fsd	fs1,0(s0)
 8e2:	0000                	unimp
 8e4:	0000                	unimp
 8e6:	0a00                	addi	s0,sp,272
 8e8:	0000                	unimp
 8ea:	0000                	unimp
 8ec:	0000                	unimp
 8ee:	0e00                	addi	s0,sp,784
 8f0:	1001                	c.nop	-32
 8f2:	000a                	c.slli	zero,0x2
 8f4:	3300                	fld	fs0,32(a4)
 8f6:	000a                	c.slli	zero,0x2
 8f8:	0100                	addi	s0,sp,128
 8fa:	0a04                	addi	s1,sp,272
 8fc:	0000                	unimp
 8fe:	0a49                	addi	s4,s4,18
 900:	0000                	unimp
 902:	1c02                	slli	s8,s8,0x20
 904:	000a                	c.slli	zero,0x2
 906:	0100                	addi	s0,sp,128
 908:	025a                	slli	tp,tp,0x16
 90a:	00000a27          	0xa27
 90e:	5b01                	li	s6,-32
 910:	3202                	fld	ft4,32(sp)
 912:	000a                	c.slli	zero,0x2
 914:	0100                	addi	s0,sp,128
 916:	0061                	c.nop	24
 918:	0000                	unimp
 91a:	0600                	addi	s0,sp,768
 91c:	09d9                	addi	s3,s3,22
 91e:	0000                	unimp
 920:	012a                	slli	sp,sp,0xa
 922:	00a0                	addi	s0,sp,72
 924:	0000                	unimp
 926:	0000                	unimp
 928:	028e                	slli	t0,t0,0x3
 92a:	0000                	unimp
 92c:	0e01                	addi	t3,t3,0
 92e:	7a0d                	lui	s4,0xfffe3
 930:	0006                	c.slli	zero,0x1
 932:	0100                	addi	s0,sp,128
 934:	000009e3          	beqz	zero,1146 <_text-0x9feeba>
 938:	0a66                	slli	s4,s4,0x19
 93a:	0000                	unimp
 93c:	ee04                	sd	s1,24(a2)
 93e:	0009                	c.nop	2
 940:	3c00                	fld	fs0,56(s0)
 942:	a001                	j	942 <_text-0x9ff6be>
 944:	0000                	unimp
 946:	0000                	unimp
 948:	b100                	fsd	fs0,32(a0)
 94a:	0002                	c.slli64	zero
 94c:	0200                	addi	s0,sp,256
 94e:	0916                	slli	s2,s2,0x5
 950:	0009f703          	0x9f703
 954:	0e00                	addi	s0,sp,784
 956:	a002                	fsd	ft0,0(sp)
 958:	0000                	unimp
 95a:	0000                	unimp
 95c:	0a00                	addi	s0,sp,272
 95e:	0000                	unimp
 960:	0000                	unimp
 962:	0000                	unimp
 964:	0e00                	addi	s0,sp,784
 966:	1001                	c.nop	-32
 968:	000a                	c.slli	zero,0x2
 96a:	8f00                	0x8f00
 96c:	000a                	c.slli	zero,0x2
 96e:	0100                	addi	s0,sp,128
 970:	0a04                	addi	s1,sp,272
 972:	0000                	unimp
 974:	0aa5                	addi	s5,s5,9
 976:	0000                	unimp
 978:	1c02                	slli	s8,s8,0x20
 97a:	000a                	c.slli	zero,0x2
 97c:	0100                	addi	s0,sp,128
 97e:	025a                	slli	tp,tp,0x16
 980:	00000a27          	0xa27
 984:	5b01                	li	s6,-32
 986:	3202                	fld	ft4,32(sp)
 988:	000a                	c.slli	zero,0x2
 98a:	0100                	addi	s0,sp,128
 98c:	0061                	c.nop	24
 98e:	0000                	unimp
 990:	6606                	ld	a2,64(sp)
 992:	0009                	c.nop	2
 994:	8800                	0x8800
 996:	a001                	j	996 <_text-0x9ff66a>
 998:	0000                	unimp
 99a:	0000                	unimp
 99c:	d400                	sw	s0,40(s0)
 99e:	0002                	c.slli64	zero
 9a0:	0100                	addi	s0,sp,128
 9a2:	151a                	slli	a0,a0,0x26
 9a4:	0738                	addi	a4,sp,904
 9a6:	0000                	unimp
 9a8:	870e                	mv	a4,gp
 9aa:	0009                	c.nop	2
 9ac:	0100                	addi	s0,sp,128
 9ae:	0000097b          	0x97b
 9b2:	0ac2                	slli	s5,s5,0x10
 9b4:	0000                	unimp
 9b6:	700e                	0x700e
 9b8:	0009                	c.nop	2
 9ba:	0a00                	addi	s0,sp,272
 9bc:	02d4                	addi	a3,sp,324
 9be:	0000                	unimp
 9c0:	9302                	jalr	t1
 9c2:	0009                	c.nop	2
 9c4:	0300                	addi	s0,sp,384
 9c6:	8091                	srli	s1,s1,0x4
 9c8:	077f                	0x77f
 9ca:	099f 0000 0ad7      	0xad70000099f
 9d0:	0000                	unimp
 9d2:	0009a907          	flw	fs2,0(s3)
 9d6:	2a00                	fld	fs0,16(a2)
 9d8:	0400000b          	0x400000b
 9dc:	09d9                	addi	s3,s3,22
 9de:	0000                	unimp
 9e0:	031a                	slli	t1,t1,0x6
 9e2:	00a0                	addi	s0,sp,72
 9e4:	0000                	unimp
 9e6:	0000                	unimp
 9e8:	0319                	addi	t1,t1,6
 9ea:	0000                	unimp
 9ec:	3902                	fld	fs2,32(sp)
 9ee:	0109                	addi	sp,sp,2
 9f0:	000009e3          	beqz	zero,1202 <_text-0x9fedfe>
 9f4:	0b5c                	addi	a5,sp,404
 9f6:	0000                	unimp
 9f8:	ee04                	sd	s1,24(a2)
 9fa:	0009                	c.nop	2
 9fc:	1a00                	addi	s0,sp,304
 9fe:	0000a003          	lw	zero,0(ra)
 a02:	0000                	unimp
 a04:	3c00                	fld	fs0,56(s0)
 a06:	02000003          	lb	zero,32(zero) # 20 <_text-0x9fffe0>
 a0a:	0916                	slli	s2,s2,0x5
 a0c:	0009f703          	0x9f703
 a10:	1a00                	addi	s0,sp,304
 a12:	0000a003          	lw	zero,0(ra)
 a16:	0000                	unimp
 a18:	0a00                	addi	s0,sp,272
 a1a:	0000                	unimp
 a1c:	0000                	unimp
 a1e:	0000                	unimp
 a20:	0e00                	addi	s0,sp,784
 a22:	1001                	c.nop	-32
 a24:	000a                	c.slli	zero,0x2
 a26:	8500                	0x8500
 a28:	0100000b          	0x100000b
 a2c:	0a04                	addi	s1,sp,272
 a2e:	0000                	unimp
 a30:	00000b9b          	sext.w	s7,zero
 a34:	1c02                	slli	s8,s8,0x20
 a36:	000a                	c.slli	zero,0x2
 a38:	0100                	addi	s0,sp,128
 a3a:	025a                	slli	tp,tp,0x16
 a3c:	00000a27          	0xa27
 a40:	5b01                	li	s6,-32
 a42:	3202                	fld	ft4,32(sp)
 a44:	000a                	c.slli	zero,0x2
 a46:	0100                	addi	s0,sp,128
 a48:	0061                	c.nop	24
 a4a:	0000                	unimp
 a4c:	0000                	unimp
 a4e:	d90d                	beqz	a0,980 <_text-0x9ff680>
 a50:	0009                	c.nop	2
 a52:	e000                	sd	s0,0(s0)
 a54:	a001                	j	a54 <_text-0x9ff5ac>
 a56:	0000                	unimp
 a58:	0000                	unimp
 a5a:	2000                	fld	fs0,0(s0)
 a5c:	0000                	unimp
 a5e:	0000                	unimp
 a60:	0000                	unimp
 a62:	0c00                	addi	s0,sp,528
 a64:	b211                	j	368 <_text-0x9ffc98>
 a66:	01000007          	0x1000007
 a6a:	000009e3          	beqz	zero,127c <_text-0x9fed84>
 a6e:	0bb8                	addi	a4,sp,472
 a70:	0000                	unimp
 a72:	0009ee03          	lwu	t3,0(s3)
 a76:	f200                	sd	s0,32(a2)
 a78:	a001                	j	a78 <_text-0x9ff588>
 a7a:	0000                	unimp
 a7c:	0000                	unimp
 a7e:	0e00                	addi	s0,sp,784
 a80:	0000                	unimp
 a82:	0000                	unimp
 a84:	0000                	unimp
 a86:	1600                	addi	s0,sp,800
 a88:	0009f703          	0x9f703
 a8c:	f600                	sd	s0,40(a2)
 a8e:	a001                	j	a8e <_text-0x9ff572>
 a90:	0000                	unimp
 a92:	0000                	unimp
 a94:	0a00                	addi	s0,sp,272
 a96:	0000                	unimp
 a98:	0000                	unimp
 a9a:	0000                	unimp
 a9c:	0e00                	addi	s0,sp,784
 a9e:	1001                	c.nop	-32
 aa0:	000a                	c.slli	zero,0x2
 aa2:	cd00                	sw	s0,24(a0)
 aa4:	0100000b          	0x100000b
 aa8:	0a04                	addi	s1,sp,272
 aaa:	0000                	unimp
 aac:	00000be3          	beqz	zero,12c2 <_text-0x9fed3e>
 ab0:	1c02                	slli	s8,s8,0x20
 ab2:	000a                	c.slli	zero,0x2
 ab4:	0100                	addi	s0,sp,128
 ab6:	025a                	slli	tp,tp,0x16
 ab8:	00000a27          	0xa27
 abc:	5b01                	li	s6,-32
 abe:	3202                	fld	ft4,32(sp)
 ac0:	000a                	c.slli	zero,0x2
 ac2:	0100                	addi	s0,sp,128
 ac4:	0061                	c.nop	24
 ac6:	0000                	unimp
 ac8:	6606                	ld	a2,64(sp)
 aca:	0009                	c.nop	2
 acc:	4200                	lw	s0,0(a2)
 ace:	a002                	fsd	ft0,0(sp)
 ad0:	0000                	unimp
 ad2:	0000                	unimp
 ad4:	5f00                	lw	s0,56(a4)
 ad6:	01000003          	lb	zero,16(zero) # 10 <_text-0x9ffff0>
 ada:	1521                	addi	a0,a0,-24
 adc:	0874                	addi	a3,sp,28
 ade:	0000                	unimp
 ae0:	8701                	c.srai64	a4
 ae2:	0009                	c.nop	2
 ae4:	0000                	unimp
 ae6:	000c                	0xc
 ae8:	0100                	addi	s0,sp,128
 aea:	0000097b          	0x97b
 aee:	0c29                	addi	s8,s8,10
 af0:	0000                	unimp
 af2:	700e                	0x700e
 af4:	0009                	c.nop	2
 af6:	0a00                	addi	s0,sp,272
 af8:	035f 0000 9302      	0x93020000035f
 afe:	0009                	c.nop	2
 b00:	0300                	addi	s0,sp,384
 b02:	8091                	srli	s1,s1,0x4
 b04:	077f                	0x77f
 b06:	099f 0000 0c52      	0xc520000099f
 b0c:	0000                	unimp
 b0e:	0009a907          	flw	fs2,0(s3)
 b12:	8f00                	0x8f00
 b14:	000c                	0xc
 b16:	0400                	addi	s0,sp,512
 b18:	09d9                	addi	s3,s3,22
 b1a:	0000                	unimp
 b1c:	038a                	slli	t2,t2,0x2
 b1e:	00a0                	addi	s0,sp,72
 b20:	0000                	unimp
 b22:	0000                	unimp
 b24:	00000393          	li	t2,0
 b28:	3902                	fld	fs2,32(sp)
 b2a:	0109                	addi	sp,sp,2
 b2c:	000009e3          	beqz	zero,133e <_text-0x9fecc2>
 b30:	00000ca3          	sb	zero,25(zero) # 19 <_text-0x9fffe7>
 b34:	ee04                	sd	s1,24(a2)
 b36:	0009                	c.nop	2
 b38:	8a00                	0x8a00
 b3a:	0000a003          	lw	zero,0(ra)
 b3e:	0000                	unimp
 b40:	b600                	fsd	fs0,40(a2)
 b42:	02000003          	lb	zero,32(zero) # 20 <_text-0x9fffe0>
 b46:	0916                	slli	s2,s2,0x5
 b48:	0009f703          	0x9f703
 b4c:	8a00                	0x8a00
 b4e:	0000a003          	lw	zero,0(ra)
 b52:	0000                	unimp
 b54:	0a00                	addi	s0,sp,272
 b56:	0000                	unimp
 b58:	0000                	unimp
 b5a:	0000                	unimp
 b5c:	0e00                	addi	s0,sp,784
 b5e:	1001                	c.nop	-32
 b60:	000a                	c.slli	zero,0x2
 b62:	cc00                	sw	s0,24(s0)
 b64:	000c                	0xc
 b66:	0100                	addi	s0,sp,128
 b68:	0a04                	addi	s1,sp,272
 b6a:	0000                	unimp
 b6c:	0ce2                	slli	s9,s9,0x18
 b6e:	0000                	unimp
 b70:	1c02                	slli	s8,s8,0x20
 b72:	000a                	c.slli	zero,0x2
 b74:	0100                	addi	s0,sp,128
 b76:	025a                	slli	tp,tp,0x16
 b78:	00000a27          	0xa27
 b7c:	5b01                	li	s6,-32
 b7e:	3202                	fld	ft4,32(sp)
 b80:	000a                	c.slli	zero,0x2
 b82:	0100                	addi	s0,sp,128
 b84:	0061                	c.nop	24
 b86:	0000                	unimp
 b88:	0000                	unimp
 b8a:	d90d                	beqz	a0,abc <_text-0x9ff544>
 b8c:	0009                	c.nop	2
 b8e:	8800                	0x8800
 b90:	a002                	fsd	ft0,0(sp)
 b92:	0000                	unimp
 b94:	0000                	unimp
 b96:	2800                	fld	fs0,16(s0)
 b98:	0000                	unimp
 b9a:	0000                	unimp
 b9c:	0000                	unimp
 b9e:	2c00                	fld	fs0,24(s0)
 ba0:	ee11                	bnez	a2,bbc <_text-0x9ff444>
 ba2:	0008                	0x8
 ba4:	0100                	addi	s0,sp,128
 ba6:	000009e3          	beqz	zero,13b8 <_text-0x9fec48>
 baa:	0cff                	0xcff
 bac:	0000                	unimp
 bae:	0009ee03          	lwu	t3,0(s3)
 bb2:	9a00                	0x9a00
 bb4:	a002                	fsd	ft0,0(sp)
 bb6:	0000                	unimp
 bb8:	0000                	unimp
 bba:	1600                	addi	s0,sp,800
 bbc:	0000                	unimp
 bbe:	0000                	unimp
 bc0:	0000                	unimp
 bc2:	1600                	addi	s0,sp,800
 bc4:	0009f703          	0x9f703
 bc8:	a000                	fsd	fs0,0(s0)
 bca:	a002                	fsd	ft0,0(sp)
 bcc:	0000                	unimp
 bce:	0000                	unimp
 bd0:	0a00                	addi	s0,sp,272
 bd2:	0000                	unimp
 bd4:	0000                	unimp
 bd6:	0000                	unimp
 bd8:	0e00                	addi	s0,sp,784
 bda:	1001                	c.nop	-32
 bdc:	000a                	c.slli	zero,0x2
 bde:	1500                	addi	s0,sp,672
 be0:	000d                	c.nop	3
 be2:	0100                	addi	s0,sp,128
 be4:	0a04                	addi	s1,sp,272
 be6:	0000                	unimp
 be8:	00000d2b          	0xd2b
 bec:	1c02                	slli	s8,s8,0x20
 bee:	000a                	c.slli	zero,0x2
 bf0:	0100                	addi	s0,sp,128
 bf2:	025a                	slli	tp,tp,0x16
 bf4:	00000a27          	0xa27
 bf8:	5b01                	li	s6,-32
 bfa:	3202                	fld	ft4,32(sp)
 bfc:	000a                	c.slli	zero,0x2
 bfe:	0100                	addi	s0,sp,128
 c00:	0061                	c.nop	24
 c02:	0000                	unimp
 c04:	d904                	sw	s1,48(a0)
 c06:	0009                	c.nop	2
 c08:	8a00                	0x8a00
 c0a:	a004                	fsd	fs1,0(s0)
 c0c:	0000                	unimp
 c0e:	0000                	unimp
 c10:	d900                	sw	s0,48(a0)
 c12:	01000003          	lb	zero,16(zero) # 10 <_text-0x9ffff0>
 c16:	e301112f          	0xe301112f
 c1a:	0009                	c.nop	2
 c1c:	4800                	lw	s0,16(s0)
 c1e:	000d                	c.nop	3
 c20:	0400                	addi	s0,sp,512
 c22:	09ee                	slli	s3,s3,0x1b
 c24:	0000                	unimp
 c26:	0498                	addi	a4,sp,576
 c28:	00a0                	addi	s0,sp,72
 c2a:	0000                	unimp
 c2c:	0000                	unimp
 c2e:	03fc                	addi	a5,sp,460
 c30:	0000                	unimp
 c32:	1602                	slli	a2,a2,0x20
 c34:	0309                	addi	t1,t1,2
 c36:	000009f7          	0x9f7
 c3a:	04c0                	addi	s0,sp,580
 c3c:	00a0                	addi	s0,sp,72
 c3e:	0000                	unimp
 c40:	0000                	unimp
 c42:	000a                	c.slli	zero,0x2
 c44:	0000                	unimp
 c46:	0000                	unimp
 c48:	0000                	unimp
 c4a:	010e                	slli	sp,sp,0x3
 c4c:	0a10                	addi	a2,sp,272
 c4e:	0000                	unimp
 c50:	00000d73          	0xd73
 c54:	0401                	addi	s0,s0,0
 c56:	000a                	c.slli	zero,0x2
 c58:	8900                	0x8900
 c5a:	000d                	c.nop	3
 c5c:	0200                	addi	s0,sp,256
 c5e:	0a1c                	addi	a5,sp,272
 c60:	0000                	unimp
 c62:	5a01                	li	s4,-32
 c64:	2702                	fld	fa4,0(sp)
 c66:	000a                	c.slli	zero,0x2
 c68:	0100                	addi	s0,sp,128
 c6a:	0a32025b          	0xa32025b
 c6e:	0000                	unimp
 c70:	6101                	addi	sp,sp,0
 c72:	0000                	unimp
 c74:	0000                	unimp
 c76:	1c00                	addi	s0,sp,560
 c78:	00b2                	slli	ra,ra,0xc
 c7a:	0000                	unimp
 c7c:	2415                	addiw	s0,s0,5
 c7e:	0002                	c.slli64	zero
 c80:	2400                	fld	fs0,8(s0)
 c82:	09b4                	addi	a3,sp,216
 c84:	0000                	unimp
 c86:	0078780b          	0x78780b
 c8a:	2402                	fld	fs0,0(sp)
 c8c:	7422                	ld	s0,40(sp)
 c8e:	0000                	unimp
 c90:	1600                	addi	s0,sp,800
 c92:	022e                	slli	tp,tp,0xb
 c94:	0000                	unimp
 c96:	2402                	fld	fs0,0(sp)
 c98:	6d2a                	ld	s10,136(sp)
 c9a:	0000                	unimp
 c9c:	1600                	addi	s0,sp,800
 c9e:	021f 0000 2402      	0x24020000021f
 ca4:	8635                	srai	a2,a2,0xd
 ca6:	0000                	unimp
 ca8:	0800                	addi	s0,sp,16
 caa:	7562                	ld	a0,56(sp)
 cac:	0066                	c.slli	zero,0x19
 cae:	2502                	fld	fa0,0(sp)
 cb0:	b40a                	fsd	ft2,40(sp)
 cb2:	0009                	c.nop	2
 cb4:	0800                	addi	s0,sp,16
 cb6:	0069                	c.nop	26
 cb8:	2602                	fld	fa2,0(sp)
 cba:	6d09                	lui	s10,0x2
 cbc:	0000                	unimp
 cbe:	0800                	addi	s0,sp,16
 cc0:	0078                	addi	a4,sp,12
 cc2:	2702                	fld	fa4,0(sp)
 cc4:	5409                	li	s0,-30
 cc6:	0000                	unimp
 cc8:	0000                	unimp
 cca:	b210                	fsd	fa2,32(a2)
 ccc:	0000                	unimp
 cce:	c400                	sw	s0,8(s0)
 cd0:	0009                	c.nop	2
 cd2:	1100                	addi	s0,sp,160
 cd4:	002e                	c.slli	zero,0xb
 cd6:	0000                	unimp
 cd8:	001d                	c.nop	7
 cda:	f315                	bnez	a4,bfe <_text-0x9ff402>
 cdc:	0001                	nop
 cde:	1a00                	addi	s0,sp,304
 ce0:	09d9                	addi	s3,s3,22
 ce2:	0000                	unimp
 ce4:	0200730b          	0x200730b
 ce8:	2d1a                	fld	fs10,384(sp)
 cea:	000001d7          	0x1d7
 cee:	1500                	addi	s0,sp,672
 cf0:	01d2                	slli	gp,gp,0x14
 cf2:	0000                	unimp
 cf4:	0009ee13          	ori	t3,s3,0
 cf8:	0b00                	addi	s0,sp,400
 cfa:	13020063          	beq	tp,a6,e1a <_text-0x9ff1e6>
 cfe:	b229                	j	608 <_text-0x9ff9f8>
 d00:	0000                	unimp
 d02:	0000                	unimp
 d04:	0001e723          	0x1e723
 d08:	0200                	addi	s0,sp,256
 d0a:	140c                	addi	a1,sp,544
 d0c:	02332403          	lw	s0,35(t1) # ffffffffffffe023 <bufferLen+0xffffffffff5fb023>
 d10:	0000                	unimp
 d12:	030d1403          	lh	s0,48(s10) # 2030 <_text-0x9fdfd0>
 d16:	0a3e                	slli	s4,s4,0xf
 d18:	0000                	unimp
 d1a:	0f16                	slli	t5,t5,0x5
 d1c:	0002                	c.slli64	zero
 d1e:	0300                	addi	s0,sp,384
 d20:	2414                	fld	fa3,8(s0)
 d22:	0961                	addi	s2,s2,24
 d24:	0000                	unimp
 d26:	6e656c0b          	0x6e656c0b
 d2a:	0300                	addi	s0,sp,384
 d2c:	3014                	fld	fa3,32(s0)
 d2e:	0054                	addi	a3,sp,4
 d30:	0000                	unimp
 d32:	6108                	ld	a0,0(a0)
 d34:	0030                	addi	a2,sp,8
 d36:	7f131503          	lh	a0,2033(t1)
 d3a:	0000                	unimp
 d3c:	0800                	addi	s0,sp,16
 d3e:	3161                	addiw	sp,sp,-8
 d40:	0300                	addi	s0,sp,384
 d42:	1316                	slli	t1,t1,0x25
 d44:	007f                	0x7f
 d46:	0000                	unimp
 d48:	6108                	ld	a0,0(a0)
 d4a:	17030037          	lui	zero,0x17030
 d4e:	00007f13          	andi	t5,zero,0
 d52:	0000                	unimp
 d54:	0025                	c.nop	9
 d56:	0002                	c.slli64	zero
 d58:	0300                	addi	s0,sp,384
 d5a:	0b030d07          	0xb030d07
 d5e:	07030063          	beq	t1,a6,dbe <_text-0x9ff242>
 d62:	b221                	j	66a <_text-0x9ff996>
 d64:	0000                	unimp
 d66:	0800                	addi	s0,sp,16
 d68:	3061                	0x3061
 d6a:	0300                	addi	s0,sp,384
 d6c:	1308                	addi	a0,sp,416
 d6e:	007f                	0x7f
 d70:	0000                	unimp
 d72:	6108                	ld	a0,0(a0)
 d74:	09030037          	lui	zero,0x9030
 d78:	00007f13          	andi	t5,zero,0
 d7c:	0000                	unimp
	...

Disassembly of section .debug_abbrev:

0000000000000000 <.debug_abbrev>:
   0:	1101                	addi	sp,sp,-32
   2:	1000                	addi	s0,sp,32
   4:	12011117          	auipc	sp,0x12011
   8:	1b0e030f          	0x1b0e030f
   c:	250e                	fld	fa0,192(sp)
   e:	130e                	slli	t1,t1,0x23
  10:	0005                	c.nop	1
  12:	0000                	unimp
  14:	4901                	li	s2,0
  16:	0200                	addi	s0,sp,256
  18:	7e18                	ld	a4,56(a2)
  1a:	0018                	0x18
  1c:	0200                	addi	s0,sp,256
  1e:	0024                	addi	s1,sp,8
  20:	0b3e0b0b          	0xb3e0b0b
  24:	00000e03          	lb	t3,0(zero) # 0 <_text-0xa00000>
  28:	31003403          	ld	s0,784(zero) # 310 <_text-0x9ffcf0>
  2c:	00180213          	addi	tp,a6,1 # 1c39d <_text-0x9e3c63>
  30:	0400                	addi	s0,sp,512
  32:	0148                	addi	a0,sp,132
  34:	017d                	addi	sp,sp,31
  36:	137f                	0x137f
  38:	1301                	addi	t1,t1,-32
  3a:	0000                	unimp
  3c:	1d05                	addi	s10,s10,-31
  3e:	3101                	addiw	sp,sp,-32
  40:	12011113          	0x12011113
  44:	01215807          	0x1215807
  48:	0b59                	addi	s6,s6,22
  4a:	13010b57          	0x13010b57
  4e:	0000                	unimp
  50:	1d06                	slli	s10,s10,0x21
  52:	3101                	addiw	sp,sp,-32
  54:	12011113          	0x12011113
  58:	02215807          	0x2215807
  5c:	2159                	addiw	sp,sp,22
  5e:	0c215707          	0xc215707
  62:	0000                	unimp
  64:	49010107          	0x49010107
  68:	00130113          	addi	sp,t1,1
  6c:	0800                	addi	s0,sp,16
  6e:	0021                	c.nop	8
  70:	1349                	addi	t1,t1,-14
  72:	00000b2f          	0xb2f
  76:	3409                	addiw	s0,s0,-30
  78:	0300                	addi	s0,sp,384
  7a:	3a08                	fld	fa0,48(a2)
  7c:	0121                	addi	sp,sp,8
  7e:	21390b3b          	0x21390b3b
  82:	4909                	li	s2,2
  84:	00170213          	addi	tp,a4,1 # fffffffffffe1001 <bufferLen+0xffffffffff5de001>
  88:	0a00                	addi	s0,sp,272
  8a:	0034                	addi	a3,sp,8
  8c:	213a0803          	lb	a6,531(s4) # fffffffffffe3213 <bufferLen+0xffffffffff5e0213>
  90:	390b3b03          	ld	s6,912(s6)
  94:	1321                	addi	t1,t1,-24
  96:	1349                	addi	t1,t1,-14
  98:	0000                	unimp
  9a:	2501110b          	0x2501110b
  9e:	130e                	slli	t1,t1,0x23
  a0:	1b1f030b          	0x1b1f030b
  a4:	111f 1201 1007      	0x10071201111f
  aa:	0c000017          	auipc	zero,0xc000
  ae:	0024                	addi	s1,sp,8
  b0:	0b3e0b0b          	0xb3e0b0b
  b4:	00000803          	lb	a6,0(zero) # 0 <_text-0xa00000>
  b8:	260d                	addiw	a2,a2,3
  ba:	4900                	lw	s0,16(a0)
  bc:	0e000013          	li	zero,224
  c0:	0034                	addi	a3,sp,8
  c2:	0b3a0e03          	lb	t3,179(s4)
  c6:	0b390b3b          	0xb390b3b
  ca:	1349                	addi	t1,t1,-14
  cc:	0000                	unimp
  ce:	0300340f          	0x300340f
  d2:	3a0e                	fld	fs4,224(sp)
  d4:	390b3b0b          	0x390b3b0b
  d8:	1c13490b          	0x1c13490b
  dc:	1000000b          	0x1000000b
  e0:	0034                	addi	a3,sp,8
  e2:	0b3a0e03          	lb	t3,179(s4)
  e6:	0b390b3b          	0xb390b3b
  ea:	1349                	addi	t1,t1,-14
  ec:	0e1c                	addi	a5,sp,784
  ee:	0000                	unimp
  f0:	2e11                	addiw	t3,t3,4
  f2:	3f01                	addiw	t5,t5,-32
  f4:	0319                	addi	t1,t1,6
  f6:	3a0e                	fld	fs4,224(sp)
  f8:	390b3b0b          	0x390b3b0b
  fc:	3c19270b          	0x3c19270b
 100:	0119                	addi	sp,sp,6
 102:	12000013          	li	zero,288
 106:	0005                	c.nop	1
 108:	1349                	addi	t1,t1,-14
 10a:	0000                	unimp
 10c:	00001813          	slli	a6,zero,0x0
 110:	1400                	addi	s0,sp,544
 112:	0b0b000f          	0xb0b000f
 116:	1349                	addi	t1,t1,-14
 118:	0000                	unimp
 11a:	2e15                	addiw	t3,t3,5
 11c:	3f01                	addiw	t5,t5,-32
 11e:	0319                	addi	t1,t1,6
 120:	3a0e                	fld	fs4,224(sp)
 122:	390b3b0b          	0x390b3b0b
 126:	1119270b          	0x1119270b
 12a:	1201                	addi	tp,tp,-32
 12c:	7a184007          	flq	ft0,1953(a6)
 130:	0119                	addi	sp,sp,6
 132:	16000013          	li	zero,352
 136:	0148                	addi	a0,sp,132
 138:	017d                	addi	sp,sp,31
 13a:	137f                	0x137f
 13c:	0000                	unimp
 13e:	3f002e17          	auipc	t3,0x3f002
 142:	0319                	addi	t1,t1,6
 144:	3a0e                	fld	fs4,224(sp)
 146:	390b3b0b          	0x390b3b0b
 14a:	2013490b          	0x2013490b
 14e:	1800000b          	0x1800000b
 152:	012e                	slli	sp,sp,0xb
 154:	0e03193f 0b3b0b3a 	0xb3b0b3a0e03193f
 15c:	0b39                	addi	s6,s6,14
 15e:	1349                	addi	t1,t1,-14
 160:	0b20                	addi	s0,sp,408
 162:	0000                	unimp
 164:	0100                	addi	s0,sp,128
 166:	0111                	addi	sp,sp,4
 168:	0e25                	addi	t3,t3,9
 16a:	1f030b13          	addi	s6,t1,496
 16e:	01111f1b          	slliw	t5,sp,0x11
 172:	0712                	slli	a4,a4,0x4
 174:	1710                	addi	a2,sp,928
 176:	0000                	unimp
 178:	2e02                	fld	ft8,0(sp)
 17a:	3f01                	addiw	t5,t5,-32
 17c:	0319                	addi	t1,t1,6
 17e:	3a0e                	fld	fs4,224(sp)
 180:	390b3b0b          	0x390b3b0b
 184:	01193c0b          	0x1193c0b
 188:	03000013          	li	zero,48
 18c:	0018                	0x18
 18e:	0000                	unimp
 190:	2e04                	fld	fs1,24(a2)
 192:	3f01                	addiw	t5,t5,-32
 194:	0319                	addi	t1,t1,6
 196:	3a0e                	fld	fs4,224(sp)
 198:	390b3b0b          	0x390b3b0b
 19c:	1201110b          	0x1201110b
 1a0:	7a184007          	flq	ft0,1953(a6)
 1a4:	0019                	c.nop	6
 1a6:	0500                	addi	s0,sp,640
 1a8:	0048                	addi	a0,sp,4
 1aa:	017d                	addi	sp,sp,31
 1ac:	137f                	0x137f
 1ae:	0000                	unimp
 1b0:	0100                	addi	s0,sp,128
 1b2:	0005                	c.nop	1
 1b4:	1331                	addi	t1,t1,-20
 1b6:	1702                	slli	a4,a4,0x20
 1b8:	0000                	unimp
 1ba:	3402                	fld	fs0,32(sp)
 1bc:	3100                	fld	fs0,32(a0)
 1be:	00180213          	addi	tp,a6,1
 1c2:	0300                	addi	s0,sp,384
 1c4:	011d                	addi	sp,sp,7
 1c6:	1331                	addi	t1,t1,-20
 1c8:	0111                	addi	sp,sp,4
 1ca:	0712                	slli	a4,a4,0x4
 1cc:	2158                	fld	fa4,128(a0)
 1ce:	5902                	lw	s2,32(sp)
 1d0:	0921570b          	0x921570b
 1d4:	0000                	unimp
 1d6:	1d04                	addi	s1,sp,688
 1d8:	3101                	addiw	sp,sp,-32
 1da:	55015213          	0x55015213
 1de:	590b5817          	auipc	a6,0x590b5
 1e2:	000b570b          	0xb570b
 1e6:	0500                	addi	s0,sp,640
 1e8:	0024                	addi	s1,sp,8
 1ea:	0b3e0b0b          	0xb3e0b0b
 1ee:	00000e03          	lb	t3,0(zero) # 0 <_text-0xa00000>
 1f2:	1d06                	slli	s10,s10,0x21
 1f4:	3101                	addiw	sp,sp,-32
 1f6:	55015213          	0x55015213
 1fa:	590b5817          	auipc	a6,0x590b5
 1fe:	010b570b          	0x10b570b
 202:	07000013          	li	zero,112
 206:	0034                	addi	a3,sp,8
 208:	1331                	addi	t1,t1,-20
 20a:	1702                	slli	a4,a4,0x20
 20c:	0000                	unimp
 20e:	3408                	fld	fa0,40(s0)
 210:	0300                	addi	s0,sp,384
 212:	3a08                	fld	fa0,48(a2)
 214:	390b3b0b          	0x390b3b0b
 218:	0013490b          	0x13490b
 21c:	0900                	addi	s0,sp,144
 21e:	0049                	c.nop	18
 220:	1802                	slli	a6,a6,0x20
 222:	187e                	slli	a6,a6,0x3f
 224:	0000                	unimp
 226:	0b0a                	slli	s6,s6,0x2
 228:	5501                	li	a0,-32
 22a:	0b000017          	auipc	zero,0xb000
 22e:	0005                	c.nop	1
 230:	0b3a0803          	lb	a6,179(s4)
 234:	0b390b3b          	0xb390b3b
 238:	1349                	addi	t1,t1,-14
 23a:	0000                	unimp
 23c:	050c                	addi	a1,sp,640
 23e:	0300                	addi	s0,sp,384
 240:	3a08                	fld	fa0,48(a2)
 242:	0121                	addi	sp,sp,8
 244:	0b390b3b          	0xb390b3b
 248:	1349                	addi	t1,t1,-14
 24a:	1702                	slli	a4,a4,0x20
 24c:	0000                	unimp
 24e:	1d0d                	addi	s10,s10,-29
 250:	3101                	addiw	sp,sp,-32
 252:	12011113          	0x12011113
 256:	01215807          	0x1215807
 25a:	0b59                	addi	s6,s6,22
 25c:	13010b57          	0x13010b57
 260:	0000                	unimp
 262:	050e                	slli	a0,a0,0x3
 264:	3100                	fld	fs0,32(a0)
 266:	0f000013          	li	zero,240
 26a:	0016                	c.slli	zero,0x5
 26c:	213a0803          	lb	a6,531(s4)
 270:	3b04                	fld	fs1,48(a4)
 272:	490b390b          	0x490b390b
 276:	10000013          	li	zero,256
 27a:	0101                	addi	sp,sp,0
 27c:	1349                	addi	t1,t1,-14
 27e:	1301                	addi	t1,t1,-32
 280:	0000                	unimp
 282:	2111                	addiw	sp,sp,4
 284:	4900                	lw	s0,16(a0)
 286:	000b2f13          	slti	t5,s6,0
 28a:	1200                	addi	s0,sp,288
 28c:	0034                	addi	a3,sp,8
 28e:	213a0e03          	lb	t3,531(s4)
 292:	3b02                	fld	fs6,32(sp)
 294:	490b390b          	0x490b390b
 298:	00180213          	addi	tp,a6,1 # 590b51fb <bufferLen+0x586b21fb>
 29c:	1300                	addi	s0,sp,416
 29e:	0034                	addi	a3,sp,8
 2a0:	213a0803          	lb	a6,531(s4)
 2a4:	3b01                	addiw	s6,s6,-32
 2a6:	490b390b          	0x490b390b
 2aa:	00180213          	addi	tp,a6,1
 2ae:	1400                	addi	s0,sp,544
 2b0:	0034                	addi	a3,sp,8
 2b2:	213a0803          	lb	a6,531(s4)
 2b6:	3b01                	addiw	s6,s6,-32
 2b8:	490b390b          	0x490b390b
 2bc:	00170213          	addi	tp,a4,1
 2c0:	1500                	addi	s0,sp,672
 2c2:	012e                	slli	sp,sp,0xb
 2c4:	213a0e03          	lb	t3,531(s4)
 2c8:	3b02                	fld	fs6,32(sp)
 2ca:	1421390b          	0x1421390b
 2ce:	21201927          	0x21201927
 2d2:	00130103          	lb	sp,1(t1)
 2d6:	1600                	addi	s0,sp,800
 2d8:	0005                	c.nop	1
 2da:	0b3a0e03          	lb	t3,179(s4)
 2de:	0b390b3b          	0xb390b3b
 2e2:	1349                	addi	t1,t1,-14
 2e4:	0000                	unimp
 2e6:	03001617          	auipc	a2,0x3001
 2ea:	3a0e                	fld	fs4,224(sp)
 2ec:	0421                	addi	s0,s0,8
 2ee:	0b390b3b          	0xb390b3b
 2f2:	1349                	addi	t1,t1,-14
 2f4:	0000                	unimp
 2f6:	2e18                	fld	fa4,24(a2)
 2f8:	3f01                	addiw	t5,t5,-32
 2fa:	0319                	addi	t1,t1,6
 2fc:	3a0e                	fld	fs4,224(sp)
 2fe:	0121                	addi	sp,sp,8
 300:	21390b3b          	0x21390b3b
 304:	2706                	fld	fa4,64(sp)
 306:	1119                	addi	sp,sp,-26
 308:	1201                	addi	tp,tp,-32
 30a:	7a184007          	flq	ft0,1953(a6)
 30e:	0119                	addi	sp,sp,6
 310:	19000013          	li	zero,400
 314:	0005                	c.nop	1
 316:	213a0e03          	lb	t3,531(s4)
 31a:	3b01                	addiw	s6,s6,-32
 31c:	3e21                	addiw	t3,t3,-24
 31e:	0b39                	addi	s6,s6,14
 320:	1349                	addi	t1,t1,-14
 322:	1702                	slli	a4,a4,0x20
 324:	0000                	unimp
 326:	181a                	slli	a6,a6,0x26
 328:	0000                	unimp
 32a:	1b00                	addi	s0,sp,432
 32c:	0148                	addi	a0,sp,132
 32e:	017d                	addi	sp,sp,31
 330:	137f                	0x137f
 332:	0000                	unimp
 334:	0f1c                	addi	a5,sp,912
 336:	0b00                	addi	s0,sp,400
 338:	0821                	addi	a6,a6,8
 33a:	1349                	addi	t1,t1,-14
 33c:	0000                	unimp
 33e:	111d                	addi	sp,sp,-25
 340:	2501                	sext.w	a0,a0
 342:	130e                	slli	t1,t1,0x23
 344:	1b1f030b          	0x1b1f030b
 348:	111f 1201 1007      	0x10071201111f
 34e:	1e000017          	auipc	zero,0x1e000
 352:	0024                	addi	s1,sp,8
 354:	0b3e0b0b          	0xb3e0b0b
 358:	00000803          	lb	a6,0(zero) # 0 <_text-0xa00000>
 35c:	0f1f 0b00 030b      	0x30b0b000f1f
 362:	000e                	c.slli	zero,0x3
 364:	2000                	fld	fs0,0(s0)
 366:	0026                	c.slli	zero,0x9
 368:	1349                	addi	t1,t1,-14
 36a:	0000                	unimp
 36c:	4821                	li	a6,8
 36e:	7d01                	lui	s10,0xfffe0
 370:	7f01                	lui	t5,0xfffe0
 372:	00130113          	addi	sp,t1,1
 376:	2200                	fld	fs0,0(a2)
 378:	012e                	slli	sp,sp,0xb
 37a:	0b3a0e03          	lb	t3,179(s4)
 37e:	0b390b3b          	0xb390b3b
 382:	01111927          	0x1111927
 386:	0712                	slli	a4,a4,0x4
 388:	1840                	addi	s0,sp,52
 38a:	197a                	slli	s2,s2,0x3e
 38c:	1301                	addi	t1,t1,-32
 38e:	0000                	unimp
 390:	03002e23          	sw	a6,60(zero) # 3c <_text-0x9fffc4>
 394:	3a0e                	fld	fs4,224(sp)
 396:	390b3b0b          	0x390b3b0b
 39a:	000b200b          	0xb200b
 39e:	2400                	fld	fs0,8(s0)
 3a0:	012e                	slli	sp,sp,0xb
 3a2:	0e03193f 0b3b0b3a 	0xb3b0b3a0e03193f
 3aa:	0b39                	addi	s6,s6,14
 3ac:	0b201927          	0xb201927
 3b0:	1301                	addi	t1,t1,-32
 3b2:	0000                	unimp
 3b4:	2e25                	addiw	t3,t3,9
 3b6:	3f01                	addiw	t5,t5,-32
 3b8:	0319                	addi	t1,t1,6
 3ba:	3a0e                	fld	fs4,224(sp)
 3bc:	390b3b0b          	0x390b3b0b
 3c0:	2019270b          	0x2019270b
 3c4:	0000000b          	0xb

Disassembly of section .debug_aranges:

0000000000000000 <.debug_aranges>:
   0:	002c                	addi	a1,sp,8
   2:	0000                	unimp
   4:	0002                	c.slli64	zero
   6:	0000                	unimp
   8:	0000                	unimp
   a:	0008                	0x8
   c:	0000                	unimp
   e:	0000                	unimp
  10:	0000                	unimp
  12:	00a0                	addi	s0,sp,72
  14:	0000                	unimp
  16:	0000                	unimp
  18:	0004                	0x4
	...
  2e:	0000                	unimp
  30:	002c                	addi	a1,sp,8
  32:	0000                	unimp
  34:	0002                	c.slli64	zero
  36:	0028                	addi	a0,sp,8
  38:	0000                	unimp
  3a:	0008                	0x8
  3c:	0000                	unimp
  3e:	0000                	unimp
  40:	0004                	0x4
  42:	00a0                	addi	s0,sp,72
  44:	0000                	unimp
  46:	0000                	unimp
  48:	0096                	slli	ra,ra,0x5
	...
  5e:	0000                	unimp
  60:	002c                	addi	a1,sp,8
  62:	0000                	unimp
  64:	0002                	c.slli64	zero
  66:	02b1                	addi	t0,t0,12
  68:	0000                	unimp
  6a:	0008                	0x8
  6c:	0000                	unimp
  6e:	0000                	unimp
  70:	009a                	slli	ra,ra,0x6
  72:	00a0                	addi	s0,sp,72
  74:	0000                	unimp
  76:	0000                	unimp
  78:	0012                	c.slli	zero,0x4
	...
  8e:	0000                	unimp
  90:	002c                	addi	a1,sp,8
  92:	0000                	unimp
  94:	0002                	c.slli64	zero
  96:	0316                	slli	t1,t1,0x5
  98:	0000                	unimp
  9a:	0008                	0x8
  9c:	0000                	unimp
  9e:	0000                	unimp
  a0:	00ac                	addi	a1,sp,72
  a2:	00a0                	addi	s0,sp,72
  a4:	0000                	unimp
  a6:	0000                	unimp
  a8:	0534                	addi	a3,sp,648
	...

Disassembly of section .debug_str:

0000000000000000 <.debug_str>:
   0:	6e45                	lui	t3,0x11
   2:	7274                	ld	a3,224(a2)
   4:	2e79                	addiw	t3,t3,30
   6:	682f0053          	0x682f0053
   a:	2f656d6f          	jal	s10,56300 <_text-0x9a9d00>
   e:	2f707967          	0x2f707967
  12:	6544                	ld	s1,136(a0)
  14:	6f746b73          	csrrsi	s6,0x6f7,8
  18:	2f70                	fld	fa2,216(a4)
  1a:	4456                	lw	s0,84(sp)
  1c:	65706f2f          	0x65706f2f
  20:	6172                	ld	sp,280(sp)
  22:	6974                	ld	a3,208(a0)
  24:	676e                	ld	a4,216(sp)
  26:	732d                	lui	t1,0xfffeb
  28:	7379                	lui	t1,0xffffe
  2a:	6574                	ld	a3,200(a0)
  2c:	2f6d                	addiw	t5,t5,27
  2e:	706d6f63          	bltu	s10,t1,74c <_text-0x9ff8b4>
  32:	7465                	lui	s0,0xffff9
  34:	7469                	lui	s0,0xffffa
  36:	6f69                	lui	t5,0x1a
  38:	2f6e                	fld	ft10,216(sp)
  3a:	522d534f          	fnmadd.d	ft6,fs10,ft2,fa0,unknown
  3e:	5349                	li	t1,-14
  40:	752f5643          	0x752f5643
  44:	00726573          	csrrsi	a0,0x7,4
  48:	20554e47          	fmsub.s	ft8,fa0,ft5,ft4,rmm
  4c:	5341                	li	t1,-16
  4e:	3220                	fld	fs0,96(a2)
  50:	332e                	fld	ft6,232(sp)
  52:	4e470037          	lui	zero,0x4e470
  56:	2055                	0x2055
  58:	20373143          	fmadd.s	ft2,fa4,ft3,ft4,rup
  5c:	3131                	addiw	sp,sp,-20
  5e:	312e                	fld	ft2,232(sp)
  60:	302e                	fld	ft0,232(sp)
  62:	2d20                	fld	fs0,88(a0)
  64:	636d                	lui	t1,0x1b
  66:	6f6d                	lui	t5,0x1b
  68:	6564                	ld	s1,200(a0)
  6a:	3d6c                	fld	fa1,248(a0)
  6c:	656d                	lui	a0,0x1b
  6e:	6164                	ld	s1,192(a0)
  70:	796e                	ld	s2,248(sp)
  72:	2d20                	fld	fs0,88(a0)
  74:	6e6d                	lui	t3,0x1b
  76:	65722d6f          	jal	s10,22ecc <_text-0x9dd134>
  7a:	616c                	ld	a1,192(a0)
  7c:	2078                	fld	fa4,192(s0)
  7e:	6d2d                	lui	s10,0xb
  80:	7574                	ld	a3,232(a0)
  82:	656e                	ld	a0,216(sp)
  84:	723d                	lui	tp,0xfffef
  86:	656b636f          	jal	t1,b66dc <_text-0x949924>
  8a:	2074                	fld	fa3,192(s0)
  8c:	6d2d                	lui	s10,0xb
  8e:	7261                	lui	tp,0xffff8
  90:	723d6863          	bltu	s10,gp,7c0 <_text-0x9ff840>
  94:	3676                	fld	fa2,376(sp)
  96:	6934                	ld	a3,80(a0)
  98:	616d                	addi	sp,sp,240
  9a:	6466                	ld	s0,88(sp)
  9c:	6d2d2063          	0x6d2d2063
  a0:	6261                	lui	tp,0x18
  a2:	3d69                	addiw	s10,s10,-6
  a4:	706c                	ld	a1,224(s0)
  a6:	3436                	fld	fs0,360(sp)
  a8:	2064                	fld	fs1,192(s0)
  aa:	6d2d                	lui	s10,0xb
  ac:	7261                	lui	tp,0xffff8
  ae:	723d6863          	bltu	s10,gp,7de <_text-0x9ff822>
  b2:	3676                	fld	fa2,376(sp)
  b4:	6934                	ld	a3,80(a0)
  b6:	616d                	addi	sp,sp,240
  b8:	6466                	ld	s0,88(sp)
  ba:	672d2063          	0x672d2063
  be:	20626467          	0x20626467
  c2:	672d                	lui	a4,0xb
  c4:	2d20                	fld	fs0,88(a0)
  c6:	662d204f          	fnmadd.q	ft0,fs10,ft2,fa2,rdn
  ca:	6f6e                	ld	t5,216(sp)
  cc:	6f2d                	lui	t5,0xb
  ce:	696d                	lui	s2,0x1b
  d0:	2d74                	fld	fa3,216(a0)
  d2:	7266                	ld	tp,120(sp)
  d4:	6d61                	lui	s10,0x18
  d6:	2d65                	addiw	s10,s10,25
  d8:	6f70                	ld	a2,216(a4)
  da:	6e69                	lui	t3,0x1a
  dc:	6574                	ld	a3,200(a0)
  de:	2072                	fld	ft0,280(sp)
  e0:	662d                	lui	a2,0xb
  e2:	7266                	ld	tp,120(sp)
  e4:	6565                	lui	a0,0x19
  e6:	6e617473          	csrrci	s0,0x6e6,2
  ea:	6964                	ld	s1,208(a0)
  ec:	676e                	ld	a4,216(sp)
  ee:	2d20                	fld	fs0,88(a0)
  f0:	6e66                	ld	t3,88(sp)
  f2:	6f632d6f          	jal	s10,327e8 <_text-0x9cd818>
  f6:	6d6d                	lui	s10,0x1b
  f8:	2d206e6f          	jal	t3,63ca <_text-0x9f9c36>
  fc:	6e66                	ld	t3,88(sp)
  fe:	74732d6f          	jal	s10,33044 <_text-0x9ccfbc>
 102:	6361                	lui	t1,0x18
 104:	72702d6b          	0x72702d6b
 108:	6365746f          	jal	s0,5773e <_text-0x9a88c2>
 10c:	6f74                	ld	a3,216(a4)
 10e:	0072                	c.slli	zero,0x1c
 110:	7375                	lui	t1,0xffffd
 112:	7265                	lui	tp,0xffff9
 114:	614d                	addi	sp,sp,176
 116:	6e69                	lui	t3,0x1a
 118:	7300                	ld	s0,32(a4)
 11a:	7379                	lui	t1,0xffffe
 11c:	6c6c6163          	bltu	s8,t1,7de <_text-0x9ff822>
 120:	6f46                	ld	t5,80(sp)
 122:	6b72                	ld	s6,280(sp)
 124:	6c00                	ld	s0,24(s0)
 126:	20676e6f          	jal	t3,7632c <_text-0x989cd4>
 12a:	6e75                	lui	t3,0x1d
 12c:	6e676973          	csrrsi	s2,0x6e6,14
 130:	6465                	lui	s0,0x19
 132:	6920                	ld	s0,80(a0)
 134:	746e                	ld	s0,248(sp)
 136:	7500                	ld	s0,40(a0)
 138:	736e                	ld	t1,248(sp)
 13a:	6769                	lui	a4,0x1a
 13c:	656e                	ld	a0,216(sp)
 13e:	2064                	fld	fs1,192(s0)
 140:	72616863          	bltu	sp,t1,870 <_text-0x9ff790>
 144:	6c00                	ld	s0,24(s0)
 146:	20676e6f          	jal	t3,7634c <_text-0x989cb4>
 14a:	6e69                	lui	t3,0x1a
 14c:	0074                	addi	a3,sp,12
 14e:	6964                	ld	s1,208(a0)
 150:	73746967          	0x73746967
 154:	6200                	ld	s0,0(a2)
 156:	6675                	lui	a2,0x1d
 158:	6566                	ld	a0,88(sp)
 15a:	4c72                	lw	s8,28(sp)
 15c:	6e65                	lui	t3,0x19
 15e:	7300                	ld	s0,32(a4)
 160:	6f68                	ld	a0,216(a4)
 162:	7472                	ld	s0,312(sp)
 164:	7520                	ld	s0,104(a0)
 166:	736e                	ld	t1,248(sp)
 168:	6769                	lui	a4,0x1a
 16a:	656e                	ld	a0,216(sp)
 16c:	2064                	fld	fs1,192(s0)
 16e:	6e69                	lui	t3,0x1a
 170:	0074                	addi	a3,sp,12
 172:	5075                	c.li	zero,-3
 174:	6972                	ld	s2,280(sp)
 176:	746e                	ld	s0,248(sp)
 178:	0066                	c.slli	zero,0x19
 17a:	7270                	ld	a2,224(a2)
 17c:	6e69                	lui	t3,0x1a
 17e:	6674                	ld	a3,200(a2)
 180:	7542                	ld	a0,48(sp)
 182:	6666                	ld	a2,88(sp)
 184:	7265                	lui	tp,0xffff9
 186:	6600                	ld	s0,8(a2)
 188:	006b726f          	jal	tp,b718e <_text-0x948e72>
 18c:	3130                	fld	fa2,96(a0)
 18e:	3332                	fld	ft6,296(sp)
 190:	3534                	fld	fa3,104(a0)
 192:	3736                	fld	fa4,360(sp)
 194:	3938                	fld	fa4,112(a0)
 196:	6261                	lui	tp,0x18
 198:	66656463          	bltu	a0,t1,800 <_text-0x9ff800>
 19c:	7300                	ld	s0,32(a4)
 19e:	6f68                	ld	a0,216(a4)
 1a0:	7472                	ld	s0,312(sp)
 1a2:	6920                	ld	s0,80(a0)
 1a4:	746e                	ld	s0,248(sp)
 1a6:	6c00                	ld	s0,24(s0)
 1a8:	6269                	lui	tp,0x1a
 1aa:	614d                	addi	sp,sp,176
 1ac:	6e69                	lui	t3,0x1a
 1ae:	5f00                	lw	s0,56(a4)
 1b0:	625f 6975 746c      	0x746c6975625f
 1b6:	6e69                	lui	t3,0x1a
 1b8:	765f 5f61 696c      	0x696c5f61765f
 1be:	75007473          	csrrci	s0,0x750,0
 1c2:	7250                	ld	a2,160(a2)
 1c4:	6e69                	lui	t3,0x1a
 1c6:	0074                	addi	a3,sp,12
 1c8:	6f62                	ld	t5,24(sp)
 1ca:	66006c6f          	jal	s8,682a <_text-0x9f97d6>
 1ce:	6c69                	lui	s8,0x1a
 1d0:	0065                	c.nop	25
 1d2:	6461                	lui	s0,0x18
 1d4:	4364                	lw	s1,68(a4)
 1d6:	6168                	ld	a0,192(a0)
 1d8:	5472                	lw	s0,60(sp)
 1da:	6675426f          	jal	tp,55040 <_text-0x9aafc0>
 1de:	6566                	ld	a0,88(sp)
 1e0:	0072                	c.slli	zero,0x1c
 1e2:	696c                	ld	a1,208(a0)
 1e4:	656e                	ld	a0,216(sp)
 1e6:	6300                	ld	s0,0(a4)
 1e8:	656c                	ld	a1,200(a0)
 1ea:	7261                	lui	tp,0xffff8
 1ec:	7542                	ld	a0,48(sp)
 1ee:	6666                	ld	a2,88(sp)
 1f0:	7265                	lui	tp,0xffff9
 1f2:	7500                	ld	s0,40(a0)
 1f4:	7250                	ld	a2,160(a2)
 1f6:	6e69                	lui	t3,0x1a
 1f8:	5374                	lw	a3,100(a4)
 1fa:	7274                	ld	a3,224(a2)
 1fc:	6e69                	lui	t3,0x1a
 1fe:	79730067          	jr	1943(t1) # ffffffffffffe797 <bufferLen+0xffffffffff5fb797>
 202:	6c616373          	csrrsi	t1,0x6c6,2
 206:	506c                	lw	a1,100(s0)
 208:	7475                	lui	s0,0xffffd
 20a:	72616863          	bltu	sp,t1,93a <_text-0x9ff6c6>
 20e:	6200                	ld	s0,0(a2)
 210:	6675                	lui	a2,0x1d
 212:	6566                	ld	a0,88(sp)
 214:	0072                	c.slli	zero,0x1c
 216:	755f 6150 696e      	0x696e6150755f
 21c:	73005f63          	blez	a6,95a <_text-0x9ff6a6>
 220:	6769                	lui	a4,0x1a
 222:	006e                	c.slli	zero,0x1b
 224:	5075                	c.li	zero,-3
 226:	6972                	ld	s2,280(sp)
 228:	746e                	ld	s0,248(sp)
 22a:	6e49                	lui	t3,0x12
 22c:	0074                	addi	a3,sp,12
 22e:	6162                	ld	sp,24(sp)
 230:	73006573          	csrrsi	a0,0x730,0
 234:	7379                	lui	t1,0xffffe
 236:	6c6c6163          	bltu	s8,t1,8f8 <_text-0x9ff708>
 23a:	7550                	ld	a2,168(a0)
 23c:	5374                	lw	a3,100(a4)
 23e:	7274                	ld	a3,224(a2)
 240:	6e69                	lui	t3,0x1a
 242:	          	jr	zero # 0 <_text-0xa00000>

Disassembly of section .debug_loclists:

0000000000000000 <.debug_loclists>:
   0:	006d                	c.nop	27
   2:	0000                	unimp
   4:	0005                	c.nop	1
   6:	0008                	0x8
   8:	0000                	unimp
   a:	0000                	unimp
   c:	a0001e07          	0xa0001e07
  10:	0000                	unimp
  12:	0000                	unimp
  14:	4600                	lw	s0,8(a2)
  16:	a000                	fsd	fs0,0(s0)
  18:	0000                	unimp
  1a:	0000                	unimp
  1c:	0200                	addi	s0,sp,256
  1e:	9f30                	0x9f30
  20:	a0004607          	flq	fa2,-1536(zero) # fffffffffffffa00 <bufferLen+0xffffffffff5fca00>
  24:	0000                	unimp
  26:	0000                	unimp
  28:	6200                	ld	s0,0(a2)
  2a:	a000                	fsd	fs0,0(s0)
  2c:	0000                	unimp
  2e:	0000                	unimp
  30:	0200                	addi	s0,sp,256
  32:	70079f33          	0x70079f33
  36:	a000                	fsd	fs0,0(s0)
  38:	0000                	unimp
  3a:	0000                	unimp
  3c:	7e00                	ld	s0,56(a2)
  3e:	a000                	fsd	fs0,0(s0)
  40:	0000                	unimp
  42:	0000                	unimp
  44:	0200                	addi	s0,sp,256
  46:	07009f33          	0x7009f33
  4a:	001e                	c.slli	zero,0x7
  4c:	00a0                	addi	s0,sp,72
  4e:	0000                	unimp
  50:	0000                	unimp
  52:	0024                	addi	s1,sp,8
  54:	00a0                	addi	s0,sp,72
  56:	0000                	unimp
  58:	0000                	unimp
  5a:	3002                	fld	ft0,32(sp)
  5c:	079f 0024 00a0      	0xa00024079f
  62:	0000                	unimp
  64:	0000                	unimp
  66:	0062                	c.slli	zero,0x18
  68:	00a0                	addi	s0,sp,72
  6a:	0000                	unimp
  6c:	0000                	unimp
  6e:	5a01                	li	s4,-32
  70:	3100                	fld	fs0,32(a0)
  72:	000d                	c.nop	3
  74:	0500                	addi	s0,sp,640
  76:	0800                	addi	s0,sp,16
  78:	0000                	unimp
  7a:	0000                	unimp
  7c:	0700                	addi	s0,sp,896
  7e:	0596                	slli	a1,a1,0x5
  80:	00a0                	addi	s0,sp,72
  82:	0000                	unimp
  84:	0000                	unimp
  86:	05bc                	addi	a5,sp,712
  88:	00a0                	addi	s0,sp,72
  8a:	0000                	unimp
  8c:	0000                	unimp
  8e:	5a01                	li	s4,-32
  90:	a005bc07          	fld	fs8,-1536(a1)
  94:	0000                	unimp
  96:	0000                	unimp
  98:	c300                	sw	s0,0(a4)
  9a:	a005                	j	ba <_text-0x9fff46>
  9c:	0000                	unimp
  9e:	0000                	unimp
  a0:	0100                	addi	s0,sp,128
  a2:	05c3075b          	0x5c3075b
  a6:	00a0                	addi	s0,sp,72
  a8:	0000                	unimp
  aa:	0000                	unimp
  ac:	05e0                	addi	s0,sp,716
  ae:	00a0                	addi	s0,sp,72
  b0:	0000                	unimp
  b2:	0000                	unimp
  b4:	a304                	fsd	fs1,0(a4)
  b6:	5a01                	li	s4,-32
  b8:	009f 9607 a005      	0xa0059607009f
  be:	0000                	unimp
  c0:	0000                	unimp
  c2:	b400                	fsd	fs0,40(s0)
  c4:	a005                	j	e4 <_text-0x9fff1c>
  c6:	0000                	unimp
  c8:	0000                	unimp
  ca:	0100                	addi	s0,sp,128
  cc:	05b4075b          	0x5b4075b
  d0:	00a0                	addi	s0,sp,72
  d2:	0000                	unimp
  d4:	0000                	unimp
  d6:	05e0                	addi	s0,sp,716
  d8:	00a0                	addi	s0,sp,72
  da:	0000                	unimp
  dc:	0000                	unimp
  de:	a304                	fsd	fs1,0(a4)
  e0:	5b01                	li	s6,-32
  e2:	009f 9607 a005      	0xa0059607009f
  e8:	0000                	unimp
  ea:	0000                	unimp
  ec:	b200                	fsd	fs0,32(a2)
  ee:	a005                	j	10e <_text-0x9ffef2>
  f0:	0000                	unimp
  f2:	0000                	unimp
  f4:	0100                	addi	s0,sp,128
  f6:	075c                	addi	a5,sp,900
  f8:	05b2                	slli	a1,a1,0xc
  fa:	00a0                	addi	s0,sp,72
  fc:	0000                	unimp
  fe:	0000                	unimp
 100:	05e0                	addi	s0,sp,716
 102:	00a0                	addi	s0,sp,72
 104:	0000                	unimp
 106:	0000                	unimp
 108:	5901                	li	s2,-32
 10a:	0700                	addi	s0,sp,896
 10c:	05d6                	slli	a1,a1,0x15
 10e:	00a0                	addi	s0,sp,72
 110:	0000                	unimp
 112:	0000                	unimp
 114:	05de                	slli	a1,a1,0x17
 116:	00a0                	addi	s0,sp,72
 118:	0000                	unimp
 11a:	0000                	unimp
 11c:	3a02                	fld	fs4,32(sp)
 11e:	009f 4207 a005      	0xa0054207009f
 124:	0000                	unimp
 126:	0000                	unimp
 128:	6b00                	ld	s0,16(a4)
 12a:	a005                	j	14a <_text-0x9ffeb6>
 12c:	0000                	unimp
 12e:	0000                	unimp
 130:	0100                	addi	s0,sp,128
 132:	075a                	slli	a4,a4,0x16
 134:	00a0056b          	0xa0056b
 138:	0000                	unimp
 13a:	0000                	unimp
 13c:	0596                	slli	a1,a1,0x5
 13e:	00a0                	addi	s0,sp,72
 140:	0000                	unimp
 142:	0000                	unimp
 144:	a304                	fsd	fs1,0(a4)
 146:	5a01                	li	s4,-32
 148:	009f 7807 a005      	0xa0057807009f
 14e:	0000                	unimp
 150:	0000                	unimp
 152:	8600                	0x8600
 154:	a005                	j	174 <_text-0x9ffe8c>
 156:	0000                	unimp
 158:	0000                	unimp
 15a:	0900                	addi	s0,sp,144
 15c:	2008007b          	0x2008007b
 160:	0824                	addi	s1,sp,24
 162:	2620                	fld	fs0,72(a2)
 164:	009f 7807 a005      	0xa0057807009f
 16a:	0000                	unimp
 16c:	0000                	unimp
 16e:	8600                	0x8600
 170:	a005                	j	190 <_text-0x9ffe70>
 172:	0000                	unimp
 174:	0000                	unimp
 176:	0a00                	addi	s0,sp,272
 178:	a0200003          	lb	zero,-1534(zero) # fffffffffffffa02 <bufferLen+0xffffffffff5fca02>
 17c:	0000                	unimp
 17e:	0000                	unimp
 180:	9f00                	0x9f00
 182:	0700                	addi	s0,sp,896
 184:	00ac                	addi	a1,sp,72
 186:	00a0                	addi	s0,sp,72
 188:	0000                	unimp
 18a:	0000                	unimp
 18c:	0122                	slli	sp,sp,0x8
 18e:	00a0                	addi	s0,sp,72
 190:	0000                	unimp
 192:	0000                	unimp
 194:	5a01                	li	s4,-32
 196:	a0012207          	flw	ft4,-1536(sp) # 12010a04 <bufferLen+0x1160da04>
 19a:	0000                	unimp
 19c:	0000                	unimp
 19e:	4000                	lw	s0,0(s0)
 1a0:	a005                	j	1c0 <_text-0x9ffe40>
 1a2:	0000                	unimp
 1a4:	0000                	unimp
 1a6:	0100                	addi	s0,sp,128
 1a8:	076e                	slli	a4,a4,0x1b
 1aa:	0540                	addi	s0,sp,644
 1ac:	00a0                	addi	s0,sp,72
 1ae:	0000                	unimp
 1b0:	0000                	unimp
 1b2:	0542                	slli	a0,a0,0x10
 1b4:	00a0                	addi	s0,sp,72
 1b6:	0000                	unimp
 1b8:	0000                	unimp
 1ba:	5a01                	li	s4,-32
 1bc:	0700                	addi	s0,sp,896
 1be:	00ac                	addi	a1,sp,72
 1c0:	00a0                	addi	s0,sp,72
 1c2:	0000                	unimp
 1c4:	0000                	unimp
 1c6:	0122                	slli	sp,sp,0x8
 1c8:	00a0                	addi	s0,sp,72
 1ca:	0000                	unimp
 1cc:	0000                	unimp
 1ce:	5b01                	li	s6,-32
 1d0:	a0012207          	flw	ft4,-1536(sp)
 1d4:	0000                	unimp
 1d6:	0000                	unimp
 1d8:	7a00                	ld	s0,48(a2)
 1da:	a001                	j	1da <_text-0x9ffe26>
 1dc:	0000                	unimp
 1de:	0000                	unimp
 1e0:	0100                	addi	s0,sp,128
 1e2:	017a0757          	0x17a0757
 1e6:	00a0                	addi	s0,sp,72
 1e8:	0000                	unimp
 1ea:	0000                	unimp
 1ec:	01e0                	addi	s0,sp,204
 1ee:	00a0                	addi	s0,sp,72
 1f0:	0000                	unimp
 1f2:	0000                	unimp
 1f4:	5d01                	li	s10,-32
 1f6:	a001e007          	0xa001e007
 1fa:	0000                	unimp
 1fc:	0000                	unimp
 1fe:	3e00                	fld	fs0,56(a2)
 200:	a002                	fsd	ft0,0(sp)
 202:	0000                	unimp
 204:	0000                	unimp
 206:	0100                	addi	s0,sp,128
 208:	023e0757          	0x23e0757
 20c:	00a0                	addi	s0,sp,72
 20e:	0000                	unimp
 210:	0000                	unimp
 212:	0284                	addi	s1,sp,320
 214:	00a0                	addi	s0,sp,72
 216:	0000                	unimp
 218:	0000                	unimp
 21a:	5d01                	li	s10,-32
 21c:	a0028407          	0xa0028407
 220:	0000                	unimp
 222:	0000                	unimp
 224:	b400                	fsd	fs0,40(s0)
 226:	a002                	fsd	ft0,0(sp)
 228:	0000                	unimp
 22a:	0000                	unimp
 22c:	0100                	addi	s0,sp,128
 22e:	02b40757          	0x2b40757
 232:	00a0                	addi	s0,sp,72
 234:	0000                	unimp
 236:	0000                	unimp
 238:	0350                	addi	a2,sp,388
 23a:	00a0                	addi	s0,sp,72
 23c:	0000                	unimp
 23e:	0000                	unimp
 240:	5601                	li	a2,-32
 242:	a0035007          	0xa0035007
 246:	0000                	unimp
 248:	0000                	unimp
 24a:	5200                	lw	s0,32(a2)
 24c:	0000a003          	lw	zero,0(ra)
 250:	0000                	unimp
 252:	0100                	addi	s0,sp,128
 254:	03520757          	0x3520757
 258:	00a0                	addi	s0,sp,72
 25a:	0000                	unimp
 25c:	0000                	unimp
 25e:	03f6                	slli	t2,t2,0x1d
 260:	00a0                	addi	s0,sp,72
 262:	0000                	unimp
 264:	0000                	unimp
 266:	5d01                	li	s10,-32
 268:	a003f607          	0xa003f607
 26c:	0000                	unimp
 26e:	0000                	unimp
 270:	0000                	unimp
 272:	a004                	fsd	fs1,0(s0)
 274:	0000                	unimp
 276:	0000                	unimp
 278:	0100                	addi	s0,sp,128
 27a:	04000757          	0x4000757
 27e:	00a0                	addi	s0,sp,72
 280:	0000                	unimp
 282:	0000                	unimp
 284:	0404                	addi	s1,sp,512
 286:	00a0                	addi	s0,sp,72
 288:	0000                	unimp
 28a:	0000                	unimp
 28c:	5d01                	li	s10,-32
 28e:	a0040407          	0xa0040407
 292:	0000                	unimp
 294:	0000                	unimp
 296:	de00                	sw	s0,56(a2)
 298:	a004                	fsd	fs1,0(s0)
 29a:	0000                	unimp
 29c:	0000                	unimp
 29e:	0100                	addi	s0,sp,128
 2a0:	04de0757          	0x4de0757
 2a4:	00a0                	addi	s0,sp,72
 2a6:	0000                	unimp
 2a8:	0000                	unimp
 2aa:	0524                	addi	s1,sp,648
 2ac:	00a0                	addi	s0,sp,72
 2ae:	0000                	unimp
 2b0:	0000                	unimp
 2b2:	5d01                	li	s10,-32
 2b4:	a0052407          	flw	fs0,-1536(a0) # 18a00 <_text-0x9e7600>
 2b8:	0000                	unimp
 2ba:	0000                	unimp
 2bc:	4000                	lw	s0,0(s0)
 2be:	a005                	j	2de <_text-0x9ffd22>
 2c0:	0000                	unimp
 2c2:	0000                	unimp
 2c4:	0100                	addi	s0,sp,128
 2c6:	05400757          	0x5400757
 2ca:	00a0                	addi	s0,sp,72
 2cc:	0000                	unimp
 2ce:	0000                	unimp
 2d0:	0542                	slli	a0,a0,0x10
 2d2:	00a0                	addi	s0,sp,72
 2d4:	0000                	unimp
 2d6:	0000                	unimp
 2d8:	5b01                	li	s6,-32
 2da:	0700                	addi	s0,sp,896
 2dc:	00ac                	addi	a1,sp,72
 2de:	00a0                	addi	s0,sp,72
 2e0:	0000                	unimp
 2e2:	0000                	unimp
 2e4:	0122                	slli	sp,sp,0x8
 2e6:	00a0                	addi	s0,sp,72
 2e8:	0000                	unimp
 2ea:	0000                	unimp
 2ec:	3002                	fld	ft0,32(sp)
 2ee:	079f 0122 00a0      	0xa00122079f
 2f4:	0000                	unimp
 2f6:	0000                	unimp
 2f8:	0142                	slli	sp,sp,0x10
 2fa:	00a0                	addi	s0,sp,72
 2fc:	0000                	unimp
 2fe:	0000                	unimp
 300:	5601                	li	a2,-32
 302:	a0014e07          	flq	ft8,-1536(sp)
 306:	0000                	unimp
 308:	0000                	unimp
 30a:	5600                	lw	s0,40(a2)
 30c:	a001                	j	30c <_text-0x9ffcf4>
 30e:	0000                	unimp
 310:	0000                	unimp
 312:	0100                	addi	s0,sp,128
 314:	0756                	slli	a4,a4,0x15
 316:	0156                	slli	sp,sp,0x15
 318:	00a0                	addi	s0,sp,72
 31a:	0000                	unimp
 31c:	0000                	unimp
 31e:	018e                	slli	gp,gp,0x3
 320:	00a0                	addi	s0,sp,72
 322:	0000                	unimp
 324:	0000                	unimp
 326:	9f017603          	0x9f017603
 32a:	a001e007          	0xa001e007
 32e:	0000                	unimp
 330:	0000                	unimp
 332:	1e00                	addi	s0,sp,816
 334:	a002                	fsd	ft0,0(sp)
 336:	0000                	unimp
 338:	0000                	unimp
 33a:	0100                	addi	s0,sp,128
 33c:	0756                	slli	a4,a4,0x15
 33e:	021e                	slli	tp,tp,0x7
 340:	00a0                	addi	s0,sp,72
 342:	0000                	unimp
 344:	0000                	unimp
 346:	0222                	slli	tp,tp,0x8
 348:	00a0                	addi	s0,sp,72
 34a:	0000                	unimp
 34c:	0000                	unimp
 34e:	9f017603          	0x9f017603
 352:	a0022207          	flw	ft4,-1536(tp) # ffffffffffff8a00 <bufferLen+0xffffffffff5f5a00>
 356:	0000                	unimp
 358:	0000                	unimp
 35a:	4600                	lw	s0,8(a2)
 35c:	a002                	fsd	ft0,0(sp)
 35e:	0000                	unimp
 360:	0000                	unimp
 362:	0300                	addi	s0,sp,384
 364:	0276                	slli	tp,tp,0x1d
 366:	079f 0284 00a0      	0xa00284079f
 36c:	0000                	unimp
 36e:	0000                	unimp
 370:	0288                	addi	a0,sp,320
 372:	00a0                	addi	s0,sp,72
 374:	0000                	unimp
 376:	0000                	unimp
 378:	9f027603          	0x9f027603
 37c:	a002b007          	fld	ft0,-1536(t0) # fffffffffffffa00 <bufferLen+0xffffffffff5fca00>
 380:	0000                	unimp
 382:	0000                	unimp
 384:	b400                	fsd	fs0,40(s0)
 386:	a002                	fsd	ft0,0(sp)
 388:	0000                	unimp
 38a:	0000                	unimp
 38c:	0300                	addi	s0,sp,384
 38e:	0276                	slli	tp,tp,0x1d
 390:	079f 03f6 00a0      	0xa003f6079f
 396:	0000                	unimp
 398:	0000                	unimp
 39a:	03f8                	addi	a4,sp,460
 39c:	00a0                	addi	s0,sp,72
 39e:	0000                	unimp
 3a0:	0000                	unimp
 3a2:	9f027603          	0x9f027603
 3a6:	a003fc07          	0xa003fc07
 3aa:	0000                	unimp
 3ac:	0000                	unimp
 3ae:	fe00                	sd	s0,56(a2)
 3b0:	0000a003          	lw	zero,0(ra)
 3b4:	0000                	unimp
 3b6:	0300                	addi	s0,sp,384
 3b8:	0176                	slli	sp,sp,0x1d
 3ba:	079f 0488 00a0      	0xa00488079f
 3c0:	0000                	unimp
 3c2:	0000                	unimp
 3c4:	048a                	slli	s1,s1,0x2
 3c6:	00a0                	addi	s0,sp,72
 3c8:	0000                	unimp
 3ca:	0000                	unimp
 3cc:	9f027603          	0x9f027603
 3d0:	a004d607          	0xa004d607
 3d4:	0000                	unimp
 3d6:	0000                	unimp
 3d8:	e600                	sd	s0,8(a2)
 3da:	a004                	fsd	fs1,0(s0)
 3dc:	0000                	unimp
 3de:	0000                	unimp
 3e0:	0300                	addi	s0,sp,384
 3e2:	0176                	slli	sp,sp,0x1d
 3e4:	079f 0540 00a0      	0xa00540079f
 3ea:	0000                	unimp
 3ec:	0000                	unimp
 3ee:	0542                	slli	a0,a0,0x10
 3f0:	00a0                	addi	s0,sp,72
 3f2:	0000                	unimp
 3f4:	0000                	unimp
 3f6:	3002                	fld	ft0,32(sp)
 3f8:	009f 6207 a001      	0xa0016207009f
 3fe:	0000                	unimp
 400:	0000                	unimp
 402:	7a00                	ld	s0,48(a2)
 404:	a001                	j	404 <_text-0x9ffbfc>
 406:	0000                	unimp
 408:	0000                	unimp
 40a:	0100                	addi	s0,sp,128
 40c:	075d                	addi	a4,a4,23
 40e:	017a                	slli	sp,sp,0x1e
 410:	00a0                	addi	s0,sp,72
 412:	0000                	unimp
 414:	0000                	unimp
 416:	017e                	slli	sp,sp,0x1f
 418:	00a0                	addi	s0,sp,72
 41a:	0000                	unimp
 41c:	0000                	unimp
 41e:	5e01                	li	t3,-32
 420:	a0017e07          	0xa0017e07
 424:	0000                	unimp
 426:	0000                	unimp
 428:	e000                	sd	s0,0(s0)
 42a:	a001                	j	42a <_text-0x9ffbd6>
 42c:	0000                	unimp
 42e:	0000                	unimp
 430:	0b00                	addi	s0,sp,400
 432:	008e                	slli	ra,ra,0x3
 434:	008d                	addi	ra,ra,3
 436:	9422                	add	s0,s0,s0
 438:	0801                	addi	a6,a6,0
 43a:	1aff                	0x1aff
 43c:	079f 021e 00a0      	0xa0021e079f
 442:	0000                	unimp
 444:	0000                	unimp
 446:	022a                	slli	tp,tp,0xa
 448:	00a0                	addi	s0,sp,72
 44a:	0000                	unimp
 44c:	0000                	unimp
 44e:	5d01                	li	s10,-32
 450:	a0022a07          	flw	fs4,-1536(tp) # fffffffffffffa00 <bufferLen+0xffffffffff5fca00>
 454:	0000                	unimp
 456:	0000                	unimp
 458:	3e00                	fld	fs0,56(a2)
 45a:	a002                	fsd	ft0,0(sp)
 45c:	0000                	unimp
 45e:	0000                	unimp
 460:	0600                	addi	s0,sp,768
 462:	007d                	c.nop	31
 464:	ff08                	sd	a0,56(a4)
 466:	9f1a                	add	t5,t5,t1
 468:	a0023e07          	fld	ft8,-1536(tp) # fffffffffffffa00 <bufferLen+0xffffffffff5fca00>
 46c:	0000                	unimp
 46e:	0000                	unimp
 470:	4800                	lw	s0,16(s0)
 472:	a002                	fsd	ft0,0(sp)
 474:	0000                	unimp
 476:	0000                	unimp
 478:	0800                	addi	s0,sp,16
 47a:	007e                	c.slli	zero,0x1f
 47c:	0194                	addi	a3,sp,192
 47e:	ff08                	sd	a0,56(a4)
 480:	9f1a                	add	t5,t5,t1
 482:	a0024807          	flq	fa6,-1536(tp) # fffffffffffffa00 <bufferLen+0xffffffffff5fca00>
 486:	0000                	unimp
 488:	0000                	unimp
 48a:	8400                	0x8400
 48c:	a002                	fsd	ft0,0(sp)
 48e:	0000                	unimp
 490:	0000                	unimp
 492:	0b00                	addi	s0,sp,400
 494:	008e                	slli	ra,ra,0x3
 496:	008d                	addi	ra,ra,3
 498:	9422                	add	s0,s0,s0
 49a:	0801                	addi	a6,a6,0
 49c:	1aff                	0x1aff
 49e:	079f 0284 00a0      	0xa00284079f
 4a4:	0000                	unimp
 4a6:	0000                	unimp
 4a8:	0288                	addi	a0,sp,320
 4aa:	00a0                	addi	s0,sp,72
 4ac:	0000                	unimp
 4ae:	0000                	unimp
 4b0:	7d06                	ld	s10,96(sp)
 4b2:	0800                	addi	s0,sp,16
 4b4:	1aff                	0x1aff
 4b6:	079f 02b0 00a0      	0xa002b0079f
 4bc:	0000                	unimp
 4be:	0000                	unimp
 4c0:	02bc                	addi	a5,sp,328
 4c2:	00a0                	addi	s0,sp,72
 4c4:	0000                	unimp
 4c6:	0000                	unimp
 4c8:	7d06                	ld	s10,96(sp)
 4ca:	0800                	addi	s0,sp,16
 4cc:	1aff                	0x1aff
 4ce:	079f 02bc 00a0      	0xa002bc079f
 4d4:	0000                	unimp
 4d6:	0000                	unimp
 4d8:	02c0                	addi	s0,sp,324
 4da:	00a0                	addi	s0,sp,72
 4dc:	0000                	unimp
 4de:	0000                	unimp
 4e0:	7e08                	ld	a0,56(a2)
 4e2:	9400                	0x9400
 4e4:	0801                	addi	a6,a6,0
 4e6:	1aff                	0x1aff
 4e8:	079f 02c0 00a0      	0xa002c0079f
 4ee:	0000                	unimp
 4f0:	0000                	unimp
 4f2:	031a                	slli	t1,t1,0x6
 4f4:	00a0                	addi	s0,sp,72
 4f6:	0000                	unimp
 4f8:	0000                	unimp
 4fa:	8d008e0b          	0x8d008e0b
 4fe:	2200                	fld	fs0,0(a2)
 500:	0194                	addi	a3,sp,192
 502:	ff08                	sd	a0,56(a4)
 504:	9f1a                	add	t5,t5,t1
 506:	a003f607          	0xa003f607
 50a:	0000                	unimp
 50c:	0000                	unimp
 50e:	fa00                	sd	s0,48(a2)
 510:	0000a003          	lw	zero,0(ra)
 514:	0000                	unimp
 516:	0600                	addi	s0,sp,768
 518:	007d                	c.nop	31
 51a:	ff08                	sd	a0,56(a4)
 51c:	9f1a                	add	t5,t5,t1
 51e:	a003fa07          	0xa003fa07
 522:	0000                	unimp
 524:	0000                	unimp
 526:	fc00                	sd	s0,56(s0)
 528:	0000a003          	lw	zero,0(ra)
 52c:	0000                	unimp
 52e:	0800                	addi	s0,sp,16
 530:	007e                	c.slli	zero,0x1f
 532:	0194                	addi	a3,sp,192
 534:	ff08                	sd	a0,56(a4)
 536:	9f1a                	add	t5,t5,t1
 538:	a003fc07          	0xa003fc07
 53c:	0000                	unimp
 53e:	0000                	unimp
 540:	0000                	unimp
 542:	a004                	fsd	fs1,0(s0)
 544:	0000                	unimp
 546:	0000                	unimp
 548:	0100                	addi	s0,sp,128
 54a:	075d                	addi	a4,a4,23
 54c:	0488                	addi	a0,sp,576
 54e:	00a0                	addi	s0,sp,72
 550:	0000                	unimp
 552:	0000                	unimp
 554:	048a                	slli	s1,s1,0x2
 556:	00a0                	addi	s0,sp,72
 558:	0000                	unimp
 55a:	0000                	unimp
 55c:	7d06                	ld	s10,96(sp)
 55e:	0800                	addi	s0,sp,16
 560:	1aff                	0x1aff
 562:	079f 04d6 00a0      	0xa004d6079f
 568:	0000                	unimp
 56a:	0000                	unimp
 56c:	04de                	slli	s1,s1,0x17
 56e:	00a0                	addi	s0,sp,72
 570:	0000                	unimp
 572:	0000                	unimp
 574:	5d01                	li	s10,-32
 576:	a004de07          	0xa004de07
 57a:	0000                	unimp
 57c:	0000                	unimp
 57e:	e800                	sd	s0,16(s0)
 580:	a004                	fsd	fs1,0(s0)
 582:	0000                	unimp
 584:	0000                	unimp
 586:	0100                	addi	s0,sp,128
 588:	075e                	slli	a4,a4,0x17
 58a:	04e8                	addi	a0,sp,588
 58c:	00a0                	addi	s0,sp,72
 58e:	0000                	unimp
 590:	0000                	unimp
 592:	0524                	addi	s1,sp,648
 594:	00a0                	addi	s0,sp,72
 596:	0000                	unimp
 598:	0000                	unimp
 59a:	8d008e0b          	0x8d008e0b
 59e:	2200                	fld	fs0,0(a2)
 5a0:	0194                	addi	a3,sp,192
 5a2:	ff08                	sd	a0,56(a4)
 5a4:	9f1a                	add	t5,t5,t1
 5a6:	0700                	addi	s0,sp,896
 5a8:	0162                	slli	sp,sp,0x18
 5aa:	00a0                	addi	s0,sp,72
 5ac:	0000                	unimp
 5ae:	0000                	unimp
 5b0:	01e0                	addi	s0,sp,204
 5b2:	00a0                	addi	s0,sp,72
 5b4:	0000                	unimp
 5b6:	0000                	unimp
 5b8:	3002                	fld	ft0,32(sp)
 5ba:	079f 021e 00a0      	0xa0021e079f
 5c0:	0000                	unimp
 5c2:	0000                	unimp
 5c4:	0288                	addi	a0,sp,320
 5c6:	00a0                	addi	s0,sp,72
 5c8:	0000                	unimp
 5ca:	0000                	unimp
 5cc:	3102                	fld	ft2,32(sp)
 5ce:	079f 02b0 00a0      	0xa002b0079f
 5d4:	0000                	unimp
 5d6:	0000                	unimp
 5d8:	0352                	slli	t1,t1,0x14
 5da:	00a0                	addi	s0,sp,72
 5dc:	0000                	unimp
 5de:	0000                	unimp
 5e0:	3102                	fld	ft2,32(sp)
 5e2:	079f 0352 00a0      	0xa00352079f
 5e8:	0000                	unimp
 5ea:	0000                	unimp
 5ec:	038a                	slli	t2,t2,0x2
 5ee:	00a0                	addi	s0,sp,72
 5f0:	0000                	unimp
 5f2:	0000                	unimp
 5f4:	3002                	fld	ft0,32(sp)
 5f6:	079f 038a 00a0      	0xa0038a079f
 5fc:	0000                	unimp
 5fe:	0000                	unimp
 600:	03c0                	addi	s0,sp,452
 602:	00a0                	addi	s0,sp,72
 604:	0000                	unimp
 606:	0000                	unimp
 608:	3102                	fld	ft2,32(sp)
 60a:	079f 03c0 00a0      	0xa003c0079f
 610:	0000                	unimp
 612:	0000                	unimp
 614:	03f6                	slli	t2,t2,0x1d
 616:	00a0                	addi	s0,sp,72
 618:	0000                	unimp
 61a:	0000                	unimp
 61c:	3002                	fld	ft0,32(sp)
 61e:	079f 03f6 00a0      	0xa003f6079f
 624:	0000                	unimp
 626:	0000                	unimp
 628:	03fc                	addi	a5,sp,460
 62a:	00a0                	addi	s0,sp,72
 62c:	0000                	unimp
 62e:	0000                	unimp
 630:	3102                	fld	ft2,32(sp)
 632:	079f 03fc 00a0      	0xa003fc079f
 638:	0000                	unimp
 63a:	0000                	unimp
 63c:	0400                	addi	s0,sp,512
 63e:	00a0                	addi	s0,sp,72
 640:	0000                	unimp
 642:	0000                	unimp
 644:	3002                	fld	ft0,32(sp)
 646:	079f 0488 00a0      	0xa00488079f
 64c:	0000                	unimp
 64e:	0000                	unimp
 650:	048a                	slli	s1,s1,0x2
 652:	00a0                	addi	s0,sp,72
 654:	0000                	unimp
 656:	0000                	unimp
 658:	3102                	fld	ft2,32(sp)
 65a:	079f 04d6 00a0      	0xa004d6079f
 660:	0000                	unimp
 662:	0000                	unimp
 664:	0524                	addi	s1,sp,648
 666:	00a0                	addi	s0,sp,72
 668:	0000                	unimp
 66a:	0000                	unimp
 66c:	3002                	fld	ft0,32(sp)
 66e:	009f c007 a003      	0xa003c007009f
 674:	0000                	unimp
 676:	0000                	unimp
 678:	f600                	sd	s0,40(a2)
 67a:	0000a003          	lw	zero,0(ra)
 67e:	0000                	unimp
 680:	0200                	addi	s0,sp,256
 682:	9f30                	0x9f30
 684:	a004de07          	0xa004de07
 688:	0000                	unimp
 68a:	0000                	unimp
 68c:	2400                	fld	fs0,8(s0)
 68e:	a005                	j	6ae <_text-0x9ff952>
 690:	0000                	unimp
 692:	0000                	unimp
 694:	0200                	addi	s0,sp,256
 696:	9f30                	0x9f30
 698:	0700                	addi	s0,sp,896
 69a:	03c0                	addi	s0,sp,452
 69c:	00a0                	addi	s0,sp,72
 69e:	0000                	unimp
 6a0:	0000                	unimp
 6a2:	03f6                	slli	t2,t2,0x1d
 6a4:	00a0                	addi	s0,sp,72
 6a6:	0000                	unimp
 6a8:	0000                	unimp
 6aa:	4002                	0x4002
 6ac:	079f 04de 00a0      	0xa004de079f
 6b2:	0000                	unimp
 6b4:	0000                	unimp
 6b6:	0524                	addi	s1,sp,648
 6b8:	00a0                	addi	s0,sp,72
 6ba:	0000                	unimp
 6bc:	0000                	unimp
 6be:	4002                	0x4002
 6c0:	009f e207 a004      	0xa004e207009f
 6c6:	0000                	unimp
 6c8:	0000                	unimp
 6ca:	e800                	sd	s0,16(s0)
 6cc:	a004                	fsd	fs1,0(s0)
 6ce:	0000                	unimp
 6d0:	0000                	unimp
 6d2:	0200                	addi	s0,sp,256
 6d4:	9f30                	0x9f30
 6d6:	a004ea07          	0xa004ea07
 6da:	0000                	unimp
 6dc:	0000                	unimp
 6de:	ec00                	sd	s0,24(s0)
 6e0:	a004                	fsd	fs1,0(s0)
 6e2:	0000                	unimp
 6e4:	0000                	unimp
 6e6:	0300                	addi	s0,sp,384
 6e8:	017a                	slli	sp,sp,0x1e
 6ea:	079f 04ec 00a0      	0xa004ec079f
 6f0:	0000                	unimp
 6f2:	0000                	unimp
 6f4:	0524                	addi	s1,sp,648
 6f6:	00a0                	addi	s0,sp,72
 6f8:	0000                	unimp
 6fa:	0000                	unimp
 6fc:	5a01                	li	s4,-32
 6fe:	0700                	addi	s0,sp,896
 700:	04e2                	slli	s1,s1,0x18
 702:	00a0                	addi	s0,sp,72
 704:	0000                	unimp
 706:	0000                	unimp
 708:	0524                	addi	s1,sp,648
 70a:	00a0                	addi	s0,sp,72
 70c:	0000                	unimp
 70e:	0000                	unimp
 710:	5b01                	li	s6,-32
 712:	0700                	addi	s0,sp,896
 714:	03c0                	addi	s0,sp,452
 716:	00a0                	addi	s0,sp,72
 718:	0000                	unimp
 71a:	0000                	unimp
 71c:	03ce                	slli	t2,t2,0x13
 71e:	00a0                	addi	s0,sp,72
 720:	0000                	unimp
 722:	0000                	unimp
 724:	7602                	ld	a2,32(sp)
 726:	0700                	addi	s0,sp,896
 728:	03d8                	addi	a4,sp,452
 72a:	00a0                	addi	s0,sp,72
 72c:	0000                	unimp
 72e:	0000                	unimp
 730:	03f2                	slli	t2,t2,0x1c
 732:	00a0                	addi	s0,sp,72
 734:	0000                	unimp
 736:	0000                	unimp
 738:	7602                	ld	a2,32(sp)
 73a:	0000                	unimp
 73c:	a003c007          	flq	ft0,-1536(t2)
 740:	0000                	unimp
 742:	0000                	unimp
 744:	ca00                	sw	s0,16(a2)
 746:	0000a003          	lw	zero,0(ra)
 74a:	0000                	unimp
 74c:	0300                	addi	s0,sp,384
 74e:	8008                	0x8008
 750:	009f c007 a003      	0xa003c007009f
 756:	0000                	unimp
 758:	0000                	unimp
 75a:	ca00                	sw	s0,16(a2)
 75c:	0000a003          	lw	zero,0(ra)
 760:	0000                	unimp
 762:	0a00                	addi	s0,sp,272
 764:	a0200003          	lb	zero,-1534(zero) # fffffffffffffa02 <bufferLen+0xffffffffff5fca02>
 768:	0000                	unimp
 76a:	0000                	unimp
 76c:	9f00                	0x9f00
 76e:	0700                	addi	s0,sp,896
 770:	0180                	addi	s0,sp,192
 772:	00a0                	addi	s0,sp,72
 774:	0000                	unimp
 776:	0000                	unimp
 778:	018e                	slli	gp,gp,0x3
 77a:	00a0                	addi	s0,sp,72
 77c:	0000                	unimp
 77e:	0000                	unimp
 780:	7705                	lui	a4,0xfffe1
 782:	3000                	fld	fs0,32(s0)
 784:	9f2d                	addw	a4,a4,a1
 786:	0700                	addi	s0,sp,896
 788:	0180                	addi	s0,sp,192
 78a:	00a0                	addi	s0,sp,72
 78c:	0000                	unimp
 78e:	0000                	unimp
 790:	01e0                	addi	s0,sp,204
 792:	00a0                	addi	s0,sp,72
 794:	0000                	unimp
 796:	0000                	unimp
 798:	3a02                	fld	fs4,32(sp)
 79a:	079f 0352 00a0      	0xa00352079f
 7a0:	0000                	unimp
 7a2:	0000                	unimp
 7a4:	038a                	slli	t2,t2,0x2
 7a6:	00a0                	addi	s0,sp,72
 7a8:	0000                	unimp
 7aa:	0000                	unimp
 7ac:	3a02                	fld	fs4,32(sp)
 7ae:	009f 8007 a001      	0xa0018007009f
 7b4:	0000                	unimp
 7b6:	0000                	unimp
 7b8:	d400                	sw	s0,40(s0)
 7ba:	a001                	j	7ba <_text-0x9ff846>
 7bc:	0000                	unimp
 7be:	0000                	unimp
 7c0:	0100                	addi	s0,sp,128
 7c2:	90070057          	0x90070057
 7c6:	a001                	j	7c6 <_text-0x9ff83a>
 7c8:	0000                	unimp
 7ca:	0000                	unimp
 7cc:	9200                	0x9200
 7ce:	a001                	j	7ce <_text-0x9ff832>
 7d0:	0000                	unimp
 7d2:	0000                	unimp
 7d4:	0300                	addi	s0,sp,384
 7d6:	079f017b          	0x79f017b
 7da:	0192                	slli	gp,gp,0x4
 7dc:	00a0                	addi	s0,sp,72
 7de:	0000                	unimp
 7e0:	0000                	unimp
 7e2:	01b0                	addi	a2,sp,200
 7e4:	00a0                	addi	s0,sp,72
 7e6:	0000                	unimp
 7e8:	0000                	unimp
 7ea:	5b01                	li	s6,-32
 7ec:	a001b007          	fld	ft0,-1536(gp)
 7f0:	0000                	unimp
 7f2:	0000                	unimp
 7f4:	c000                	sw	s0,0(s0)
 7f6:	a001                	j	7f6 <_text-0x9ff80a>
 7f8:	0000                	unimp
 7fa:	0000                	unimp
 7fc:	0300                	addi	s0,sp,384
 7fe:	0276                	slli	tp,tp,0x1d
 800:	079f 01c0 00a0      	0xa001c0079f
 806:	0000                	unimp
 808:	0000                	unimp
 80a:	01d6                	slli	gp,gp,0x15
 80c:	00a0                	addi	s0,sp,72
 80e:	0000                	unimp
 810:	0000                	unimp
 812:	9f7f7b03          	0x9f7f7b03
 816:	0700                	addi	s0,sp,896
 818:	018e                	slli	gp,gp,0x3
 81a:	00a0                	addi	s0,sp,72
 81c:	0000                	unimp
 81e:	0000                	unimp
 820:	01b4                	addi	a3,sp,200
 822:	00a0                	addi	s0,sp,72
 824:	0000                	unimp
 826:	0000                	unimp
 828:	5e01                	li	t3,-32
 82a:	a001b407          	fld	fs0,-1536(gp)
 82e:	0000                	unimp
 830:	0000                	unimp
 832:	e000                	sd	s0,0(s0)
 834:	a001                	j	834 <_text-0x9ff7cc>
 836:	0000                	unimp
 838:	0000                	unimp
 83a:	0c00                	addi	s0,sp,528
 83c:	007a                	c.slli	zero,0x1e
 83e:	2ea8                	fld	fa0,88(a3)
 840:	008c                	addi	a1,sp,64
 842:	2ea8                	fld	fa0,88(a3)
 844:	9f00a81b          	0x9f00a81b
 848:	0700                	addi	s0,sp,896
 84a:	0352                	slli	t1,t1,0x14
 84c:	00a0                	addi	s0,sp,72
 84e:	0000                	unimp
 850:	0000                	unimp
 852:	0360                	addi	s0,sp,396
 854:	00a0                	addi	s0,sp,72
 856:	0000                	unimp
 858:	0000                	unimp
 85a:	7602                	ld	a2,32(sp)
 85c:	077f                	0x77f
 85e:	036a                	slli	t1,t1,0x1a
 860:	00a0                	addi	s0,sp,72
 862:	0000                	unimp
 864:	0000                	unimp
 866:	0384                	addi	s1,sp,448
 868:	00a0                	addi	s0,sp,72
 86a:	0000                	unimp
 86c:	0000                	unimp
 86e:	7602                	ld	a2,32(sp)
 870:	007f                	0x7f
 872:	a0035207          	0xa0035207
 876:	0000                	unimp
 878:	0000                	unimp
 87a:	5c00                	lw	s0,56(s0)
 87c:	0000a003          	lw	zero,0(ra)
 880:	0000                	unimp
 882:	0300                	addi	s0,sp,384
 884:	8008                	0x8008
 886:	009f 5207 a003      	0xa0035207009f
 88c:	0000                	unimp
 88e:	0000                	unimp
 890:	5c00                	lw	s0,56(s0)
 892:	0000a003          	lw	zero,0(ra)
 896:	0000                	unimp
 898:	0a00                	addi	s0,sp,272
 89a:	a0200003          	lb	zero,-1534(zero) # fffffffffffffa02 <bufferLen+0xffffffffff5fca02>
 89e:	0000                	unimp
 8a0:	0000                	unimp
 8a2:	9f00                	0x9f00
 8a4:	0700                	addi	s0,sp,896
 8a6:	049c                	addi	a5,sp,576
 8a8:	00a0                	addi	s0,sp,72
 8aa:	0000                	unimp
 8ac:	0000                	unimp
 8ae:	04c0                	addi	s0,sp,580
 8b0:	00a0                	addi	s0,sp,72
 8b2:	0000                	unimp
 8b4:	0000                	unimp
 8b6:	5d01                	li	s10,-32
 8b8:	a004ca07          	flq	fs4,-1536(s1)
 8bc:	0000                	unimp
 8be:	0000                	unimp
 8c0:	d600                	sw	s0,40(a2)
 8c2:	a004                	fsd	fs1,0(s0)
 8c4:	0000                	unimp
 8c6:	0000                	unimp
 8c8:	0100                	addi	s0,sp,128
 8ca:	005d                	c.nop	23
 8cc:	a004b007          	fld	ft0,-1536(s1)
 8d0:	0000                	unimp
 8d2:	0000                	unimp
 8d4:	ba00                	fsd	fs0,48(a2)
 8d6:	a004                	fsd	fs1,0(s0)
 8d8:	0000                	unimp
 8da:	0000                	unimp
 8dc:	0300                	addi	s0,sp,384
 8de:	8008                	0x8008
 8e0:	009f b007 a004      	0xa004b007009f
 8e6:	0000                	unimp
 8e8:	0000                	unimp
 8ea:	ba00                	fsd	fs0,48(a2)
 8ec:	a004                	fsd	fs1,0(s0)
 8ee:	0000                	unimp
 8f0:	0000                	unimp
 8f2:	0a00                	addi	s0,sp,272
 8f4:	a0200003          	lb	zero,-1534(zero) # fffffffffffffa02 <bufferLen+0xffffffffff5fca02>
 8f8:	0000                	unimp
 8fa:	0000                	unimp
 8fc:	9f00                	0x9f00
 8fe:	0700                	addi	s0,sp,896
 900:	0408                	addi	a0,sp,512
 902:	00a0                	addi	s0,sp,72
 904:	0000                	unimp
 906:	0000                	unimp
 908:	0410                	addi	a2,sp,512
 90a:	00a0                	addi	s0,sp,72
 90c:	0000                	unimp
 90e:	0000                	unimp
 910:	5d01                	li	s10,-32
 912:	a0041c07          	0xa0041c07
 916:	0000                	unimp
 918:	0000                	unimp
 91a:	1e00                	addi	s0,sp,816
 91c:	a004                	fsd	fs1,0(s0)
 91e:	0000                	unimp
 920:	0000                	unimp
 922:	0300                	addi	s0,sp,384
 924:	7f7d                	lui	t5,0xfffff
 926:	079f 041e 00a0      	0xa0041e079f
 92c:	0000                	unimp
 92e:	0000                	unimp
 930:	043a                	slli	s0,s0,0xe
 932:	00a0                	addi	s0,sp,72
 934:	0000                	unimp
 936:	0000                	unimp
 938:	6d01                	0x6d01
 93a:	a0043a07          	fld	fs4,-1536(s0) # ffffffffffffca00 <bufferLen+0xffffffffff5f9a00>
 93e:	0000                	unimp
 940:	0000                	unimp
 942:	4000                	lw	s0,0(s0)
 944:	a004                	fsd	fs1,0(s0)
 946:	0000                	unimp
 948:	0000                	unimp
 94a:	0100                	addi	s0,sp,128
 94c:	075d                	addi	a4,a4,23
 94e:	0440                	addi	s0,sp,516
 950:	00a0                	addi	s0,sp,72
 952:	0000                	unimp
 954:	0000                	unimp
 956:	0444                	addi	s1,sp,516
 958:	00a0                	addi	s0,sp,72
 95a:	0000                	unimp
 95c:	0000                	unimp
 95e:	6d01                	0x6d01
 960:	a0044407          	flq	fs0,-1536(s0)
 964:	0000                	unimp
 966:	0000                	unimp
 968:	6a00                	ld	s0,16(a2)
 96a:	a004                	fsd	fs1,0(s0)
 96c:	0000                	unimp
 96e:	0000                	unimp
 970:	0300                	addi	s0,sp,384
 972:	7f7d                	lui	t5,0xfffff
 974:	079f 046a 00a0      	0xa0046a079f
 97a:	0000                	unimp
 97c:	0000                	unimp
 97e:	0488                	addi	a0,sp,576
 980:	00a0                	addi	s0,sp,72
 982:	0000                	unimp
 984:	0000                	unimp
 986:	5d01                	li	s10,-32
 988:	0700                	addi	s0,sp,896
 98a:	0448                	addi	a0,sp,516
 98c:	00a0                	addi	s0,sp,72
 98e:	0000                	unimp
 990:	0000                	unimp
 992:	0468                	addi	a0,sp,524
 994:	00a0                	addi	s0,sp,72
 996:	0000                	unimp
 998:	0000                	unimp
 99a:	3d02                	fld	fs10,32(sp)
 99c:	009f 5e07 a004      	0xa0045e07009f
 9a2:	0000                	unimp
 9a4:	0000                	unimp
 9a6:	6800                	ld	s0,16(s0)
 9a8:	a004                	fsd	fs1,0(s0)
 9aa:	0000                	unimp
 9ac:	0000                	unimp
 9ae:	0300                	addi	s0,sp,384
 9b0:	8008                	0x8008
 9b2:	009f 5e07 a004      	0xa0045e07009f
 9b8:	0000                	unimp
 9ba:	0000                	unimp
 9bc:	6800                	ld	s0,16(s0)
 9be:	a004                	fsd	fs1,0(s0)
 9c0:	0000                	unimp
 9c2:	0000                	unimp
 9c4:	0a00                	addi	s0,sp,272
 9c6:	a0200003          	lb	zero,-1534(zero) # fffffffffffffa02 <bufferLen+0xffffffffff5fca02>
 9ca:	0000                	unimp
 9cc:	0000                	unimp
 9ce:	9f00                	0x9f00
 9d0:	0700                	addi	s0,sp,896
 9d2:	0422                	slli	s0,s0,0x8
 9d4:	00a0                	addi	s0,sp,72
 9d6:	0000                	unimp
 9d8:	0000                	unimp
 9da:	0436                	slli	s0,s0,0xd
 9dc:	00a0                	addi	s0,sp,72
 9de:	0000                	unimp
 9e0:	0000                	unimp
 9e2:	8d02                	jr	s10
 9e4:	077f                	0x77f
 9e6:	0436                	slli	s0,s0,0xd
 9e8:	00a0                	addi	s0,sp,72
 9ea:	0000                	unimp
 9ec:	0000                	unimp
 9ee:	043a                	slli	s0,s0,0xe
 9f0:	00a0                	addi	s0,sp,72
 9f2:	0000                	unimp
 9f4:	0000                	unimp
 9f6:	5a01                	li	s4,-32
 9f8:	a0046e07          	0xa0046e07
 9fc:	0000                	unimp
 9fe:	0000                	unimp
 a00:	7600                	ld	s0,40(a2)
 a02:	a004                	fsd	fs1,0(s0)
 a04:	0000                	unimp
 a06:	0000                	unimp
 a08:	0200                	addi	s0,sp,256
 a0a:	7f7d                	lui	t5,0xfffff
 a0c:	a0047607          	0xa0047607
 a10:	0000                	unimp
 a12:	0000                	unimp
 a14:	7800                	ld	s0,48(s0)
 a16:	a004                	fsd	fs1,0(s0)
 a18:	0000                	unimp
 a1a:	0000                	unimp
 a1c:	0100                	addi	s0,sp,128
 a1e:	075e                	slli	a4,a4,0x17
 a20:	0478                	addi	a4,sp,524
 a22:	00a0                	addi	s0,sp,72
 a24:	0000                	unimp
 a26:	0000                	unimp
 a28:	047a                	slli	s0,s0,0x1e
 a2a:	00a0                	addi	s0,sp,72
 a2c:	0000                	unimp
 a2e:	0000                	unimp
 a30:	5a01                	li	s4,-32
 a32:	0700                	addi	s0,sp,896
 a34:	0478                	addi	a4,sp,524
 a36:	00a0                	addi	s0,sp,72
 a38:	0000                	unimp
 a3a:	0000                	unimp
 a3c:	0482                	c.slli64	s1
 a3e:	00a0                	addi	s0,sp,72
 a40:	0000                	unimp
 a42:	0000                	unimp
 a44:	9f800803          	lb	a6,-1544(zero) # fffffffffffff9f8 <bufferLen+0xffffffffff5fc9f8>
 a48:	0700                	addi	s0,sp,896
 a4a:	0478                	addi	a4,sp,524
 a4c:	00a0                	addi	s0,sp,72
 a4e:	0000                	unimp
 a50:	0000                	unimp
 a52:	0482                	c.slli64	s1
 a54:	00a0                	addi	s0,sp,72
 a56:	0000                	unimp
 a58:	0000                	unimp
 a5a:	030a                	slli	t1,t1,0x2
 a5c:	2000                	fld	fs0,0(s0)
 a5e:	00a0                	addi	s0,sp,72
 a60:	0000                	unimp
 a62:	0000                	unimp
 a64:	009f 2a07 a001      	0xa0012a07009f
 a6a:	0000                	unimp
 a6c:	0000                	unimp
 a6e:	3000                	fld	fs0,32(s0)
 a70:	a001                	j	a70 <_text-0x9ff590>
 a72:	0000                	unimp
 a74:	0000                	unimp
 a76:	0200                	addi	s0,sp,256
 a78:	007d                	c.nop	31
 a7a:	a0020407          	0xa0020407
 a7e:	0000                	unimp
 a80:	0000                	unimp
 a82:	0c00                	addi	s0,sp,528
 a84:	a002                	fsd	ft0,0(sp)
 a86:	0000                	unimp
 a88:	0000                	unimp
 a8a:	0200                	addi	s0,sp,256
 a8c:	007d                	c.nop	31
 a8e:	0700                	addi	s0,sp,896
 a90:	020e                	slli	tp,tp,0x3
 a92:	00a0                	addi	s0,sp,72
 a94:	0000                	unimp
 a96:	0000                	unimp
 a98:	0218                	addi	a4,sp,256
 a9a:	00a0                	addi	s0,sp,72
 a9c:	0000                	unimp
 a9e:	0000                	unimp
 aa0:	9f800803          	lb	a6,-1544(zero) # fffffffffffff9f8 <bufferLen+0xffffffffff5fc9f8>
 aa4:	0700                	addi	s0,sp,896
 aa6:	020e                	slli	tp,tp,0x3
 aa8:	00a0                	addi	s0,sp,72
 aaa:	0000                	unimp
 aac:	0000                	unimp
 aae:	0218                	addi	a4,sp,256
 ab0:	00a0                	addi	s0,sp,72
 ab2:	0000                	unimp
 ab4:	0000                	unimp
 ab6:	030a                	slli	t1,t1,0x2
 ab8:	2000                	fld	fs0,0(s0)
 aba:	00a0                	addi	s0,sp,72
 abc:	0000                	unimp
 abe:	0000                	unimp
 ac0:	009f b807 a002      	0xa002b807009f
 ac6:	0000                	unimp
 ac8:	0000                	unimp
 aca:	5200                	lw	s0,32(a2)
 acc:	0000a003          	lw	zero,0(ra)
 ad0:	0000                	unimp
 ad2:	0200                	addi	s0,sp,256
 ad4:	9f3a                	add	t5,t5,a4
 ad6:	0700                	addi	s0,sp,896
 ad8:	02ca                	slli	t0,t0,0x12
 ada:	00a0                	addi	s0,sp,72
 adc:	0000                	unimp
 ade:	0000                	unimp
 ae0:	02cc                	addi	a1,sp,324
 ae2:	00a0                	addi	s0,sp,72
 ae4:	0000                	unimp
 ae6:	0000                	unimp
 ae8:	9f017b03          	0x9f017b03
 aec:	a002cc07          	flq	fs8,-1536(t0)
 af0:	0000                	unimp
 af2:	0000                	unimp
 af4:	ea00                	sd	s0,16(a2)
 af6:	a002                	fsd	ft0,0(sp)
 af8:	0000                	unimp
 afa:	0000                	unimp
 afc:	0100                	addi	s0,sp,128
 afe:	02ea075b          	0x2ea075b
 b02:	00a0                	addi	s0,sp,72
 b04:	0000                	unimp
 b06:	0000                	unimp
 b08:	02fa                	slli	t0,t0,0x1e
 b0a:	00a0                	addi	s0,sp,72
 b0c:	0000                	unimp
 b0e:	0000                	unimp
 b10:	9f028103          	lb	sp,-1552(t0)
 b14:	a002fa07          	0xa002fa07
 b18:	0000                	unimp
 b1a:	0000                	unimp
 b1c:	1000                	addi	s0,sp,32
 b1e:	0000a003          	lw	zero,0(ra)
 b22:	0000                	unimp
 b24:	0300                	addi	s0,sp,384
 b26:	009f7f7b          	0x9f7f7b
 b2a:	a002c807          	flq	fa6,-1536(t0)
 b2e:	0000                	unimp
 b30:	0000                	unimp
 b32:	ee00                	sd	s0,24(a2)
 b34:	a002                	fsd	ft0,0(sp)
 b36:	0000                	unimp
 b38:	0000                	unimp
 b3a:	0100                	addi	s0,sp,128
 b3c:	075e                	slli	a4,a4,0x17
 b3e:	02ee                	slli	t0,t0,0x1b
 b40:	00a0                	addi	s0,sp,72
 b42:	0000                	unimp
 b44:	0000                	unimp
 b46:	0306                	slli	t1,t1,0x1
 b48:	00a0                	addi	s0,sp,72
 b4a:	0000                	unimp
 b4c:	0000                	unimp
 b4e:	7d0c                	ld	a1,56(a0)
 b50:	a800                	fsd	fs0,16(s0)
 b52:	8c2e                	mv	s8,a1
 b54:	a800                	fsd	fs0,16(s0)
 b56:	1b2e                	slli	s6,s6,0x2b
 b58:	00a8                	addi	a0,sp,72
 b5a:	009f 1a07 a003      	0xa0031a07009f
 b60:	0000                	unimp
 b62:	0000                	unimp
 b64:	2800                	fld	fs0,16(s0)
 b66:	0000a003          	lw	zero,0(ra)
 b6a:	0000                	unimp
 b6c:	0200                	addi	s0,sp,256
 b6e:	7f7d                	lui	t5,0xfffff
 b70:	a0033207          	fld	ft4,-1536(t1) # ffffffffffffda00 <bufferLen+0xffffffffff5faa00>
 b74:	0000                	unimp
 b76:	0000                	unimp
 b78:	4c00                	lw	s0,24(s0)
 b7a:	0000a003          	lw	zero,0(ra)
 b7e:	0000                	unimp
 b80:	0200                	addi	s0,sp,256
 b82:	7f7d                	lui	t5,0xfffff
 b84:	0700                	addi	s0,sp,896
 b86:	031a                	slli	t1,t1,0x6
 b88:	00a0                	addi	s0,sp,72
 b8a:	0000                	unimp
 b8c:	0000                	unimp
 b8e:	0324                	addi	s1,sp,392
 b90:	00a0                	addi	s0,sp,72
 b92:	0000                	unimp
 b94:	0000                	unimp
 b96:	9f800803          	lb	a6,-1544(zero) # fffffffffffff9f8 <bufferLen+0xffffffffff5fc9f8>
 b9a:	0700                	addi	s0,sp,896
 b9c:	031a                	slli	t1,t1,0x6
 b9e:	00a0                	addi	s0,sp,72
 ba0:	0000                	unimp
 ba2:	0000                	unimp
 ba4:	0324                	addi	s1,sp,392
 ba6:	00a0                	addi	s0,sp,72
 ba8:	0000                	unimp
 baa:	0000                	unimp
 bac:	030a                	slli	t1,t1,0x2
 bae:	2000                	fld	fs0,0(s0)
 bb0:	00a0                	addi	s0,sp,72
 bb2:	0000                	unimp
 bb4:	0000                	unimp
 bb6:	009f e007 a001      	0xa001e007009f
 bbc:	0000                	unimp
 bbe:	0000                	unimp
 bc0:	0000                	unimp
 bc2:	a002                	fsd	ft0,0(sp)
 bc4:	0000                	unimp
 bc6:	0000                	unimp
 bc8:	0200                	addi	s0,sp,256
 bca:	9f3d                	addw	a4,a4,a5
 bcc:	0700                	addi	s0,sp,896
 bce:	01f6                	slli	gp,gp,0x1d
 bd0:	00a0                	addi	s0,sp,72
 bd2:	0000                	unimp
 bd4:	0000                	unimp
 bd6:	0200                	addi	s0,sp,256
 bd8:	00a0                	addi	s0,sp,72
 bda:	0000                	unimp
 bdc:	0000                	unimp
 bde:	9f800803          	lb	a6,-1544(zero) # fffffffffffff9f8 <bufferLen+0xffffffffff5fc9f8>
 be2:	0700                	addi	s0,sp,896
 be4:	01f6                	slli	gp,gp,0x1d
 be6:	00a0                	addi	s0,sp,72
 be8:	0000                	unimp
 bea:	0000                	unimp
 bec:	0200                	addi	s0,sp,256
 bee:	00a0                	addi	s0,sp,72
 bf0:	0000                	unimp
 bf2:	0000                	unimp
 bf4:	030a                	slli	t1,t1,0x2
 bf6:	2000                	fld	fs0,0(s0)
 bf8:	00a0                	addi	s0,sp,72
 bfa:	0000                	unimp
 bfc:	0000                	unimp
 bfe:	009f 4207 a002      	0xa0024207009f
 c04:	0000                	unimp
 c06:	0000                	unimp
 c08:	8400                	0x8400
 c0a:	a002                	fsd	ft0,0(sp)
 c0c:	0000                	unimp
 c0e:	0000                	unimp
 c10:	0200                	addi	s0,sp,256
 c12:	9f30                	0x9f30
 c14:	a0038a07          	0xa0038a07
 c18:	0000                	unimp
 c1a:	0000                	unimp
 c1c:	c000                	sw	s0,0(s0)
 c1e:	0000a003          	lw	zero,0(ra)
 c22:	0000                	unimp
 c24:	0200                	addi	s0,sp,256
 c26:	9f30                	0x9f30
 c28:	0700                	addi	s0,sp,896
 c2a:	0242                	slli	tp,tp,0x10
 c2c:	00a0                	addi	s0,sp,72
 c2e:	0000                	unimp
 c30:	0000                	unimp
 c32:	0284                	addi	s1,sp,320
 c34:	00a0                	addi	s0,sp,72
 c36:	0000                	unimp
 c38:	0000                	unimp
 c3a:	4002                	0x4002
 c3c:	079f 038a 00a0      	0xa0038a079f
 c42:	0000                	unimp
 c44:	0000                	unimp
 c46:	03c0                	addi	s0,sp,452
 c48:	00a0                	addi	s0,sp,72
 c4a:	0000                	unimp
 c4c:	0000                	unimp
 c4e:	4002                	0x4002
 c50:	009f 4207 a002      	0xa0024207009f
 c56:	0000                	unimp
 c58:	0000                	unimp
 c5a:	4800                	lw	s0,16(s0)
 c5c:	a002                	fsd	ft0,0(sp)
 c5e:	0000                	unimp
 c60:	0000                	unimp
 c62:	0200                	addi	s0,sp,256
 c64:	9f30                	0x9f30
 c66:	a0024a07          	flq	fs4,-1536(tp) # fffffffffffffa00 <bufferLen+0xffffffffff5fca00>
 c6a:	0000                	unimp
 c6c:	0000                	unimp
 c6e:	4c00                	lw	s0,24(s0)
 c70:	a002                	fsd	ft0,0(sp)
 c72:	0000                	unimp
 c74:	0000                	unimp
 c76:	0300                	addi	s0,sp,384
 c78:	017a                	slli	sp,sp,0x1e
 c7a:	079f 024c 00a0      	0xa0024c079f
 c80:	0000                	unimp
 c82:	0000                	unimp
 c84:	0284                	addi	s1,sp,320
 c86:	00a0                	addi	s0,sp,72
 c88:	0000                	unimp
 c8a:	0000                	unimp
 c8c:	5a01                	li	s4,-32
 c8e:	0700                	addi	s0,sp,896
 c90:	0248                	addi	a0,sp,260
 c92:	00a0                	addi	s0,sp,72
 c94:	0000                	unimp
 c96:	0000                	unimp
 c98:	0284                	addi	s1,sp,320
 c9a:	00a0                	addi	s0,sp,72
 c9c:	0000                	unimp
 c9e:	0000                	unimp
 ca0:	5b01                	li	s6,-32
 ca2:	0700                	addi	s0,sp,896
 ca4:	038a                	slli	t2,t2,0x2
 ca6:	00a0                	addi	s0,sp,72
 ca8:	0000                	unimp
 caa:	0000                	unimp
 cac:	0398                	addi	a4,sp,448
 cae:	00a0                	addi	s0,sp,72
 cb0:	0000                	unimp
 cb2:	0000                	unimp
 cb4:	7602                	ld	a2,32(sp)
 cb6:	0700                	addi	s0,sp,896
 cb8:	03a2                	slli	t2,t2,0x8
 cba:	00a0                	addi	s0,sp,72
 cbc:	0000                	unimp
 cbe:	0000                	unimp
 cc0:	03bc                	addi	a5,sp,456
 cc2:	00a0                	addi	s0,sp,72
 cc4:	0000                	unimp
 cc6:	0000                	unimp
 cc8:	7602                	ld	a2,32(sp)
 cca:	0000                	unimp
 ccc:	a0038a07          	0xa0038a07
 cd0:	0000                	unimp
 cd2:	0000                	unimp
 cd4:	9400                	0x9400
 cd6:	0000a003          	lw	zero,0(ra)
 cda:	0000                	unimp
 cdc:	0300                	addi	s0,sp,384
 cde:	8008                	0x8008
 ce0:	009f 8a07 a003      	0xa0038a07009f
 ce6:	0000                	unimp
 ce8:	0000                	unimp
 cea:	9400                	0x9400
 cec:	0000a003          	lw	zero,0(ra)
 cf0:	0000                	unimp
 cf2:	0a00                	addi	s0,sp,272
 cf4:	a0200003          	lb	zero,-1534(zero) # fffffffffffffa02 <bufferLen+0xffffffffff5fca02>
 cf8:	0000                	unimp
 cfa:	0000                	unimp
 cfc:	9f00                	0x9f00
 cfe:	0700                	addi	s0,sp,896
 d00:	0288                	addi	a0,sp,320
 d02:	00a0                	addi	s0,sp,72
 d04:	0000                	unimp
 d06:	0000                	unimp
 d08:	02b0                	addi	a2,sp,328
 d0a:	00a0                	addi	s0,sp,72
 d0c:	0000                	unimp
 d0e:	0000                	unimp
 d10:	9f250803          	lb	a6,-1550(a0)
 d14:	0700                	addi	s0,sp,896
 d16:	02a0                	addi	s0,sp,328
 d18:	00a0                	addi	s0,sp,72
 d1a:	0000                	unimp
 d1c:	0000                	unimp
 d1e:	02aa                	slli	t0,t0,0xa
 d20:	00a0                	addi	s0,sp,72
 d22:	0000                	unimp
 d24:	0000                	unimp
 d26:	9f800803          	lb	a6,-1544(zero) # fffffffffffff9f8 <bufferLen+0xffffffffff5fc9f8>
 d2a:	0700                	addi	s0,sp,896
 d2c:	02a0                	addi	s0,sp,328
 d2e:	00a0                	addi	s0,sp,72
 d30:	0000                	unimp
 d32:	0000                	unimp
 d34:	02aa                	slli	t0,t0,0xa
 d36:	00a0                	addi	s0,sp,72
 d38:	0000                	unimp
 d3a:	0000                	unimp
 d3c:	030a                	slli	t1,t1,0x2
 d3e:	2000                	fld	fs0,0(s0)
 d40:	00a0                	addi	s0,sp,72
 d42:	0000                	unimp
 d44:	0000                	unimp
 d46:	009f 8a07 a004      	0xa0048a07009f
 d4c:	0000                	unimp
 d4e:	0000                	unimp
 d50:	9c00                	0x9c00
 d52:	a004                	fsd	fs1,0(s0)
 d54:	0000                	unimp
 d56:	0000                	unimp
 d58:	0300                	addi	s0,sp,384
 d5a:	2508                	fld	fa0,8(a0)
 d5c:	079f 04c0 00a0      	0xa004c0079f
 d62:	0000                	unimp
 d64:	0000                	unimp
 d66:	04ca                	slli	s1,s1,0x12
 d68:	00a0                	addi	s0,sp,72
 d6a:	0000                	unimp
 d6c:	0000                	unimp
 d6e:	9f250803          	lb	a6,-1550(a0)
 d72:	0700                	addi	s0,sp,896
 d74:	04c0                	addi	s0,sp,580
 d76:	00a0                	addi	s0,sp,72
 d78:	0000                	unimp
 d7a:	0000                	unimp
 d7c:	04ca                	slli	s1,s1,0x12
 d7e:	00a0                	addi	s0,sp,72
 d80:	0000                	unimp
 d82:	0000                	unimp
 d84:	9f800803          	lb	a6,-1544(zero) # fffffffffffff9f8 <bufferLen+0xffffffffff5fc9f8>
 d88:	0700                	addi	s0,sp,896
 d8a:	04c0                	addi	s0,sp,580
 d8c:	00a0                	addi	s0,sp,72
 d8e:	0000                	unimp
 d90:	0000                	unimp
 d92:	04ca                	slli	s1,s1,0x12
 d94:	00a0                	addi	s0,sp,72
 d96:	0000                	unimp
 d98:	0000                	unimp
 d9a:	030a                	slli	t1,t1,0x2
 d9c:	2000                	fld	fs0,0(s0)
 d9e:	00a0                	addi	s0,sp,72
 da0:	0000                	unimp
 da2:	0000                	unimp
 da4:	009f        	0x9f

Disassembly of section .debug_frame:

0000000000000000 <.debug_frame>:
   0:	000c                	0xc
   2:	0000                	unimp
   4:	ffff                	0xffff
   6:	ffff                	0xffff
   8:	7c010003          	lb	zero,1984(sp)
   c:	0d01                	addi	s10,s10,0
   e:	0002                	c.slli64	zero
  10:	0024                	addi	s1,sp,8
  12:	0000                	unimp
  14:	0000                	unimp
  16:	0000                	unimp
  18:	0004                	0x4
  1a:	00a0                	addi	s0,sp,72
  1c:	0000                	unimp
  1e:	0000                	unimp
  20:	0096                	slli	ra,ra,0x5
  22:	0000                	unimp
  24:	0000                	unimp
  26:	0000                	unimp
  28:	0e42                	slli	t3,t3,0x10
  2a:	4620                	lw	s0,72(a2)
  2c:	0281                	addi	t0,t0,0
  2e:	0488                	addi	a0,sp,576
  30:	0689                	addi	a3,a3,2
  32:	0c42                	slli	s8,s8,0x10
  34:	0008                	0x8
  36:	0000                	unimp
  38:	000c                	0xc
  3a:	0000                	unimp
  3c:	ffff                	0xffff
  3e:	ffff                	0xffff
  40:	7c010003          	lb	zero,1984(sp)
  44:	0d01                	addi	s10,s10,0
  46:	0002                	c.slli64	zero
  48:	0024                	addi	s1,sp,8
  4a:	0000                	unimp
  4c:	0038                	addi	a4,sp,8
  4e:	0000                	unimp
  50:	009a                	slli	ra,ra,0x6
  52:	00a0                	addi	s0,sp,72
  54:	0000                	unimp
  56:	0000                	unimp
  58:	0012                	c.slli	zero,0x4
  5a:	0000                	unimp
  5c:	0000                	unimp
  5e:	0000                	unimp
  60:	0e42                	slli	t3,t3,0x10
  62:	4410                	lw	a2,8(s0)
  64:	0281                	addi	t0,t0,0
  66:	0488                	addi	a0,sp,576
  68:	0c42                	slli	s8,s8,0x10
  6a:	0008                	0x8
  6c:	0000                	unimp
  6e:	0000                	unimp
  70:	000c                	0xc
  72:	0000                	unimp
  74:	ffff                	0xffff
  76:	ffff                	0xffff
  78:	7c010003          	lb	zero,1984(sp)
  7c:	0d01                	addi	s10,s10,0
  7e:	0002                	c.slli64	zero
  80:	005c                	addi	a5,sp,4
  82:	0000                	unimp
  84:	0070                	addi	a2,sp,12
  86:	0000                	unimp
  88:	00ac                	addi	a1,sp,72
  8a:	00a0                	addi	s0,sp,72
  8c:	0000                	unimp
  8e:	0000                	unimp
  90:	0496                	slli	s1,s1,0x5
  92:	0000                	unimp
  94:	0000                	unimp
  96:	0000                	unimp
  98:	0e4a                	slli	t3,t3,0x12
  9a:	0180                	addi	s0,sp,192
  9c:	8858                	0x8858
  9e:	8902                	jr	s2
  a0:	9204                	0x9204
  a2:	9306                	add	t1,t1,ra
  a4:	9408                	0x9408
  a6:	950a                	add	a0,a0,sp
  a8:	960c                	0x960c
  aa:	970e                	add	a4,a4,gp
  ac:	9810                	0x9810
  ae:	9912                	add	s2,s2,tp
  b0:	9a14                	0x9a14
  b2:	9b16                	add	s6,s6,t0
  b4:	4218                	lw	a4,0(a2)
  b6:	080c                	addi	a1,sp,16
  b8:	0300                	addi	s0,sp,384
  ba:	0456                	slli	s0,s0,0x15
  bc:	0cc8                	addi	a0,sp,596
  be:	8002                	0x8002
  c0:	4201                	li	tp,0
  c2:	42c9                	li	t0,18
  c4:	42d2                	lw	t0,20(sp)
  c6:	42d442d3          	0x42d442d3
  ca:	42d5                	li	t0,21
  cc:	42d6                	lw	t0,84(sp)
  ce:	42d842d7          	0x42d842d7
  d2:	42d9                	li	t0,22
  d4:	42da                	lw	t0,148(sp)
  d6:	000e42db          	0xe42db
  da:	0000                	unimp
  dc:	0000                	unimp
  de:	0000                	unimp
  e0:	002c                	addi	a1,sp,8
  e2:	0000                	unimp
  e4:	0070                	addi	a2,sp,12
  e6:	0000                	unimp
  e8:	0542                	slli	a0,a0,0x10
  ea:	00a0                	addi	s0,sp,72
  ec:	0000                	unimp
  ee:	0000                	unimp
  f0:	0054                	addi	a3,sp,4
  f2:	0000                	unimp
  f4:	0000                	unimp
  f6:	0000                	unimp
  f8:	0e42                	slli	t3,t3,0x10
  fa:	4460                	lw	s0,76(s0)
  fc:	1281                	addi	t0,t0,-32
  fe:	1488                	addi	a0,sp,608
 100:	0c42                	slli	s8,s8,0x10
 102:	4008                	lw	a0,0(s0)
 104:	4602                	lw	a2,0(sp)
 106:	42c1                	li	t0,16
 108:	0cc8                	addi	a0,sp,596
 10a:	6002                	0x6002
 10c:	0e42                	slli	t3,t3,0x10
 10e:	0000                	unimp
 110:	0024                	addi	s1,sp,8
 112:	0000                	unimp
 114:	0070                	addi	a2,sp,12
 116:	0000                	unimp
 118:	0596                	slli	a1,a1,0x5
 11a:	00a0                	addi	s0,sp,72
 11c:	0000                	unimp
 11e:	0000                	unimp
 120:	004a                	c.slli	zero,0x12
 122:	0000                	unimp
 124:	0000                	unimp
 126:	0000                	unimp
 128:	0e42                	slli	t3,t3,0x10
 12a:	4660                	lw	s0,76(a2)
 12c:	0e81                	addi	t4,t4,0
 12e:	1088                	addi	a0,sp,96
 130:	1289                	addi	t0,t0,-30
 132:	0c42                	slli	s8,s8,0x10
 134:	3008                	fld	fa0,32(s0)
	...

Disassembly of section .debug_rnglists:

0000000000000000 <.debug_rnglists>:
   0:	0000041b          	sext.w	s0,zero
   4:	0005                	c.nop	1
   6:	0008                	0x8
   8:	0000                	unimp
   a:	0000                	unimp
   c:	d806                	sw	ra,48(sp)
   e:	a000                	fsd	fs0,0(s0)
  10:	0000                	unimp
  12:	0000                	unimp
  14:	4000                	lw	s0,0(s0)
  16:	a001                	j	16 <_text-0x9fffea>
  18:	0000                	unimp
  1a:	0000                	unimp
  1c:	0600                	addi	s0,sp,768
  1e:	014e                	slli	sp,sp,0x13
  20:	00a0                	addi	s0,sp,72
  22:	0000                	unimp
  24:	0000                	unimp
  26:	02c2                	slli	t0,t0,0x10
  28:	00a0                	addi	s0,sp,72
  2a:	0000                	unimp
  2c:	0000                	unimp
  2e:	c806                	sw	ra,16(sp)
  30:	a002                	fsd	ft0,0(sp)
  32:	0000                	unimp
  34:	0000                	unimp
  36:	2400                	fld	fs0,8(s0)
  38:	a005                	j	58 <_text-0x9fffa8>
  3a:	0000                	unimp
  3c:	0000                	unimp
  3e:	0000                	unimp
  40:	e806                	sd	ra,16(sp)
  42:	a000                	fsd	fs0,0(s0)
  44:	0000                	unimp
  46:	0000                	unimp
  48:	0800                	addi	s0,sp,16
  4a:	a001                	j	4a <_text-0x9fffb6>
  4c:	0000                	unimp
  4e:	0000                	unimp
  50:	0600                	addi	s0,sp,768
  52:	03c0                	addi	s0,sp,452
  54:	00a0                	addi	s0,sp,72
  56:	0000                	unimp
  58:	0000                	unimp
  5a:	03f6                	slli	t2,t2,0x1d
  5c:	00a0                	addi	s0,sp,72
  5e:	0000                	unimp
  60:	0000                	unimp
  62:	de06                	sw	ra,60(sp)
  64:	a004                	fsd	fs1,0(s0)
  66:	0000                	unimp
  68:	0000                	unimp
  6a:	2400                	fld	fs0,8(s0)
  6c:	a005                	j	8c <_text-0x9fff74>
  6e:	0000                	unimp
  70:	0000                	unimp
  72:	0000                	unimp
  74:	f406                	sd	ra,40(sp)
  76:	a000                	fsd	fs0,0(s0)
  78:	0000                	unimp
  7a:	0000                	unimp
  7c:	0800                	addi	s0,sp,16
  7e:	a001                	j	7e <_text-0x9fff82>
  80:	0000                	unimp
  82:	0000                	unimp
  84:	0600                	addi	s0,sp,768
  86:	03c0                	addi	s0,sp,452
  88:	00a0                	addi	s0,sp,72
  8a:	0000                	unimp
  8c:	0000                	unimp
  8e:	03ce                	slli	t2,t2,0x13
  90:	00a0                	addi	s0,sp,72
  92:	0000                	unimp
  94:	0000                	unimp
  96:	d806                	sw	ra,48(sp)
  98:	0000a003          	lw	zero,0(ra)
  9c:	0000                	unimp
  9e:	f200                	sd	s0,32(a2)
  a0:	0000a003          	lw	zero,0(ra)
  a4:	0000                	unimp
  a6:	0000                	unimp
  a8:	0406                	slli	s0,s0,0x1
  aa:	a001                	j	aa <_text-0x9fff56>
  ac:	0000                	unimp
  ae:	0000                	unimp
  b0:	0800                	addi	s0,sp,16
  b2:	a001                	j	b2 <_text-0x9fff4e>
  b4:	0000                	unimp
  b6:	0000                	unimp
  b8:	0600                	addi	s0,sp,768
  ba:	03c0                	addi	s0,sp,452
  bc:	00a0                	addi	s0,sp,72
  be:	0000                	unimp
  c0:	0000                	unimp
  c2:	03ce                	slli	t2,t2,0x13
  c4:	00a0                	addi	s0,sp,72
  c6:	0000                	unimp
  c8:	0000                	unimp
  ca:	ec06                	sd	ra,24(sp)
  cc:	0000a003          	lw	zero,0(ra)
  d0:	0000                	unimp
  d2:	f200                	sd	s0,32(a2)
  d4:	0000a003          	lw	zero,0(ra)
  d8:	0000                	unimp
  da:	0000                	unimp
  dc:	0c06                	slli	s8,s8,0x1
  de:	a001                	j	de <_text-0x9fff22>
  e0:	0000                	unimp
  e2:	0000                	unimp
  e4:	1400                	addi	s0,sp,544
  e6:	a001                	j	e6 <_text-0x9fff1a>
  e8:	0000                	unimp
  ea:	0000                	unimp
  ec:	0600                	addi	s0,sp,768
  ee:	0180                	addi	s0,sp,192
  f0:	00a0                	addi	s0,sp,72
  f2:	0000                	unimp
  f4:	0000                	unimp
  f6:	0188                	addi	a0,sp,192
  f8:	00a0                	addi	s0,sp,72
  fa:	0000                	unimp
  fc:	0000                	unimp
  fe:	8e06                	mv	t3,ra
 100:	a001                	j	100 <_text-0x9fff00>
 102:	0000                	unimp
 104:	0000                	unimp
 106:	e000                	sd	s0,0(s0)
 108:	a001                	j	108 <_text-0x9ffef8>
 10a:	0000                	unimp
 10c:	0000                	unimp
 10e:	0600                	addi	s0,sp,768
 110:	0352                	slli	t1,t1,0x14
 112:	00a0                	addi	s0,sp,72
 114:	0000                	unimp
 116:	0000                	unimp
 118:	0384                	addi	s1,sp,448
 11a:	00a0                	addi	s0,sp,72
 11c:	0000                	unimp
 11e:	0000                	unimp
 120:	8806                	mv	a6,ra
 122:	0000a003          	lw	zero,0(ra)
 126:	0000                	unimp
 128:	8a00                	0x8a00
 12a:	0000a003          	lw	zero,0(ra)
 12e:	0000                	unimp
 130:	0000                	unimp
 132:	5206                	lw	tp,96(sp)
 134:	0000a003          	lw	zero,0(ra)
 138:	0000                	unimp
 13a:	6000                	ld	s0,0(s0)
 13c:	0000a003          	lw	zero,0(ra)
 140:	0000                	unimp
 142:	0600                	addi	s0,sp,768
 144:	036a                	slli	t1,t1,0x1a
 146:	00a0                	addi	s0,sp,72
 148:	0000                	unimp
 14a:	0000                	unimp
 14c:	0384                	addi	s1,sp,448
 14e:	00a0                	addi	s0,sp,72
 150:	0000                	unimp
 152:	0000                	unimp
 154:	0600                	addi	s0,sp,768
 156:	0352                	slli	t1,t1,0x14
 158:	00a0                	addi	s0,sp,72
 15a:	0000                	unimp
 15c:	0000                	unimp
 15e:	0360                	addi	s0,sp,396
 160:	00a0                	addi	s0,sp,72
 162:	0000                	unimp
 164:	0000                	unimp
 166:	7e06                	ld	t3,96(sp)
 168:	0000a003          	lw	zero,0(ra)
 16c:	0000                	unimp
 16e:	8400                	0x8400
 170:	0000a003          	lw	zero,0(ra)
 174:	0000                	unimp
 176:	0000                	unimp
 178:	1406                	slli	s0,s0,0x21
 17a:	a001                	j	17a <_text-0x9ffe86>
 17c:	0000                	unimp
 17e:	0000                	unimp
 180:	1600                	addi	s0,sp,800
 182:	a001                	j	182 <_text-0x9ffe7e>
 184:	0000                	unimp
 186:	0000                	unimp
 188:	0600                	addi	s0,sp,768
 18a:	049c                	addi	a5,sp,576
 18c:	00a0                	addi	s0,sp,72
 18e:	0000                	unimp
 190:	0000                	unimp
 192:	04a6                	slli	s1,s1,0x9
 194:	00a0                	addi	s0,sp,72
 196:	0000                	unimp
 198:	0000                	unimp
 19a:	aa06                	fsd	ft1,272(sp)
 19c:	a004                	fsd	fs1,0(s0)
 19e:	0000                	unimp
 1a0:	0000                	unimp
 1a2:	c000                	sw	s0,0(s0)
 1a4:	a004                	fsd	fs1,0(s0)
 1a6:	0000                	unimp
 1a8:	0000                	unimp
 1aa:	0600                	addi	s0,sp,768
 1ac:	04ca                	slli	s1,s1,0x12
 1ae:	00a0                	addi	s0,sp,72
 1b0:	0000                	unimp
 1b2:	0000                	unimp
 1b4:	04ce                	slli	s1,s1,0x13
 1b6:	00a0                	addi	s0,sp,72
 1b8:	0000                	unimp
 1ba:	0000                	unimp
 1bc:	d206                	sw	ra,36(sp)
 1be:	a004                	fsd	fs1,0(s0)
 1c0:	0000                	unimp
 1c2:	0000                	unimp
 1c4:	d600                	sw	s0,40(a2)
 1c6:	a004                	fsd	fs1,0(s0)
 1c8:	0000                	unimp
 1ca:	0000                	unimp
 1cc:	0000                	unimp
 1ce:	aa06                	fsd	ft1,272(sp)
 1d0:	a004                	fsd	fs1,0(s0)
 1d2:	0000                	unimp
 1d4:	0000                	unimp
 1d6:	c000                	sw	s0,0(s0)
 1d8:	a004                	fsd	fs1,0(s0)
 1da:	0000                	unimp
 1dc:	0000                	unimp
 1de:	0600                	addi	s0,sp,768
 1e0:	04d2                	slli	s1,s1,0x14
 1e2:	00a0                	addi	s0,sp,72
 1e4:	0000                	unimp
 1e6:	0000                	unimp
 1e8:	04d2                	slli	s1,s1,0x14
 1ea:	00a0                	addi	s0,sp,72
 1ec:	0000                	unimp
 1ee:	0000                	unimp
 1f0:	0600                	addi	s0,sp,768
 1f2:	0116                	slli	sp,sp,0x5
 1f4:	00a0                	addi	s0,sp,72
 1f6:	0000                	unimp
 1f8:	0000                	unimp
 1fa:	0118                	addi	a4,sp,128
 1fc:	00a0                	addi	s0,sp,72
 1fe:	0000                	unimp
 200:	0000                	unimp
 202:	0806                	slli	a6,a6,0x1
 204:	a004                	fsd	fs1,0(s0)
 206:	0000                	unimp
 208:	0000                	unimp
 20a:	1400                	addi	s0,sp,544
 20c:	a004                	fsd	fs1,0(s0)
 20e:	0000                	unimp
 210:	0000                	unimp
 212:	0600                	addi	s0,sp,768
 214:	0416                	slli	s0,s0,0x5
 216:	00a0                	addi	s0,sp,72
 218:	0000                	unimp
 21a:	0000                	unimp
 21c:	0488                	addi	a0,sp,576
 21e:	00a0                	addi	s0,sp,72
 220:	0000                	unimp
 222:	0000                	unimp
 224:	0600                	addi	s0,sp,768
 226:	0116                	slli	sp,sp,0x5
 228:	00a0                	addi	s0,sp,72
 22a:	0000                	unimp
 22c:	0000                	unimp
 22e:	0118                	addi	a4,sp,128
 230:	00a0                	addi	s0,sp,72
 232:	0000                	unimp
 234:	0000                	unimp
 236:	4806                	lw	a6,64(sp)
 238:	a004                	fsd	fs1,0(s0)
 23a:	0000                	unimp
 23c:	0000                	unimp
 23e:	6800                	ld	s0,16(s0)
 240:	a004                	fsd	fs1,0(s0)
 242:	0000                	unimp
 244:	0000                	unimp
 246:	0000                	unimp
 248:	2206                	fld	ft4,64(sp)
 24a:	a004                	fsd	fs1,0(s0)
 24c:	0000                	unimp
 24e:	0000                	unimp
 250:	3a00                	fld	fs0,48(a2)
 252:	a004                	fsd	fs1,0(s0)
 254:	0000                	unimp
 256:	0000                	unimp
 258:	0600                	addi	s0,sp,768
 25a:	046e                	slli	s0,s0,0x1b
 25c:	00a0                	addi	s0,sp,72
 25e:	0000                	unimp
 260:	0000                	unimp
 262:	0488                	addi	a0,sp,576
 264:	00a0                	addi	s0,sp,72
 266:	0000                	unimp
 268:	0000                	unimp
 26a:	0600                	addi	s0,sp,768
 26c:	0436                	slli	s0,s0,0xd
 26e:	00a0                	addi	s0,sp,72
 270:	0000                	unimp
 272:	0000                	unimp
 274:	043a                	slli	s0,s0,0xe
 276:	00a0                	addi	s0,sp,72
 278:	0000                	unimp
 27a:	0000                	unimp
 27c:	7606                	ld	a2,96(sp)
 27e:	a004                	fsd	fs1,0(s0)
 280:	0000                	unimp
 282:	0000                	unimp
 284:	8800                	0x8800
 286:	a004                	fsd	fs1,0(s0)
 288:	0000                	unimp
 28a:	0000                	unimp
 28c:	0000                	unimp
 28e:	2a06                	fld	fs4,64(sp)
 290:	a001                	j	290 <_text-0x9ffd70>
 292:	0000                	unimp
 294:	0000                	unimp
 296:	4000                	lw	s0,0(s0)
 298:	a001                	j	298 <_text-0x9ffd68>
 29a:	0000                	unimp
 29c:	0000                	unimp
 29e:	0600                	addi	s0,sp,768
 2a0:	0204                	addi	s1,sp,256
 2a2:	00a0                	addi	s0,sp,72
 2a4:	0000                	unimp
 2a6:	0000                	unimp
 2a8:	021e                	slli	tp,tp,0x7
 2aa:	00a0                	addi	s0,sp,72
 2ac:	0000                	unimp
 2ae:	0000                	unimp
 2b0:	0600                	addi	s0,sp,768
 2b2:	013c                	addi	a5,sp,136
 2b4:	00a0                	addi	s0,sp,72
 2b6:	0000                	unimp
 2b8:	0000                	unimp
 2ba:	0140                	addi	s0,sp,132
 2bc:	00a0                	addi	s0,sp,72
 2be:	0000                	unimp
 2c0:	0000                	unimp
 2c2:	0c06                	slli	s8,s8,0x1
 2c4:	a002                	fsd	ft0,0(sp)
 2c6:	0000                	unimp
 2c8:	0000                	unimp
 2ca:	1e00                	addi	s0,sp,816
 2cc:	a002                	fsd	ft0,0(sp)
 2ce:	0000                	unimp
 2d0:	0000                	unimp
 2d2:	0000                	unimp
 2d4:	8806                	mv	a6,ra
 2d6:	a001                	j	2d6 <_text-0x9ffd2a>
 2d8:	0000                	unimp
 2da:	0000                	unimp
 2dc:	8e00                	0x8e00
 2de:	a001                	j	2de <_text-0x9ffd22>
 2e0:	0000                	unimp
 2e2:	0000                	unimp
 2e4:	0600                	addi	s0,sp,768
 2e6:	02b8                	addi	a4,sp,328
 2e8:	00a0                	addi	s0,sp,72
 2ea:	0000                	unimp
 2ec:	0000                	unimp
 2ee:	02c2                	slli	t0,t0,0x10
 2f0:	00a0                	addi	s0,sp,72
 2f2:	0000                	unimp
 2f4:	0000                	unimp
 2f6:	c806                	sw	ra,16(sp)
 2f8:	a002                	fsd	ft0,0(sp)
 2fa:	0000                	unimp
 2fc:	0000                	unimp
 2fe:	4c00                	lw	s0,24(s0)
 300:	0000a003          	lw	zero,0(ra)
 304:	0000                	unimp
 306:	0600                	addi	s0,sp,768
 308:	0350                	addi	a2,sp,388
 30a:	00a0                	addi	s0,sp,72
 30c:	0000                	unimp
 30e:	0000                	unimp
 310:	0352                	slli	t1,t1,0x14
 312:	00a0                	addi	s0,sp,72
 314:	0000                	unimp
 316:	0000                	unimp
 318:	0600                	addi	s0,sp,768
 31a:	031a                	slli	t1,t1,0x6
 31c:	00a0                	addi	s0,sp,72
 31e:	0000                	unimp
 320:	0000                	unimp
 322:	0328                	addi	a0,sp,392
 324:	00a0                	addi	s0,sp,72
 326:	0000                	unimp
 328:	0000                	unimp
 32a:	3206                	fld	ft4,96(sp)
 32c:	0000a003          	lw	zero,0(ra)
 330:	0000                	unimp
 332:	4c00                	lw	s0,24(s0)
 334:	0000a003          	lw	zero,0(ra)
 338:	0000                	unimp
 33a:	0000                	unimp
 33c:	1a06                	slli	s4,s4,0x21
 33e:	0000a003          	lw	zero,0(ra)
 342:	0000                	unimp
 344:	2800                	fld	fs0,16(s0)
 346:	0000a003          	lw	zero,0(ra)
 34a:	0000                	unimp
 34c:	0600                	addi	s0,sp,768
 34e:	0346                	slli	t1,t1,0x11
 350:	00a0                	addi	s0,sp,72
 352:	0000                	unimp
 354:	0000                	unimp
 356:	034c                	addi	a1,sp,388
 358:	00a0                	addi	s0,sp,72
 35a:	0000                	unimp
 35c:	0000                	unimp
 35e:	0600                	addi	s0,sp,768
 360:	0242                	slli	tp,tp,0x10
 362:	00a0                	addi	s0,sp,72
 364:	0000                	unimp
 366:	0000                	unimp
 368:	0242                	slli	tp,tp,0x10
 36a:	00a0                	addi	s0,sp,72
 36c:	0000                	unimp
 36e:	0000                	unimp
 370:	4606                	lw	a2,64(sp)
 372:	a002                	fsd	ft0,0(sp)
 374:	0000                	unimp
 376:	0000                	unimp
 378:	8400                	0x8400
 37a:	a002                	fsd	ft0,0(sp)
 37c:	0000                	unimp
 37e:	0000                	unimp
 380:	0600                	addi	s0,sp,768
 382:	038a                	slli	t2,t2,0x2
 384:	00a0                	addi	s0,sp,72
 386:	0000                	unimp
 388:	0000                	unimp
 38a:	03c0                	addi	s0,sp,452
 38c:	00a0                	addi	s0,sp,72
 38e:	0000                	unimp
 390:	0000                	unimp
 392:	0600                	addi	s0,sp,768
 394:	038a                	slli	t2,t2,0x2
 396:	00a0                	addi	s0,sp,72
 398:	0000                	unimp
 39a:	0000                	unimp
 39c:	0398                	addi	a4,sp,448
 39e:	00a0                	addi	s0,sp,72
 3a0:	0000                	unimp
 3a2:	0000                	unimp
 3a4:	a206                	fsd	ft1,256(sp)
 3a6:	0000a003          	lw	zero,0(ra)
 3aa:	0000                	unimp
 3ac:	bc00                	fsd	fs0,56(s0)
 3ae:	0000a003          	lw	zero,0(ra)
 3b2:	0000                	unimp
 3b4:	0000                	unimp
 3b6:	8a06                	mv	s4,ra
 3b8:	0000a003          	lw	zero,0(ra)
 3bc:	0000                	unimp
 3be:	9800                	0x9800
 3c0:	0000a003          	lw	zero,0(ra)
 3c4:	0000                	unimp
 3c6:	0600                	addi	s0,sp,768
 3c8:	03b6                	slli	t2,t2,0xd
 3ca:	00a0                	addi	s0,sp,72
 3cc:	0000                	unimp
 3ce:	0000                	unimp
 3d0:	03bc                	addi	a5,sp,456
 3d2:	00a0                	addi	s0,sp,72
 3d4:	0000                	unimp
 3d6:	0000                	unimp
 3d8:	0600                	addi	s0,sp,768
 3da:	048a                	slli	s1,s1,0x2
 3dc:	00a0                	addi	s0,sp,72
 3de:	0000                	unimp
 3e0:	0000                	unimp
 3e2:	049c                	addi	a5,sp,576
 3e4:	00a0                	addi	s0,sp,72
 3e6:	0000                	unimp
 3e8:	0000                	unimp
 3ea:	c006                	sw	ra,0(sp)
 3ec:	a004                	fsd	fs1,0(s0)
 3ee:	0000                	unimp
 3f0:	0000                	unimp
 3f2:	ca00                	sw	s0,16(a2)
 3f4:	a004                	fsd	fs1,0(s0)
 3f6:	0000                	unimp
 3f8:	0000                	unimp
 3fa:	0000                	unimp
 3fc:	9806                	add	a6,a6,ra
 3fe:	a004                	fsd	fs1,0(s0)
 400:	0000                	unimp
 402:	0000                	unimp
 404:	9c00                	0x9c00
 406:	a004                	fsd	fs1,0(s0)
 408:	0000                	unimp
 40a:	0000                	unimp
 40c:	0600                	addi	s0,sp,768
 40e:	04c0                	addi	s0,sp,580
 410:	00a0                	addi	s0,sp,72
 412:	0000                	unimp
 414:	0000                	unimp
 416:	04ca                	slli	s1,s1,0x12
 418:	00a0                	addi	s0,sp,72
 41a:	0000                	unimp
 41c:	0000                	unimp
	...
