
ProcessB.b:     file format elf64-littleriscv


Disassembly of section .text:

0000000000a00000 <_text>:
  a00000:	016000ef          	jal	ra,a00016 <libMain>

0000000000a00004 <userMain>:
  a00004:	1141                	addi	sp,sp,-16
  a00006:	e422                	sd	s0,8(sp)
  a00008:	0800                	addi	s0,sp,16
  a0000a:	06200513          	li	a0,98
  a0000e:	4881                	li	a7,0
  a00010:	00000073          	ecall
  a00014:	bfdd                	j	a0000a <userMain+0x6>

0000000000a00016 <libMain>:
  a00016:	1141                	addi	sp,sp,-16
  a00018:	e406                	sd	ra,8(sp)
  a0001a:	e022                	sd	s0,0(sp)
  a0001c:	0800                	addi	s0,sp,16
  a0001e:	00000097          	auipc	ra,0x0
  a00022:	fe6080e7          	jalr	-26(ra) # a00004 <userMain>
  a00026:	a001                	j	a00026 <libMain+0x10>

0000000000a00028 <uPrint>:
  a00028:	00054703          	lbu	a4,0(a0)
  a0002c:	48070863          	beqz	a4,a004bc <uPrint+0x494>
  a00030:	7119                	addi	sp,sp,-128
  a00032:	fca2                	sd	s0,120(sp)
  a00034:	f8a6                	sd	s1,112(sp)
  a00036:	f4ca                	sd	s2,104(sp)
  a00038:	f0ce                	sd	s3,96(sp)
  a0003a:	ecd2                	sd	s4,88(sp)
  a0003c:	e8d6                	sd	s5,80(sp)
  a0003e:	e4da                	sd	s6,72(sp)
  a00040:	e0de                	sd	s7,64(sp)
  a00042:	fc62                	sd	s8,56(sp)
  a00044:	f866                	sd	s9,48(sp)
  a00046:	f46a                	sd	s10,40(sp)
  a00048:	f06e                	sd	s11,32(sp)
  a0004a:	0100                	addi	s0,sp,128
  a0004c:	8f2a                	mv	t5,a0
  a0004e:	83ae                	mv	t2,a1
  a00050:	86aa                	mv	a3,a0
  a00052:	4301                	li	t1,0
  a00054:	02500293          	li	t0,37
  a00058:	06c00a93          	li	s5,108
  a0005c:	07300993          	li	s3,115
  a00060:	07800b13          	li	s6,120
  a00064:	4c01                	li	s8,0
  a00066:	00001f97          	auipc	t6,0x1
  a0006a:	f9af8f93          	addi	t6,t6,-102 # a01000 <digits>
  a0006e:	493d                	li	s2,15
  a00070:	00003797          	auipc	a5,0x3
  a00074:	f9078793          	addi	a5,a5,-112 # a03000 <bufferLen>
  a00078:	00002617          	auipc	a2,0x2
  a0007c:	f8860613          	addi	a2,a2,-120 # a02000 <printfBuffer>
  a00080:	08000813          	li	a6,128
  a00084:	06400a13          	li	s4,100
  a00088:	4e29                	li	t3,10
  a0008a:	44a5                	li	s1,9
  a0008c:	02d00d93          	li	s11,45
  a00090:	4d05                	li	s10,1
  a00092:	4bb5                	li	s7,13
  a00094:	00001c97          	auipc	s9,0x1
  a00098:	f84c8c93          	addi	s9,s9,-124 # a01018 <digits+0x18>
  a0009c:	a03d                	j	a000ca <uPrint+0xa2>
  a0009e:	0bc70f63          	beq	a4,t3,a0015c <uPrint+0x134>
  a000a2:	0006c503          	lbu	a0,0(a3)
  a000a6:	4398                	lw	a4,0(a5)
  a000a8:	0017069b          	addiw	a3,a4,1
  a000ac:	0006859b          	sext.w	a1,a3
  a000b0:	c394                	sw	a3,0(a5)
  a000b2:	9732                	add	a4,a4,a2
  a000b4:	00a70023          	sb	a0,0(a4)
  a000b8:	0d058963          	beq	a1,a6,a0018a <uPrint+0x162>
  a000bc:	2305                	addiw	t1,t1,1
  a000be:	006f06b3          	add	a3,t5,t1
  a000c2:	0006c703          	lbu	a4,0(a3)
  a000c6:	3c070d63          	beqz	a4,a004a0 <uPrint+0x478>
  a000ca:	fc571ae3          	bne	a4,t0,a0009e <uPrint+0x76>
  a000ce:	00130e9b          	addiw	t4,t1,1
  a000d2:	01df0733          	add	a4,t5,t4
  a000d6:	00074703          	lbu	a4,0(a4)
  a000da:	0007069b          	sext.w	a3,a4
  a000de:	0b568e63          	beq	a3,s5,a0019a <uPrint+0x172>
  a000e2:	29370b63          	beq	a4,s3,a00378 <uPrint+0x350>
  a000e6:	36e9e663          	bltu	s3,a4,a00452 <uPrint+0x42a>
  a000ea:	10570d63          	beq	a4,t0,a00204 <uPrint+0x1dc>
  a000ee:	31471c63          	bne	a4,s4,a00406 <uPrint+0x3de>
  a000f2:	00838693          	addi	a3,t2,8
  a000f6:	0003a703          	lw	a4,0(t2)
  a000fa:	83ba                	mv	t2,a4
  a000fc:	43f75593          	srai	a1,a4,0x3f
  a00100:	8f2d                	xor	a4,a4,a1
  a00102:	8f0d                	sub	a4,a4,a1
  a00104:	f8040893          	addi	a7,s0,-128
  a00108:	85e2                	mv	a1,s8
  a0010a:	832e                	mv	t1,a1
  a0010c:	2585                	addiw	a1,a1,1
  a0010e:	03c77533          	remu	a0,a4,t3
  a00112:	957e                	add	a0,a0,t6
  a00114:	00054503          	lbu	a0,0(a0)
  a00118:	00a88023          	sb	a0,0(a7)
  a0011c:	853a                	mv	a0,a4
  a0011e:	03c75733          	divu	a4,a4,t3
  a00122:	0885                	addi	a7,a7,1
  a00124:	fea4e3e3          	bltu	s1,a0,a0010a <uPrint+0xe2>
  a00128:	0003da63          	bgez	t2,a0013c <uPrint+0x114>
  a0012c:	fa058713          	addi	a4,a1,-96
  a00130:	008705b3          	add	a1,a4,s0
  a00134:	ffb58023          	sb	s11,-32(a1)
  a00138:	0023059b          	addiw	a1,t1,2
  a0013c:	1cb05263          	blez	a1,a00300 <uPrint+0x2d8>
  a00140:	f8040713          	addi	a4,s0,-128
  a00144:	00b70333          	add	t1,a4,a1
  a00148:	f7f40713          	addi	a4,s0,-129
  a0014c:	00b703b3          	add	t2,a4,a1
  a00150:	35fd                	addiw	a1,a1,-1
  a00152:	1582                	slli	a1,a1,0x20
  a00154:	9181                	srli	a1,a1,0x20
  a00156:	40b383b3          	sub	t2,t2,a1
  a0015a:	a261                	j	a002e2 <uPrint+0x2ba>
  a0015c:	4398                	lw	a4,0(a5)
  a0015e:	0017059b          	addiw	a1,a4,1
  a00162:	0005851b          	sext.w	a0,a1
  a00166:	c38c                	sw	a1,0(a5)
  a00168:	9732                	add	a4,a4,a2
  a0016a:	01770023          	sb	s7,0(a4)
  a0016e:	f3051ae3          	bne	a0,a6,a000a2 <uPrint+0x7a>
  a00172:	8532                	mv	a0,a2
  a00174:	85c2                	mv	a1,a6
  a00176:	4895                	li	a7,5
  a00178:	00000073          	ecall
  a0017c:	0006c703          	lbu	a4,0(a3)
  a00180:	01a7a023          	sw	s10,0(a5)
  a00184:	00e60023          	sb	a4,0(a2)
  a00188:	bf15                	j	a000bc <uPrint+0x94>
  a0018a:	8532                	mv	a0,a2
  a0018c:	85c2                	mv	a1,a6
  a0018e:	4895                	li	a7,5
  a00190:	00000073          	ecall
  a00194:	0007a023          	sw	zero,0(a5)
  a00198:	b715                	j	a000bc <uPrint+0x94>
  a0019a:	00230e9b          	addiw	t4,t1,2
  a0019e:	01df0733          	add	a4,t5,t4
  a001a2:	00074683          	lbu	a3,0(a4)
  a001a6:	09468363          	beq	a3,s4,a0022c <uPrint+0x204>
  a001aa:	04da7b63          	bgeu	s4,a3,a00200 <uPrint+0x1d8>
  a001ae:	1d368263          	beq	a3,s3,a00372 <uPrint+0x34a>
  a001b2:	25669963          	bne	a3,s6,a00404 <uPrint+0x3dc>
  a001b6:	00838693          	addi	a3,t2,8
  a001ba:	0003b583          	ld	a1,0(t2)
  a001be:	f8040313          	addi	t1,s0,-128
  a001c2:	8562                	mv	a0,s8
  a001c4:	88aa                	mv	a7,a0
  a001c6:	2505                	addiw	a0,a0,1
  a001c8:	00f5f713          	andi	a4,a1,15
  a001cc:	977e                	add	a4,a4,t6
  a001ce:	00074703          	lbu	a4,0(a4)
  a001d2:	00e30023          	sb	a4,0(t1)
  a001d6:	872e                	mv	a4,a1
  a001d8:	8191                	srli	a1,a1,0x4
  a001da:	0305                	addi	t1,t1,1
  a001dc:	fee964e3          	bltu	s2,a4,a001c4 <uPrint+0x19c>
  a001e0:	1408cc63          	bltz	a7,a00338 <uPrint+0x310>
  a001e4:	f8040713          	addi	a4,s0,-128
  a001e8:	01170333          	add	t1,a4,a7
  a001ec:	f7f40713          	addi	a4,s0,-129
  a001f0:	011703b3          	add	t2,a4,a7
  a001f4:	1882                	slli	a7,a7,0x20
  a001f6:	0208d893          	srli	a7,a7,0x20
  a001fa:	411383b3          	sub	t2,t2,a7
  a001fe:	aa31                	j	a0031a <uPrint+0x2f2>
  a00200:	20569263          	bne	a3,t0,a00404 <uPrint+0x3dc>
  a00204:	4398                	lw	a4,0(a5)
  a00206:	0017069b          	addiw	a3,a4,1
  a0020a:	0006859b          	sext.w	a1,a3
  a0020e:	c394                	sw	a3,0(a5)
  a00210:	9732                	add	a4,a4,a2
  a00212:	00570023          	sb	t0,0(a4)
  a00216:	8376                	mv	t1,t4
  a00218:	eb0592e3          	bne	a1,a6,a000bc <uPrint+0x94>
  a0021c:	8532                	mv	a0,a2
  a0021e:	85c2                	mv	a1,a6
  a00220:	4895                	li	a7,5
  a00222:	00000073          	ecall
  a00226:	0007a023          	sw	zero,0(a5)
  a0022a:	bd49                	j	a000bc <uPrint+0x94>
  a0022c:	00838313          	addi	t1,t2,8
  a00230:	0003b383          	ld	t2,0(t2)
  a00234:	43f3d693          	srai	a3,t2,0x3f
  a00238:	0076c733          	xor	a4,a3,t2
  a0023c:	8f15                	sub	a4,a4,a3
  a0023e:	f8040513          	addi	a0,s0,-128
  a00242:	85e2                	mv	a1,s8
  a00244:	88ae                	mv	a7,a1
  a00246:	2585                	addiw	a1,a1,1
  a00248:	03c776b3          	remu	a3,a4,t3
  a0024c:	96fe                	add	a3,a3,t6
  a0024e:	0006c683          	lbu	a3,0(a3)
  a00252:	00d50023          	sb	a3,0(a0)
  a00256:	86ba                	mv	a3,a4
  a00258:	03c75733          	divu	a4,a4,t3
  a0025c:	0505                	addi	a0,a0,1
  a0025e:	fed4e3e3          	bltu	s1,a3,a00244 <uPrint+0x21c>
  a00262:	0003da63          	bgez	t2,a00276 <uPrint+0x24e>
  a00266:	fa058713          	addi	a4,a1,-96
  a0026a:	008705b3          	add	a1,a4,s0
  a0026e:	ffb58023          	sb	s11,-32(a1)
  a00272:	0028859b          	addiw	a1,a7,2
  a00276:	04b05963          	blez	a1,a002c8 <uPrint+0x2a0>
  a0027a:	f8040713          	addi	a4,s0,-128
  a0027e:	00b706b3          	add	a3,a4,a1
  a00282:	f7f40713          	addi	a4,s0,-129
  a00286:	00b703b3          	add	t2,a4,a1
  a0028a:	35fd                	addiw	a1,a1,-1
  a0028c:	1582                	slli	a1,a1,0x20
  a0028e:	9181                	srli	a1,a1,0x20
  a00290:	40b383b3          	sub	t2,t2,a1
  a00294:	a819                	j	a002aa <uPrint+0x282>
  a00296:	8532                	mv	a0,a2
  a00298:	85c2                	mv	a1,a6
  a0029a:	4895                	li	a7,5
  a0029c:	00000073          	ecall
  a002a0:	0007a023          	sw	zero,0(a5)
  a002a4:	16fd                	addi	a3,a3,-1
  a002a6:	02d38163          	beq	t2,a3,a002c8 <uPrint+0x2a0>
  a002aa:	fff6c503          	lbu	a0,-1(a3)
  a002ae:	4398                	lw	a4,0(a5)
  a002b0:	0017089b          	addiw	a7,a4,1
  a002b4:	0008859b          	sext.w	a1,a7
  a002b8:	0117a023          	sw	a7,0(a5)
  a002bc:	9732                	add	a4,a4,a2
  a002be:	00a70023          	sb	a0,0(a4)
  a002c2:	ff0591e3          	bne	a1,a6,a002a4 <uPrint+0x27c>
  a002c6:	bfc1                	j	a00296 <uPrint+0x26e>
  a002c8:	839a                	mv	t2,t1
  a002ca:	8376                	mv	t1,t4
  a002cc:	bbc5                	j	a000bc <uPrint+0x94>
  a002ce:	8532                	mv	a0,a2
  a002d0:	85c2                	mv	a1,a6
  a002d2:	4895                	li	a7,5
  a002d4:	00000073          	ecall
  a002d8:	0007a023          	sw	zero,0(a5)
  a002dc:	137d                	addi	t1,t1,-1
  a002de:	02730163          	beq	t1,t2,a00300 <uPrint+0x2d8>
  a002e2:	fff34503          	lbu	a0,-1(t1)
  a002e6:	4398                	lw	a4,0(a5)
  a002e8:	0017089b          	addiw	a7,a4,1
  a002ec:	0008859b          	sext.w	a1,a7
  a002f0:	0117a023          	sw	a7,0(a5)
  a002f4:	9732                	add	a4,a4,a2
  a002f6:	00a70023          	sb	a0,0(a4)
  a002fa:	ff0591e3          	bne	a1,a6,a002dc <uPrint+0x2b4>
  a002fe:	bfc1                	j	a002ce <uPrint+0x2a6>
  a00300:	83b6                	mv	t2,a3
  a00302:	8376                	mv	t1,t4
  a00304:	bb65                	j	a000bc <uPrint+0x94>
  a00306:	8532                	mv	a0,a2
  a00308:	85c2                	mv	a1,a6
  a0030a:	4895                	li	a7,5
  a0030c:	00000073          	ecall
  a00310:	0007a023          	sw	zero,0(a5)
  a00314:	137d                	addi	t1,t1,-1
  a00316:	02638163          	beq	t2,t1,a00338 <uPrint+0x310>
  a0031a:	00034503          	lbu	a0,0(t1)
  a0031e:	4398                	lw	a4,0(a5)
  a00320:	0017089b          	addiw	a7,a4,1
  a00324:	0008859b          	sext.w	a1,a7
  a00328:	0117a023          	sw	a7,0(a5)
  a0032c:	9732                	add	a4,a4,a2
  a0032e:	00a70023          	sb	a0,0(a4)
  a00332:	ff0591e3          	bne	a1,a6,a00314 <uPrint+0x2ec>
  a00336:	bfc1                	j	a00306 <uPrint+0x2de>
  a00338:	8376                	mv	t1,t4
  a0033a:	a089                	j	a0037c <uPrint+0x354>
  a0033c:	8532                	mv	a0,a2
  a0033e:	85c2                	mv	a1,a6
  a00340:	4895                	li	a7,5
  a00342:	00000073          	ecall
  a00346:	0007a023          	sw	zero,0(a5)
  a0034a:	137d                	addi	t1,t1,-1
  a0034c:	02730163          	beq	t1,t2,a0036e <uPrint+0x346>
  a00350:	00034503          	lbu	a0,0(t1)
  a00354:	4398                	lw	a4,0(a5)
  a00356:	0017089b          	addiw	a7,a4,1
  a0035a:	0008859b          	sext.w	a1,a7
  a0035e:	0117a023          	sw	a7,0(a5)
  a00362:	9732                	add	a4,a4,a2
  a00364:	00a70023          	sb	a0,0(a4)
  a00368:	ff0591e3          	bne	a1,a6,a0034a <uPrint+0x322>
  a0036c:	bfc1                	j	a0033c <uPrint+0x314>
  a0036e:	8376                	mv	t1,t4
  a00370:	a031                	j	a0037c <uPrint+0x354>
  a00372:	8376                	mv	t1,t4
  a00374:	869e                	mv	a3,t2
  a00376:	a019                	j	a0037c <uPrint+0x354>
  a00378:	8376                	mv	t1,t4
  a0037a:	869e                	mv	a3,t2
  a0037c:	00868393          	addi	t2,a3,8
  a00380:	6294                	ld	a3,0(a3)
  a00382:	c699                	beqz	a3,a00390 <uPrint+0x368>
  a00384:	0006c703          	lbu	a4,0(a3)
  a00388:	d2070ae3          	beqz	a4,a000bc <uPrint+0x94>
  a0038c:	0685                	addi	a3,a3,1
  a0038e:	a80d                	j	a003c0 <uPrint+0x398>
  a00390:	86e6                	mv	a3,s9
  a00392:	02800713          	li	a4,40
  a00396:	bfdd                	j	a0038c <uPrint+0x364>
  a00398:	8eb6                	mv	t4,a3
  a0039a:	fff6c503          	lbu	a0,-1(a3)
  a0039e:	4398                	lw	a4,0(a5)
  a003a0:	0017089b          	addiw	a7,a4,1
  a003a4:	0008859b          	sext.w	a1,a7
  a003a8:	0117a023          	sw	a7,0(a5)
  a003ac:	9732                	add	a4,a4,a2
  a003ae:	00a70023          	sb	a0,0(a4)
  a003b2:	05058163          	beq	a1,a6,a003f4 <uPrint+0x3cc>
  a003b6:	000ec703          	lbu	a4,0(t4)
  a003ba:	0685                	addi	a3,a3,1
  a003bc:	d00700e3          	beqz	a4,a000bc <uPrint+0x94>
  a003c0:	fdc71ce3          	bne	a4,t3,a00398 <uPrint+0x370>
  a003c4:	4398                	lw	a4,0(a5)
  a003c6:	0017059b          	addiw	a1,a4,1
  a003ca:	0005851b          	sext.w	a0,a1
  a003ce:	c38c                	sw	a1,0(a5)
  a003d0:	9732                	add	a4,a4,a2
  a003d2:	01770023          	sb	s7,0(a4)
  a003d6:	fd0511e3          	bne	a0,a6,a00398 <uPrint+0x370>
  a003da:	8532                	mv	a0,a2
  a003dc:	85c2                	mv	a1,a6
  a003de:	4895                	li	a7,5
  a003e0:	00000073          	ecall
  a003e4:	8eb6                	mv	t4,a3
  a003e6:	fff6c703          	lbu	a4,-1(a3)
  a003ea:	01a7a023          	sw	s10,0(a5)
  a003ee:	00e60023          	sb	a4,0(a2)
  a003f2:	b7d1                	j	a003b6 <uPrint+0x38e>
  a003f4:	8532                	mv	a0,a2
  a003f6:	85c2                	mv	a1,a6
  a003f8:	4895                	li	a7,5
  a003fa:	00000073          	ecall
  a003fe:	0007a023          	sw	zero,0(a5)
  a00402:	bf55                	j	a003b6 <uPrint+0x38e>
  a00404:	2681                	sext.w	a3,a3
  a00406:	4398                	lw	a4,0(a5)
  a00408:	0017059b          	addiw	a1,a4,1
  a0040c:	00e60533          	add	a0,a2,a4
  a00410:	00550023          	sb	t0,0(a0)
  a00414:	03058463          	beq	a1,a6,a0043c <uPrint+0x414>
  a00418:	2709                	addiw	a4,a4,2
  a0041a:	0007051b          	sext.w	a0,a4
  a0041e:	c398                	sw	a4,0(a5)
  a00420:	95b2                	add	a1,a1,a2
  a00422:	00d58023          	sb	a3,0(a1)
  a00426:	8376                	mv	t1,t4
  a00428:	c9051ae3          	bne	a0,a6,a000bc <uPrint+0x94>
  a0042c:	8532                	mv	a0,a2
  a0042e:	85c2                	mv	a1,a6
  a00430:	4895                	li	a7,5
  a00432:	00000073          	ecall
  a00436:	0007a023          	sw	zero,0(a5)
  a0043a:	b149                	j	a000bc <uPrint+0x94>
  a0043c:	8532                	mv	a0,a2
  a0043e:	85c2                	mv	a1,a6
  a00440:	4895                	li	a7,5
  a00442:	00000073          	ecall
  a00446:	01a7a023          	sw	s10,0(a5)
  a0044a:	00d60023          	sb	a3,0(a2)
  a0044e:	8376                	mv	t1,t4
  a00450:	b1b5                	j	a000bc <uPrint+0x94>
  a00452:	fb671ae3          	bne	a4,s6,a00406 <uPrint+0x3de>
  a00456:	00838693          	addi	a3,t2,8
  a0045a:	0003e583          	lwu	a1,0(t2)
  a0045e:	f8040313          	addi	t1,s0,-128
  a00462:	8562                	mv	a0,s8
  a00464:	88aa                	mv	a7,a0
  a00466:	2505                	addiw	a0,a0,1
  a00468:	00f5f713          	andi	a4,a1,15
  a0046c:	977e                	add	a4,a4,t6
  a0046e:	00074703          	lbu	a4,0(a4)
  a00472:	00e30023          	sb	a4,0(t1)
  a00476:	872e                	mv	a4,a1
  a00478:	8191                	srli	a1,a1,0x4
  a0047a:	0305                	addi	t1,t1,1
  a0047c:	fee964e3          	bltu	s2,a4,a00464 <uPrint+0x43c>
  a00480:	ee08c7e3          	bltz	a7,a0036e <uPrint+0x346>
  a00484:	f8040713          	addi	a4,s0,-128
  a00488:	01170333          	add	t1,a4,a7
  a0048c:	f7f40713          	addi	a4,s0,-129
  a00490:	011703b3          	add	t2,a4,a7
  a00494:	1882                	slli	a7,a7,0x20
  a00496:	0208d893          	srli	a7,a7,0x20
  a0049a:	411383b3          	sub	t2,t2,a7
  a0049e:	bd4d                	j	a00350 <uPrint+0x328>
  a004a0:	7466                	ld	s0,120(sp)
  a004a2:	74c6                	ld	s1,112(sp)
  a004a4:	7926                	ld	s2,104(sp)
  a004a6:	7986                	ld	s3,96(sp)
  a004a8:	6a66                	ld	s4,88(sp)
  a004aa:	6ac6                	ld	s5,80(sp)
  a004ac:	6b26                	ld	s6,72(sp)
  a004ae:	6b86                	ld	s7,64(sp)
  a004b0:	7c62                	ld	s8,56(sp)
  a004b2:	7cc2                	ld	s9,48(sp)
  a004b4:	7d22                	ld	s10,40(sp)
  a004b6:	7d82                	ld	s11,32(sp)
  a004b8:	6109                	addi	sp,sp,128
  a004ba:	8082                	ret
  a004bc:	8082                	ret

0000000000a004be <uPrintf>:
  a004be:	711d                	addi	sp,sp,-96
  a004c0:	ec06                	sd	ra,24(sp)
  a004c2:	e822                	sd	s0,16(sp)
  a004c4:	1000                	addi	s0,sp,32
  a004c6:	e40c                	sd	a1,8(s0)
  a004c8:	e810                	sd	a2,16(s0)
  a004ca:	ec14                	sd	a3,24(s0)
  a004cc:	f018                	sd	a4,32(s0)
  a004ce:	f41c                	sd	a5,40(s0)
  a004d0:	03043823          	sd	a6,48(s0)
  a004d4:	03143c23          	sd	a7,56(s0)
  a004d8:	00840593          	addi	a1,s0,8
  a004dc:	feb43423          	sd	a1,-24(s0)
  a004e0:	00000097          	auipc	ra,0x0
  a004e4:	b48080e7          	jalr	-1208(ra) # a00028 <uPrint>
  a004e8:	00003597          	auipc	a1,0x3
  a004ec:	b185a583          	lw	a1,-1256(a1) # a03000 <bufferLen>
  a004f0:	00b05d63          	blez	a1,a0050a <uPrintf+0x4c>
  a004f4:	00002517          	auipc	a0,0x2
  a004f8:	b0c50513          	addi	a0,a0,-1268 # a02000 <printfBuffer>
  a004fc:	4895                	li	a7,5
  a004fe:	00000073          	ecall
  a00502:	00003797          	auipc	a5,0x3
  a00506:	ae07af23          	sw	zero,-1282(a5) # a03000 <bufferLen>
  a0050a:	60e2                	ld	ra,24(sp)
  a0050c:	6442                	ld	s0,16(sp)
  a0050e:	6125                	addi	sp,sp,96
  a00510:	8082                	ret

0000000000a00512 <_uPanic_>:
  a00512:	711d                	addi	sp,sp,-96
  a00514:	f406                	sd	ra,40(sp)
  a00516:	f022                	sd	s0,32(sp)
  a00518:	ec26                	sd	s1,24(sp)
  a0051a:	1800                	addi	s0,sp,48
  a0051c:	84b2                	mv	s1,a2
  a0051e:	e414                	sd	a3,8(s0)
  a00520:	e818                	sd	a4,16(s0)
  a00522:	ec1c                	sd	a5,24(s0)
  a00524:	03043023          	sd	a6,32(s0)
  a00528:	03143423          	sd	a7,40(s0)
  a0052c:	862e                	mv	a2,a1
  a0052e:	85aa                	mv	a1,a0
  a00530:	00001517          	auipc	a0,0x1
  a00534:	af050513          	addi	a0,a0,-1296 # a01020 <digits+0x20>
  a00538:	00000097          	auipc	ra,0x0
  a0053c:	f86080e7          	jalr	-122(ra) # a004be <uPrintf>
  a00540:	00840593          	addi	a1,s0,8
  a00544:	fcb43c23          	sd	a1,-40(s0)
  a00548:	8526                	mv	a0,s1
  a0054a:	00000097          	auipc	ra,0x0
  a0054e:	ade080e7          	jalr	-1314(ra) # a00028 <uPrint>
  a00552:	4529                	li	a0,10
  a00554:	4881                	li	a7,0
  a00556:	00000073          	ecall
  a0055a:	a001                	j	a0055a <_uPanic_+0x48>

Disassembly of section .data:

0000000000a01000 <digits>:
  a01000:	3130                	fld	fa2,96(a0)
  a01002:	3332                	fld	ft6,296(sp)
  a01004:	3534                	fld	fa3,104(a0)
  a01006:	3736                	fld	fa4,360(sp)
  a01008:	3938                	fld	fa4,112(a0)
  a0100a:	6261                	lui	tp,0x18
  a0100c:	66656463          	bltu	a0,t1,a01674 <digits+0x674>
	...
  a01018:	6e28                	ld	a0,88(a2)
  a0101a:	6c75                	lui	s8,0x1d
  a0101c:	296c                	fld	fa1,208(a0)
  a0101e:	0000                	unimp
  a01020:	7375                	lui	t1,0xffffd
  a01022:	7265                	lui	tp,0xffff9
  a01024:	7020                	ld	s0,96(s0)
  a01026:	6e61                	lui	t3,0x18
  a01028:	6369                	lui	t1,0x1a
  a0102a:	6120                	ld	s0,64(a0)
  a0102c:	2074                	fld	fa3,192(s0)
  a0102e:	7325                	lui	t1,0xfffe9
  a01030:	203a                	fld	ft0,392(sp)
  a01032:	6425                	lui	s0,0x9
  a01034:	203a                	fld	ft0,392(sp)
	...

Disassembly of section .bss:

0000000000a02000 <printfBuffer>:
	...

Disassembly of section .sbss:

0000000000a03000 <bufferLen>:
  a03000:	0000                	unimp
	...

Disassembly of section .riscv.attributes:

0000000000000000 <.riscv.attributes>:
   0:	3441                	addiw	s0,s0,-16
   2:	0000                	unimp
   4:	7200                	ld	s0,32(a2)
   6:	7369                	lui	t1,0xffffa
   8:	01007663          	bgeu	zero,a6,14 <_text-0x9fffec>
   c:	002a                	c.slli	zero,0xa
   e:	0000                	unimp
  10:	1004                	addi	s1,sp,32
  12:	7205                	lui	tp,0xfffe1
  14:	3676                	fld	fa2,376(sp)
  16:	6934                	ld	a3,80(a0)
  18:	7032                	0x7032
  1a:	5f30                	lw	a2,120(a4)
  1c:	326d                	addiw	tp,tp,-5
  1e:	3070                	fld	fa2,224(s0)
  20:	615f 7032 5f30      	0x5f307032615f
  26:	3266                	fld	ft4,120(sp)
  28:	3070                	fld	fa2,224(s0)
  2a:	645f 7032 5f30      	0x5f307032645f
  30:	30703263          	0x30703263
	...

Disassembly of section .comment:

0000000000000000 <.comment>:
   0:	3a434347          	fmsub.d	ft6,ft6,ft4,ft7,rmm
   4:	2820                	fld	fs0,80(s0)
   6:	29554e47          	fmsub.s	ft8,fa0,fs5,ft5,rmm
   a:	3120                	fld	fs0,96(a0)
   c:	2e31                	addiw	t3,t3,12
   e:	2e31                	addiw	t3,t3,12
  10:	0030                	addi	a2,sp,8

Disassembly of section .debug_line:

0000000000000000 <.debug_line>:
       0:	0044                	addi	s1,sp,4
       2:	0000                	unimp
       4:	0005                	c.nop	1
       6:	0008                	0x8
       8:	002a                	c.slli	zero,0xa
       a:	0000                	unimp
       c:	0101                	addi	sp,sp,0
       e:	fb01                	bnez	a4,ffffffffffffff1e <bufferLen+0xffffffffff5fcf1e>
      10:	0d0e                	slli	s10,s10,0x3
      12:	0100                	addi	s0,sp,128
      14:	0101                	addi	sp,sp,0
      16:	0001                	nop
      18:	0000                	unimp
      1a:	0001                	nop
      1c:	0100                	addi	s0,sp,128
      1e:	0101                	addi	sp,sp,0
      20:	011f 0000 0000      	0x11f
      26:	0102                	c.slli64	sp
      28:	021f 020f 0040      	0x40020f021f
      2e:	0000                	unimp
      30:	4000                	lw	s0,0(s0)
      32:	0000                	unimp
      34:	0000                	unimp
      36:	0900                	addi	s0,sp,144
      38:	0002                	c.slli64	zero
      3a:	a000                	fsd	fs0,0(s0)
      3c:	0000                	unimp
      3e:	0000                	unimp
      40:	1500                	addi	s0,sp,672
      42:	0409                	addi	s0,s0,2
      44:	0000                	unimp
      46:	0101                	addi	sp,sp,0
      48:	00a9                	addi	ra,ra,10
      4a:	0000                	unimp
      4c:	0005                	c.nop	1
      4e:	0008                	0x8
      50:	00000033          	add	zero,zero,zero
      54:	0101                	addi	sp,sp,0
      56:	fb01                	bnez	a4,ffffffffffffff66 <bufferLen+0xffffffffff5fcf66>
      58:	0d0e                	slli	s10,s10,0x3
      5a:	0100                	addi	s0,sp,128
      5c:	0101                	addi	sp,sp,0
      5e:	0001                	nop
      60:	0000                	unimp
      62:	0001                	nop
      64:	0100                	addi	s0,sp,128
      66:	0101                	addi	sp,sp,0
      68:	021f 0000 0000      	0x21f
      6e:	007e                	c.slli	zero,0x1f
      70:	0000                	unimp
      72:	0102                	c.slli64	sp
      74:	021f 030f 0048      	0x48030f021f
      7a:	0000                	unimp
      7c:	4800                	lw	s0,16(s0)
      7e:	0000                	unimp
      80:	0000                	unimp
      82:	00000053          	fadd.s	ft0,ft0,ft0,rne
      86:	0501                	addi	a0,a0,0
      88:	0011                	c.nop	4
      8a:	0209                	addi	tp,tp,2
      8c:	0004                	0x4
      8e:	00a0                	addi	s0,sp,72
      90:	0000                	unimp
      92:	0000                	unimp
      94:	0514                	addi	a3,sp,640
      96:	0005                	c.nop	1
      98:	0402                	c.slli64	s0
      9a:	0301                	addi	t1,t1,0
      9c:	0901                	addi	s2,s2,0
      9e:	0006                	c.slli	zero,0x1
      a0:	0501                	addi	a0,a0,0
      a2:	0009                	c.nop	2
      a4:	0402                	c.slli64	s0
      a6:	0301                	addi	t1,t1,0
      a8:	0901                	addi	s2,s2,0
      aa:	0000                	unimp
      ac:	0401                	addi	s0,s0,0
      ae:	0502                	c.slli64	a0
      b0:	0005                	c.nop	1
      b2:	0402                	c.slli64	s0
      b4:	0301                	addi	t1,t1,0
      b6:	00000903          	lb	s2,0(zero) # 0 <_text-0xa00000>
      ba:	0501                	addi	a0,a0,0
      bc:	04020013          	addi	zero,tp,64 # fffffffffffe1040 <bufferLen+0xffffffffff5de040>
      c0:	0601                	addi	a2,a2,0
      c2:	00090003          	lb	zero,0(s2)
      c6:	0100                	addi	s0,sp,128
      c8:	0505                	addi	a0,a0,1
      ca:	0200                	addi	s0,sp,256
      cc:	0104                	addi	s1,sp,128
      ce:	0306                	slli	t1,t1,0x1
      d0:	0901                	addi	s2,s2,0
      d2:	0004                	0x4
      d4:	0501                	addi	a0,a0,0
      d6:	04020013          	addi	zero,tp,64 # 40 <_text-0x9fffc0>
      da:	0601                	addi	a2,a2,0
      dc:	00090003          	lb	zero,0(s2)
      e0:	0100                	addi	s0,sp,128
      e2:	0505                	addi	a0,a0,1
      e4:	0200                	addi	s0,sp,256
      e6:	0104                	addi	s1,sp,128
      e8:	0306                	slli	t1,t1,0x1
      ea:	0901                	addi	s2,s2,0
      ec:	0002                	c.slli64	zero
      ee:	0901                	addi	s2,s2,0
      f0:	0006                	c.slli	zero,0x1
      f2:	0100                	addi	s0,sp,128
      f4:	6401                	0x6401
      f6:	0000                	unimp
      f8:	0500                	addi	s0,sp,640
      fa:	0800                	addi	s0,sp,16
      fc:	2a00                	fld	fs0,16(a2)
      fe:	0000                	unimp
     100:	0100                	addi	s0,sp,128
     102:	0101                	addi	sp,sp,0
     104:	000d0efb          	0xd0efb
     108:	0101                	addi	sp,sp,0
     10a:	0101                	addi	sp,sp,0
     10c:	0000                	unimp
     10e:	0100                	addi	s0,sp,128
     110:	0000                	unimp
     112:	0101                	addi	sp,sp,0
     114:	1f01                	addi	t5,t5,-32
     116:	0001                	nop
     118:	0000                	unimp
     11a:	0200                	addi	s0,sp,256
     11c:	1f01                	addi	t5,t5,-32
     11e:	0f02                	c.slli64	t5
     120:	5d02                	lw	s10,32(sp)
     122:	0000                	unimp
     124:	0000                	unimp
     126:	005d                	c.nop	23
     128:	0000                	unimp
     12a:	0500                	addi	s0,sp,640
     12c:	0010                	0x10
     12e:	0209                	addi	tp,tp,2
     130:	0016                	c.slli	zero,0x5
     132:	00a0                	addi	s0,sp,72
     134:	0000                	unimp
     136:	0000                	unimp
     138:	03050513          	addi	a0,a0,48
     13c:	0901                	addi	s2,s2,0
     13e:	0008                	0x8
     140:	0001                	nop
     142:	0402                	c.slli64	s0
     144:	0301                	addi	t1,t1,0
     146:	0901                	addi	s2,s2,0
     148:	0008                	0x8
     14a:	0501                	addi	a0,a0,0
     14c:	0402000b          	0x402000b
     150:	0301                	addi	t1,t1,0
     152:	0900                	addi	s0,sp,144
     154:	0000                	unimp
     156:	0901                	addi	s2,s2,0
     158:	0002                	c.slli64	zero
     15a:	0100                	addi	s0,sp,128
     15c:	a701                	j	85c <_text-0x9ff7a4>
     15e:	000e                	c.slli	zero,0x3
     160:	0500                	addi	s0,sp,640
     162:	0800                	addi	s0,sp,16
     164:	4100                	lw	s0,0(a0)
     166:	0000                	unimp
     168:	0100                	addi	s0,sp,128
     16a:	0101                	addi	sp,sp,0
     16c:	000d0efb          	0xd0efb
     170:	0101                	addi	sp,sp,0
     172:	0101                	addi	sp,sp,0
     174:	0000                	unimp
     176:	0100                	addi	s0,sp,128
     178:	0000                	unimp
     17a:	0101                	addi	sp,sp,0
     17c:	1f01                	addi	t5,t5,-32
     17e:	00000003          	lb	zero,0(zero) # 0 <_text-0xa00000>
     182:	7e00                	ld	s0,56(a2)
     184:	0000                	unimp
     186:	7000                	ld	s0,32(s0)
     188:	0000                	unimp
     18a:	0200                	addi	s0,sp,256
     18c:	1f01                	addi	t5,t5,-32
     18e:	0f02                	c.slli64	t5
     190:	6705                	lui	a4,0x1
     192:	0000                	unimp
     194:	0000                	unimp
     196:	00000067          	jr	zero # 0 <_text-0xa00000>
     19a:	8800                	0x8800
     19c:	0000                	unimp
     19e:	0100                	addi	s0,sp,128
     1a0:	00000053          	fadd.s	ft0,ft0,ft0,rne
     1a4:	9101                	srli	a0,a0,0x20
     1a6:	0000                	unimp
     1a8:	0200                	addi	s0,sp,256
     1aa:	3105                	addiw	sp,sp,-31
     1ac:	0900                	addi	s0,sp,144
     1ae:	2802                	fld	fa6,0(sp)
     1b0:	a000                	fsd	fs0,0(s0)
     1b2:	0000                	unimp
     1b4:	0000                	unimp
     1b6:	1600                	addi	s0,sp,800
     1b8:	0505                	addi	a0,a0,1
     1ba:	00090103          	lb	sp,0(s2)
     1be:	0100                	addi	s0,sp,128
     1c0:	00090103          	lb	sp,0(s2)
     1c4:	0100                	addi	s0,sp,128
     1c6:	00090203          	lb	tp,0(s2)
     1ca:	0100                	addi	s0,sp,128
     1cc:	1105                	addi	sp,sp,-31
     1ce:	00090003          	lb	zero,0(s2)
     1d2:	0100                	addi	s0,sp,128
     1d4:	1405                	addi	s0,s0,-31
     1d6:	0306                	slli	t1,t1,0x1
     1d8:	0900                	addi	s0,sp,144
     1da:	0000                	unimp
     1dc:	0501                	addi	a0,a0,0
     1de:	0311                	addi	t1,t1,4
     1e0:	0900                	addi	s0,sp,144
     1e2:	0004                	0x4
     1e4:	0501                	addi	a0,a0,0
     1e6:	0331                	addi	t1,t1,12
     1e8:	097c                	addi	a5,sp,156
     1ea:	0004                	0x4
     1ec:	0501                	addi	a0,a0,0
     1ee:	0314                	addi	a3,sp,384
     1f0:	0904                	addi	s1,sp,144
     1f2:	0020                	addi	s0,sp,8
     1f4:	0501                	addi	a0,a0,0
     1f6:	030c                	addi	a1,sp,384
     1f8:	0900                	addi	s0,sp,144
     1fa:	0002                	c.slli64	zero
     1fc:	0301                	addi	t1,t1,0
     1fe:	0901                	addi	s2,s2,0
     200:	0002                	c.slli64	zero
     202:	0301                	addi	t1,t1,0
     204:	0909                	addi	s2,s2,2
     206:	0004                	0x4
     208:	0501                	addi	a0,a0,0
     20a:	0309                	addi	t1,t1,2
     20c:	0904                	addi	s1,sp,144
     20e:	0004                	0x4
     210:	0401                	addi	s0,s0,0
     212:	0502                	c.slli64	a0
     214:	09180307          	0x9180307
     218:	0008                	0x8
     21a:	0501                	addi	a0,a0,0
     21c:	031a                	slli	t1,t1,0x6
     21e:	0902                	c.slli64	s2
     220:	0002                	c.slli64	zero
     222:	0501                	addi	a0,a0,0
     224:	0319                	addi	t1,t1,6
     226:	0901                	addi	s2,s2,0
     228:	0008                	0x8
     22a:	0501                	addi	a0,a0,0
     22c:	0962031b          	addiw	t1,tp,150
     230:	0002                	c.slli64	zero
     232:	0501                	addi	a0,a0,0
     234:	031f 0900 0008      	0x80900031f
     23a:	0501                	addi	a0,a0,0
     23c:	0308                	addi	a0,sp,384
     23e:	0979                	addi	s2,s2,30
     240:	0008                	0x8
     242:	0401                	addi	s0,s0,0
     244:	0501                	addi	a0,a0,0
     246:	0309                	addi	t1,t1,2
     248:	090a                	slli	s2,s2,0x2
     24a:	0004                	0x4
     24c:	0401                	addi	s0,s0,0
     24e:	0502                	c.slli64	a0
     250:	031d                	addi	t1,t1,7
     252:	091a                	slli	s2,s2,0x6
     254:	0004                	0x4
     256:	0501                	addi	a0,a0,0
     258:	0319                	addi	t1,t1,6
     25a:	0901                	addi	s2,s2,0
     25c:	0002                	c.slli64	zero
     25e:	0501                	addi	a0,a0,0
     260:	0312                	slli	t1,t1,0x4
     262:	00020903          	lb	s2,0(tp) # 0 <_text-0xa00000>
     266:	0501                	addi	a0,a0,0
     268:	095f031b          	addiw	t1,t5,149
     26c:	0004                	0x4
     26e:	0501                	addi	a0,a0,0
     270:	031f 0900 0002      	0x20900031f
     276:	0401                	addi	s0,s0,0
     278:	0501                	addi	a0,a0,0
     27a:	09130317          	auipc	t1,0x9130
     27e:	0002                	c.slli64	zero
     280:	0501                	addi	a0,a0,0
     282:	060d                	addi	a2,a2,3
     284:	0a096403          	lwu	s0,160(s2)
     288:	0100                	addi	s0,sp,128
     28a:	1005                	c.nop	-31
     28c:	0306                	slli	t1,t1,0x1
     28e:	0900                	addi	s0,sp,144
     290:	0000                	unimp
     292:	0501                	addi	a0,a0,0
     294:	060d                	addi	a2,a2,3
     296:	04090303          	lb	t1,64(s2)
     29a:	0100                	addi	s0,sp,128
     29c:	0204                	addi	s1,sp,256
     29e:	0505                	addi	a0,a0,1
     2a0:	04090603          	lb	a2,64(s2)
     2a4:	0100                	addi	s0,sp,128
     2a6:	1b05                	addi	s6,s6,-31
     2a8:	0306                	slli	t1,t1,0x1
     2aa:	0900                	addi	s0,sp,144
     2ac:	0000                	unimp
     2ae:	0501                	addi	a0,a0,0
     2b0:	031f 0900 000c      	0xc0900031f
     2b6:	0501                	addi	a0,a0,0
     2b8:	0605                	addi	a2,a2,1
     2ba:	06090103          	lb	sp,96(s2)
     2be:	0100                	addi	s0,sp,128
     2c0:	0905                	addi	s2,s2,1
     2c2:	00090103          	lb	sp,0(s2)
     2c6:	0100                	addi	s0,sp,128
     2c8:	0505                	addi	a0,a0,1
     2ca:	00097703          	0x97703
     2ce:	0100                	addi	s0,sp,128
     2d0:	0805                	addi	a6,a6,1
     2d2:	0306                	slli	t1,t1,0x1
     2d4:	0900                	addi	s0,sp,144
     2d6:	0000                	unimp
     2d8:	0401                	addi	s0,s0,0
     2da:	0501                	addi	a0,a0,0
     2dc:	001a                	c.slli	zero,0x6
     2de:	0402                	c.slli64	s0
     2e0:	0602                	c.slli64	a2
     2e2:	04097c03          	0x4097c03
     2e6:	0100                	addi	s0,sp,128
     2e8:	1105                	addi	sp,sp,-31
     2ea:	0200                	addi	s0,sp,256
     2ec:	0204                	addi	s1,sp,256
     2ee:	02090003          	lb	zero,32(s2)
     2f2:	0100                	addi	s0,sp,128
     2f4:	1405                	addi	s0,s0,-31
     2f6:	0200                	addi	s0,sp,256
     2f8:	0204                	addi	s1,sp,256
     2fa:	0306                	slli	t1,t1,0x1
     2fc:	0900                	addi	s0,sp,144
     2fe:	0000                	unimp
     300:	0501                	addi	a0,a0,0
     302:	0011                	c.nop	4
     304:	0402                	c.slli64	s0
     306:	0302                	c.slli64	t1
     308:	0900                	addi	s0,sp,144
     30a:	0008                	0x8
     30c:	0501                	addi	a0,a0,0
     30e:	0609                	addi	a2,a2,2
     310:	04090103          	lb	sp,64(s2)
     314:	0100                	addi	s0,sp,128
     316:	0c05                	addi	s8,s8,1
     318:	0306                	slli	t1,t1,0x1
     31a:	0900                	addi	s0,sp,144
     31c:	0000                	unimp
     31e:	0501                	addi	a0,a0,0
     320:	0609                	addi	a2,a2,2
     322:	04090703          	lb	a4,64(s2)
     326:	0100                	addi	s0,sp,128
     328:	0b05                	addi	s6,s6,1
     32a:	0306                	slli	t1,t1,0x1
     32c:	0900                	addi	s0,sp,144
     32e:	0000                	unimp
     330:	0501                	addi	a0,a0,0
     332:	0310                	addi	a2,sp,384
     334:	0900                	addi	s0,sp,144
     336:	0004                	0x4
     338:	0501                	addi	a0,a0,0
     33a:	0900030b          	0x900030b
     33e:	0008                	0x8
     340:	0501                	addi	a0,a0,0
     342:	0609                	addi	a2,a2,2
     344:	04090103          	lb	sp,64(s2)
     348:	0100                	addi	s0,sp,128
     34a:	00090103          	lb	sp,0(s2)
     34e:	0100                	addi	s0,sp,128
     350:	0c05                	addi	s8,s8,1
     352:	0306                	slli	t1,t1,0x1
     354:	0900                	addi	s0,sp,144
     356:	0000                	unimp
     358:	0501                	addi	a0,a0,0
     35a:	0609                	addi	a2,a2,2
     35c:	04090403          	lb	s0,64(s2)
     360:	0100                	addi	s0,sp,128
     362:	1105                	addi	sp,sp,-31
     364:	10090203          	lb	tp,256(s2)
     368:	0100                	addi	s0,sp,128
     36a:	1505                	addi	a0,a0,-31
     36c:	00090303          	lb	t1,0(s2)
     370:	0100                	addi	s0,sp,128
     372:	2505                	addiw	a0,a0,1
     374:	0306                	slli	t1,t1,0x1
     376:	0900                	addi	s0,sp,144
     378:	0000                	unimp
     37a:	0501                	addi	a0,a0,0
     37c:	0315                	addi	t1,t1,5
     37e:	0900                	addi	s0,sp,144
     380:	0008                	0x8
     382:	0401                	addi	s0,s0,0
     384:	0502                	c.slli64	a0
     386:	0605                	addi	a2,a2,1
     388:	02090903          	lb	s2,32(s2)
     38c:	0100                	addi	s0,sp,128
     38e:	00090103          	lb	sp,0(s2)
     392:	0100                	addi	s0,sp,128
     394:	00090103          	lb	sp,0(s2)
     398:	0100                	addi	s0,sp,128
     39a:	00090203          	lb	tp,0(s2)
     39e:	0100                	addi	s0,sp,128
     3a0:	0d05                	addi	s10,s10,1
     3a2:	0306                	slli	t1,t1,0x1
     3a4:	0901                	addi	s2,s2,0
     3a6:	0000                	unimp
     3a8:	0501                	addi	a0,a0,0
     3aa:	030e                	slli	t1,t1,0x3
     3ac:	0008090b          	0x8090b
     3b0:	0501                	addi	a0,a0,0
     3b2:	0605                	addi	a2,a2,1
     3b4:	06097b03          	0x6097b03
     3b8:	0100                	addi	s0,sp,128
     3ba:	0905                	addi	s2,s2,1
     3bc:	00090103          	lb	sp,0(s2)
     3c0:	0100                	addi	s0,sp,128
     3c2:	0e05                	addi	t3,t3,1
     3c4:	0306                	slli	t1,t1,0x1
     3c6:	0900                	addi	s0,sp,144
     3c8:	0002                	c.slli64	zero
     3ca:	0501                	addi	a0,a0,0
     3cc:	031d                	addi	t1,t1,7
     3ce:	0900                	addi	s0,sp,144
     3d0:	0002                	c.slli64	zero
     3d2:	0501                	addi	a0,a0,0
     3d4:	031a                	slli	t1,t1,0x6
     3d6:	0900                	addi	s0,sp,144
     3d8:	0004                	0x4
     3da:	0501                	addi	a0,a0,0
     3dc:	0312                	slli	t1,t1,0x4
     3de:	0900                	addi	s0,sp,144
     3e0:	0002                	c.slli64	zero
     3e2:	0501                	addi	a0,a0,0
     3e4:	0619                	addi	a2,a2,6
     3e6:	08090103          	lb	sp,128(s2)
     3ea:	0100                	addi	s0,sp,128
     3ec:	1005                	c.nop	-31
     3ee:	0306                	slli	t1,t1,0x1
     3f0:	0900                	addi	s0,sp,144
     3f2:	0002                	c.slli64	zero
     3f4:	0501                	addi	a0,a0,0
     3f6:	0319                	addi	t1,t1,6
     3f8:	0900                	addi	s0,sp,144
     3fa:	0004                	0x4
     3fc:	0501                	addi	a0,a0,0
     3fe:	0605                	addi	a2,a2,1
     400:	06090203          	lb	tp,96(s2)
     404:	0100                	addi	s0,sp,128
     406:	0805                	addi	a6,a6,1
     408:	0306                	slli	t1,t1,0x1
     40a:	0900                	addi	s0,sp,144
     40c:	0000                	unimp
     40e:	0501                	addi	a0,a0,0
     410:	0609                	addi	a2,a2,2
     412:	04090103          	lb	sp,64(s2)
     416:	0100                	addi	s0,sp,128
     418:	1205                	addi	tp,tp,-31
     41a:	0306                	slli	t1,t1,0x1
     41c:	0900                	addi	s0,sp,144
     41e:	0000                	unimp
     420:	0501                	addi	a0,a0,0
     422:	030e                	slli	t1,t1,0x3
     424:	0900                	addi	s0,sp,144
     426:	000c                	0xc
     428:	0501                	addi	a0,a0,0
     42a:	0610                	addi	a2,sp,768
     42c:	04090303          	lb	t1,64(s2)
     430:	0100                	addi	s0,sp,128
     432:	0104                	addi	s1,sp,128
     434:	1105                	addi	sp,sp,-31
     436:	20095403          	lhu	s0,512(s2)
     43a:	0100                	addi	s0,sp,128
     43c:	0204                	addi	s1,sp,256
     43e:	0505                	addi	a0,a0,1
     440:	00090803          	lb	a6,0(s2)
     444:	0100                	addi	s0,sp,128
     446:	1b05                	addi	s6,s6,-31
     448:	0306                	slli	t1,t1,0x1
     44a:	0900                	addi	s0,sp,144
     44c:	0000                	unimp
     44e:	0501                	addi	a0,a0,0
     450:	031f 0900 000c      	0xc0900031f
     456:	0501                	addi	a0,a0,0
     458:	0605                	addi	a2,a2,1
     45a:	06090103          	lb	sp,96(s2)
     45e:	0100                	addi	s0,sp,128
     460:	0905                	addi	s2,s2,1
     462:	00090103          	lb	sp,0(s2)
     466:	0100                	addi	s0,sp,128
     468:	0505                	addi	a0,a0,1
     46a:	00097703          	0x97703
     46e:	0100                	addi	s0,sp,128
     470:	0805                	addi	a6,a6,1
     472:	0306                	slli	t1,t1,0x1
     474:	0900                	addi	s0,sp,144
     476:	0000                	unimp
     478:	0501                	addi	a0,a0,0
     47a:	0609                	addi	a2,a2,2
     47c:	04090103          	lb	sp,64(s2)
     480:	0100                	addi	s0,sp,128
     482:	0304                	addi	s1,sp,384
     484:	0505                	addi	a0,a0,1
     486:	00090703          	lb	a4,0(s2)
     48a:	0100                	addi	s0,sp,128
     48c:	1305                	addi	t1,t1,-31
     48e:	0306                	slli	t1,t1,0x1
     490:	0900                	addi	s0,sp,144
     492:	0000                	unimp
     494:	0501                	addi	a0,a0,0
     496:	0605                	addi	a2,a2,1
     498:	02090103          	lb	sp,32(s2)
     49c:	0100                	addi	s0,sp,128
     49e:	1305                	addi	t1,t1,-31
     4a0:	0306                	slli	t1,t1,0x1
     4a2:	0900                	addi	s0,sp,144
     4a4:	0000                	unimp
     4a6:	0501                	addi	a0,a0,0
     4a8:	0605                	addi	a2,a2,1
     4aa:	02090103          	lb	sp,32(s2)
     4ae:	0100                	addi	s0,sp,128
     4b0:	1305                	addi	t1,t1,-31
     4b2:	0306                	slli	t1,t1,0x1
     4b4:	0900                	addi	s0,sp,144
     4b6:	0000                	unimp
     4b8:	0501                	addi	a0,a0,0
     4ba:	0605                	addi	a2,a2,1
     4bc:	02090103          	lb	sp,32(s2)
     4c0:	0100                	addi	s0,sp,128
     4c2:	0204                	addi	s1,sp,256
     4c4:	0905                	addi	s2,s2,1
     4c6:	04097703          	0x4097703
     4ca:	0100                	addi	s0,sp,128
     4cc:	0104                	addi	s1,sp,128
     4ce:	0d05                	addi	s10,s10,1
     4d0:	00097f03          	0x97f03
     4d4:	0100                	addi	s0,sp,128
     4d6:	0204                	addi	s1,sp,256
     4d8:	0505                	addi	a0,a0,1
     4da:	04090603          	lb	a2,64(s2)
     4de:	0100                	addi	s0,sp,128
     4e0:	1b05                	addi	s6,s6,-31
     4e2:	0306                	slli	t1,t1,0x1
     4e4:	0900                	addi	s0,sp,144
     4e6:	0000                	unimp
     4e8:	0501                	addi	a0,a0,0
     4ea:	031f 0900 0004      	0x40900031f
     4f0:	0501                	addi	a0,a0,0
     4f2:	0605                	addi	a2,a2,1
     4f4:	04090103          	lb	sp,64(s2)
     4f8:	0100                	addi	s0,sp,128
     4fa:	0905                	addi	s2,s2,1
     4fc:	00090103          	lb	sp,0(s2)
     500:	0100                	addi	s0,sp,128
     502:	0505                	addi	a0,a0,1
     504:	00097703          	0x97703
     508:	0100                	addi	s0,sp,128
     50a:	0905                	addi	s2,s2,1
     50c:	02090103          	lb	sp,32(s2)
     510:	0100                	addi	s0,sp,128
     512:	0304                	addi	s1,sp,384
     514:	0505                	addi	a0,a0,1
     516:	00090703          	lb	a4,0(s2)
     51a:	0100                	addi	s0,sp,128
     51c:	1305                	addi	t1,t1,-31
     51e:	0306                	slli	t1,t1,0x1
     520:	0900                	addi	s0,sp,144
     522:	0000                	unimp
     524:	0501                	addi	a0,a0,0
     526:	0605                	addi	a2,a2,1
     528:	02090103          	lb	sp,32(s2)
     52c:	0100                	addi	s0,sp,128
     52e:	1305                	addi	t1,t1,-31
     530:	0306                	slli	t1,t1,0x1
     532:	0900                	addi	s0,sp,144
     534:	0000                	unimp
     536:	0501                	addi	a0,a0,0
     538:	0605                	addi	a2,a2,1
     53a:	02090103          	lb	sp,32(s2)
     53e:	0100                	addi	s0,sp,128
     540:	1305                	addi	t1,t1,-31
     542:	0306                	slli	t1,t1,0x1
     544:	0900                	addi	s0,sp,144
     546:	0000                	unimp
     548:	0501                	addi	a0,a0,0
     54a:	0605                	addi	a2,a2,1
     54c:	02090103          	lb	sp,32(s2)
     550:	0100                	addi	s0,sp,128
     552:	0204                	addi	s1,sp,256
     554:	0905                	addi	s2,s2,1
     556:	04097703          	0x4097703
     55a:	0100                	addi	s0,sp,128
     55c:	1305                	addi	t1,t1,-31
     55e:	0306                	slli	t1,t1,0x1
     560:	0900                	addi	s0,sp,144
     562:	0000                	unimp
     564:	0401                	addi	s0,s0,0
     566:	0501                	addi	a0,a0,0
     568:	060d                	addi	a2,a2,3
     56a:	06090503          	lb	a0,96(s2)
     56e:	0100                	addi	s0,sp,128
     570:	00090103          	lb	sp,0(s2)
     574:	0100                	addi	s0,sp,128
     576:	0f05                	addi	t5,t5,1
     578:	0306                	slli	t1,t1,0x1
     57a:	0900                	addi	s0,sp,144
     57c:	0000                	unimp
     57e:	0501                	addi	a0,a0,0
     580:	0314                	addi	a3,sp,384
     582:	0900                	addi	s0,sp,144
     584:	0004                	0x4
     586:	0501                	addi	a0,a0,0
     588:	0609                	addi	a2,a2,2
     58a:	08090203          	lb	tp,128(s2)
     58e:	0100                	addi	s0,sp,128
     590:	1105                	addi	sp,sp,-31
     592:	10090903          	lb	s2,256(s2)
     596:	0100                	addi	s0,sp,128
     598:	1505                	addi	a0,a0,-31
     59a:	00090103          	lb	sp,0(s2)
     59e:	0100                	addi	s0,sp,128
     5a0:	1f05                	addi	t5,t5,-31
     5a2:	0306                	slli	t1,t1,0x1
     5a4:	0900                	addi	s0,sp,144
     5a6:	0000                	unimp
     5a8:	0401                	addi	s0,s0,0
     5aa:	0502                	c.slli64	a0
     5ac:	0605                	addi	a2,a2,1
     5ae:	08090403          	lb	s0,128(s2)
     5b2:	0100                	addi	s0,sp,128
     5b4:	00090103          	lb	sp,0(s2)
     5b8:	0100                	addi	s0,sp,128
     5ba:	00090103          	lb	sp,0(s2)
     5be:	0100                	addi	s0,sp,128
     5c0:	00090203          	lb	tp,0(s2)
     5c4:	0100                	addi	s0,sp,128
     5c6:	0905                	addi	s2,s2,1
     5c8:	00090303          	lb	t1,0(s2)
     5cc:	0100                	addi	s0,sp,128
     5ce:	0505                	addi	a0,a0,1
     5d0:	00090303          	lb	t1,0(s2)
     5d4:	0100                	addi	s0,sp,128
     5d6:	0104                	addi	s1,sp,128
     5d8:	1f05                	addi	t5,t5,-31
     5da:	0306                	slli	t1,t1,0x1
     5dc:	0972                	slli	s2,s2,0x1c
     5de:	0000                	unimp
     5e0:	0401                	addi	s0,s0,0
     5e2:	0502                	c.slli64	a0
     5e4:	090e0307          	0x90e0307
     5e8:	0004                	0x4
     5ea:	0501                	addi	a0,a0,0
     5ec:	0605                	addi	a2,a2,1
     5ee:	02090103          	lb	sp,32(s2)
     5f2:	0100                	addi	s0,sp,128
     5f4:	0905                	addi	s2,s2,1
     5f6:	00090103          	lb	sp,0(s2)
     5fa:	0100                	addi	s0,sp,128
     5fc:	0e05                	addi	t3,t3,1
     5fe:	0306                	slli	t1,t1,0x1
     600:	0900                	addi	s0,sp,144
     602:	0002                	c.slli64	zero
     604:	0501                	addi	a0,a0,0
     606:	031d                	addi	t1,t1,7
     608:	0900                	addi	s0,sp,144
     60a:	0002                	c.slli64	zero
     60c:	0501                	addi	a0,a0,0
     60e:	031a                	slli	t1,t1,0x6
     610:	0900                	addi	s0,sp,144
     612:	0004                	0x4
     614:	0501                	addi	a0,a0,0
     616:	0312                	slli	t1,t1,0x4
     618:	0900                	addi	s0,sp,144
     61a:	0002                	c.slli64	zero
     61c:	0501                	addi	a0,a0,0
     61e:	0619                	addi	a2,a2,6
     620:	08090103          	lb	sp,128(s2)
     624:	0100                	addi	s0,sp,128
     626:	1005                	c.nop	-31
     628:	0306                	slli	t1,t1,0x1
     62a:	0900                	addi	s0,sp,144
     62c:	0002                	c.slli64	zero
     62e:	0501                	addi	a0,a0,0
     630:	0319                	addi	t1,t1,6
     632:	0900                	addi	s0,sp,144
     634:	0002                	c.slli64	zero
     636:	0501                	addi	a0,a0,0
     638:	0610                	addi	a2,sp,768
     63a:	06090603          	lb	a2,96(s2)
     63e:	0100                	addi	s0,sp,128
     640:	0104                	addi	s1,sp,128
     642:	0905                	addi	s2,s2,1
     644:	0306                	slli	t1,t1,0x1
     646:	095f 0020 0501      	0x5010020095f
     64c:	0611                	addi	a2,a2,4
     64e:	04091503          	lh	a0,64(s2)
     652:	0100                	addi	s0,sp,128
     654:	0204                	addi	s1,sp,256
     656:	0505                	addi	a0,a0,1
     658:	00096803          	lwu	a6,0(s2)
     65c:	0100                	addi	s0,sp,128
     65e:	1b05                	addi	s6,s6,-31
     660:	0306                	slli	t1,t1,0x1
     662:	0900                	addi	s0,sp,144
     664:	0000                	unimp
     666:	0501                	addi	a0,a0,0
     668:	031f 0900 000c      	0xc0900031f
     66e:	0501                	addi	a0,a0,0
     670:	0605                	addi	a2,a2,1
     672:	06090103          	lb	sp,96(s2)
     676:	0100                	addi	s0,sp,128
     678:	0905                	addi	s2,s2,1
     67a:	00090103          	lb	sp,0(s2)
     67e:	0100                	addi	s0,sp,128
     680:	0505                	addi	a0,a0,1
     682:	00097703          	0x97703
     686:	0100                	addi	s0,sp,128
     688:	0805                	addi	a6,a6,1
     68a:	0306                	slli	t1,t1,0x1
     68c:	0900                	addi	s0,sp,144
     68e:	0002                	c.slli64	zero
     690:	0501                	addi	a0,a0,0
     692:	0609                	addi	a2,a2,2
     694:	04090103          	lb	sp,64(s2)
     698:	0100                	addi	s0,sp,128
     69a:	0304                	addi	s1,sp,384
     69c:	0505                	addi	a0,a0,1
     69e:	00090703          	lb	a4,0(s2)
     6a2:	0100                	addi	s0,sp,128
     6a4:	1305                	addi	t1,t1,-31
     6a6:	0306                	slli	t1,t1,0x1
     6a8:	0900                	addi	s0,sp,144
     6aa:	0000                	unimp
     6ac:	0501                	addi	a0,a0,0
     6ae:	0605                	addi	a2,a2,1
     6b0:	02090103          	lb	sp,32(s2)
     6b4:	0100                	addi	s0,sp,128
     6b6:	1305                	addi	t1,t1,-31
     6b8:	0306                	slli	t1,t1,0x1
     6ba:	0900                	addi	s0,sp,144
     6bc:	0000                	unimp
     6be:	0501                	addi	a0,a0,0
     6c0:	0605                	addi	a2,a2,1
     6c2:	02090103          	lb	sp,32(s2)
     6c6:	0100                	addi	s0,sp,128
     6c8:	1305                	addi	t1,t1,-31
     6ca:	0306                	slli	t1,t1,0x1
     6cc:	0900                	addi	s0,sp,144
     6ce:	0000                	unimp
     6d0:	0501                	addi	a0,a0,0
     6d2:	0605                	addi	a2,a2,1
     6d4:	02090103          	lb	sp,32(s2)
     6d8:	0100                	addi	s0,sp,128
     6da:	0204                	addi	s1,sp,256
     6dc:	0905                	addi	s2,s2,1
     6de:	04097703          	0x4097703
     6e2:	0100                	addi	s0,sp,128
     6e4:	1305                	addi	t1,t1,-31
     6e6:	0306                	slli	t1,t1,0x1
     6e8:	0900                	addi	s0,sp,144
     6ea:	0000                	unimp
     6ec:	0401                	addi	s0,s0,0
     6ee:	0501                	addi	a0,a0,0
     6f0:	0611                	addi	a2,a2,4
     6f2:	06090a03          	lb	s4,96(s2)
     6f6:	0100                	addi	s0,sp,128
     6f8:	1505                	addi	a0,a0,-31
     6fa:	00090103          	lb	sp,0(s2)
     6fe:	0100                	addi	s0,sp,128
     700:	0204                	addi	s1,sp,256
     702:	0505                	addi	a0,a0,1
     704:	08090b03          	lb	s6,128(s2)
     708:	0100                	addi	s0,sp,128
     70a:	00090103          	lb	sp,0(s2)
     70e:	0100                	addi	s0,sp,128
     710:	00090103          	lb	sp,0(s2)
     714:	0100                	addi	s0,sp,128
     716:	00090203          	lb	tp,0(s2)
     71a:	0100                	addi	s0,sp,128
     71c:	0d05                	addi	s10,s10,1
     71e:	0306                	slli	t1,t1,0x1
     720:	0901                	addi	s2,s2,0
     722:	0000                	unimp
     724:	0401                	addi	s0,s0,0
     726:	0501                	addi	a0,a0,0
     728:	030c                	addi	a1,sp,384
     72a:	095f 000a 0401      	0x401000a095f
     730:	0502                	c.slli64	a0
     732:	0605                	addi	a2,a2,1
     734:	06092703          	lw	a4,96(s2)
     738:	0100                	addi	s0,sp,128
     73a:	0905                	addi	s2,s2,1
     73c:	00090103          	lb	sp,0(s2)
     740:	0100                	addi	s0,sp,128
     742:	0e05                	addi	t3,t3,1
     744:	0306                	slli	t1,t1,0x1
     746:	0900                	addi	s0,sp,144
     748:	0002                	c.slli64	zero
     74a:	0501                	addi	a0,a0,0
     74c:	031d                	addi	t1,t1,7
     74e:	0900                	addi	s0,sp,144
     750:	0002                	c.slli64	zero
     752:	0501                	addi	a0,a0,0
     754:	031a                	slli	t1,t1,0x6
     756:	0900                	addi	s0,sp,144
     758:	0004                	0x4
     75a:	0501                	addi	a0,a0,0
     75c:	0312                	slli	t1,t1,0x4
     75e:	0900                	addi	s0,sp,144
     760:	0002                	c.slli64	zero
     762:	0501                	addi	a0,a0,0
     764:	0619                	addi	a2,a2,6
     766:	08090103          	lb	sp,128(s2)
     76a:	0100                	addi	s0,sp,128
     76c:	1005                	c.nop	-31
     76e:	0306                	slli	t1,t1,0x1
     770:	0900                	addi	s0,sp,144
     772:	0002                	c.slli64	zero
     774:	0501                	addi	a0,a0,0
     776:	0319                	addi	t1,t1,6
     778:	0900                	addi	s0,sp,144
     77a:	0004                	0x4
     77c:	0501                	addi	a0,a0,0
     77e:	0605                	addi	a2,a2,1
     780:	06090203          	lb	tp,96(s2)
     784:	0100                	addi	s0,sp,128
     786:	0805                	addi	a6,a6,1
     788:	0306                	slli	t1,t1,0x1
     78a:	0900                	addi	s0,sp,144
     78c:	0000                	unimp
     78e:	0501                	addi	a0,a0,0
     790:	0609                	addi	a2,a2,2
     792:	04090103          	lb	sp,64(s2)
     796:	0100                	addi	s0,sp,128
     798:	1205                	addi	tp,tp,-31
     79a:	0306                	slli	t1,t1,0x1
     79c:	0900                	addi	s0,sp,144
     79e:	0000                	unimp
     7a0:	0501                	addi	a0,a0,0
     7a2:	030e                	slli	t1,t1,0x3
     7a4:	0900                	addi	s0,sp,144
     7a6:	000c                	0xc
     7a8:	0501                	addi	a0,a0,0
     7aa:	0610                	addi	a2,sp,768
     7ac:	04090303          	lb	t1,64(s2)
     7b0:	0100                	addi	s0,sp,128
     7b2:	0905                	addi	s2,s2,1
     7b4:	20095603          	lhu	a2,512(s2)
     7b8:	0100                	addi	s0,sp,128
     7ba:	0304                	addi	s1,sp,384
     7bc:	0505                	addi	a0,a0,1
     7be:	00090703          	lb	a4,0(s2)
     7c2:	0100                	addi	s0,sp,128
     7c4:	1305                	addi	t1,t1,-31
     7c6:	0306                	slli	t1,t1,0x1
     7c8:	0900                	addi	s0,sp,144
     7ca:	0000                	unimp
     7cc:	0501                	addi	a0,a0,0
     7ce:	0605                	addi	a2,a2,1
     7d0:	02090103          	lb	sp,32(s2)
     7d4:	0100                	addi	s0,sp,128
     7d6:	1305                	addi	t1,t1,-31
     7d8:	0306                	slli	t1,t1,0x1
     7da:	0900                	addi	s0,sp,144
     7dc:	0000                	unimp
     7de:	0501                	addi	a0,a0,0
     7e0:	0605                	addi	a2,a2,1
     7e2:	02090103          	lb	sp,32(s2)
     7e6:	0100                	addi	s0,sp,128
     7e8:	1305                	addi	t1,t1,-31
     7ea:	0306                	slli	t1,t1,0x1
     7ec:	0900                	addi	s0,sp,144
     7ee:	0000                	unimp
     7f0:	0501                	addi	a0,a0,0
     7f2:	0605                	addi	a2,a2,1
     7f4:	02090103          	lb	sp,32(s2)
     7f8:	0100                	addi	s0,sp,128
     7fa:	0204                	addi	s1,sp,256
     7fc:	0905                	addi	s2,s2,1
     7fe:	04097703          	0x4097703
     802:	0100                	addi	s0,sp,128
     804:	1305                	addi	t1,t1,-31
     806:	0306                	slli	t1,t1,0x1
     808:	0900                	addi	s0,sp,144
     80a:	0000                	unimp
     80c:	0501                	addi	a0,a0,0
     80e:	0610                	addi	a2,sp,768
     810:	04092903          	lw	s2,64(s2)
     814:	0100                	addi	s0,sp,128
     816:	0905                	addi	s2,s2,1
     818:	06090103          	lb	sp,96(s2)
     81c:	0100                	addi	s0,sp,128
     81e:	0505                	addi	a0,a0,1
     820:	04095b03          	lhu	s6,64(s2)
     824:	0100                	addi	s0,sp,128
     826:	1b05                	addi	s6,s6,-31
     828:	0306                	slli	t1,t1,0x1
     82a:	0900                	addi	s0,sp,144
     82c:	0000                	unimp
     82e:	0501                	addi	a0,a0,0
     830:	031f 0900 000e      	0xe0900031f
     836:	0501                	addi	a0,a0,0
     838:	0605                	addi	a2,a2,1
     83a:	06090103          	lb	sp,96(s2)
     83e:	0100                	addi	s0,sp,128
     840:	0905                	addi	s2,s2,1
     842:	00090103          	lb	sp,0(s2)
     846:	0100                	addi	s0,sp,128
     848:	0505                	addi	a0,a0,1
     84a:	00097703          	0x97703
     84e:	0100                	addi	s0,sp,128
     850:	0805                	addi	a6,a6,1
     852:	0306                	slli	t1,t1,0x1
     854:	0900                	addi	s0,sp,144
     856:	0000                	unimp
     858:	0401                	addi	s0,s0,0
     85a:	0501                	addi	a0,a0,0
     85c:	0315                	addi	t1,t1,5
     85e:	090d                	addi	s2,s2,3
     860:	0006                	c.slli	zero,0x1
     862:	0501                	addi	a0,a0,0
     864:	097b030f          	0x97b030f
     868:	0002                	c.slli64	zero
     86a:	0401                	addi	s0,s0,0
     86c:	0502                	c.slli64	a0
     86e:	0301                	addi	t1,t1,0
     870:	0926                	slli	s2,s2,0x9
     872:	0002                	c.slli64	zero
     874:	0501                	addi	a0,a0,0
     876:	0609                	addi	a2,a2,2
     878:	02095303          	lhu	t1,32(s2)
     87c:	0100                	addi	s0,sp,128
     87e:	0304                	addi	s1,sp,384
     880:	0505                	addi	a0,a0,1
     882:	00090703          	lb	a4,0(s2)
     886:	0100                	addi	s0,sp,128
     888:	1305                	addi	t1,t1,-31
     88a:	0306                	slli	t1,t1,0x1
     88c:	0900                	addi	s0,sp,144
     88e:	0000                	unimp
     890:	0501                	addi	a0,a0,0
     892:	0605                	addi	a2,a2,1
     894:	02090103          	lb	sp,32(s2)
     898:	0100                	addi	s0,sp,128
     89a:	1305                	addi	t1,t1,-31
     89c:	0306                	slli	t1,t1,0x1
     89e:	0900                	addi	s0,sp,144
     8a0:	0000                	unimp
     8a2:	0501                	addi	a0,a0,0
     8a4:	0605                	addi	a2,a2,1
     8a6:	02090103          	lb	sp,32(s2)
     8aa:	0100                	addi	s0,sp,128
     8ac:	1305                	addi	t1,t1,-31
     8ae:	0306                	slli	t1,t1,0x1
     8b0:	0900                	addi	s0,sp,144
     8b2:	0000                	unimp
     8b4:	0501                	addi	a0,a0,0
     8b6:	0605                	addi	a2,a2,1
     8b8:	02090103          	lb	sp,32(s2)
     8bc:	0100                	addi	s0,sp,128
     8be:	0204                	addi	s1,sp,256
     8c0:	0905                	addi	s2,s2,1
     8c2:	04097703          	0x4097703
     8c6:	0100                	addi	s0,sp,128
     8c8:	1305                	addi	t1,t1,-31
     8ca:	0306                	slli	t1,t1,0x1
     8cc:	0900                	addi	s0,sp,144
     8ce:	0000                	unimp
     8d0:	0501                	addi	a0,a0,0
     8d2:	0610                	addi	a2,sp,768
     8d4:	04092903          	lw	s2,64(s2)
     8d8:	0100                	addi	s0,sp,128
     8da:	0905                	addi	s2,s2,1
     8dc:	06090103          	lb	sp,96(s2)
     8e0:	0100                	addi	s0,sp,128
     8e2:	0505                	addi	a0,a0,1
     8e4:	04095b03          	lhu	s6,64(s2)
     8e8:	0100                	addi	s0,sp,128
     8ea:	1b05                	addi	s6,s6,-31
     8ec:	0306                	slli	t1,t1,0x1
     8ee:	0900                	addi	s0,sp,144
     8f0:	0000                	unimp
     8f2:	0501                	addi	a0,a0,0
     8f4:	031f 0900 000e      	0xe0900031f
     8fa:	0501                	addi	a0,a0,0
     8fc:	0605                	addi	a2,a2,1
     8fe:	06090103          	lb	sp,96(s2)
     902:	0100                	addi	s0,sp,128
     904:	0905                	addi	s2,s2,1
     906:	00090103          	lb	sp,0(s2)
     90a:	0100                	addi	s0,sp,128
     90c:	0505                	addi	a0,a0,1
     90e:	00097703          	0x97703
     912:	0100                	addi	s0,sp,128
     914:	0805                	addi	a6,a6,1
     916:	0306                	slli	t1,t1,0x1
     918:	0900                	addi	s0,sp,144
     91a:	0000                	unimp
     91c:	0401                	addi	s0,s0,0
     91e:	0501                	addi	a0,a0,0
     920:	0325                	addi	t1,t1,9
     922:	0006090f          	0x6090f
     926:	0501                	addi	a0,a0,0
     928:	0975030b          	0x975030b
     92c:	0002                	c.slli64	zero
     92e:	0401                	addi	s0,s0,0
     930:	0502                	c.slli64	a0
     932:	0301                	addi	t1,t1,0
     934:	092a                	slli	s2,s2,0xa
     936:	0002                	c.slli64	zero
     938:	0501                	addi	a0,a0,0
     93a:	0609                	addi	a2,a2,2
     93c:	02095303          	lhu	t1,32(s2)
     940:	0100                	addi	s0,sp,128
     942:	0304                	addi	s1,sp,384
     944:	0505                	addi	a0,a0,1
     946:	00090703          	lb	a4,0(s2)
     94a:	0100                	addi	s0,sp,128
     94c:	1305                	addi	t1,t1,-31
     94e:	0306                	slli	t1,t1,0x1
     950:	0900                	addi	s0,sp,144
     952:	0000                	unimp
     954:	0501                	addi	a0,a0,0
     956:	0605                	addi	a2,a2,1
     958:	02090103          	lb	sp,32(s2)
     95c:	0100                	addi	s0,sp,128
     95e:	1305                	addi	t1,t1,-31
     960:	0306                	slli	t1,t1,0x1
     962:	0900                	addi	s0,sp,144
     964:	0000                	unimp
     966:	0501                	addi	a0,a0,0
     968:	0605                	addi	a2,a2,1
     96a:	02090103          	lb	sp,32(s2)
     96e:	0100                	addi	s0,sp,128
     970:	1305                	addi	t1,t1,-31
     972:	0306                	slli	t1,t1,0x1
     974:	0900                	addi	s0,sp,144
     976:	0000                	unimp
     978:	0501                	addi	a0,a0,0
     97a:	0605                	addi	a2,a2,1
     97c:	02090103          	lb	sp,32(s2)
     980:	0100                	addi	s0,sp,128
     982:	0204                	addi	s1,sp,256
     984:	0905                	addi	s2,s2,1
     986:	04097703          	0x4097703
     98a:	0100                	addi	s0,sp,128
     98c:	1305                	addi	t1,t1,-31
     98e:	0306                	slli	t1,t1,0x1
     990:	0900                	addi	s0,sp,144
     992:	0000                	unimp
     994:	0501                	addi	a0,a0,0
     996:	0610                	addi	a2,sp,768
     998:	04092903          	lw	s2,64(s2)
     99c:	0100                	addi	s0,sp,128
     99e:	0905                	addi	s2,s2,1
     9a0:	06090103          	lb	sp,96(s2)
     9a4:	0100                	addi	s0,sp,128
     9a6:	0505                	addi	a0,a0,1
     9a8:	04095b03          	lhu	s6,64(s2)
     9ac:	0100                	addi	s0,sp,128
     9ae:	1b05                	addi	s6,s6,-31
     9b0:	0306                	slli	t1,t1,0x1
     9b2:	0900                	addi	s0,sp,144
     9b4:	0000                	unimp
     9b6:	0501                	addi	a0,a0,0
     9b8:	031f 0900 000e      	0xe0900031f
     9be:	0501                	addi	a0,a0,0
     9c0:	0605                	addi	a2,a2,1
     9c2:	06090103          	lb	sp,96(s2)
     9c6:	0100                	addi	s0,sp,128
     9c8:	0905                	addi	s2,s2,1
     9ca:	00090103          	lb	sp,0(s2)
     9ce:	0100                	addi	s0,sp,128
     9d0:	0505                	addi	a0,a0,1
     9d2:	00097703          	0x97703
     9d6:	0100                	addi	s0,sp,128
     9d8:	0805                	addi	a6,a6,1
     9da:	0306                	slli	t1,t1,0x1
     9dc:	0900                	addi	s0,sp,144
     9de:	0000                	unimp
     9e0:	0501                	addi	a0,a0,0
     9e2:	0301                	addi	t1,t1,0
     9e4:	092e                	slli	s2,s2,0xb
     9e6:	0006                	c.slli	zero,0x1
     9e8:	0501                	addi	a0,a0,0
     9ea:	0609                	addi	a2,a2,2
     9ec:	04095303          	lhu	t1,64(s2)
     9f0:	0100                	addi	s0,sp,128
     9f2:	0304                	addi	s1,sp,384
     9f4:	0505                	addi	a0,a0,1
     9f6:	00090703          	lb	a4,0(s2)
     9fa:	0100                	addi	s0,sp,128
     9fc:	1305                	addi	t1,t1,-31
     9fe:	0306                	slli	t1,t1,0x1
     a00:	0900                	addi	s0,sp,144
     a02:	0000                	unimp
     a04:	0501                	addi	a0,a0,0
     a06:	0605                	addi	a2,a2,1
     a08:	02090103          	lb	sp,32(s2)
     a0c:	0100                	addi	s0,sp,128
     a0e:	1305                	addi	t1,t1,-31
     a10:	0306                	slli	t1,t1,0x1
     a12:	0900                	addi	s0,sp,144
     a14:	0000                	unimp
     a16:	0501                	addi	a0,a0,0
     a18:	0605                	addi	a2,a2,1
     a1a:	02090103          	lb	sp,32(s2)
     a1e:	0100                	addi	s0,sp,128
     a20:	1305                	addi	t1,t1,-31
     a22:	0306                	slli	t1,t1,0x1
     a24:	0900                	addi	s0,sp,144
     a26:	0000                	unimp
     a28:	0501                	addi	a0,a0,0
     a2a:	0605                	addi	a2,a2,1
     a2c:	02090103          	lb	sp,32(s2)
     a30:	0100                	addi	s0,sp,128
     a32:	0204                	addi	s1,sp,256
     a34:	0905                	addi	s2,s2,1
     a36:	04097703          	0x4097703
     a3a:	0100                	addi	s0,sp,128
     a3c:	1305                	addi	t1,t1,-31
     a3e:	0306                	slli	t1,t1,0x1
     a40:	0900                	addi	s0,sp,144
     a42:	0000                	unimp
     a44:	0501                	addi	a0,a0,0
     a46:	0610                	addi	a2,sp,768
     a48:	04092903          	lw	s2,64(s2)
     a4c:	0100                	addi	s0,sp,128
     a4e:	0905                	addi	s2,s2,1
     a50:	06090103          	lb	sp,96(s2)
     a54:	0100                	addi	s0,sp,128
     a56:	0505                	addi	a0,a0,1
     a58:	04095b03          	lhu	s6,64(s2)
     a5c:	0100                	addi	s0,sp,128
     a5e:	1b05                	addi	s6,s6,-31
     a60:	0306                	slli	t1,t1,0x1
     a62:	0900                	addi	s0,sp,144
     a64:	0000                	unimp
     a66:	0501                	addi	a0,a0,0
     a68:	031f 0900 000e      	0xe0900031f
     a6e:	0501                	addi	a0,a0,0
     a70:	0605                	addi	a2,a2,1
     a72:	06090103          	lb	sp,96(s2)
     a76:	0100                	addi	s0,sp,128
     a78:	0905                	addi	s2,s2,1
     a7a:	00090103          	lb	sp,0(s2)
     a7e:	0100                	addi	s0,sp,128
     a80:	0505                	addi	a0,a0,1
     a82:	00097703          	0x97703
     a86:	0100                	addi	s0,sp,128
     a88:	0805                	addi	a6,a6,1
     a8a:	0306                	slli	t1,t1,0x1
     a8c:	0900                	addi	s0,sp,144
     a8e:	0000                	unimp
     a90:	0501                	addi	a0,a0,0
     a92:	0301                	addi	t1,t1,0
     a94:	092e                	slli	s2,s2,0xb
     a96:	0006                	c.slli	zero,0x1
     a98:	0401                	addi	s0,s0,0
     a9a:	0501                	addi	a0,a0,0
     a9c:	0309                	addi	t1,t1,2
     a9e:	095c                	addi	a5,sp,148
     aa0:	0004                	0x4
     aa2:	0501                	addi	a0,a0,0
     aa4:	0611                	addi	a2,a2,4
     aa6:	0a090f03          	lb	t5,160(s2)
     aaa:	0100                	addi	s0,sp,128
     aac:	1805                	addi	a6,a6,-31
     aae:	0306                	slli	t1,t1,0x1
     ab0:	0900                	addi	s0,sp,144
     ab2:	0000                	unimp
     ab4:	0501                	addi	a0,a0,0
     ab6:	0314                	addi	a3,sp,384
     ab8:	0900                	addi	s0,sp,144
     aba:	0006                	c.slli	zero,0x1
     abc:	0401                	addi	s0,s0,0
     abe:	0502                	c.slli64	a0
     ac0:	060c                	addi	a1,sp,768
     ac2:	02097503          	0x2097503
     ac6:	0100                	addi	s0,sp,128
     ac8:	0104                	addi	s1,sp,128
     aca:	1705                	addi	a4,a4,-31
     acc:	0306                	slli	t1,t1,0x1
     ace:	090c                	addi	a1,sp,144
     ad0:	000c                	0xc
     ad2:	0401                	addi	s0,s0,0
     ad4:	0502                	c.slli64	a0
     ad6:	030c                	addi	a1,sp,384
     ad8:	0974                	addi	a3,sp,156
     ada:	0002                	c.slli64	zero
     adc:	0501                	addi	a0,a0,0
     ade:	0609                	addi	a2,a2,2
     ae0:	06090303          	lb	t1,96(s2)
     ae4:	0100                	addi	s0,sp,128
     ae6:	1b05                	addi	s6,s6,-31
     ae8:	0306                	slli	t1,t1,0x1
     aea:	0900                	addi	s0,sp,144
     aec:	0000                	unimp
     aee:	0501                	addi	a0,a0,0
     af0:	0309                	addi	t1,t1,2
     af2:	0900                	addi	s0,sp,144
     af4:	0002                	c.slli64	zero
     af6:	0501                	addi	a0,a0,0
     af8:	0605                	addi	a2,a2,1
     afa:	04097603          	0x4097603
     afe:	0100                	addi	s0,sp,128
     b00:	1b05                	addi	s6,s6,-31
     b02:	0306                	slli	t1,t1,0x1
     b04:	0900                	addi	s0,sp,144
     b06:	0000                	unimp
     b08:	0501                	addi	a0,a0,0
     b0a:	031f 0900 000e      	0xe0900031f
     b10:	0501                	addi	a0,a0,0
     b12:	0605                	addi	a2,a2,1
     b14:	06090103          	lb	sp,96(s2)
     b18:	0100                	addi	s0,sp,128
     b1a:	0905                	addi	s2,s2,1
     b1c:	00090103          	lb	sp,0(s2)
     b20:	0100                	addi	s0,sp,128
     b22:	0505                	addi	a0,a0,1
     b24:	00097703          	0x97703
     b28:	0100                	addi	s0,sp,128
     b2a:	0805                	addi	a6,a6,1
     b2c:	0306                	slli	t1,t1,0x1
     b2e:	0900                	addi	s0,sp,144
     b30:	0000                	unimp
     b32:	0501                	addi	a0,a0,0
     b34:	060c                	addi	a1,sp,768
     b36:	04090e03          	lb	t3,64(s2)
     b3a:	0100                	addi	s0,sp,128
     b3c:	0905                	addi	s2,s2,1
     b3e:	0a090103          	lb	sp,160(s2)
     b42:	0100                	addi	s0,sp,128
     b44:	0c05                	addi	s8,s8,1
     b46:	0306                	slli	t1,t1,0x1
     b48:	0900                	addi	s0,sp,144
     b4a:	0000                	unimp
     b4c:	0501                	addi	a0,a0,0
     b4e:	060d                	addi	a2,a2,3
     b50:	04090103          	lb	sp,64(s2)
     b54:	0100                	addi	s0,sp,128
     b56:	0505                	addi	a0,a0,1
     b58:	00097703          	0x97703
     b5c:	0100                	addi	s0,sp,128
     b5e:	1b05                	addi	s6,s6,-31
     b60:	0306                	slli	t1,t1,0x1
     b62:	0900                	addi	s0,sp,144
     b64:	0000                	unimp
     b66:	0501                	addi	a0,a0,0
     b68:	031f 0900 000c      	0xc0900031f
     b6e:	0501                	addi	a0,a0,0
     b70:	0605                	addi	a2,a2,1
     b72:	06090103          	lb	sp,96(s2)
     b76:	0100                	addi	s0,sp,128
     b78:	0905                	addi	s2,s2,1
     b7a:	00090103          	lb	sp,0(s2)
     b7e:	0100                	addi	s0,sp,128
     b80:	0505                	addi	a0,a0,1
     b82:	00097703          	0x97703
     b86:	0100                	addi	s0,sp,128
     b88:	0805                	addi	a6,a6,1
     b8a:	0306                	slli	t1,t1,0x1
     b8c:	0900                	addi	s0,sp,144
     b8e:	0000                	unimp
     b90:	0501                	addi	a0,a0,0
     b92:	0609                	addi	a2,a2,2
     b94:	04090103          	lb	sp,64(s2)
     b98:	0100                	addi	s0,sp,128
     b9a:	0304                	addi	s1,sp,384
     b9c:	0505                	addi	a0,a0,1
     b9e:	00090703          	lb	a4,0(s2)
     ba2:	0100                	addi	s0,sp,128
     ba4:	1305                	addi	t1,t1,-31
     ba6:	0306                	slli	t1,t1,0x1
     ba8:	0900                	addi	s0,sp,144
     baa:	0000                	unimp
     bac:	0501                	addi	a0,a0,0
     bae:	0605                	addi	a2,a2,1
     bb0:	02090103          	lb	sp,32(s2)
     bb4:	0100                	addi	s0,sp,128
     bb6:	1305                	addi	t1,t1,-31
     bb8:	0306                	slli	t1,t1,0x1
     bba:	0900                	addi	s0,sp,144
     bbc:	0000                	unimp
     bbe:	0501                	addi	a0,a0,0
     bc0:	0605                	addi	a2,a2,1
     bc2:	02090103          	lb	sp,32(s2)
     bc6:	0100                	addi	s0,sp,128
     bc8:	1305                	addi	t1,t1,-31
     bca:	0306                	slli	t1,t1,0x1
     bcc:	0900                	addi	s0,sp,144
     bce:	0000                	unimp
     bd0:	0501                	addi	a0,a0,0
     bd2:	0605                	addi	a2,a2,1
     bd4:	02090103          	lb	sp,32(s2)
     bd8:	0100                	addi	s0,sp,128
     bda:	0204                	addi	s1,sp,256
     bdc:	0905                	addi	s2,s2,1
     bde:	04097703          	0x4097703
     be2:	0100                	addi	s0,sp,128
     be4:	00090f03          	lb	t5,0(s2)
     be8:	0100                	addi	s0,sp,128
     bea:	1b05                	addi	s6,s6,-31
     bec:	0306                	slli	t1,t1,0x1
     bee:	0900                	addi	s0,sp,144
     bf0:	0000                	unimp
     bf2:	0501                	addi	a0,a0,0
     bf4:	0309                	addi	t1,t1,2
     bf6:	0900                	addi	s0,sp,144
     bf8:	0002                	c.slli64	zero
     bfa:	0501                	addi	a0,a0,0
     bfc:	0605                	addi	a2,a2,1
     bfe:	04097603          	0x4097603
     c02:	0100                	addi	s0,sp,128
     c04:	1b05                	addi	s6,s6,-31
     c06:	0306                	slli	t1,t1,0x1
     c08:	0900                	addi	s0,sp,144
     c0a:	0000                	unimp
     c0c:	0501                	addi	a0,a0,0
     c0e:	031f 0900 0004      	0x40900031f
     c14:	0501                	addi	a0,a0,0
     c16:	0605                	addi	a2,a2,1
     c18:	04090103          	lb	sp,64(s2)
     c1c:	0100                	addi	s0,sp,128
     c1e:	0905                	addi	s2,s2,1
     c20:	00090103          	lb	sp,0(s2)
     c24:	0100                	addi	s0,sp,128
     c26:	0505                	addi	a0,a0,1
     c28:	00097703          	0x97703
     c2c:	0100                	addi	s0,sp,128
     c2e:	0905                	addi	s2,s2,1
     c30:	02090103          	lb	sp,32(s2)
     c34:	0100                	addi	s0,sp,128
     c36:	0304                	addi	s1,sp,384
     c38:	0505                	addi	a0,a0,1
     c3a:	00090703          	lb	a4,0(s2)
     c3e:	0100                	addi	s0,sp,128
     c40:	1305                	addi	t1,t1,-31
     c42:	0306                	slli	t1,t1,0x1
     c44:	0900                	addi	s0,sp,144
     c46:	0000                	unimp
     c48:	0501                	addi	a0,a0,0
     c4a:	0605                	addi	a2,a2,1
     c4c:	02090103          	lb	sp,32(s2)
     c50:	0100                	addi	s0,sp,128
     c52:	1305                	addi	t1,t1,-31
     c54:	0306                	slli	t1,t1,0x1
     c56:	0900                	addi	s0,sp,144
     c58:	0000                	unimp
     c5a:	0501                	addi	a0,a0,0
     c5c:	0605                	addi	a2,a2,1
     c5e:	02090103          	lb	sp,32(s2)
     c62:	0100                	addi	s0,sp,128
     c64:	1305                	addi	t1,t1,-31
     c66:	0306                	slli	t1,t1,0x1
     c68:	0900                	addi	s0,sp,144
     c6a:	0000                	unimp
     c6c:	0501                	addi	a0,a0,0
     c6e:	0605                	addi	a2,a2,1
     c70:	02090103          	lb	sp,32(s2)
     c74:	0100                	addi	s0,sp,128
     c76:	0204                	addi	s1,sp,256
     c78:	0905                	addi	s2,s2,1
     c7a:	04097703          	0x4097703
     c7e:	0100                	addi	s0,sp,128
     c80:	1305                	addi	t1,t1,-31
     c82:	0306                	slli	t1,t1,0x1
     c84:	0900                	addi	s0,sp,144
     c86:	0000                	unimp
     c88:	0401                	addi	s0,s0,0
     c8a:	0501                	addi	a0,a0,0
     c8c:	0906030f          	0x906030f
     c90:	0006                	c.slli	zero,0x1
     c92:	0501                	addi	a0,a0,0
     c94:	0611                	addi	a2,a2,4
     c96:	02091a03          	lh	s4,32(s2)
     c9a:	0100                	addi	s0,sp,128
     c9c:	0204                	addi	s1,sp,256
     c9e:	0505                	addi	a0,a0,1
     ca0:	00096503          	lwu	a0,0(s2)
     ca4:	0100                	addi	s0,sp,128
     ca6:	1b05                	addi	s6,s6,-31
     ca8:	0306                	slli	t1,t1,0x1
     caa:	0900                	addi	s0,sp,144
     cac:	0000                	unimp
     cae:	0501                	addi	a0,a0,0
     cb0:	031f 0900 0006      	0x60900031f
     cb6:	0501                	addi	a0,a0,0
     cb8:	0605                	addi	a2,a2,1
     cba:	08090103          	lb	sp,128(s2)
     cbe:	0100                	addi	s0,sp,128
     cc0:	0905                	addi	s2,s2,1
     cc2:	00090103          	lb	sp,0(s2)
     cc6:	0100                	addi	s0,sp,128
     cc8:	0505                	addi	a0,a0,1
     cca:	00097703          	0x97703
     cce:	0100                	addi	s0,sp,128
     cd0:	0805                	addi	a6,a6,1
     cd2:	0306                	slli	t1,t1,0x1
     cd4:	0900                	addi	s0,sp,144
     cd6:	0000                	unimp
     cd8:	0401                	addi	s0,s0,0
     cda:	0501                	addi	a0,a0,0
     cdc:	0611                	addi	a2,a2,4
     cde:	04092303          	lw	t1,64(s2)
     ce2:	0100                	addi	s0,sp,128
     ce4:	0204                	addi	s1,sp,256
     ce6:	0505                	addi	a0,a0,1
     ce8:	00096403          	lwu	s0,0(s2)
     cec:	0100                	addi	s0,sp,128
     cee:	1b05                	addi	s6,s6,-31
     cf0:	0306                	slli	t1,t1,0x1
     cf2:	0900                	addi	s0,sp,144
     cf4:	0000                	unimp
     cf6:	0501                	addi	a0,a0,0
     cf8:	031f 0900 0008      	0x80900031f
     cfe:	0401                	addi	s0,s0,0
     d00:	0501                	addi	a0,a0,0
     d02:	0311                	addi	t1,t1,4
     d04:	091c                	addi	a5,sp,144
     d06:	0002                	c.slli64	zero
     d08:	0401                	addi	s0,s0,0
     d0a:	0502                	c.slli64	a0
     d0c:	0605                	addi	a2,a2,1
     d0e:	04096503          	lwu	a0,64(s2)
     d12:	0100                	addi	s0,sp,128
     d14:	0905                	addi	s2,s2,1
     d16:	00090103          	lb	sp,0(s2)
     d1a:	0100                	addi	s0,sp,128
     d1c:	0505                	addi	a0,a0,1
     d1e:	00097703          	0x97703
     d22:	0100                	addi	s0,sp,128
     d24:	0805                	addi	a6,a6,1
     d26:	0306                	slli	t1,t1,0x1
     d28:	0900                	addi	s0,sp,144
     d2a:	0002                	c.slli64	zero
     d2c:	0501                	addi	a0,a0,0
     d2e:	0609                	addi	a2,a2,2
     d30:	04090103          	lb	sp,64(s2)
     d34:	0100                	addi	s0,sp,128
     d36:	0304                	addi	s1,sp,384
     d38:	0505                	addi	a0,a0,1
     d3a:	00090703          	lb	a4,0(s2)
     d3e:	0100                	addi	s0,sp,128
     d40:	1305                	addi	t1,t1,-31
     d42:	0306                	slli	t1,t1,0x1
     d44:	0900                	addi	s0,sp,144
     d46:	0000                	unimp
     d48:	0501                	addi	a0,a0,0
     d4a:	0605                	addi	a2,a2,1
     d4c:	02090103          	lb	sp,32(s2)
     d50:	0100                	addi	s0,sp,128
     d52:	1305                	addi	t1,t1,-31
     d54:	0306                	slli	t1,t1,0x1
     d56:	0900                	addi	s0,sp,144
     d58:	0000                	unimp
     d5a:	0501                	addi	a0,a0,0
     d5c:	0605                	addi	a2,a2,1
     d5e:	02090103          	lb	sp,32(s2)
     d62:	0100                	addi	s0,sp,128
     d64:	1305                	addi	t1,t1,-31
     d66:	0306                	slli	t1,t1,0x1
     d68:	0900                	addi	s0,sp,144
     d6a:	0000                	unimp
     d6c:	0501                	addi	a0,a0,0
     d6e:	0605                	addi	a2,a2,1
     d70:	02090103          	lb	sp,32(s2)
     d74:	0100                	addi	s0,sp,128
     d76:	0204                	addi	s1,sp,256
     d78:	0905                	addi	s2,s2,1
     d7a:	04097703          	0x4097703
     d7e:	0100                	addi	s0,sp,128
     d80:	1305                	addi	t1,t1,-31
     d82:	0306                	slli	t1,t1,0x1
     d84:	0900                	addi	s0,sp,144
     d86:	0000                	unimp
     d88:	0501                	addi	a0,a0,0
     d8a:	0609                	addi	a2,a2,2
     d8c:	06097f03          	0x6097f03
     d90:	0100                	addi	s0,sp,128
     d92:	0304                	addi	s1,sp,384
     d94:	0505                	addi	a0,a0,1
     d96:	00090703          	lb	a4,0(s2)
     d9a:	0100                	addi	s0,sp,128
     d9c:	1305                	addi	t1,t1,-31
     d9e:	0306                	slli	t1,t1,0x1
     da0:	0900                	addi	s0,sp,144
     da2:	0000                	unimp
     da4:	0501                	addi	a0,a0,0
     da6:	0605                	addi	a2,a2,1
     da8:	02090103          	lb	sp,32(s2)
     dac:	0100                	addi	s0,sp,128
     dae:	1305                	addi	t1,t1,-31
     db0:	0306                	slli	t1,t1,0x1
     db2:	0900                	addi	s0,sp,144
     db4:	0000                	unimp
     db6:	0501                	addi	a0,a0,0
     db8:	0605                	addi	a2,a2,1
     dba:	02090103          	lb	sp,32(s2)
     dbe:	0100                	addi	s0,sp,128
     dc0:	1305                	addi	t1,t1,-31
     dc2:	0306                	slli	t1,t1,0x1
     dc4:	0900                	addi	s0,sp,144
     dc6:	0000                	unimp
     dc8:	0501                	addi	a0,a0,0
     dca:	0605                	addi	a2,a2,1
     dcc:	02090103          	lb	sp,32(s2)
     dd0:	0100                	addi	s0,sp,128
     dd2:	0204                	addi	s1,sp,256
     dd4:	0905                	addi	s2,s2,1
     dd6:	04097703          	0x4097703
     dda:	0100                	addi	s0,sp,128
     ddc:	0104                	addi	s1,sp,128
     dde:	1105                	addi	sp,sp,-31
     de0:	00092103          	lw	sp,0(s2)
     de4:	0100                	addi	s0,sp,128
     de6:	0204                	addi	s1,sp,256
     de8:	0505                	addi	a0,a0,1
     dea:	00096403          	lwu	s0,0(s2)
     dee:	0100                	addi	s0,sp,128
     df0:	1b05                	addi	s6,s6,-31
     df2:	0306                	slli	t1,t1,0x1
     df4:	0900                	addi	s0,sp,144
     df6:	0000                	unimp
     df8:	0401                	addi	s0,s0,0
     dfa:	0501                	addi	a0,a0,0
     dfc:	0311                	addi	t1,t1,4
     dfe:	091c                	addi	a5,sp,144
     e00:	0004                	0x4
     e02:	0401                	addi	s0,s0,0
     e04:	0502                	c.slli64	a0
     e06:	0605                	addi	a2,a2,1
     e08:	04096503          	lwu	a0,64(s2)
     e0c:	0100                	addi	s0,sp,128
     e0e:	0905                	addi	s2,s2,1
     e10:	00090103          	lb	sp,0(s2)
     e14:	0100                	addi	s0,sp,128
     e16:	0505                	addi	a0,a0,1
     e18:	00097703          	0x97703
     e1c:	0100                	addi	s0,sp,128
     e1e:	1f05                	addi	t5,t5,-31
     e20:	0306                	slli	t1,t1,0x1
     e22:	00000907          	0x907
     e26:	0401                	addi	s0,s0,0
     e28:	0501                	addi	a0,a0,0
     e2a:	0309                	addi	t1,t1,2
     e2c:	00040903          	lb	s2,0(s0) # 9000 <_text-0x9f7000>
     e30:	0501                	addi	a0,a0,0
     e32:	0611                	addi	a2,a2,4
     e34:	04090903          	lb	s2,64(s2)
     e38:	0100                	addi	s0,sp,128
     e3a:	1505                	addi	a0,a0,-31
     e3c:	00090303          	lb	t1,0(s2)
     e40:	0100                	addi	s0,sp,128
     e42:	2505                	addiw	a0,a0,1
     e44:	0306                	slli	t1,t1,0x1
     e46:	0900                	addi	s0,sp,144
     e48:	0000                	unimp
     e4a:	0401                	addi	s0,s0,0
     e4c:	0502                	c.slli64	a0
     e4e:	0605                	addi	a2,a2,1
     e50:	04090203          	lb	tp,64(s2)
     e54:	0100                	addi	s0,sp,128
     e56:	00090103          	lb	sp,0(s2)
     e5a:	0100                	addi	s0,sp,128
     e5c:	00090103          	lb	sp,0(s2)
     e60:	0100                	addi	s0,sp,128
     e62:	00090203          	lb	tp,0(s2)
     e66:	0100                	addi	s0,sp,128
     e68:	0905                	addi	s2,s2,1
     e6a:	00090303          	lb	t1,0(s2)
     e6e:	0100                	addi	s0,sp,128
     e70:	0b05                	addi	s6,s6,1
     e72:	0306                	slli	t1,t1,0x1
     e74:	0900                	addi	s0,sp,144
     e76:	0000                	unimp
     e78:	0501                	addi	a0,a0,0
     e7a:	0605                	addi	a2,a2,1
     e7c:	04090303          	lb	t1,64(s2)
     e80:	0100                	addi	s0,sp,128
     e82:	0b05                	addi	s6,s6,1
     e84:	0306                	slli	t1,t1,0x1
     e86:	097d                	addi	s2,s2,31
     e88:	0000                	unimp
     e8a:	0501                	addi	a0,a0,0
     e8c:	09030307          	0x9030307
     e90:	0004                	0x4
     e92:	0501                	addi	a0,a0,0
     e94:	0605                	addi	a2,a2,1
     e96:	02090103          	lb	sp,32(s2)
     e9a:	0100                	addi	s0,sp,128
     e9c:	0905                	addi	s2,s2,1
     e9e:	00090103          	lb	sp,0(s2)
     ea2:	0100                	addi	s0,sp,128
     ea4:	0e05                	addi	t3,t3,1
     ea6:	0306                	slli	t1,t1,0x1
     ea8:	0900                	addi	s0,sp,144
     eaa:	0002                	c.slli64	zero
     eac:	0501                	addi	a0,a0,0
     eae:	031d                	addi	t1,t1,7
     eb0:	0900                	addi	s0,sp,144
     eb2:	0002                	c.slli64	zero
     eb4:	0501                	addi	a0,a0,0
     eb6:	031a                	slli	t1,t1,0x6
     eb8:	0900                	addi	s0,sp,144
     eba:	0004                	0x4
     ebc:	0501                	addi	a0,a0,0
     ebe:	0312                	slli	t1,t1,0x4
     ec0:	0900                	addi	s0,sp,144
     ec2:	0002                	c.slli64	zero
     ec4:	0501                	addi	a0,a0,0
     ec6:	0619                	addi	a2,a2,6
     ec8:	08090103          	lb	sp,128(s2)
     ecc:	0100                	addi	s0,sp,128
     ece:	1005                	c.nop	-31
     ed0:	0306                	slli	t1,t1,0x1
     ed2:	0900                	addi	s0,sp,144
     ed4:	0002                	c.slli64	zero
     ed6:	0501                	addi	a0,a0,0
     ed8:	0319                	addi	t1,t1,6
     eda:	0900                	addi	s0,sp,144
     edc:	0002                	c.slli64	zero
     ede:	0501                	addi	a0,a0,0
     ee0:	0610                	addi	a2,sp,768
     ee2:	06090603          	lb	a2,96(s2)
     ee6:	0100                	addi	s0,sp,128
     ee8:	0104                	addi	s1,sp,128
     eea:	0105                	addi	sp,sp,1
     eec:	0306                	slli	t1,t1,0x1
     eee:	097c                	addi	a5,sp,156
     ef0:	0020                	addi	s0,sp,8
     ef2:	0501                	addi	a0,a0,0
     ef4:	0624                	addi	s1,sp,776
     ef6:	1e090203          	lb	tp,480(s2)
     efa:	0100                	addi	s0,sp,128
     efc:	0505                	addi	a0,a0,1
     efe:	1a090103          	lb	sp,416(s2)
     f02:	0100                	addi	s0,sp,128
     f04:	00090103          	lb	sp,0(s2)
     f08:	0100                	addi	s0,sp,128
     f0a:	08090103          	lb	sp,128(s2)
     f0e:	0100                	addi	s0,sp,128
     f10:	08090103          	lb	sp,128(s2)
     f14:	0100                	addi	s0,sp,128
     f16:	00090103          	lb	sp,0(s2)
     f1a:	0100                	addi	s0,sp,128
     f1c:	0204                	addi	s1,sp,256
     f1e:	00095203          	lhu	tp,0(s2)
     f22:	0100                	addi	s0,sp,128
     f24:	1305                	addi	t1,t1,-31
     f26:	0306                	slli	t1,t1,0x1
     f28:	0900                	addi	s0,sp,144
     f2a:	0000                	unimp
     f2c:	0501                	addi	a0,a0,0
     f2e:	0308                	addi	a0,sp,384
     f30:	0900                	addi	s0,sp,144
     f32:	0008                	0x8
     f34:	0501                	addi	a0,a0,0
     f36:	0609                	addi	a2,a2,2
     f38:	04090103          	lb	sp,64(s2)
     f3c:	0100                	addi	s0,sp,128
     f3e:	0304                	addi	s1,sp,384
     f40:	0505                	addi	a0,a0,1
     f42:	00090703          	lb	a4,0(s2)
     f46:	0100                	addi	s0,sp,128
     f48:	1305                	addi	t1,t1,-31
     f4a:	0306                	slli	t1,t1,0x1
     f4c:	0900                	addi	s0,sp,144
     f4e:	0000                	unimp
     f50:	0501                	addi	a0,a0,0
     f52:	0605                	addi	a2,a2,1
     f54:	08090103          	lb	sp,128(s2)
     f58:	0100                	addi	s0,sp,128
     f5a:	00090103          	lb	sp,0(s2)
     f5e:	0100                	addi	s0,sp,128
     f60:	1305                	addi	t1,t1,-31
     f62:	0306                	slli	t1,t1,0x1
     f64:	0900                	addi	s0,sp,144
     f66:	0000                	unimp
     f68:	0501                	addi	a0,a0,0
     f6a:	0605                	addi	a2,a2,1
     f6c:	02090103          	lb	sp,32(s2)
     f70:	0100                	addi	s0,sp,128
     f72:	0204                	addi	s1,sp,256
     f74:	0905                	addi	s2,s2,1
     f76:	04097703          	0x4097703
     f7a:	0100                	addi	s0,sp,128
     f7c:	1305                	addi	t1,t1,-31
     f7e:	0306                	slli	t1,t1,0x1
     f80:	0900                	addi	s0,sp,144
     f82:	0000                	unimp
     f84:	0401                	addi	s0,s0,0
     f86:	0501                	addi	a0,a0,0
     f88:	0301                	addi	t1,t1,0
     f8a:	092d                	addi	s2,s2,11
     f8c:	0008                	0x8
     f8e:	0501                	addi	a0,a0,0
     f90:	0641                	addi	a2,a2,16
     f92:	08090203          	lb	tp,128(s2)
     f96:	0100                	addi	s0,sp,128
     f98:	0505                	addi	a0,a0,1
     f9a:	1a090103          	lb	sp,416(s2)
     f9e:	0100                	addi	s0,sp,128
     fa0:	14090103          	lb	sp,320(s2)
     fa4:	0100                	addi	s0,sp,128
     fa6:	00090103          	lb	sp,0(s2)
     faa:	0100                	addi	s0,sp,128
     fac:	08090103          	lb	sp,128(s2)
     fb0:	0100                	addi	s0,sp,128
     fb2:	0a090103          	lb	sp,160(s2)
     fb6:	0100                	addi	s0,sp,128
     fb8:	00090103          	lb	sp,0(s2)
     fbc:	0100                	addi	s0,sp,128
     fbe:	0304                	addi	s1,sp,384
     fc0:	00094403          	lbu	s0,0(s2)
     fc4:	0100                	addi	s0,sp,128
     fc6:	1305                	addi	t1,t1,-31
     fc8:	0306                	slli	t1,t1,0x1
     fca:	0900                	addi	s0,sp,144
     fcc:	0000                	unimp
     fce:	0501                	addi	a0,a0,0
     fd0:	0605                	addi	a2,a2,1
     fd2:	02090103          	lb	sp,32(s2)
     fd6:	0100                	addi	s0,sp,128
     fd8:	1305                	addi	t1,t1,-31
     fda:	0306                	slli	t1,t1,0x1
     fdc:	0900                	addi	s0,sp,144
     fde:	0000                	unimp
     fe0:	0501                	addi	a0,a0,0
     fe2:	0605                	addi	a2,a2,1
     fe4:	02090103          	lb	sp,32(s2)
     fe8:	0100                	addi	s0,sp,128
     fea:	0104                	addi	s1,sp,128
     fec:	0200                	addi	s0,sp,256
     fee:	0104                	addi	s1,sp,128
     ff0:	04093b03          	ld	s6,64(s2)
     ff4:	0100                	addi	s0,sp,128
     ff6:	0b05                	addi	s6,s6,1
     ff8:	0200                	addi	s0,sp,256
     ffa:	0104                	addi	s1,sp,128
     ffc:	00090003          	lb	zero,0(s2)
    1000:	0100                	addi	s0,sp,128
    1002:	0209                	addi	tp,tp,2
    1004:	0000                	unimp
    1006:	0101                	addi	sp,sp,0

Disassembly of section .debug_line_str:

0000000000000000 <.debug_line_str>:
   0:	6d6f682f          	0x6d6f682f
   4:	2f65                	addiw	t5,t5,25
   6:	2f707967          	0x2f707967
   a:	6544                	ld	s1,136(a0)
   c:	6f746b73          	csrrsi	s6,0x6f7,8
  10:	2f70                	fld	fa2,216(a4)
  12:	4456                	lw	s0,84(sp)
  14:	65706f2f          	0x65706f2f
  18:	6172                	ld	sp,280(sp)
  1a:	6974                	ld	a3,208(a0)
  1c:	676e                	ld	a4,216(sp)
  1e:	732d                	lui	t1,0xfffeb
  20:	7379                	lui	t1,0xffffe
  22:	6574                	ld	a3,200(a0)
  24:	2f6d                	addiw	t5,t5,27
  26:	706d6f63          	bltu	s10,t1,744 <_text-0x9ff8bc>
  2a:	7465                	lui	s0,0xffff9
  2c:	7469                	lui	s0,0xffffa
  2e:	6f69                	lui	t5,0x1a
  30:	2f6e                	fld	ft10,216(sp)
  32:	522d534f          	fnmadd.d	ft6,fs10,ft2,fa0,unknown
  36:	5349                	li	t1,-14
  38:	752f5643          	0x752f5643
  3c:	00726573          	csrrsi	a0,0x7,4
  40:	6e45                	lui	t3,0x11
  42:	7274                	ld	a3,224(a2)
  44:	2e79                	addiw	t3,t3,30
  46:	72500053          	0x72500053
  4a:	7365636f          	jal	t1,56780 <_text-0x9a9880>
  4e:	632e4273          	0x632e4273
  52:	5300                	lw	s0,32(a4)
  54:	7379                	lui	t1,0xffffe
  56:	6c6c6163          	bltu	s8,t1,718 <_text-0x9ff8e8>
  5a:	682e                	ld	a6,200(sp)
  5c:	4c00                	lw	s0,24(s0)
  5e:	6269                	lui	tp,0x1a
  60:	614d                	addi	sp,sp,176
  62:	6e69                	lui	t3,0x1a
  64:	632e                	ld	t1,200(sp)
  66:	5000                	lw	s0,32(s0)
  68:	6972                	ld	s2,280(sp)
  6a:	746e                	ld	s0,248(sp)
  6c:	2e66                	fld	ft8,88(sp)
  6e:	2f2e0063          	beq	t3,s2,34e <_text-0x9ffcb2>
  72:	6e69                	lui	t3,0x1a
  74:	64756c63          	bltu	a0,t2,6cc <_text-0x9ff934>
  78:	2f65                	addiw	t5,t5,25
  7a:	2e2e                	fld	ft8,200(sp)
  7c:	2f2e2e2f          	0x2f2e2e2f
  80:	6e69                	lui	t3,0x1a
  82:	64756c63          	bltu	a0,t2,6da <_text-0x9ff926>
  86:	0065                	c.nop	25
  88:	7250                	ld	a2,160(a2)
  8a:	6e69                	lui	t3,0x1a
  8c:	6674                	ld	a3,200(a2)
  8e:	682e                	ld	a6,200(sp)
  90:	5400                	lw	s0,40(s0)
  92:	7079                	c.lui	zero,0xffffe
  94:	2e65                	addiw	t3,t3,25
  96:	0068                	addi	a0,sp,12

Disassembly of section .debug_info:

0000000000000000 <.debug_info>:
   0:	0024                	addi	s1,sp,8
   2:	0000                	unimp
   4:	0005                	c.nop	1
   6:	0801                	addi	a6,a6,0
   8:	0000                	unimp
   a:	0000                	unimp
   c:	0001                	nop
   e:	0000                	unimp
  10:	0000                	unimp
  12:	a000                	fsd	fs0,0(s0)
  14:	0000                	unimp
  16:	0000                	unimp
  18:	0800                	addi	s0,sp,16
  1a:	0000                	unimp
  1c:	0000                	unimp
  1e:	0008                	0x8
  20:	0000                	unimp
  22:	0048                	addi	a0,sp,4
  24:	0000                	unimp
  26:	8001                	c.srli64	s0
  28:	00e0                	addi	s0,sp,76
  2a:	0000                	unimp
  2c:	0005                	c.nop	1
  2e:	0801                	addi	a6,a6,0
  30:	0014                	0x14
  32:	0000                	unimp
  34:	5404                	lw	s1,40(s0)
  36:	0000                	unimp
  38:	1d00                	addi	s0,sp,688
  3a:	0048                	addi	a0,sp,4
  3c:	0000                	unimp
  3e:	0000                	unimp
  40:	0000                	unimp
  42:	0004                	0x4
  44:	00a0                	addi	s0,sp,72
  46:	0000                	unimp
  48:	0000                	unimp
  4a:	0012                	c.slli	zero,0x4
  4c:	0000                	unimp
  4e:	0000                	unimp
  50:	0000                	unimp
  52:	0048                	addi	a0,sp,4
  54:	0000                	unimp
  56:	0101                	addi	sp,sp,0
  58:	3a08                	fld	fa0,48(a2)
  5a:	0001                	nop
  5c:	0100                	addi	s0,sp,128
  5e:	0702                	c.slli64	a4
  60:	0151                	addi	sp,sp,20
  62:	0000                	unimp
  64:	0401                	addi	s0,s0,0
  66:	00011e07          	0x11e07
  6a:	0100                	addi	s0,sp,128
  6c:	0708                	addi	a0,sp,896
  6e:	0119                	addi	sp,sp,6
  70:	0000                	unimp
  72:	0101                	addi	sp,sp,0
  74:	3c06                	fld	fs8,96(sp)
  76:	0001                	nop
  78:	0100                	addi	s0,sp,128
  7a:	0502                	c.slli64	a0
  7c:	0164                	addi	s1,sp,140
  7e:	0000                	unimp
  80:	0405                	addi	s0,s0,1
  82:	6905                	lui	s2,0x1
  84:	746e                	ld	s0,248(sp)
  86:	0100                	addi	s0,sp,128
  88:	0508                	addi	a0,sp,640
  8a:	0148                	addi	a0,sp,132
  8c:	0000                	unimp
  8e:	1006                	c.slli	zero,0x21
  90:	0001                	nop
  92:	0100                	addi	s0,sp,128
  94:	00040603          	lb	a2,0(s0) # ffffffffffffa000 <bufferLen+0xffffffffff5f7000>
  98:	00a0                	addi	s0,sp,72
  9a:	0000                	unimp
  9c:	0000                	unimp
  9e:	0012                	c.slli	zero,0x4
  a0:	0000                	unimp
  a2:	0000                	unimp
  a4:	0000                	unimp
  a6:	9c01                	subw	s0,s0,s0
  a8:	00b2                	slli	ra,ra,0xc
  aa:	0000                	unimp
  ac:	0000b207          	fld	ft4,0(ra)
  b0:	0a00                	addi	s0,sp,272
  b2:	a000                	fsd	fs0,0(s0)
  b4:	0000                	unimp
  b6:	0000                	unimp
  b8:	0c00                	addi	s0,sp,528
  ba:	0000                	unimp
  bc:	0000                	unimp
  be:	0000                	unimp
  c0:	0100                	addi	s0,sp,128
  c2:	0905                	addi	s2,s2,1
  c4:	bf08                	fsd	fa0,56(a4)
  c6:	0000                	unimp
  c8:	6200                	ld	s0,0(a2)
  ca:	c902                	sw	zero,144(sp)
  cc:	0000                	unimp
  ce:	0100                	addi	s0,sp,128
  d0:	025a                	slli	tp,tp,0x16
  d2:	00d2                	slli	ra,ra,0x14
  d4:	0000                	unimp
  d6:	6101                	addi	sp,sp,0
  d8:	0000                	unimp
  da:	2b09                	addiw	s6,s6,2
  dc:	0001                	nop
  de:	0200                	addi	s0,sp,256
  e0:	dc030d07          	0xdc030d07
  e4:	0000                	unimp
  e6:	0a00                	addi	s0,sp,272
  e8:	07020063          	beq	tp,a6,148 <_text-0x9ffeb8>
  ec:	dc21                	beqz	s0,44 <_text-0x9fffbc>
  ee:	0000                	unimp
  f0:	0300                	addi	s0,sp,384
  f2:	3061                	0x3061
  f4:	0800                	addi	s0,sp,16
  f6:	005f 0000 6103      	0x61030000005f
  fc:	5f090037          	lui	zero,0x5f090
 100:	0000                	unimp
 102:	0000                	unimp
 104:	0101                	addi	sp,sp,0
 106:	4308                	lw	a0,0(a4)
 108:	0001                	nop
 10a:	0000                	unimp
 10c:	0061                	c.nop	24
 10e:	0000                	unimp
 110:	0005                	c.nop	1
 112:	0801                	addi	a6,a6,0
 114:	000000af          	0xaf
 118:	5401                	li	s0,-32
 11a:	0000                	unimp
 11c:	1d00                	addi	s0,sp,688
 11e:	005d                	c.nop	23
 120:	0000                	unimp
 122:	0000                	unimp
 124:	0000                	unimp
 126:	0016                	c.slli	zero,0x5
 128:	00a0                	addi	s0,sp,72
 12a:	0000                	unimp
 12c:	0000                	unimp
 12e:	0012                	c.slli	zero,0x4
 130:	0000                	unimp
 132:	0000                	unimp
 134:	0000                	unimp
 136:	00f5                	addi	ra,ra,29
 138:	0000                	unimp
 13a:	1002                	c.slli	zero,0x20
 13c:	0001                	nop
 13e:	0100                	addi	s0,sp,128
 140:	0601                	addi	a2,a2,0
 142:	003c                	addi	a5,sp,8
 144:	0000                	unimp
 146:	6e040003          	lb	zero,1760(s0)
 14a:	0001                	nop
 14c:	0100                	addi	s0,sp,128
 14e:	0602                	c.slli64	a2
 150:	0016                	c.slli	zero,0x5
 152:	00a0                	addi	s0,sp,72
 154:	0000                	unimp
 156:	0000                	unimp
 158:	0012                	c.slli	zero,0x4
 15a:	0000                	unimp
 15c:	0000                	unimp
 15e:	0000                	unimp
 160:	9c01                	subw	s0,s0,s0
 162:	2605                	addiw	a2,a2,1
 164:	a000                	fsd	fs0,0(s0)
 166:	0000                	unimp
 168:	0000                	unimp
 16a:	2e00                	fld	fs0,24(a2)
 16c:	0000                	unimp
 16e:	0000                	unimp
 170:	6500                	ld	s0,8(a0)
 172:	000a                	c.slli	zero,0x2
 174:	0500                	addi	s0,sp,640
 176:	0100                	addi	s0,sp,128
 178:	fb08                	sd	a0,48(a4)
 17a:	0000                	unimp
 17c:	1d00                	addi	s0,sp,688
 17e:	0054                	addi	a3,sp,4
 180:	0000                	unimp
 182:	671d                	lui	a4,0x7
 184:	0000                	unimp
 186:	0000                	unimp
 188:	0000                	unimp
 18a:	2800                	fld	fs0,16(s0)
 18c:	a000                	fsd	fs0,0(s0)
 18e:	0000                	unimp
 190:	0000                	unimp
 192:	3400                	fld	fs0,40(s0)
 194:	0005                	c.nop	1
 196:	0000                	unimp
 198:	0000                	unimp
 19a:	5d00                	lw	s0,56(a0)
 19c:	0001                	nop
 19e:	0500                	addi	s0,sp,640
 1a0:	0708                	addi	a0,sp,896
 1a2:	0119                	addi	sp,sp,6
 1a4:	0000                	unimp
 1a6:	0038750f          	0x38750f
 1aa:	3004                	fld	fs1,32(s0)
 1ac:	0000003f 3a080105 	0x3a0801050000003f
 1b4:	0001                	nop
 1b6:	0500                	addi	s0,sp,640
 1b8:	0702                	c.slli64	a4
 1ba:	0151                	addi	sp,sp,20
 1bc:	0000                	unimp
 1be:	0405                	addi	s0,s0,1
 1c0:	00011e07          	0x11e07
 1c4:	0f00                	addi	s0,sp,912
 1c6:	3675                	addiw	a2,a2,-3
 1c8:	0034                	addi	a3,sp,8
 1ca:	002e3007          	fld	ft0,2(t3) # 1a002 <_text-0x9e5ffe>
 1ce:	0000                	unimp
 1d0:	0105                	addi	sp,sp,1
 1d2:	3c06                	fld	fs8,96(sp)
 1d4:	0001                	nop
 1d6:	0500                	addi	s0,sp,640
 1d8:	0502                	c.slli64	a0
 1da:	0164                	addi	s1,sp,140
 1dc:	0000                	unimp
 1de:	041e                	slli	s0,s0,0x7
 1e0:	6905                	lui	s2,0x1
 1e2:	746e                	ld	s0,248(sp)
 1e4:	0f00                	addi	s0,sp,912
 1e6:	3669                	addiw	a2,a2,-6
 1e8:	0034                	addi	a3,sp,8
 1ea:	007f2b0b          	0x7f2b0b
 1ee:	0000                	unimp
 1f0:	0805                	addi	a6,a6,1
 1f2:	4805                	li	a6,1
 1f4:	0001                	nop
 1f6:	1700                	addi	s0,sp,928
 1f8:	00000197          	auipc	gp,0x0
 1fc:	0c0d                	addi	s8,s8,3
 1fe:	0035                	c.nop	13
 200:	0000                	unimp
 202:	00018017          	auipc	zero,0x18
 206:	1100                	addi	s0,sp,160
 208:	00009c1b          	slliw	s8,ra,0x0
 20c:	1f00                	addi	s0,sp,944
 20e:	7608                	ld	a0,40(a2)
 210:	0001                	nop
 212:	1000                	addi	s0,sp,32
 214:	00b2                	slli	ra,ra,0xc
 216:	0000                	unimp
 218:	00b2                	slli	ra,ra,0xc
 21a:	0000                	unimp
 21c:	2e11                	addiw	t3,t3,4
 21e:	0000                	unimp
 220:	7f00                	ld	s0,56(a4)
 222:	0500                	addi	s0,sp,640
 224:	0801                	addi	a6,a6,0
 226:	00000143          	fmadd.s	ft2,ft0,ft0,ft0,rne
 22a:	b220                	fsd	fs0,96(a2)
 22c:	0000                	unimp
 22e:	1200                	addi	s0,sp,288
 230:	01a6                	slli	gp,gp,0x9
 232:	0000                	unimp
 234:	0d09                	addi	s10,s10,2
 236:	00a2                	slli	ra,ra,0x8
 238:	0000                	unimp
 23a:	0309                	addi	t1,t1,2
 23c:	2000                	fld	fs0,0(s0)
 23e:	00a0                	addi	s0,sp,72
 240:	0000                	unimp
 242:	0000                	unimp
 244:	9c12                	add	s8,s8,tp
 246:	0001                	nop
 248:	0a00                	addi	s0,sp,272
 24a:	6d0c                	ld	a1,24(a0)
 24c:	0000                	unimp
 24e:	0900                	addi	s0,sp,144
 250:	a0300003          	lb	zero,-1533(zero) # fffffffffffffa03 <bufferLen+0xffffffffff5fca03>
 254:	0000                	unimp
 256:	0000                	unimp
 258:	1000                	addi	s0,sp,32
 25a:	00b2                	slli	ra,ra,0xc
 25c:	0000                	unimp
 25e:	00f8                	addi	a4,sp,76
 260:	0000                	unimp
 262:	2e11                	addiw	t3,t3,4
 264:	0000                	unimp
 266:	1000                	addi	s0,sp,32
 268:	1200                	addi	s0,sp,288
 26a:	01e6                	slli	gp,gp,0x19
 26c:	0000                	unimp
 26e:	0d22                	slli	s10,s10,0x8
 270:	00e8                	addi	a0,sp,76
 272:	0000                	unimp
 274:	0309                	addi	t1,t1,2
 276:	1000                	addi	s0,sp,32
 278:	00a0                	addi	s0,sp,72
 27a:	0000                	unimp
 27c:	0000                	unimp
 27e:	f418                	sd	a4,40(s0)
 280:	0001                	nop
 282:	3e00                	fld	fs0,56(a2)
 284:	0512                	slli	a0,a0,0x4
 286:	00a0                	addi	s0,sp,72
 288:	0000                	unimp
 28a:	0000                	unimp
 28c:	004a                	c.slli	zero,0x12
 28e:	0000                	unimp
 290:	0000                	unimp
 292:	0000                	unimp
 294:	9c01                	subw	s0,s0,s0
 296:	000001d7          	0x1d7
 29a:	b319                	j	ffffffffffffffa0 <bufferLen+0xffffffffff5fcfa0>
 29c:	0001                	nop
 29e:	1b00                	addi	s0,sp,432
 2a0:	000001d7          	0x1d7
 2a4:	000c                	0xc
 2a6:	0000                	unimp
 2a8:	c819                	beqz	s0,2be <_text-0x9ffd42>
 2aa:	0001                	nop
 2ac:	2500                	fld	fs0,8(a0)
 2ae:	006d                	c.nop	27
 2b0:	0000                	unimp
 2b2:	0049                	c.nop	18
 2b4:	0000                	unimp
 2b6:	660c                	ld	a1,8(a2)
 2b8:	746d                	lui	s0,0xffffb
 2ba:	3e00                	fld	fs0,56(a2)
 2bc:	0001d737          	lui	a4,0x1d
 2c0:	7300                	ld	s0,32(a4)
 2c2:	0000                	unimp
 2c4:	1a00                	addi	s0,sp,304
 2c6:	00706113          	ori	sp,zero,7
 2ca:	0d40                	addi	s0,sp,660
 2cc:	0091                	addi	ra,ra,4
 2ce:	0000                	unimp
 2d0:	7fa89103          	lh	sp,2042(a7)
 2d4:	3e0d                	addiw	t3,t3,-29
 2d6:	000a                	c.slli	zero,0x2
 2d8:	5200                	lw	s0,32(a2)
 2da:	a005                	j	2fa <_text-0x9ffd06>
 2dc:	0000                	unimp
 2de:	0000                	unimp
 2e0:	0800                	addi	s0,sp,16
 2e2:	0000                	unimp
 2e4:	0000                	unimp
 2e6:	0000                	unimp
 2e8:	4400                	lw	s0,8(s0)
 2ea:	9605                	srai	a2,a2,0x21
 2ec:	0001                	nop
 2ee:	0100                	addi	s0,sp,128
 2f0:	00000a47          	fmsub.s	fs4,ft0,ft0,ft0,rne
 2f4:	009a                	slli	ra,ra,0x6
 2f6:	0000                	unimp
 2f8:	5102                	lw	sp,32(sp)
 2fa:	000a                	c.slli	zero,0x2
 2fc:	0100                	addi	s0,sp,128
 2fe:	025a                	slli	tp,tp,0x16
 300:	0a5c                	addi	a5,sp,276
 302:	0000                	unimp
 304:	6101                	addi	sp,sp,0
 306:	2100                	fld	fs0,0(a0)
 308:	0540                	addi	s0,sp,644
 30a:	00a0                	addi	s0,sp,72
 30c:	0000                	unimp
 30e:	0000                	unimp
 310:	01dc                	addi	a5,sp,196
 312:	0000                	unimp
 314:	01bc                	addi	a5,sp,200
 316:	0000                	unimp
 318:	0109                	addi	sp,sp,2
 31a:	095a                	slli	s2,s2,0x16
 31c:	a0102003          	lw	zero,-1535(zero) # fffffffffffffa01 <bufferLen+0xffffffffff5fca01>
 320:	0000                	unimp
 322:	0000                	unimp
 324:	0900                	addi	s0,sp,144
 326:	5b01                	li	s6,-32
 328:	5a01a303          	lw	t1,1440(gp) # 798 <_text-0x9ff868>
 32c:	1b00                	addi	s0,sp,432
 32e:	0552                	slli	a0,a0,0x14
 330:	00a0                	addi	s0,sp,72
 332:	0000                	unimp
 334:	0000                	unimp
 336:	028c                	addi	a1,sp,320
 338:	0000                	unimp
 33a:	0109                	addi	sp,sp,2
 33c:	025a                	slli	tp,tp,0x16
 33e:	0079                	c.nop	30
 340:	0109                	addi	sp,sp,2
 342:	5891025b          	0x5891025b
 346:	0000                	unimp
 348:	b91c                	fsd	fa5,48(a0)
 34a:	0000                	unimp
 34c:	1800                	addi	s0,sp,48
 34e:	0188                	addi	a0,sp,192
 350:	0000                	unimp
 352:	be36                	fsd	fa3,312(sp)
 354:	a004                	fsd	fs1,0(s0)
 356:	0000                	unimp
 358:	0000                	unimp
 35a:	5400                	lw	s0,40(s0)
 35c:	0000                	unimp
 35e:	0000                	unimp
 360:	0000                	unimp
 362:	0100                	addi	s0,sp,128
 364:	8c9c                	0x8c9c
 366:	0002                	c.slli64	zero
 368:	0c00                	addi	s0,sp,528
 36a:	6d66                	ld	s10,88(sp)
 36c:	0074                	addi	a3,sp,12
 36e:	1a36                	slli	s4,s4,0x2d
 370:	000001d7          	0x1d7
 374:	000000af          	0xaf
 378:	131a                	slli	t1,t1,0x26
 37a:	7061                	c.lui	zero,0xffff8
 37c:	3700                	fld	fs0,40(a4)
 37e:	910d                	srli	a0,a0,0x23
 380:	0000                	unimp
 382:	0300                	addi	s0,sp,384
 384:	a891                	j	3d8 <_text-0x9ffc28>
 386:	0d7f                	0xd7f
 388:	09ee                	slli	s3,s3,0x1b
 38a:	0000                	unimp
 38c:	04e8                	addi	a0,sp,588
 38e:	00a0                	addi	s0,sp,72
 390:	0000                	unimp
 392:	0000                	unimp
 394:	0022                	c.slli	zero,0x8
 396:	0000                	unimp
 398:	0000                	unimp
 39a:	0000                	unimp
 39c:	0270053b          	mulw	a0,zero,t2
 3a0:	0000                	unimp
 3a2:	0009f703          	0x9f703
 3a6:	f400                	sd	s0,40(s0)
 3a8:	a004                	fsd	fs1,0(s0)
 3aa:	0000                	unimp
 3ac:	0000                	unimp
 3ae:	0e00                	addi	s0,sp,784
 3b0:	0000                	unimp
 3b2:	0000                	unimp
 3b4:	0000                	unimp
 3b6:	0e00                	addi	s0,sp,784
 3b8:	1001                	c.nop	-32
 3ba:	000a                	c.slli	zero,0x2
 3bc:	d900                	sw	s0,48(a0)
 3be:	0000                	unimp
 3c0:	0100                	addi	s0,sp,128
 3c2:	0a04                	addi	s1,sp,272
 3c4:	0000                	unimp
 3c6:	00f5                	addi	ra,ra,29
 3c8:	0000                	unimp
 3ca:	1c02                	slli	s8,s8,0x20
 3cc:	000a                	c.slli	zero,0x2
 3ce:	0100                	addi	s0,sp,128
 3d0:	025a                	slli	tp,tp,0x16
 3d2:	00000a27          	0xa27
 3d6:	5b01                	li	s6,-32
 3d8:	3202                	fld	ft4,32(sp)
 3da:	000a                	c.slli	zero,0x2
 3dc:	0100                	addi	s0,sp,128
 3de:	0061                	c.nop	24
 3e0:	1b00                	addi	s0,sp,432
 3e2:	04e8                	addi	a0,sp,588
 3e4:	00a0                	addi	s0,sp,72
 3e6:	0000                	unimp
 3e8:	0000                	unimp
 3ea:	028c                	addi	a1,sp,320
 3ec:	0000                	unimp
 3ee:	0109                	addi	sp,sp,2
 3f0:	035a                	slli	t1,t1,0x16
 3f2:	095a01a3          	sb	s5,131(s4)
 3f6:	5b01                	li	s6,-32
 3f8:	9102                	jalr	sp
 3fa:	0048                	addi	a0,sp,4
 3fc:	2200                	fld	fs0,0(a2)
 3fe:	0190                	addi	a2,sp,192
 400:	0000                	unimp
 402:	0501                	addi	a0,a0,0
 404:	280d                	addiw	a6,a6,3
 406:	a000                	fsd	fs0,0(s0)
 408:	0000                	unimp
 40a:	0000                	unimp
 40c:	9600                	0x9600
 40e:	0004                	0x4
 410:	0000                	unimp
 412:	0000                	unimp
 414:	0100                	addi	s0,sp,128
 416:	619c                	ld	a5,0(a1)
 418:	0009                	c.nop	2
 41a:	0c00                	addi	s0,sp,528
 41c:	6d66                	ld	s10,88(sp)
 41e:	0074                	addi	a3,sp,12
 420:	2005                	0x2005
 422:	000001d7          	0x1d7
 426:	0112                	slli	sp,sp,0x4
 428:	0000                	unimp
 42a:	610c                	ld	a1,0(a0)
 42c:	0070                	addi	a2,sp,12
 42e:	2d05                	addiw	s10,s10,1
 430:	0091                	addi	ra,ra,4
 432:	0000                	unimp
 434:	014c                	addi	a1,sp,132
 436:	0000                	unimp
 438:	6914                	ld	a3,16(a0)
 43a:	0600                	addi	s0,sp,768
 43c:	6d09                	lui	s10,0x2
 43e:	0000                	unimp
 440:	6a00                	ld	s0,16(a2)
 442:	0002                	c.slli64	zero
 444:	1400                	addi	s0,sp,544
 446:	0c060063          	beqz	a2,506 <_text-0x9ffafa>
 44a:	006d                	c.nop	27
 44c:	0000                	unimp
 44e:	0389                	addi	t2,t2,2
 450:	0000                	unimp
 452:	07007313          	andi	t1,zero,112
 456:	0009610b          	0x9610b
 45a:	0100                	addi	s0,sp,128
 45c:	0a5d                	addi	s4,s4,23
 45e:	000c                	0xc
 460:	0000                	unimp
 462:	6c14                	ld	a3,24(s0)
 464:	1200                	addi	s0,sp,288
 466:	860e                	mv	a2,gp
 468:	0000                	unimp
 46a:	3600                	fld	fs0,40(a2)
 46c:	0005                	c.nop	1
 46e:	0600                	addi	s0,sp,768
 470:	0966                	slli	s2,s2,0x19
 472:	0000                	unimp
 474:	0064                	addi	s1,sp,12
 476:	00a0                	addi	s0,sp,72
 478:	0000                	unimp
 47a:	0000                	unimp
 47c:	0040                	addi	s0,sp,4
 47e:	0000                	unimp
 480:	2301                	sext.w	t1,t1
 482:	c015                	beqz	s0,4a6 <_text-0x9ffb5a>
 484:	01000003          	lb	zero,16(zero) # 10 <_text-0x9ffff0>
 488:	00000987          	0x987
 48c:	05ff                	0x5ff
 48e:	0000                	unimp
 490:	7b01                	lui	s6,0xfffe0
 492:	0009                	c.nop	2
 494:	2800                	fld	fs0,16(s0)
 496:	0006                	c.slli	zero,0x1
 498:	0e00                	addi	s0,sp,784
 49a:	0970                	addi	a2,sp,156
 49c:	0000                	unimp
 49e:	400a                	0x400a
 4a0:	0000                	unimp
 4a2:	0200                	addi	s0,sp,256
 4a4:	00000993          	li	s3,0
 4a8:	7f809103          	lh	sp,2040(ra)
 4ac:	00099f07          	0x99f07
 4b0:	5100                	lw	s0,32(a0)
 4b2:	0006                	c.slli	zero,0x1
 4b4:	0700                	addi	s0,sp,896
 4b6:	09a9                	addi	s3,s3,10
 4b8:	0000                	unimp
 4ba:	068e                	slli	a3,a3,0x3
 4bc:	0000                	unimp
 4be:	d904                	sw	s1,48(a0)
 4c0:	0009                	c.nop	2
 4c2:	7000                	ld	s0,32(s0)
 4c4:	a000                	fsd	fs0,0(s0)
 4c6:	0000                	unimp
 4c8:	0000                	unimp
 4ca:	7400                	ld	s0,40(s0)
 4cc:	0000                	unimp
 4ce:	0200                	addi	s0,sp,256
 4d0:	0939                	addi	s2,s2,14
 4d2:	e301                	bnez	a4,4d2 <_text-0x9ffb2e>
 4d4:	0009                	c.nop	2
 4d6:	a200                	fsd	fs0,0(a2)
 4d8:	0006                	c.slli	zero,0x1
 4da:	0400                	addi	s0,sp,512
 4dc:	09ee                	slli	s3,s3,0x1b
 4de:	0000                	unimp
 4e0:	0080                	addi	s0,sp,64
 4e2:	00a0                	addi	s0,sp,72
 4e4:	0000                	unimp
 4e6:	0000                	unimp
 4e8:	00a8                	addi	a0,sp,72
 4ea:	0000                	unimp
 4ec:	1602                	slli	a2,a2,0x20
 4ee:	0309                	addi	t1,t1,2
 4f0:	000009f7          	0x9f7
 4f4:	033c                	addi	a5,sp,392
 4f6:	00a0                	addi	s0,sp,72
 4f8:	0000                	unimp
 4fa:	0000                	unimp
 4fc:	000a                	c.slli	zero,0x2
 4fe:	0000                	unimp
 500:	0000                	unimp
 502:	0000                	unimp
 504:	010e                	slli	sp,sp,0x3
 506:	0a10                	addi	a2,sp,272
 508:	0000                	unimp
 50a:	000006cb          	fnmsub.s	fa3,ft0,ft0,ft0,rne
 50e:	0401                	addi	s0,s0,0
 510:	000a                	c.slli	zero,0x2
 512:	e100                	sd	s0,0(a0)
 514:	0006                	c.slli	zero,0x1
 516:	0200                	addi	s0,sp,256
 518:	0a1c                	addi	a5,sp,272
 51a:	0000                	unimp
 51c:	5a01                	li	s4,-32
 51e:	2702                	fld	fa4,0(sp)
 520:	000a                	c.slli	zero,0x2
 522:	0100                	addi	s0,sp,128
 524:	0a32025b          	0xa32025b
 528:	0000                	unimp
 52a:	6101                	addi	sp,sp,0
 52c:	0000                	unimp
 52e:	0000                	unimp
 530:	0600                	addi	s0,sp,768
 532:	0966                	slli	s2,s2,0x19
 534:	0000                	unimp
 536:	0088                	addi	a0,sp,64
 538:	00a0                	addi	s0,sp,72
 53a:	0000                	unimp
 53c:	0000                	unimp
 53e:	00dc                	addi	a5,sp,68
 540:	0000                	unimp
 542:	1c01                	addi	s8,s8,-32
 544:	8615                	srai	a2,a2,0x5
 546:	0004                	0x4
 548:	0100                	addi	s0,sp,128
 54a:	00000987          	0x987
 54e:	06fe                	slli	a3,a3,0x1f
 550:	0000                	unimp
 552:	7b01                	lui	s6,0xfffe0
 554:	0009                	c.nop	2
 556:	1600                	addi	s0,sp,800
 558:	01000007          	0x1000007
 55c:	0970                	addi	a2,sp,156
 55e:	0000                	unimp
 560:	0000073f 0000dc0a 	0xdc0a0000073f
 568:	0200                	addi	s0,sp,256
 56a:	00000993          	li	s3,0
 56e:	7f809103          	lh	sp,2040(ra)
 572:	00099f07          	0x99f07
 576:	5300                	lw	s0,32(a4)
 578:	07000007          	0x7000007
 57c:	09a9                	addi	s3,s3,10
 57e:	0000                	unimp
 580:	07a6                	slli	a5,a5,0x9
 582:	0000                	unimp
 584:	d904                	sw	s1,48(a0)
 586:	0009                	c.nop	2
 588:	ce00                	sw	s0,24(a2)
 58a:	a002                	fsd	ft0,0(sp)
 58c:	0000                	unimp
 58e:	0000                	unimp
 590:	3200                	fld	fs0,32(a2)
 592:	0001                	nop
 594:	0200                	addi	s0,sp,256
 596:	0939                	addi	s2,s2,14
 598:	e301                	bnez	a4,598 <_text-0x9ffa68>
 59a:	0009                	c.nop	2
 59c:	d800                	sw	s0,48(s0)
 59e:	04000007          	0x4000007
 5a2:	09ee                	slli	s3,s3,0x1b
 5a4:	0000                	unimp
 5a6:	02ce                	slli	t0,t0,0x13
 5a8:	00a0                	addi	s0,sp,72
 5aa:	0000                	unimp
 5ac:	0000                	unimp
 5ae:	0155                	addi	sp,sp,21
 5b0:	0000                	unimp
 5b2:	1602                	slli	a2,a2,0x20
 5b4:	0309                	addi	t1,t1,2
 5b6:	000009f7          	0x9f7
 5ba:	02ce                	slli	t0,t0,0x13
 5bc:	00a0                	addi	s0,sp,72
 5be:	0000                	unimp
 5c0:	0000                	unimp
 5c2:	000a                	c.slli	zero,0x2
 5c4:	0000                	unimp
 5c6:	0000                	unimp
 5c8:	0000                	unimp
 5ca:	010e                	slli	sp,sp,0x3
 5cc:	0a10                	addi	a2,sp,272
 5ce:	0000                	unimp
 5d0:	0801                	addi	a6,a6,0
 5d2:	0000                	unimp
 5d4:	0401                	addi	s0,s0,0
 5d6:	000a                	c.slli	zero,0x2
 5d8:	1700                	addi	s0,sp,928
 5da:	0008                	0x8
 5dc:	0200                	addi	s0,sp,256
 5de:	0a1c                	addi	a5,sp,272
 5e0:	0000                	unimp
 5e2:	5a01                	li	s4,-32
 5e4:	2702                	fld	fa4,0(sp)
 5e6:	000a                	c.slli	zero,0x2
 5e8:	0100                	addi	s0,sp,128
 5ea:	0a32025b          	0xa32025b
 5ee:	0000                	unimp
 5f0:	6101                	addi	sp,sp,0
 5f2:	0000                	unimp
 5f4:	0000                	unimp
 5f6:	0600                	addi	s0,sp,768
 5f8:	09d9                	addi	s3,s3,22
 5fa:	0000                	unimp
 5fc:	0090                	addi	a2,sp,64
 5fe:	00a0                	addi	s0,sp,72
 600:	0000                	unimp
 602:	0000                	unimp
 604:	0178                	addi	a4,sp,140
 606:	0000                	unimp
 608:	3001                	0x3001
 60a:	fb11                	bnez	a4,51e <_text-0x9ffae2>
 60c:	0004                	0x4
 60e:	0100                	addi	s0,sp,128
 610:	000009e3          	beqz	zero,e22 <_text-0x9ff1de>
 614:	0834                	addi	a3,sp,24
 616:	0000                	unimp
 618:	ee04                	sd	s1,24(a2)
 61a:	0009                	c.nop	2
 61c:	2600                	fld	fs0,8(a2)
 61e:	a004                	fsd	fs1,0(s0)
 620:	0000                	unimp
 622:	0000                	unimp
 624:	ce00                	sw	s0,24(a2)
 626:	0001                	nop
 628:	0200                	addi	s0,sp,256
 62a:	0916                	slli	s2,s2,0x5
 62c:	0009f703          	0x9f703
 630:	2c00                	fld	fs0,24(s0)
 632:	a004                	fsd	fs1,0(s0)
 634:	0000                	unimp
 636:	0000                	unimp
 638:	0a00                	addi	s0,sp,272
 63a:	0000                	unimp
 63c:	0000                	unimp
 63e:	0000                	unimp
 640:	0e00                	addi	s0,sp,784
 642:	1001                	c.nop	-32
 644:	000a                	c.slli	zero,0x2
 646:	5b00                	lw	s0,48(a4)
 648:	0008                	0x8
 64a:	0100                	addi	s0,sp,128
 64c:	0a04                	addi	s1,sp,272
 64e:	0000                	unimp
 650:	0871                	addi	a6,a6,28
 652:	0000                	unimp
 654:	1c02                	slli	s8,s8,0x20
 656:	000a                	c.slli	zero,0x2
 658:	0100                	addi	s0,sp,128
 65a:	025a                	slli	tp,tp,0x16
 65c:	00000a27          	0xa27
 660:	5b01                	li	s6,-32
 662:	3202                	fld	ft4,32(sp)
 664:	000a                	c.slli	zero,0x2
 666:	0100                	addi	s0,sp,128
 668:	0061                	c.nop	24
 66a:	0000                	unimp
 66c:	c406                	sw	ra,8(sp)
 66e:	0009                	c.nop	2
 670:	9200                	0x9200
 672:	a000                	fsd	fs0,0(s0)
 674:	0000                	unimp
 676:	0000                	unimp
 678:	f100                	sd	s0,32(a0)
 67a:	0001                	nop
 67c:	0100                	addi	s0,sp,128
 67e:	1129                	addi	sp,sp,-22
 680:	0605                	addi	a2,a2,1
 682:	0000                	unimp
 684:	ce01                	beqz	a2,69c <_text-0x9ff964>
 686:	0009                	c.nop	2
 688:	8e00                	0x8e00
 68a:	0008                	0x8
 68c:	0600                	addi	s0,sp,768
 68e:	09d9                	addi	s3,s3,22
 690:	0000                	unimp
 692:	0092                	slli	ra,ra,0x4
 694:	00a0                	addi	s0,sp,72
 696:	0000                	unimp
 698:	0000                	unimp
 69a:	0225                	addi	tp,tp,9
 69c:	0000                	unimp
 69e:	1d02                	slli	s10,s10,0x20
 6a0:	930d                	srli	a4,a4,0x23
 6a2:	0005                	c.nop	1
 6a4:	0100                	addi	s0,sp,128
 6a6:	000009e3          	beqz	zero,eb8 <_text-0x9ff148>
 6aa:	0918                	addi	a4,sp,144
 6ac:	0000                	unimp
 6ae:	0009ee03          	lwu	t3,0(s3)
 6b2:	d600                	sw	s0,40(a2)
 6b4:	0000a003          	lw	zero,0(ra)
 6b8:	0000                	unimp
 6ba:	0e00                	addi	s0,sp,784
 6bc:	0000                	unimp
 6be:	0000                	unimp
 6c0:	0000                	unimp
 6c2:	1600                	addi	s0,sp,800
 6c4:	0009f703          	0x9f703
 6c8:	da00                	sw	s0,48(a2)
 6ca:	0000a003          	lw	zero,0(ra)
 6ce:	0000                	unimp
 6d0:	0a00                	addi	s0,sp,272
 6d2:	0000                	unimp
 6d4:	0000                	unimp
 6d6:	0000                	unimp
 6d8:	0e00                	addi	s0,sp,784
 6da:	1001                	c.nop	-32
 6dc:	000a                	c.slli	zero,0x2
 6de:	2d00                	fld	fs0,24(a0)
 6e0:	0009                	c.nop	2
 6e2:	0100                	addi	s0,sp,128
 6e4:	0a04                	addi	s1,sp,272
 6e6:	0000                	unimp
 6e8:	00000943          	fmadd.s	fs2,ft0,ft0,ft0,rne
 6ec:	1c02                	slli	s8,s8,0x20
 6ee:	000a                	c.slli	zero,0x2
 6f0:	0100                	addi	s0,sp,128
 6f2:	025a                	slli	tp,tp,0x16
 6f4:	00000a27          	0xa27
 6f8:	5b01                	li	s6,-32
 6fa:	3202                	fld	ft4,32(sp)
 6fc:	000a                	c.slli	zero,0x2
 6fe:	0100                	addi	s0,sp,128
 700:	0061                	c.nop	24
 702:	0000                	unimp
 704:	d904                	sw	s1,48(a0)
 706:	0009                	c.nop	2
 708:	9e00                	0x9e00
 70a:	0000a003          	lw	zero,0(ra)
 70e:	0000                	unimp
 710:	4800                	lw	s0,16(s0)
 712:	0002                	c.slli64	zero
 714:	0200                	addi	s0,sp,256
 716:	091e                	slli	s2,s2,0x7
 718:	e301                	bnez	a4,718 <_text-0x9ff8e8>
 71a:	0009                	c.nop	2
 71c:	6000                	ld	s0,0(s0)
 71e:	0009                	c.nop	2
 720:	0400                	addi	s0,sp,512
 722:	09ee                	slli	s3,s3,0x1b
 724:	0000                	unimp
 726:	03b2                	slli	t2,t2,0xc
 728:	00a0                	addi	s0,sp,72
 72a:	0000                	unimp
 72c:	0000                	unimp
 72e:	0000026b          	0x26b
 732:	1602                	slli	a2,a2,0x20
 734:	0309                	addi	t1,t1,2
 736:	000009f7          	0x9f7
 73a:	03f4                	addi	a3,sp,460
 73c:	00a0                	addi	s0,sp,72
 73e:	0000                	unimp
 740:	0000                	unimp
 742:	000a                	c.slli	zero,0x2
 744:	0000                	unimp
 746:	0000                	unimp
 748:	0000                	unimp
 74a:	010e                	slli	sp,sp,0x3
 74c:	0a10                	addi	a2,sp,272
 74e:	0000                	unimp
 750:	09c2                	slli	s3,s3,0x10
 752:	0000                	unimp
 754:	0401                	addi	s0,s0,0
 756:	000a                	c.slli	zero,0x2
 758:	d800                	sw	s0,48(s0)
 75a:	0009                	c.nop	2
 75c:	0200                	addi	s0,sp,256
 75e:	0a1c                	addi	a5,sp,272
 760:	0000                	unimp
 762:	5a01                	li	s4,-32
 764:	2702                	fld	fa4,0(sp)
 766:	000a                	c.slli	zero,0x2
 768:	0100                	addi	s0,sp,128
 76a:	0a32025b          	0xa32025b
 76e:	0000                	unimp
 770:	6101                	addi	sp,sp,0
 772:	0000                	unimp
 774:	0000                	unimp
 776:	d906                	sw	ra,176(sp)
 778:	0009                	c.nop	2
 77a:	a600                	fsd	fs0,8(a2)
 77c:	a000                	fsd	fs0,0(s0)
 77e:	0000                	unimp
 780:	0000                	unimp
 782:	8e00                	0x8e00
 784:	0002                	c.slli64	zero
 786:	0100                	addi	s0,sp,128
 788:	0d0e                	slli	s10,s10,0x3
 78a:	067a                	slli	a2,a2,0x1e
 78c:	0000                	unimp
 78e:	e301                	bnez	a4,78e <_text-0x9ff872>
 790:	0009                	c.nop	2
 792:	f500                	sd	s0,40(a0)
 794:	0009                	c.nop	2
 796:	0400                	addi	s0,sp,512
 798:	09ee                	slli	s3,s3,0x1b
 79a:	0000                	unimp
 79c:	00b8                	addi	a4,sp,72
 79e:	00a0                	addi	s0,sp,72
 7a0:	0000                	unimp
 7a2:	0000                	unimp
 7a4:	02b1                	addi	t0,t0,12
 7a6:	0000                	unimp
 7a8:	1602                	slli	a2,a2,0x20
 7aa:	0309                	addi	t1,t1,2
 7ac:	000009f7          	0x9f7
 7b0:	018a                	slli	gp,gp,0x2
 7b2:	00a0                	addi	s0,sp,72
 7b4:	0000                	unimp
 7b6:	0000                	unimp
 7b8:	000a                	c.slli	zero,0x2
 7ba:	0000                	unimp
 7bc:	0000                	unimp
 7be:	0000                	unimp
 7c0:	010e                	slli	sp,sp,0x3
 7c2:	0a10                	addi	a2,sp,272
 7c4:	0000                	unimp
 7c6:	0a1e                	slli	s4,s4,0x7
 7c8:	0000                	unimp
 7ca:	0401                	addi	s0,s0,0
 7cc:	000a                	c.slli	zero,0x2
 7ce:	3400                	fld	fs0,40(s0)
 7d0:	000a                	c.slli	zero,0x2
 7d2:	0200                	addi	s0,sp,256
 7d4:	0a1c                	addi	a5,sp,272
 7d6:	0000                	unimp
 7d8:	5a01                	li	s4,-32
 7da:	2702                	fld	fa4,0(sp)
 7dc:	000a                	c.slli	zero,0x2
 7de:	0100                	addi	s0,sp,128
 7e0:	0a32025b          	0xa32025b
 7e4:	0000                	unimp
 7e6:	6101                	addi	sp,sp,0
 7e8:	0000                	unimp
 7ea:	0600                	addi	s0,sp,768
 7ec:	0966                	slli	s2,s2,0x19
 7ee:	0000                	unimp
 7f0:	0104                	addi	s1,sp,128
 7f2:	00a0                	addi	s0,sp,72
 7f4:	0000                	unimp
 7f6:	0000                	unimp
 7f8:	02d4                	addi	a3,sp,324
 7fa:	0000                	unimp
 7fc:	1a01                	addi	s4,s4,-32
 7fe:	3815                	addiw	a6,a6,-27
 800:	0e000007          	0xe000007
 804:	00000987          	0x987
 808:	7b01                	lui	s6,0xfffe0
 80a:	0009                	c.nop	2
 80c:	5100                	lw	s0,32(a0)
 80e:	000a                	c.slli	zero,0x2
 810:	0e00                	addi	s0,sp,784
 812:	0970                	addi	a2,sp,156
 814:	0000                	unimp
 816:	d40a                	sw	sp,40(sp)
 818:	0002                	c.slli64	zero
 81a:	0200                	addi	s0,sp,256
 81c:	00000993          	li	s3,0
 820:	7f809103          	lh	sp,2040(ra)
 824:	00099f07          	0x99f07
 828:	6600                	ld	s0,8(a2)
 82a:	000a                	c.slli	zero,0x2
 82c:	0700                	addi	s0,sp,896
 82e:	09a9                	addi	s3,s3,10
 830:	0000                	unimp
 832:	0ab9                	addi	s5,s5,14
 834:	0000                	unimp
 836:	d904                	sw	s1,48(a0)
 838:	0009                	c.nop	2
 83a:	9600                	0x9600
 83c:	a002                	fsd	ft0,0(sp)
 83e:	0000                	unimp
 840:	0000                	unimp
 842:	1900                	addi	s0,sp,176
 844:	02000003          	lb	zero,32(zero) # 20 <_text-0x9fffe0>
 848:	0939                	addi	s2,s2,14
 84a:	e301                	bnez	a4,84a <_text-0x9ff7b6>
 84c:	0009                	c.nop	2
 84e:	eb00                	sd	s0,16(a4)
 850:	000a                	c.slli	zero,0x2
 852:	0400                	addi	s0,sp,512
 854:	09ee                	slli	s3,s3,0x1b
 856:	0000                	unimp
 858:	0296                	slli	t0,t0,0x5
 85a:	00a0                	addi	s0,sp,72
 85c:	0000                	unimp
 85e:	0000                	unimp
 860:	033c                	addi	a5,sp,392
 862:	0000                	unimp
 864:	1602                	slli	a2,a2,0x20
 866:	0309                	addi	t1,t1,2
 868:	000009f7          	0x9f7
 86c:	0296                	slli	t0,t0,0x5
 86e:	00a0                	addi	s0,sp,72
 870:	0000                	unimp
 872:	0000                	unimp
 874:	000a                	c.slli	zero,0x2
 876:	0000                	unimp
 878:	0000                	unimp
 87a:	0000                	unimp
 87c:	010e                	slli	sp,sp,0x3
 87e:	0a10                	addi	a2,sp,272
 880:	0000                	unimp
 882:	0b14                	addi	a3,sp,400
 884:	0000                	unimp
 886:	0401                	addi	s0,s0,0
 888:	000a                	c.slli	zero,0x2
 88a:	2a00                	fld	fs0,16(a2)
 88c:	0200000b          	0x200000b
 890:	0a1c                	addi	a5,sp,272
 892:	0000                	unimp
 894:	5a01                	li	s4,-32
 896:	2702                	fld	fa4,0(sp)
 898:	000a                	c.slli	zero,0x2
 89a:	0100                	addi	s0,sp,128
 89c:	0a32025b          	0xa32025b
 8a0:	0000                	unimp
 8a2:	6101                	addi	sp,sp,0
 8a4:	0000                	unimp
 8a6:	0000                	unimp
 8a8:	0d00                	addi	s0,sp,656
 8aa:	09d9                	addi	s3,s3,22
 8ac:	0000                	unimp
 8ae:	015c                	addi	a5,sp,132
 8b0:	00a0                	addi	s0,sp,72
 8b2:	0000                	unimp
 8b4:	0000                	unimp
 8b6:	0020                	addi	s0,sp,8
 8b8:	0000                	unimp
 8ba:	0000                	unimp
 8bc:	0000                	unimp
 8be:	110c                	addi	a1,sp,160
 8c0:	07b2                	slli	a5,a5,0xc
 8c2:	0000                	unimp
 8c4:	e301                	bnez	a4,8c4 <_text-0x9ff73c>
 8c6:	0009                	c.nop	2
 8c8:	4700                	lw	s0,8(a4)
 8ca:	0300000b          	0x300000b
 8ce:	09ee                	slli	s3,s3,0x1b
 8d0:	0000                	unimp
 8d2:	016e                	slli	sp,sp,0x1b
 8d4:	00a0                	addi	s0,sp,72
 8d6:	0000                	unimp
 8d8:	0000                	unimp
 8da:	000e                	c.slli	zero,0x3
 8dc:	0000                	unimp
 8de:	0000                	unimp
 8e0:	0000                	unimp
 8e2:	0316                	slli	t1,t1,0x5
 8e4:	000009f7          	0x9f7
 8e8:	0172                	slli	sp,sp,0x1c
 8ea:	00a0                	addi	s0,sp,72
 8ec:	0000                	unimp
 8ee:	0000                	unimp
 8f0:	000a                	c.slli	zero,0x2
 8f2:	0000                	unimp
 8f4:	0000                	unimp
 8f6:	0000                	unimp
 8f8:	010e                	slli	sp,sp,0x3
 8fa:	0a10                	addi	a2,sp,272
 8fc:	0000                	unimp
 8fe:	0b5c                	addi	a5,sp,404
 900:	0000                	unimp
 902:	0401                	addi	s0,s0,0
 904:	000a                	c.slli	zero,0x2
 906:	7200                	ld	s0,32(a2)
 908:	0200000b          	0x200000b
 90c:	0a1c                	addi	a5,sp,272
 90e:	0000                	unimp
 910:	5a01                	li	s4,-32
 912:	2702                	fld	fa4,0(sp)
 914:	000a                	c.slli	zero,0x2
 916:	0100                	addi	s0,sp,128
 918:	0a32025b          	0xa32025b
 91c:	0000                	unimp
 91e:	6101                	addi	sp,sp,0
 920:	0000                	unimp
 922:	0600                	addi	s0,sp,768
 924:	0966                	slli	s2,s2,0x19
 926:	0000                	unimp
 928:	01be                	slli	gp,gp,0xf
 92a:	00a0                	addi	s0,sp,72
 92c:	0000                	unimp
 92e:	0000                	unimp
 930:	035f 0000 2101      	0x21010000035f
 936:	7415                	lui	s0,0xfffe5
 938:	0008                	0x8
 93a:	0100                	addi	s0,sp,128
 93c:	00000987          	0x987
 940:	00000b8f          	0xb8f
 944:	7b01                	lui	s6,0xfffe0
 946:	0009                	c.nop	2
 948:	b800                	fsd	fs0,48(s0)
 94a:	0e00000b          	0xe00000b
 94e:	0970                	addi	a2,sp,156
 950:	0000                	unimp
 952:	5f0a                	lw	t5,160(sp)
 954:	02000003          	lb	zero,32(zero) # 20 <_text-0x9fffe0>
 958:	00000993          	li	s3,0
 95c:	7f809103          	lh	sp,2040(ra)
 960:	00099f07          	0x99f07
 964:	e100                	sd	s0,0(a0)
 966:	0700000b          	0x700000b
 96a:	09a9                	addi	s3,s3,10
 96c:	0000                	unimp
 96e:	0c1e                	slli	s8,s8,0x7
 970:	0000                	unimp
 972:	d904                	sw	s1,48(a0)
 974:	0009                	c.nop	2
 976:	0600                	addi	s0,sp,768
 978:	0000a003          	lw	zero,0(ra)
 97c:	0000                	unimp
 97e:	9300                	0x9300
 980:	02000003          	lb	zero,32(zero) # 20 <_text-0x9fffe0>
 984:	0939                	addi	s2,s2,14
 986:	e301                	bnez	a4,986 <_text-0x9ff67a>
 988:	0009                	c.nop	2
 98a:	3200                	fld	fs0,32(a2)
 98c:	000c                	0xc
 98e:	0400                	addi	s0,sp,512
 990:	09ee                	slli	s3,s3,0x1b
 992:	0000                	unimp
 994:	0306                	slli	t1,t1,0x1
 996:	00a0                	addi	s0,sp,72
 998:	0000                	unimp
 99a:	0000                	unimp
 99c:	03b6                	slli	t2,t2,0xd
 99e:	0000                	unimp
 9a0:	1602                	slli	a2,a2,0x20
 9a2:	0309                	addi	t1,t1,2
 9a4:	000009f7          	0x9f7
 9a8:	0306                	slli	t1,t1,0x1
 9aa:	00a0                	addi	s0,sp,72
 9ac:	0000                	unimp
 9ae:	0000                	unimp
 9b0:	000a                	c.slli	zero,0x2
 9b2:	0000                	unimp
 9b4:	0000                	unimp
 9b6:	0000                	unimp
 9b8:	010e                	slli	sp,sp,0x3
 9ba:	0a10                	addi	a2,sp,272
 9bc:	0000                	unimp
 9be:	00000c5b          	0xc5b
 9c2:	0401                	addi	s0,s0,0
 9c4:	000a                	c.slli	zero,0x2
 9c6:	7100                	ld	s0,32(a0)
 9c8:	000c                	0xc
 9ca:	0200                	addi	s0,sp,256
 9cc:	0a1c                	addi	a5,sp,272
 9ce:	0000                	unimp
 9d0:	5a01                	li	s4,-32
 9d2:	2702                	fld	fa4,0(sp)
 9d4:	000a                	c.slli	zero,0x2
 9d6:	0100                	addi	s0,sp,128
 9d8:	0a32025b          	0xa32025b
 9dc:	0000                	unimp
 9de:	6101                	addi	sp,sp,0
 9e0:	0000                	unimp
 9e2:	0000                	unimp
 9e4:	0d00                	addi	s0,sp,656
 9e6:	09d9                	addi	s3,s3,22
 9e8:	0000                	unimp
 9ea:	0204                	addi	s1,sp,256
 9ec:	00a0                	addi	s0,sp,72
 9ee:	0000                	unimp
 9f0:	0000                	unimp
 9f2:	0028                	addi	a0,sp,8
 9f4:	0000                	unimp
 9f6:	0000                	unimp
 9f8:	0000                	unimp
 9fa:	112c                	addi	a1,sp,168
 9fc:	08ee                	slli	a7,a7,0x1b
 9fe:	0000                	unimp
 a00:	e301                	bnez	a4,a00 <_text-0x9ff600>
 a02:	0009                	c.nop	2
 a04:	8e00                	0x8e00
 a06:	000c                	0xc
 a08:	0300                	addi	s0,sp,384
 a0a:	09ee                	slli	s3,s3,0x1b
 a0c:	0000                	unimp
 a0e:	0216                	slli	tp,tp,0x5
 a10:	00a0                	addi	s0,sp,72
 a12:	0000                	unimp
 a14:	0000                	unimp
 a16:	0016                	c.slli	zero,0x5
 a18:	0000                	unimp
 a1a:	0000                	unimp
 a1c:	0000                	unimp
 a1e:	0316                	slli	t1,t1,0x5
 a20:	000009f7          	0x9f7
 a24:	021c                	addi	a5,sp,256
 a26:	00a0                	addi	s0,sp,72
 a28:	0000                	unimp
 a2a:	0000                	unimp
 a2c:	000a                	c.slli	zero,0x2
 a2e:	0000                	unimp
 a30:	0000                	unimp
 a32:	0000                	unimp
 a34:	010e                	slli	sp,sp,0x3
 a36:	0a10                	addi	a2,sp,272
 a38:	0000                	unimp
 a3a:	0ca4                	addi	s1,sp,600
 a3c:	0000                	unimp
 a3e:	0401                	addi	s0,s0,0
 a40:	000a                	c.slli	zero,0x2
 a42:	ba00                	fsd	fs0,48(a2)
 a44:	000c                	0xc
 a46:	0200                	addi	s0,sp,256
 a48:	0a1c                	addi	a5,sp,272
 a4a:	0000                	unimp
 a4c:	5a01                	li	s4,-32
 a4e:	2702                	fld	fa4,0(sp)
 a50:	000a                	c.slli	zero,0x2
 a52:	0100                	addi	s0,sp,128
 a54:	0a32025b          	0xa32025b
 a58:	0000                	unimp
 a5a:	6101                	addi	sp,sp,0
 a5c:	0000                	unimp
 a5e:	0400                	addi	s0,sp,512
 a60:	09d9                	addi	s3,s3,22
 a62:	0000                	unimp
 a64:	0406                	slli	s0,s0,0x1
 a66:	00a0                	addi	s0,sp,72
 a68:	0000                	unimp
 a6a:	0000                	unimp
 a6c:	03d9                	addi	t2,t2,22
 a6e:	0000                	unimp
 a70:	2f01                	sext.w	t5,t5
 a72:	0111                	addi	sp,sp,4
 a74:	000009e3          	beqz	zero,1286 <_text-0x9fed7a>
 a78:	00000cd7          	0xcd7
 a7c:	ee04                	sd	s1,24(a2)
 a7e:	0009                	c.nop	2
 a80:	1400                	addi	s0,sp,544
 a82:	a004                	fsd	fs1,0(s0)
 a84:	0000                	unimp
 a86:	0000                	unimp
 a88:	fc00                	sd	s0,56(s0)
 a8a:	02000003          	lb	zero,32(zero) # 20 <_text-0x9fffe0>
 a8e:	0916                	slli	s2,s2,0x5
 a90:	0009f703          	0x9f703
 a94:	3c00                	fld	fs0,56(s0)
 a96:	a004                	fsd	fs1,0(s0)
 a98:	0000                	unimp
 a9a:	0000                	unimp
 a9c:	0a00                	addi	s0,sp,272
 a9e:	0000                	unimp
 aa0:	0000                	unimp
 aa2:	0000                	unimp
 aa4:	0e00                	addi	s0,sp,784
 aa6:	1001                	c.nop	-32
 aa8:	000a                	c.slli	zero,0x2
 aaa:	0200                	addi	s0,sp,256
 aac:	000d                	c.nop	3
 aae:	0100                	addi	s0,sp,128
 ab0:	0a04                	addi	s1,sp,272
 ab2:	0000                	unimp
 ab4:	0d18                	addi	a4,sp,656
 ab6:	0000                	unimp
 ab8:	1c02                	slli	s8,s8,0x20
 aba:	000a                	c.slli	zero,0x2
 abc:	0100                	addi	s0,sp,128
 abe:	025a                	slli	tp,tp,0x16
 ac0:	00000a27          	0xa27
 ac4:	5b01                	li	s6,-32
 ac6:	3202                	fld	ft4,32(sp)
 ac8:	000a                	c.slli	zero,0x2
 aca:	0100                	addi	s0,sp,128
 acc:	0061                	c.nop	24
 ace:	0000                	unimp
 ad0:	0000                	unimp
 ad2:	b21c                	fsd	fa5,32(a2)
 ad4:	0000                	unimp
 ad6:	1500                	addi	s0,sp,672
 ad8:	0202                	c.slli64	tp
 ada:	0000                	unimp
 adc:	b424                	fsd	fs1,104(s0)
 ade:	0009                	c.nop	2
 ae0:	0b00                	addi	s0,sp,400
 ae2:	7878                	ld	a4,240(s0)
 ae4:	0200                	addi	s0,sp,256
 ae6:	2224                	fld	fs1,64(a2)
 ae8:	0074                	addi	a3,sp,12
 aea:	0000                	unimp
 aec:	0c16                	slli	s8,s8,0x5
 aee:	0002                	c.slli64	zero
 af0:	0200                	addi	s0,sp,256
 af2:	2a24                	fld	fs1,80(a2)
 af4:	006d                	c.nop	27
 af6:	0000                	unimp
 af8:	fd16                	sd	t0,184(sp)
 afa:	0001                	nop
 afc:	0200                	addi	s0,sp,256
 afe:	3524                	fld	fs1,104(a0)
 b00:	0086                	slli	ra,ra,0x1
 b02:	0000                	unimp
 b04:	6208                	ld	a0,0(a2)
 b06:	6675                	lui	a2,0x1d
 b08:	0200                	addi	s0,sp,256
 b0a:	0a25                	addi	s4,s4,9
 b0c:	09b4                	addi	a3,sp,216
 b0e:	0000                	unimp
 b10:	6908                	ld	a0,16(a0)
 b12:	0200                	addi	s0,sp,256
 b14:	0926                	slli	s2,s2,0x9
 b16:	006d                	c.nop	27
 b18:	0000                	unimp
 b1a:	7808                	ld	a0,48(s0)
 b1c:	0200                	addi	s0,sp,256
 b1e:	00540927          	0x540927
 b22:	0000                	unimp
 b24:	1000                	addi	s0,sp,32
 b26:	00b2                	slli	ra,ra,0xc
 b28:	0000                	unimp
 b2a:	09c4                	addi	s1,sp,212
 b2c:	0000                	unimp
 b2e:	2e11                	addiw	t3,t3,4
 b30:	0000                	unimp
 b32:	1d00                	addi	s0,sp,688
 b34:	1500                	addi	s0,sp,672
 b36:	01d9                	addi	gp,gp,22
 b38:	0000                	unimp
 b3a:	d91a                	sw	t1,176(sp)
 b3c:	0009                	c.nop	2
 b3e:	0b00                	addi	s0,sp,400
 b40:	1a020073          	0x1a020073
 b44:	d72d                	beqz	a4,aae <_text-0x9ff552>
 b46:	0001                	nop
 b48:	0000                	unimp
 b4a:	b815                	j	37e <_text-0x9ffc82>
 b4c:	0001                	nop
 b4e:	1300                	addi	s0,sp,416
 b50:	09ee                	slli	s3,s3,0x1b
 b52:	0000                	unimp
 b54:	0200630b          	0x200630b
 b58:	00b22913          	slti	s2,tp,11
 b5c:	0000                	unimp
 b5e:	2300                	fld	fs0,0(a4)
 b60:	01cd                	addi	gp,gp,19
 b62:	0000                	unimp
 b64:	0c02                	c.slli64	s8
 b66:	0314                	addi	a3,sp,384
 b68:	1124                	addi	s1,sp,168
 b6a:	0002                	c.slli64	zero
 b6c:	0300                	addi	s0,sp,384
 b6e:	0d14                	addi	a3,sp,656
 b70:	000a3e03          	ld	t3,0(s4)
 b74:	1600                	addi	s0,sp,800
 b76:	01ed                	addi	gp,gp,27
 b78:	0000                	unimp
 b7a:	61241403          	lh	s0,1554(s0) # fffffffffffe5612 <bufferLen+0xffffffffff5e2612>
 b7e:	0009                	c.nop	2
 b80:	0b00                	addi	s0,sp,400
 b82:	656c                	ld	a1,200(a0)
 b84:	006e                	c.slli	zero,0x1b
 b86:	54301403          	lh	s0,1347(zero) # 543 <_text-0x9ffabd>
 b8a:	0000                	unimp
 b8c:	0800                	addi	s0,sp,16
 b8e:	3061                	0x3061
 b90:	0300                	addi	s0,sp,384
 b92:	1315                	addi	t1,t1,-27
 b94:	007f                	0x7f
 b96:	0000                	unimp
 b98:	6108                	ld	a0,0(a0)
 b9a:	0031                	c.nop	12
 b9c:	7f131603          	lh	a2,2033(t1) # ffffffffffffe7f1 <bufferLen+0xffffffffff5fb7f1>
 ba0:	0000                	unimp
 ba2:	0800                	addi	s0,sp,16
 ba4:	3761                	addiw	a4,a4,-8
 ba6:	0300                	addi	s0,sp,384
 ba8:	007f1317          	auipc	t1,0x7f1
 bac:	0000                	unimp
 bae:	2500                	fld	fs0,8(a0)
 bb0:	0000012b          	0x12b
 bb4:	030d0703          	lb	a4,48(s10) # 2030 <_text-0x9fdfd0>
 bb8:	0300630b          	0x300630b
 bbc:	00b22107          	flw	ft2,11(tp) # 1a00b <_text-0x9e5ff5>
 bc0:	0000                	unimp
 bc2:	6108                	ld	a0,0(a0)
 bc4:	0030                	addi	a2,sp,8
 bc6:	7f130803          	lb	a6,2033(t1) # 7f2399 <_text-0x20dc67>
 bca:	0000                	unimp
 bcc:	0800                	addi	s0,sp,16
 bce:	3761                	addiw	a4,a4,-8
 bd0:	0300                	addi	s0,sp,384
 bd2:	1309                	addi	t1,t1,-30
 bd4:	007f                	0x7f
 bd6:	0000                	unimp
	...

Disassembly of section .debug_abbrev:

0000000000000000 <.debug_abbrev>:
   0:	1101                	addi	sp,sp,-32
   2:	1000                	addi	s0,sp,32
   4:	12011117          	auipc	sp,0x12011
   8:	1b0e030f          	0x1b0e030f
   c:	250e                	fld	fa0,192(sp)
   e:	130e                	slli	t1,t1,0x23
  10:	0005                	c.nop	1
  12:	0000                	unimp
  14:	2401                	sext.w	s0,s0
  16:	0b00                	addi	s0,sp,400
  18:	030b3e0b          	0x30b3e0b
  1c:	000e                	c.slli	zero,0x3
  1e:	0200                	addi	s0,sp,256
  20:	0034                	addi	a3,sp,8
  22:	1331                	addi	t1,t1,-20
  24:	1802                	slli	a6,a6,0x20
  26:	0000                	unimp
  28:	03003403          	ld	s0,48(zero) # 30 <_text-0x9fffd0>
  2c:	3a08                	fld	fa0,48(a2)
  2e:	0221                	addi	tp,tp,8
  30:	21390b3b          	0x21390b3b
  34:	00134913          	xori	s2,t1,1
  38:	0400                	addi	s0,sp,512
  3a:	0111                	addi	sp,sp,4
  3c:	0e25                	addi	t3,t3,9
  3e:	1f030b13          	addi	s6,t1,496
  42:	01111f1b          	slliw	t5,sp,0x11
  46:	0712                	slli	a4,a4,0x4
  48:	1710                	addi	a2,sp,928
  4a:	0000                	unimp
  4c:	2405                	addiw	s0,s0,1
  4e:	0b00                	addi	s0,sp,400
  50:	030b3e0b          	0x30b3e0b
  54:	0008                	0x8
  56:	0600                	addi	s0,sp,768
  58:	012e                	slli	sp,sp,0xb
  5a:	0e03193f 0b3b0b3a 	0xb3b0b3a0e03193f
  62:	0b39                	addi	s6,s6,14
  64:	0111                	addi	sp,sp,4
  66:	0712                	slli	a4,a4,0x4
  68:	1840                	addi	s0,sp,52
  6a:	197a                	slli	s2,s2,0x3e
  6c:	1301                	addi	t1,t1,-32
  6e:	0000                	unimp
  70:	31011d07          	0x31011d07
  74:	12011113          	0x12011113
  78:	590b5807          	0x590b5807
  7c:	000b570b          	0xb570b
  80:	0800                	addi	s0,sp,16
  82:	0005                	c.nop	1
  84:	1331                	addi	t1,t1,-20
  86:	0b1c                	addi	a5,sp,400
  88:	0000                	unimp
  8a:	2e09                	addiw	t3,t3,2
  8c:	3f01                	addiw	t5,t5,-32
  8e:	0319                	addi	t1,t1,6
  90:	3a0e                	fld	fs4,224(sp)
  92:	390b3b0b          	0x390b3b0b
  96:	2019270b          	0x2019270b
  9a:	0013010b          	0x13010b
  9e:	0a00                	addi	s0,sp,272
  a0:	0005                	c.nop	1
  a2:	0b3a0803          	lb	a6,179(s4)
  a6:	0b390b3b          	0xb390b3b
  aa:	1349                	addi	t1,t1,-14
  ac:	0000                	unimp
  ae:	0100                	addi	s0,sp,128
  b0:	0111                	addi	sp,sp,4
  b2:	0e25                	addi	t3,t3,9
  b4:	1f030b13          	addi	s6,t1,496
  b8:	01111f1b          	slliw	t5,sp,0x11
  bc:	0712                	slli	a4,a4,0x4
  be:	1710                	addi	a2,sp,928
  c0:	0000                	unimp
  c2:	2e02                	fld	ft8,0(sp)
  c4:	3f01                	addiw	t5,t5,-32
  c6:	0319                	addi	t1,t1,6
  c8:	3a0e                	fld	fs4,224(sp)
  ca:	390b3b0b          	0x390b3b0b
  ce:	01193c0b          	0x1193c0b
  d2:	03000013          	li	zero,48
  d6:	0018                	0x18
  d8:	0000                	unimp
  da:	2e04                	fld	fs1,24(a2)
  dc:	3f01                	addiw	t5,t5,-32
  de:	0319                	addi	t1,t1,6
  e0:	3a0e                	fld	fs4,224(sp)
  e2:	390b3b0b          	0x390b3b0b
  e6:	1201110b          	0x1201110b
  ea:	7a184007          	flq	ft0,1953(a6)
  ee:	0019                	c.nop	6
  f0:	0500                	addi	s0,sp,640
  f2:	0048                	addi	a0,sp,4
  f4:	017d                	addi	sp,sp,31
  f6:	137f                	0x137f
  f8:	0000                	unimp
  fa:	0100                	addi	s0,sp,128
  fc:	0005                	c.nop	1
  fe:	1331                	addi	t1,t1,-20
 100:	1702                	slli	a4,a4,0x20
 102:	0000                	unimp
 104:	3402                	fld	fs0,32(sp)
 106:	3100                	fld	fs0,32(a0)
 108:	00180213          	addi	tp,a6,1
 10c:	0300                	addi	s0,sp,384
 10e:	011d                	addi	sp,sp,7
 110:	1331                	addi	t1,t1,-20
 112:	0111                	addi	sp,sp,4
 114:	0712                	slli	a4,a4,0x4
 116:	2158                	fld	fa4,128(a0)
 118:	5902                	lw	s2,32(sp)
 11a:	0921570b          	0x921570b
 11e:	0000                	unimp
 120:	1d04                	addi	s1,sp,688
 122:	3101                	addiw	sp,sp,-32
 124:	55015213          	0x55015213
 128:	590b5817          	auipc	a6,0x590b5
 12c:	000b570b          	0xb570b
 130:	0500                	addi	s0,sp,640
 132:	0024                	addi	s1,sp,8
 134:	0b3e0b0b          	0xb3e0b0b
 138:	00000e03          	lb	t3,0(zero) # 0 <_text-0xa00000>
 13c:	1d06                	slli	s10,s10,0x21
 13e:	3101                	addiw	sp,sp,-32
 140:	55015213          	0x55015213
 144:	590b5817          	auipc	a6,0x590b5
 148:	010b570b          	0x10b570b
 14c:	07000013          	li	zero,112
 150:	0034                	addi	a3,sp,8
 152:	1331                	addi	t1,t1,-20
 154:	1702                	slli	a4,a4,0x20
 156:	0000                	unimp
 158:	3408                	fld	fa0,40(s0)
 15a:	0300                	addi	s0,sp,384
 15c:	3a08                	fld	fa0,48(a2)
 15e:	390b3b0b          	0x390b3b0b
 162:	0013490b          	0x13490b
 166:	0900                	addi	s0,sp,144
 168:	0049                	c.nop	18
 16a:	1802                	slli	a6,a6,0x20
 16c:	187e                	slli	a6,a6,0x3f
 16e:	0000                	unimp
 170:	0b0a                	slli	s6,s6,0x2
 172:	5501                	li	a0,-32
 174:	0b000017          	auipc	zero,0xb000
 178:	0005                	c.nop	1
 17a:	0b3a0803          	lb	a6,179(s4)
 17e:	0b390b3b          	0xb390b3b
 182:	1349                	addi	t1,t1,-14
 184:	0000                	unimp
 186:	050c                	addi	a1,sp,640
 188:	0300                	addi	s0,sp,384
 18a:	3a08                	fld	fa0,48(a2)
 18c:	0121                	addi	sp,sp,8
 18e:	0b390b3b          	0xb390b3b
 192:	1349                	addi	t1,t1,-14
 194:	1702                	slli	a4,a4,0x20
 196:	0000                	unimp
 198:	1d0d                	addi	s10,s10,-29
 19a:	3101                	addiw	sp,sp,-32
 19c:	12011113          	0x12011113
 1a0:	01215807          	0x1215807
 1a4:	0b59                	addi	s6,s6,22
 1a6:	13010b57          	0x13010b57
 1aa:	0000                	unimp
 1ac:	050e                	slli	a0,a0,0x3
 1ae:	3100                	fld	fs0,32(a0)
 1b0:	0f000013          	li	zero,240
 1b4:	0016                	c.slli	zero,0x5
 1b6:	213a0803          	lb	a6,531(s4)
 1ba:	3b04                	fld	fs1,48(a4)
 1bc:	490b390b          	0x490b390b
 1c0:	10000013          	li	zero,256
 1c4:	0101                	addi	sp,sp,0
 1c6:	1349                	addi	t1,t1,-14
 1c8:	1301                	addi	t1,t1,-32
 1ca:	0000                	unimp
 1cc:	2111                	addiw	sp,sp,4
 1ce:	4900                	lw	s0,16(a0)
 1d0:	000b2f13          	slti	t5,s6,0
 1d4:	1200                	addi	s0,sp,288
 1d6:	0034                	addi	a3,sp,8
 1d8:	213a0e03          	lb	t3,531(s4)
 1dc:	3b02                	fld	fs6,32(sp)
 1de:	490b390b          	0x490b390b
 1e2:	00180213          	addi	tp,a6,1 # 590b5145 <bufferLen+0x586b2145>
 1e6:	1300                	addi	s0,sp,416
 1e8:	0034                	addi	a3,sp,8
 1ea:	213a0803          	lb	a6,531(s4)
 1ee:	3b01                	addiw	s6,s6,-32
 1f0:	490b390b          	0x490b390b
 1f4:	00180213          	addi	tp,a6,1
 1f8:	1400                	addi	s0,sp,544
 1fa:	0034                	addi	a3,sp,8
 1fc:	213a0803          	lb	a6,531(s4)
 200:	3b01                	addiw	s6,s6,-32
 202:	490b390b          	0x490b390b
 206:	00170213          	addi	tp,a4,1 # 1d001 <_text-0x9e2fff>
 20a:	1500                	addi	s0,sp,672
 20c:	012e                	slli	sp,sp,0xb
 20e:	213a0e03          	lb	t3,531(s4)
 212:	3b02                	fld	fs6,32(sp)
 214:	1421390b          	0x1421390b
 218:	21201927          	0x21201927
 21c:	00130103          	lb	sp,1(t1)
 220:	1600                	addi	s0,sp,800
 222:	0005                	c.nop	1
 224:	0b3a0e03          	lb	t3,179(s4)
 228:	0b390b3b          	0xb390b3b
 22c:	1349                	addi	t1,t1,-14
 22e:	0000                	unimp
 230:	03001617          	auipc	a2,0x3001
 234:	3a0e                	fld	fs4,224(sp)
 236:	0421                	addi	s0,s0,8
 238:	0b390b3b          	0xb390b3b
 23c:	1349                	addi	t1,t1,-14
 23e:	0000                	unimp
 240:	2e18                	fld	fa4,24(a2)
 242:	3f01                	addiw	t5,t5,-32
 244:	0319                	addi	t1,t1,6
 246:	3a0e                	fld	fs4,224(sp)
 248:	0121                	addi	sp,sp,8
 24a:	21390b3b          	0x21390b3b
 24e:	2706                	fld	fa4,64(sp)
 250:	1119                	addi	sp,sp,-26
 252:	1201                	addi	tp,tp,-32
 254:	7a184007          	flq	ft0,1953(a6)
 258:	0119                	addi	sp,sp,6
 25a:	19000013          	li	zero,400
 25e:	0005                	c.nop	1
 260:	213a0e03          	lb	t3,531(s4)
 264:	3b01                	addiw	s6,s6,-32
 266:	3e21                	addiw	t3,t3,-24
 268:	0b39                	addi	s6,s6,14
 26a:	1349                	addi	t1,t1,-14
 26c:	1702                	slli	a4,a4,0x20
 26e:	0000                	unimp
 270:	181a                	slli	a6,a6,0x26
 272:	0000                	unimp
 274:	1b00                	addi	s0,sp,432
 276:	0148                	addi	a0,sp,132
 278:	017d                	addi	sp,sp,31
 27a:	137f                	0x137f
 27c:	0000                	unimp
 27e:	0f1c                	addi	a5,sp,912
 280:	0b00                	addi	s0,sp,400
 282:	0821                	addi	a6,a6,8
 284:	1349                	addi	t1,t1,-14
 286:	0000                	unimp
 288:	111d                	addi	sp,sp,-25
 28a:	2501                	sext.w	a0,a0
 28c:	130e                	slli	t1,t1,0x23
 28e:	1b1f030b          	0x1b1f030b
 292:	111f 1201 1007      	0x10071201111f
 298:	1e000017          	auipc	zero,0x1e000
 29c:	0024                	addi	s1,sp,8
 29e:	0b3e0b0b          	0xb3e0b0b
 2a2:	00000803          	lb	a6,0(zero) # 0 <_text-0xa00000>
 2a6:	0f1f 0b00 030b      	0x30b0b000f1f
 2ac:	000e                	c.slli	zero,0x3
 2ae:	2000                	fld	fs0,0(s0)
 2b0:	0026                	c.slli	zero,0x9
 2b2:	1349                	addi	t1,t1,-14
 2b4:	0000                	unimp
 2b6:	4821                	li	a6,8
 2b8:	7d01                	lui	s10,0xfffe0
 2ba:	7f01                	lui	t5,0xfffe0
 2bc:	00130113          	addi	sp,t1,1
 2c0:	2200                	fld	fs0,0(a2)
 2c2:	012e                	slli	sp,sp,0xb
 2c4:	0b3a0e03          	lb	t3,179(s4)
 2c8:	0b390b3b          	0xb390b3b
 2cc:	01111927          	0x1111927
 2d0:	0712                	slli	a4,a4,0x4
 2d2:	1840                	addi	s0,sp,52
 2d4:	197a                	slli	s2,s2,0x3e
 2d6:	1301                	addi	t1,t1,-32
 2d8:	0000                	unimp
 2da:	03002e23          	sw	a6,60(zero) # 3c <_text-0x9fffc4>
 2de:	3a0e                	fld	fs4,224(sp)
 2e0:	390b3b0b          	0x390b3b0b
 2e4:	000b200b          	0xb200b
 2e8:	2400                	fld	fs0,8(s0)
 2ea:	012e                	slli	sp,sp,0xb
 2ec:	0e03193f 0b3b0b3a 	0xb3b0b3a0e03193f
 2f4:	0b39                	addi	s6,s6,14
 2f6:	0b201927          	0xb201927
 2fa:	1301                	addi	t1,t1,-32
 2fc:	0000                	unimp
 2fe:	2e25                	addiw	t3,t3,9
 300:	3f01                	addiw	t5,t5,-32
 302:	0319                	addi	t1,t1,6
 304:	3a0e                	fld	fs4,224(sp)
 306:	390b3b0b          	0x390b3b0b
 30a:	2019270b          	0x2019270b
 30e:	0000000b          	0xb

Disassembly of section .debug_aranges:

0000000000000000 <.debug_aranges>:
   0:	002c                	addi	a1,sp,8
   2:	0000                	unimp
   4:	0002                	c.slli64	zero
   6:	0000                	unimp
   8:	0000                	unimp
   a:	0008                	0x8
   c:	0000                	unimp
   e:	0000                	unimp
  10:	0000                	unimp
  12:	00a0                	addi	s0,sp,72
  14:	0000                	unimp
  16:	0000                	unimp
  18:	0004                	0x4
	...
  2e:	0000                	unimp
  30:	002c                	addi	a1,sp,8
  32:	0000                	unimp
  34:	0002                	c.slli64	zero
  36:	0028                	addi	a0,sp,8
  38:	0000                	unimp
  3a:	0008                	0x8
  3c:	0000                	unimp
  3e:	0000                	unimp
  40:	0004                	0x4
  42:	00a0                	addi	s0,sp,72
  44:	0000                	unimp
  46:	0000                	unimp
  48:	0012                	c.slli	zero,0x4
	...
  5e:	0000                	unimp
  60:	002c                	addi	a1,sp,8
  62:	0000                	unimp
  64:	0002                	c.slli64	zero
  66:	010c                	addi	a1,sp,128
  68:	0000                	unimp
  6a:	0008                	0x8
  6c:	0000                	unimp
  6e:	0000                	unimp
  70:	0016                	c.slli	zero,0x5
  72:	00a0                	addi	s0,sp,72
  74:	0000                	unimp
  76:	0000                	unimp
  78:	0012                	c.slli	zero,0x4
	...
  8e:	0000                	unimp
  90:	002c                	addi	a1,sp,8
  92:	0000                	unimp
  94:	0002                	c.slli64	zero
  96:	0171                	addi	sp,sp,28
  98:	0000                	unimp
  9a:	0008                	0x8
  9c:	0000                	unimp
  9e:	0000                	unimp
  a0:	0028                	addi	a0,sp,8
  a2:	00a0                	addi	s0,sp,72
  a4:	0000                	unimp
  a6:	0000                	unimp
  a8:	0534                	addi	a3,sp,648
	...

Disassembly of section .debug_str:

0000000000000000 <.debug_str>:
   0:	6e45                	lui	t3,0x11
   2:	7274                	ld	a3,224(a2)
   4:	2e79                	addiw	t3,t3,30
   6:	682f0053          	0x682f0053
   a:	2f656d6f          	jal	s10,56300 <_text-0x9a9d00>
   e:	2f707967          	0x2f707967
  12:	6544                	ld	s1,136(a0)
  14:	6f746b73          	csrrsi	s6,0x6f7,8
  18:	2f70                	fld	fa2,216(a4)
  1a:	4456                	lw	s0,84(sp)
  1c:	65706f2f          	0x65706f2f
  20:	6172                	ld	sp,280(sp)
  22:	6974                	ld	a3,208(a0)
  24:	676e                	ld	a4,216(sp)
  26:	732d                	lui	t1,0xfffeb
  28:	7379                	lui	t1,0xffffe
  2a:	6574                	ld	a3,200(a0)
  2c:	2f6d                	addiw	t5,t5,27
  2e:	706d6f63          	bltu	s10,t1,74c <_text-0x9ff8b4>
  32:	7465                	lui	s0,0xffff9
  34:	7469                	lui	s0,0xffffa
  36:	6f69                	lui	t5,0x1a
  38:	2f6e                	fld	ft10,216(sp)
  3a:	522d534f          	fnmadd.d	ft6,fs10,ft2,fa0,unknown
  3e:	5349                	li	t1,-14
  40:	752f5643          	0x752f5643
  44:	00726573          	csrrsi	a0,0x7,4
  48:	20554e47          	fmsub.s	ft8,fa0,ft5,ft4,rmm
  4c:	5341                	li	t1,-16
  4e:	3220                	fld	fs0,96(a2)
  50:	332e                	fld	ft6,232(sp)
  52:	4e470037          	lui	zero,0x4e470
  56:	2055                	0x2055
  58:	20373143          	fmadd.s	ft2,fa4,ft3,ft4,rup
  5c:	3131                	addiw	sp,sp,-20
  5e:	312e                	fld	ft2,232(sp)
  60:	302e                	fld	ft0,232(sp)
  62:	2d20                	fld	fs0,88(a0)
  64:	636d                	lui	t1,0x1b
  66:	6f6d                	lui	t5,0x1b
  68:	6564                	ld	s1,200(a0)
  6a:	3d6c                	fld	fa1,248(a0)
  6c:	656d                	lui	a0,0x1b
  6e:	6164                	ld	s1,192(a0)
  70:	796e                	ld	s2,248(sp)
  72:	2d20                	fld	fs0,88(a0)
  74:	6e6d                	lui	t3,0x1b
  76:	65722d6f          	jal	s10,22ecc <_text-0x9dd134>
  7a:	616c                	ld	a1,192(a0)
  7c:	2078                	fld	fa4,192(s0)
  7e:	6d2d                	lui	s10,0xb
  80:	7574                	ld	a3,232(a0)
  82:	656e                	ld	a0,216(sp)
  84:	723d                	lui	tp,0xfffef
  86:	656b636f          	jal	t1,b66dc <_text-0x949924>
  8a:	2074                	fld	fa3,192(s0)
  8c:	6d2d                	lui	s10,0xb
  8e:	7261                	lui	tp,0xffff8
  90:	723d6863          	bltu	s10,gp,7c0 <_text-0x9ff840>
  94:	3676                	fld	fa2,376(sp)
  96:	6934                	ld	a3,80(a0)
  98:	616d                	addi	sp,sp,240
  9a:	6466                	ld	s0,88(sp)
  9c:	6d2d2063          	0x6d2d2063
  a0:	6261                	lui	tp,0x18
  a2:	3d69                	addiw	s10,s10,-6
  a4:	706c                	ld	a1,224(s0)
  a6:	3436                	fld	fs0,360(sp)
  a8:	2064                	fld	fs1,192(s0)
  aa:	6d2d                	lui	s10,0xb
  ac:	7261                	lui	tp,0xffff8
  ae:	723d6863          	bltu	s10,gp,7de <_text-0x9ff822>
  b2:	3676                	fld	fa2,376(sp)
  b4:	6934                	ld	a3,80(a0)
  b6:	616d                	addi	sp,sp,240
  b8:	6466                	ld	s0,88(sp)
  ba:	672d2063          	0x672d2063
  be:	20626467          	0x20626467
  c2:	672d                	lui	a4,0xb
  c4:	2d20                	fld	fs0,88(a0)
  c6:	662d204f          	fnmadd.q	ft0,fs10,ft2,fa2,rdn
  ca:	6f6e                	ld	t5,216(sp)
  cc:	6f2d                	lui	t5,0xb
  ce:	696d                	lui	s2,0x1b
  d0:	2d74                	fld	fa3,216(a0)
  d2:	7266                	ld	tp,120(sp)
  d4:	6d61                	lui	s10,0x18
  d6:	2d65                	addiw	s10,s10,25
  d8:	6f70                	ld	a2,216(a4)
  da:	6e69                	lui	t3,0x1a
  dc:	6574                	ld	a3,200(a0)
  de:	2072                	fld	ft0,280(sp)
  e0:	662d                	lui	a2,0xb
  e2:	7266                	ld	tp,120(sp)
  e4:	6565                	lui	a0,0x19
  e6:	6e617473          	csrrci	s0,0x6e6,2
  ea:	6964                	ld	s1,208(a0)
  ec:	676e                	ld	a4,216(sp)
  ee:	2d20                	fld	fs0,88(a0)
  f0:	6e66                	ld	t3,88(sp)
  f2:	6f632d6f          	jal	s10,327e8 <_text-0x9cd818>
  f6:	6d6d                	lui	s10,0x1b
  f8:	2d206e6f          	jal	t3,63ca <_text-0x9f9c36>
  fc:	6e66                	ld	t3,88(sp)
  fe:	74732d6f          	jal	s10,33044 <_text-0x9ccfbc>
 102:	6361                	lui	t1,0x18
 104:	72702d6b          	0x72702d6b
 108:	6365746f          	jal	s0,5773e <_text-0x9a88c2>
 10c:	6f74                	ld	a3,216(a4)
 10e:	0072                	c.slli	zero,0x1c
 110:	7375                	lui	t1,0xffffd
 112:	7265                	lui	tp,0xffff9
 114:	614d                	addi	sp,sp,176
 116:	6e69                	lui	t3,0x1a
 118:	6c00                	ld	s0,24(s0)
 11a:	20676e6f          	jal	t3,76320 <_text-0x989ce0>
 11e:	6e75                	lui	t3,0x1d
 120:	6e676973          	csrrsi	s2,0x6e6,14
 124:	6465                	lui	s0,0x19
 126:	6920                	ld	s0,80(a0)
 128:	746e                	ld	s0,248(sp)
 12a:	7300                	ld	s0,32(a4)
 12c:	7379                	lui	t1,0xffffe
 12e:	6c6c6163          	bltu	s8,t1,7f0 <_text-0x9ff810>
 132:	7550                	ld	a2,168(a0)
 134:	6374                	ld	a3,192(a4)
 136:	6168                	ld	a0,192(a0)
 138:	0072                	c.slli	zero,0x1c
 13a:	6e75                	lui	t3,0x1d
 13c:	6e676973          	csrrsi	s2,0x6e6,14
 140:	6465                	lui	s0,0x19
 142:	6320                	ld	s0,64(a4)
 144:	6168                	ld	a0,192(a0)
 146:	0072                	c.slli	zero,0x1c
 148:	6f6c                	ld	a1,216(a4)
 14a:	676e                	ld	a4,216(sp)
 14c:	6920                	ld	s0,80(a0)
 14e:	746e                	ld	s0,248(sp)
 150:	7300                	ld	s0,32(a4)
 152:	6f68                	ld	a0,216(a4)
 154:	7472                	ld	s0,312(sp)
 156:	7520                	ld	s0,104(a0)
 158:	736e                	ld	t1,248(sp)
 15a:	6769                	lui	a4,0x1a
 15c:	656e                	ld	a0,216(sp)
 15e:	2064                	fld	fs1,192(s0)
 160:	6e69                	lui	t3,0x1a
 162:	0074                	addi	a3,sp,12
 164:	726f6873          	csrrsi	a6,0x726,30
 168:	2074                	fld	fa3,192(s0)
 16a:	6e69                	lui	t3,0x1a
 16c:	0074                	addi	a3,sp,12
 16e:	696c                	ld	a1,208(a0)
 170:	4d62                	lw	s10,24(sp)
 172:	6961                	lui	s2,0x18
 174:	006e                	c.slli	zero,0x1b
 176:	5f5f 7562 6c69      	0x6c6975625f5f
 17c:	6974                	ld	a3,208(a0)
 17e:	5f6e                	lw	t5,248(sp)
 180:	6176                	ld	sp,344(sp)
 182:	6c5f 7369 0074      	0x7473696c5f
 188:	5075                	c.li	zero,-3
 18a:	6972                	ld	s2,280(sp)
 18c:	746e                	ld	s0,248(sp)
 18e:	0066                	c.slli	zero,0x19
 190:	5075                	c.li	zero,-3
 192:	6972                	ld	s2,280(sp)
 194:	746e                	ld	s0,248(sp)
 196:	6200                	ld	s0,0(a2)
 198:	006c6f6f          	jal	t5,c619e <_text-0x939e62>
 19c:	7562                	ld	a0,56(sp)
 19e:	6666                	ld	a2,88(sp)
 1a0:	7265                	lui	tp,0xffff9
 1a2:	654c                	ld	a1,136(a0)
 1a4:	006e                	c.slli	zero,0x1b
 1a6:	7270                	ld	a2,224(a2)
 1a8:	6e69                	lui	t3,0x1a
 1aa:	6674                	ld	a3,200(a2)
 1ac:	7542                	ld	a0,48(sp)
 1ae:	6666                	ld	a2,88(sp)
 1b0:	7265                	lui	tp,0xffff9
 1b2:	6600                	ld	s0,8(a2)
 1b4:	6c69                	lui	s8,0x1a
 1b6:	0065                	c.nop	25
 1b8:	6461                	lui	s0,0x18
 1ba:	4364                	lw	s1,68(a4)
 1bc:	6168                	ld	a0,192(a0)
 1be:	5472                	lw	s0,60(sp)
 1c0:	6675426f          	jal	tp,55026 <_text-0x9aafda>
 1c4:	6566                	ld	a0,88(sp)
 1c6:	0072                	c.slli	zero,0x1c
 1c8:	696c                	ld	a1,208(a0)
 1ca:	656e                	ld	a0,216(sp)
 1cc:	6300                	ld	s0,0(a4)
 1ce:	656c                	ld	a1,200(a0)
 1d0:	7261                	lui	tp,0xffff8
 1d2:	7542                	ld	a0,48(sp)
 1d4:	6666                	ld	a2,88(sp)
 1d6:	7265                	lui	tp,0xffff9
 1d8:	7500                	ld	s0,40(a0)
 1da:	7250                	ld	a2,160(a2)
 1dc:	6e69                	lui	t3,0x1a
 1de:	5374                	lw	a3,100(a4)
 1e0:	7274                	ld	a3,224(a2)
 1e2:	6e69                	lui	t3,0x1a
 1e4:	69640067          	jr	1686(s0) # 18696 <_text-0x9e796a>
 1e8:	73746967          	0x73746967
 1ec:	6200                	ld	s0,0(a2)
 1ee:	6675                	lui	a2,0x1d
 1f0:	6566                	ld	a0,88(sp)
 1f2:	0072                	c.slli	zero,0x1c
 1f4:	755f 6150 696e      	0x696e6150755f
 1fa:	73005f63          	blez	a6,938 <_text-0x9ff6c8>
 1fe:	6769                	lui	a4,0x1a
 200:	006e                	c.slli	zero,0x1b
 202:	5075                	c.li	zero,-3
 204:	6972                	ld	s2,280(sp)
 206:	746e                	ld	s0,248(sp)
 208:	6e49                	lui	t3,0x12
 20a:	0074                	addi	a3,sp,12
 20c:	6162                	ld	sp,24(sp)
 20e:	73006573          	csrrsi	a0,0x730,0
 212:	7379                	lui	t1,0xffffe
 214:	6c6c6163          	bltu	s8,t1,8d6 <_text-0x9ff72a>
 218:	7550                	ld	a2,168(a0)
 21a:	5374                	lw	a3,100(a4)
 21c:	7274                	ld	a3,224(a2)
 21e:	6e69                	lui	t3,0x1a
 220:	          	jr	zero # 0 <_text-0xa00000>

Disassembly of section .debug_frame:

0000000000000000 <.debug_frame>:
   0:	000c                	0xc
   2:	0000                	unimp
   4:	ffff                	0xffff
   6:	ffff                	0xffff
   8:	7c010003          	lb	zero,1984(sp) # 120117c4 <bufferLen+0x1160e7c4>
   c:	0d01                	addi	s10,s10,0
   e:	0002                	c.slli64	zero
  10:	0024                	addi	s1,sp,8
  12:	0000                	unimp
  14:	0000                	unimp
  16:	0000                	unimp
  18:	0004                	0x4
  1a:	00a0                	addi	s0,sp,72
  1c:	0000                	unimp
  1e:	0000                	unimp
  20:	0012                	c.slli	zero,0x4
  22:	0000                	unimp
  24:	0000                	unimp
  26:	0000                	unimp
  28:	0e42                	slli	t3,t3,0x10
  2a:	4210                	lw	a2,0(a2)
  2c:	0288                	addi	a0,sp,320
  2e:	0c42                	slli	s8,s8,0x10
  30:	0008                	0x8
  32:	0000                	unimp
  34:	0000                	unimp
  36:	0000                	unimp
  38:	000c                	0xc
  3a:	0000                	unimp
  3c:	ffff                	0xffff
  3e:	ffff                	0xffff
  40:	7c010003          	lb	zero,1984(sp)
  44:	0d01                	addi	s10,s10,0
  46:	0002                	c.slli64	zero
  48:	0024                	addi	s1,sp,8
  4a:	0000                	unimp
  4c:	0038                	addi	a4,sp,8
  4e:	0000                	unimp
  50:	0016                	c.slli	zero,0x5
  52:	00a0                	addi	s0,sp,72
  54:	0000                	unimp
  56:	0000                	unimp
  58:	0012                	c.slli	zero,0x4
  5a:	0000                	unimp
  5c:	0000                	unimp
  5e:	0000                	unimp
  60:	0e42                	slli	t3,t3,0x10
  62:	4410                	lw	a2,8(s0)
  64:	0281                	addi	t0,t0,0
  66:	0488                	addi	a0,sp,576
  68:	0c42                	slli	s8,s8,0x10
  6a:	0008                	0x8
  6c:	0000                	unimp
  6e:	0000                	unimp
  70:	000c                	0xc
  72:	0000                	unimp
  74:	ffff                	0xffff
  76:	ffff                	0xffff
  78:	7c010003          	lb	zero,1984(sp)
  7c:	0d01                	addi	s10,s10,0
  7e:	0002                	c.slli64	zero
  80:	005c                	addi	a5,sp,4
  82:	0000                	unimp
  84:	0070                	addi	a2,sp,12
  86:	0000                	unimp
  88:	0028                	addi	a0,sp,8
  8a:	00a0                	addi	s0,sp,72
  8c:	0000                	unimp
  8e:	0000                	unimp
  90:	0496                	slli	s1,s1,0x5
  92:	0000                	unimp
  94:	0000                	unimp
  96:	0000                	unimp
  98:	0e4a                	slli	t3,t3,0x12
  9a:	0180                	addi	s0,sp,192
  9c:	8858                	0x8858
  9e:	8902                	jr	s2
  a0:	9204                	0x9204
  a2:	9306                	add	t1,t1,ra
  a4:	9408                	0x9408
  a6:	950a                	add	a0,a0,sp
  a8:	960c                	0x960c
  aa:	970e                	add	a4,a4,gp
  ac:	9810                	0x9810
  ae:	9912                	add	s2,s2,tp
  b0:	9a14                	0x9a14
  b2:	9b16                	add	s6,s6,t0
  b4:	4218                	lw	a4,0(a2)
  b6:	080c                	addi	a1,sp,16
  b8:	0300                	addi	s0,sp,384
  ba:	0456                	slli	s0,s0,0x15
  bc:	0cc8                	addi	a0,sp,596
  be:	8002                	0x8002
  c0:	4201                	li	tp,0
  c2:	42c9                	li	t0,18
  c4:	42d2                	lw	t0,20(sp)
  c6:	42d442d3          	0x42d442d3
  ca:	42d5                	li	t0,21
  cc:	42d6                	lw	t0,84(sp)
  ce:	42d842d7          	0x42d842d7
  d2:	42d9                	li	t0,22
  d4:	42da                	lw	t0,148(sp)
  d6:	000e42db          	0xe42db
  da:	0000                	unimp
  dc:	0000                	unimp
  de:	0000                	unimp
  e0:	002c                	addi	a1,sp,8
  e2:	0000                	unimp
  e4:	0070                	addi	a2,sp,12
  e6:	0000                	unimp
  e8:	04be                	slli	s1,s1,0xf
  ea:	00a0                	addi	s0,sp,72
  ec:	0000                	unimp
  ee:	0000                	unimp
  f0:	0054                	addi	a3,sp,4
  f2:	0000                	unimp
  f4:	0000                	unimp
  f6:	0000                	unimp
  f8:	0e42                	slli	t3,t3,0x10
  fa:	4460                	lw	s0,76(s0)
  fc:	1281                	addi	t0,t0,-32
  fe:	1488                	addi	a0,sp,608
 100:	0c42                	slli	s8,s8,0x10
 102:	4008                	lw	a0,0(s0)
 104:	4602                	lw	a2,0(sp)
 106:	42c1                	li	t0,16
 108:	0cc8                	addi	a0,sp,596
 10a:	6002                	0x6002
 10c:	0e42                	slli	t3,t3,0x10
 10e:	0000                	unimp
 110:	0024                	addi	s1,sp,8
 112:	0000                	unimp
 114:	0070                	addi	a2,sp,12
 116:	0000                	unimp
 118:	0512                	slli	a0,a0,0x4
 11a:	00a0                	addi	s0,sp,72
 11c:	0000                	unimp
 11e:	0000                	unimp
 120:	004a                	c.slli	zero,0x12
 122:	0000                	unimp
 124:	0000                	unimp
 126:	0000                	unimp
 128:	0e42                	slli	t3,t3,0x10
 12a:	4660                	lw	s0,76(a2)
 12c:	0e81                	addi	t4,t4,0
 12e:	1088                	addi	a0,sp,96
 130:	1289                	addi	t0,t0,-30
 132:	0c42                	slli	s8,s8,0x10
 134:	3008                	fld	fa0,32(s0)
	...

Disassembly of section .debug_loclists:

0000000000000000 <.debug_loclists>:
   0:	0d31                	addi	s10,s10,12
   2:	0000                	unimp
   4:	0005                	c.nop	1
   6:	0008                	0x8
   8:	0000                	unimp
   a:	0000                	unimp
   c:	a0051207          	0xa0051207
  10:	0000                	unimp
  12:	0000                	unimp
  14:	3800                	fld	fs0,48(s0)
  16:	a005                	j	36 <_text-0x9fffca>
  18:	0000                	unimp
  1a:	0000                	unimp
  1c:	0100                	addi	s0,sp,128
  1e:	075a                	slli	a4,a4,0x16
  20:	0538                	addi	a4,sp,648
  22:	00a0                	addi	s0,sp,72
  24:	0000                	unimp
  26:	0000                	unimp
  28:	00a0053f 00000000 	0xa0053f
  30:	5b01                	li	s6,-32
  32:	a0053f07          	fld	ft10,-1536(a0) # 18a00 <_text-0x9e7600>
  36:	0000                	unimp
  38:	0000                	unimp
  3a:	5c00                	lw	s0,56(s0)
  3c:	a005                	j	5c <_text-0x9fffa4>
  3e:	0000                	unimp
  40:	0000                	unimp
  42:	0400                	addi	s0,sp,512
  44:	9f5a01a3          	sb	s5,-1565(s4)
  48:	0700                	addi	s0,sp,896
  4a:	0512                	slli	a0,a0,0x4
  4c:	00a0                	addi	s0,sp,72
  4e:	0000                	unimp
  50:	0000                	unimp
  52:	0530                	addi	a2,sp,648
  54:	00a0                	addi	s0,sp,72
  56:	0000                	unimp
  58:	0000                	unimp
  5a:	5b01                	li	s6,-32
  5c:	a0053007          	fld	ft0,-1536(a0)
  60:	0000                	unimp
  62:	0000                	unimp
  64:	5c00                	lw	s0,56(s0)
  66:	a005                	j	86 <_text-0x9fff7a>
  68:	0000                	unimp
  6a:	0000                	unimp
  6c:	0400                	addi	s0,sp,512
  6e:	9f5b01a3          	sb	s5,-1565(s6) # fffffffffffdf9e3 <bufferLen+0xffffffffff5dc9e3>
  72:	0700                	addi	s0,sp,896
  74:	0512                	slli	a0,a0,0x4
  76:	00a0                	addi	s0,sp,72
  78:	0000                	unimp
  7a:	0000                	unimp
  7c:	052e                	slli	a0,a0,0xb
  7e:	00a0                	addi	s0,sp,72
  80:	0000                	unimp
  82:	0000                	unimp
  84:	5c01                	li	s8,-32
  86:	a0052e07          	flw	ft8,-1536(a0)
  8a:	0000                	unimp
  8c:	0000                	unimp
  8e:	5c00                	lw	s0,56(s0)
  90:	a005                	j	b0 <_text-0x9fff50>
  92:	0000                	unimp
  94:	0000                	unimp
  96:	0100                	addi	s0,sp,128
  98:	0059                	c.nop	22
  9a:	a0055207          	0xa0055207
  9e:	0000                	unimp
  a0:	0000                	unimp
  a2:	5a00                	lw	s0,48(a2)
  a4:	a005                	j	c4 <_text-0x9fff3c>
  a6:	0000                	unimp
  a8:	0000                	unimp
  aa:	0200                	addi	s0,sp,256
  ac:	9f3a                	add	t5,t5,a4
  ae:	0700                	addi	s0,sp,896
  b0:	04be                	slli	s1,s1,0xf
  b2:	00a0                	addi	s0,sp,72
  b4:	0000                	unimp
  b6:	0000                	unimp
  b8:	00a004e7          	jalr	s1,10(zero) # 0 <_text-0xa00000>
  bc:	0000                	unimp
  be:	0000                	unimp
  c0:	5a01                	li	s4,-32
  c2:	a004e707          	0xa004e707
  c6:	0000                	unimp
  c8:	0000                	unimp
  ca:	1200                	addi	s0,sp,288
  cc:	a005                	j	ec <_text-0x9fff14>
  ce:	0000                	unimp
  d0:	0000                	unimp
  d2:	0400                	addi	s0,sp,512
  d4:	9f5a01a3          	sb	s5,-1565(s4)
  d8:	0700                	addi	s0,sp,896
  da:	04f4                	addi	a3,sp,588
  dc:	00a0                	addi	s0,sp,72
  de:	0000                	unimp
  e0:	0000                	unimp
  e2:	0502                	c.slli64	a0
  e4:	00a0                	addi	s0,sp,72
  e6:	0000                	unimp
  e8:	0000                	unimp
  ea:	7b09                	lui	s6,0xfffe2
  ec:	0800                	addi	s0,sp,16
  ee:	2420                	fld	fs0,72(s0)
  f0:	2008                	fld	fa0,0(s0)
  f2:	9f26                	add	t5,t5,s1
  f4:	0700                	addi	s0,sp,896
  f6:	04f4                	addi	a3,sp,588
  f8:	00a0                	addi	s0,sp,72
  fa:	0000                	unimp
  fc:	0000                	unimp
  fe:	0502                	c.slli64	a0
 100:	00a0                	addi	s0,sp,72
 102:	0000                	unimp
 104:	0000                	unimp
 106:	030a                	slli	t1,t1,0x2
 108:	2000                	fld	fs0,0(s0)
 10a:	00a0                	addi	s0,sp,72
 10c:	0000                	unimp
 10e:	0000                	unimp
 110:	009f 2807 a000      	0xa0002807009f
 116:	0000                	unimp
 118:	0000                	unimp
 11a:	9e00                	0x9e00
 11c:	a000                	fsd	fs0,0(s0)
 11e:	0000                	unimp
 120:	0000                	unimp
 122:	0100                	addi	s0,sp,128
 124:	075a                	slli	a4,a4,0x16
 126:	009e                	slli	ra,ra,0x7
 128:	00a0                	addi	s0,sp,72
 12a:	0000                	unimp
 12c:	0000                	unimp
 12e:	04bc                	addi	a5,sp,584
 130:	00a0                	addi	s0,sp,72
 132:	0000                	unimp
 134:	0000                	unimp
 136:	6e01                	0x6e01
 138:	a004bc07          	fld	fs8,-1536(s1)
 13c:	0000                	unimp
 13e:	0000                	unimp
 140:	be00                	fsd	fs0,56(a2)
 142:	a004                	fsd	fs1,0(s0)
 144:	0000                	unimp
 146:	0000                	unimp
 148:	0100                	addi	s0,sp,128
 14a:	005a                	c.slli	zero,0x16
 14c:	a0002807          	flw	fa6,-1536(zero) # fffffffffffffa00 <bufferLen+0xffffffffff5fca00>
 150:	0000                	unimp
 152:	0000                	unimp
 154:	9e00                	0x9e00
 156:	a000                	fsd	fs0,0(s0)
 158:	0000                	unimp
 15a:	0000                	unimp
 15c:	0100                	addi	s0,sp,128
 15e:	009e075b          	0x9e075b
 162:	00a0                	addi	s0,sp,72
 164:	0000                	unimp
 166:	0000                	unimp
 168:	00f6                	slli	ra,ra,0x1d
 16a:	00a0                	addi	s0,sp,72
 16c:	0000                	unimp
 16e:	0000                	unimp
 170:	5701                	li	a4,-32
 172:	a000f607          	0xa000f607
 176:	0000                	unimp
 178:	0000                	unimp
 17a:	5c00                	lw	s0,56(s0)
 17c:	a001                	j	17c <_text-0x9ffe84>
 17e:	0000                	unimp
 180:	0000                	unimp
 182:	0100                	addi	s0,sp,128
 184:	075d                	addi	a4,a4,23
 186:	015c                	addi	a5,sp,132
 188:	00a0                	addi	s0,sp,72
 18a:	0000                	unimp
 18c:	0000                	unimp
 18e:	01ba                	slli	gp,gp,0xe
 190:	00a0                	addi	s0,sp,72
 192:	0000                	unimp
 194:	0000                	unimp
 196:	5701                	li	a4,-32
 198:	a001ba07          	fld	fs4,-1536(gp)
 19c:	0000                	unimp
 19e:	0000                	unimp
 1a0:	0000                	unimp
 1a2:	a002                	fsd	ft0,0(sp)
 1a4:	0000                	unimp
 1a6:	0000                	unimp
 1a8:	0100                	addi	s0,sp,128
 1aa:	075d                	addi	a4,a4,23
 1ac:	0200                	addi	s0,sp,256
 1ae:	00a0                	addi	s0,sp,72
 1b0:	0000                	unimp
 1b2:	0000                	unimp
 1b4:	0230                	addi	a2,sp,264
 1b6:	00a0                	addi	s0,sp,72
 1b8:	0000                	unimp
 1ba:	0000                	unimp
 1bc:	5701                	li	a4,-32
 1be:	a0023007          	fld	ft0,-1536(tp) # ffffffffffff8a00 <bufferLen+0xffffffffff5f5a00>
 1c2:	0000                	unimp
 1c4:	0000                	unimp
 1c6:	cc00                	sw	s0,24(s0)
 1c8:	a002                	fsd	ft0,0(sp)
 1ca:	0000                	unimp
 1cc:	0000                	unimp
 1ce:	0100                	addi	s0,sp,128
 1d0:	0756                	slli	a4,a4,0x15
 1d2:	02cc                	addi	a1,sp,324
 1d4:	00a0                	addi	s0,sp,72
 1d6:	0000                	unimp
 1d8:	0000                	unimp
 1da:	02ce                	slli	t0,t0,0x13
 1dc:	00a0                	addi	s0,sp,72
 1de:	0000                	unimp
 1e0:	0000                	unimp
 1e2:	5701                	li	a4,-32
 1e4:	a002ce07          	flq	ft8,-1536(t0)
 1e8:	0000                	unimp
 1ea:	0000                	unimp
 1ec:	7200                	ld	s0,32(a2)
 1ee:	0000a003          	lw	zero,0(ra)
 1f2:	0000                	unimp
 1f4:	0100                	addi	s0,sp,128
 1f6:	075d                	addi	a4,a4,23
 1f8:	0372                	slli	t1,t1,0x1c
 1fa:	00a0                	addi	s0,sp,72
 1fc:	0000                	unimp
 1fe:	0000                	unimp
 200:	037c                	addi	a5,sp,396
 202:	00a0                	addi	s0,sp,72
 204:	0000                	unimp
 206:	0000                	unimp
 208:	5701                	li	a4,-32
 20a:	a0037c07          	0xa0037c07
 20e:	0000                	unimp
 210:	0000                	unimp
 212:	8000                	0x8000
 214:	0000a003          	lw	zero,0(ra)
 218:	0000                	unimp
 21a:	0100                	addi	s0,sp,128
 21c:	075d                	addi	a4,a4,23
 21e:	0380                	addi	s0,sp,448
 220:	00a0                	addi	s0,sp,72
 222:	0000                	unimp
 224:	0000                	unimp
 226:	045a                	slli	s0,s0,0x16
 228:	00a0                	addi	s0,sp,72
 22a:	0000                	unimp
 22c:	0000                	unimp
 22e:	5701                	li	a4,-32
 230:	a0045a07          	0xa0045a07
 234:	0000                	unimp
 236:	0000                	unimp
 238:	a000                	fsd	fs0,0(s0)
 23a:	a004                	fsd	fs1,0(s0)
 23c:	0000                	unimp
 23e:	0000                	unimp
 240:	0100                	addi	s0,sp,128
 242:	075d                	addi	a4,a4,23
 244:	04a0                	addi	s0,sp,584
 246:	00a0                	addi	s0,sp,72
 248:	0000                	unimp
 24a:	0000                	unimp
 24c:	04bc                	addi	a5,sp,584
 24e:	00a0                	addi	s0,sp,72
 250:	0000                	unimp
 252:	0000                	unimp
 254:	5701                	li	a4,-32
 256:	a004bc07          	fld	fs8,-1536(s1)
 25a:	0000                	unimp
 25c:	0000                	unimp
 25e:	be00                	fsd	fs0,56(a2)
 260:	a004                	fsd	fs1,0(s0)
 262:	0000                	unimp
 264:	0000                	unimp
 266:	0100                	addi	s0,sp,128
 268:	2807005b          	0x2807005b
 26c:	a000                	fsd	fs0,0(s0)
 26e:	0000                	unimp
 270:	0000                	unimp
 272:	9e00                	0x9e00
 274:	a000                	fsd	fs0,0(s0)
 276:	0000                	unimp
 278:	0000                	unimp
 27a:	0200                	addi	s0,sp,256
 27c:	9f30                	0x9f30
 27e:	a0009e07          	0xa0009e07
 282:	0000                	unimp
 284:	0000                	unimp
 286:	be00                	fsd	fs0,56(a2)
 288:	a000                	fsd	fs0,0(s0)
 28a:	0000                	unimp
 28c:	0000                	unimp
 28e:	0100                	addi	s0,sp,128
 290:	0756                	slli	a4,a4,0x15
 292:	00ca                	slli	ra,ra,0x12
 294:	00a0                	addi	s0,sp,72
 296:	0000                	unimp
 298:	0000                	unimp
 29a:	00d2                	slli	ra,ra,0x14
 29c:	00a0                	addi	s0,sp,72
 29e:	0000                	unimp
 2a0:	0000                	unimp
 2a2:	5601                	li	a2,-32
 2a4:	a000d207          	0xa000d207
 2a8:	0000                	unimp
 2aa:	0000                	unimp
 2ac:	0a00                	addi	s0,sp,272
 2ae:	a001                	j	2ae <_text-0x9ffd52>
 2b0:	0000                	unimp
 2b2:	0000                	unimp
 2b4:	0300                	addi	s0,sp,384
 2b6:	0176                	slli	sp,sp,0x1d
 2b8:	079f 015c 00a0      	0xa0015c079f
 2be:	0000                	unimp
 2c0:	0000                	unimp
 2c2:	019a                	slli	gp,gp,0x6
 2c4:	00a0                	addi	s0,sp,72
 2c6:	0000                	unimp
 2c8:	0000                	unimp
 2ca:	5601                	li	a2,-32
 2cc:	a0019a07          	0xa0019a07
 2d0:	0000                	unimp
 2d2:	0000                	unimp
 2d4:	9e00                	0x9e00
 2d6:	a001                	j	2d6 <_text-0x9ffd2a>
 2d8:	0000                	unimp
 2da:	0000                	unimp
 2dc:	0300                	addi	s0,sp,384
 2de:	0176                	slli	sp,sp,0x1d
 2e0:	079f 019e 00a0      	0xa0019e079f
 2e6:	0000                	unimp
 2e8:	0000                	unimp
 2ea:	01c2                	slli	gp,gp,0x10
 2ec:	00a0                	addi	s0,sp,72
 2ee:	0000                	unimp
 2f0:	0000                	unimp
 2f2:	9f027603          	0x9f027603
 2f6:	a0020007          	0xa0020007
 2fa:	0000                	unimp
 2fc:	0000                	unimp
 2fe:	0400                	addi	s0,sp,512
 300:	a002                	fsd	ft0,0(sp)
 302:	0000                	unimp
 304:	0000                	unimp
 306:	0300                	addi	s0,sp,384
 308:	0276                	slli	tp,tp,0x1d
 30a:	079f 022c 00a0      	0xa0022c079f
 310:	0000                	unimp
 312:	0000                	unimp
 314:	0230                	addi	a2,sp,264
 316:	00a0                	addi	s0,sp,72
 318:	0000                	unimp
 31a:	0000                	unimp
 31c:	9f027603          	0x9f027603
 320:	a0037207          	0xa0037207
 324:	0000                	unimp
 326:	0000                	unimp
 328:	7400                	ld	s0,40(s0)
 32a:	0000a003          	lw	zero,0(ra)
 32e:	0000                	unimp
 330:	0300                	addi	s0,sp,384
 332:	0276                	slli	tp,tp,0x1d
 334:	079f 0378 00a0      	0xa00378079f
 33a:	0000                	unimp
 33c:	0000                	unimp
 33e:	037a                	slli	t1,t1,0x1e
 340:	00a0                	addi	s0,sp,72
 342:	0000                	unimp
 344:	0000                	unimp
 346:	9f017603          	0x9f017603
 34a:	a0040407          	0xa0040407
 34e:	0000                	unimp
 350:	0000                	unimp
 352:	0600                	addi	s0,sp,768
 354:	a004                	fsd	fs1,0(s0)
 356:	0000                	unimp
 358:	0000                	unimp
 35a:	0300                	addi	s0,sp,384
 35c:	0276                	slli	tp,tp,0x1d
 35e:	079f 0452 00a0      	0xa00452079f
 364:	0000                	unimp
 366:	0000                	unimp
 368:	0462                	slli	s0,s0,0x18
 36a:	00a0                	addi	s0,sp,72
 36c:	0000                	unimp
 36e:	0000                	unimp
 370:	9f017603          	0x9f017603
 374:	a004bc07          	fld	fs8,-1536(s1)
 378:	0000                	unimp
 37a:	0000                	unimp
 37c:	be00                	fsd	fs0,56(a2)
 37e:	a004                	fsd	fs1,0(s0)
 380:	0000                	unimp
 382:	0000                	unimp
 384:	0200                	addi	s0,sp,256
 386:	9f30                	0x9f30
 388:	0700                	addi	s0,sp,896
 38a:	00de                	slli	ra,ra,0x17
 38c:	00a0                	addi	s0,sp,72
 38e:	0000                	unimp
 390:	0000                	unimp
 392:	00f6                	slli	ra,ra,0x1d
 394:	00a0                	addi	s0,sp,72
 396:	0000                	unimp
 398:	0000                	unimp
 39a:	5d01                	li	s10,-32
 39c:	a000f607          	0xa000f607
 3a0:	0000                	unimp
 3a2:	0000                	unimp
 3a4:	fa00                	sd	s0,48(a2)
 3a6:	a000                	fsd	fs0,0(s0)
 3a8:	0000                	unimp
 3aa:	0000                	unimp
 3ac:	0100                	addi	s0,sp,128
 3ae:	075e                	slli	a4,a4,0x17
 3b0:	00fa                	slli	ra,ra,0x1e
 3b2:	00a0                	addi	s0,sp,72
 3b4:	0000                	unimp
 3b6:	0000                	unimp
 3b8:	015c                	addi	a5,sp,132
 3ba:	00a0                	addi	s0,sp,72
 3bc:	0000                	unimp
 3be:	0000                	unimp
 3c0:	8d008e0b          	0x8d008e0b
 3c4:	2200                	fld	fs0,0(a2)
 3c6:	0194                	addi	a3,sp,192
 3c8:	ff08                	sd	a0,56(a4)
 3ca:	9f1a                	add	t5,t5,t1
 3cc:	a0019a07          	0xa0019a07
 3d0:	0000                	unimp
 3d2:	0000                	unimp
 3d4:	a600                	fsd	fs0,8(a2)
 3d6:	a001                	j	3d6 <_text-0x9ffc2a>
 3d8:	0000                	unimp
 3da:	0000                	unimp
 3dc:	0100                	addi	s0,sp,128
 3de:	075d                	addi	a4,a4,23
 3e0:	01a6                	slli	gp,gp,0x9
 3e2:	00a0                	addi	s0,sp,72
 3e4:	0000                	unimp
 3e6:	0000                	unimp
 3e8:	01ba                	slli	gp,gp,0xe
 3ea:	00a0                	addi	s0,sp,72
 3ec:	0000                	unimp
 3ee:	0000                	unimp
 3f0:	7d06                	ld	s10,96(sp)
 3f2:	0800                	addi	s0,sp,16
 3f4:	1aff                	0x1aff
 3f6:	079f 01ba 00a0      	0xa001ba079f
 3fc:	0000                	unimp
 3fe:	0000                	unimp
 400:	01c4                	addi	s1,sp,196
 402:	00a0                	addi	s0,sp,72
 404:	0000                	unimp
 406:	0000                	unimp
 408:	7e08                	ld	a0,56(a2)
 40a:	9400                	0x9400
 40c:	0801                	addi	a6,a6,0
 40e:	1aff                	0x1aff
 410:	079f 01c4 00a0      	0xa001c4079f
 416:	0000                	unimp
 418:	0000                	unimp
 41a:	0200                	addi	s0,sp,256
 41c:	00a0                	addi	s0,sp,72
 41e:	0000                	unimp
 420:	0000                	unimp
 422:	8d008e0b          	0x8d008e0b
 426:	2200                	fld	fs0,0(a2)
 428:	0194                	addi	a3,sp,192
 42a:	ff08                	sd	a0,56(a4)
 42c:	9f1a                	add	t5,t5,t1
 42e:	a0020007          	0xa0020007
 432:	0000                	unimp
 434:	0000                	unimp
 436:	0400                	addi	s0,sp,512
 438:	a002                	fsd	ft0,0(sp)
 43a:	0000                	unimp
 43c:	0000                	unimp
 43e:	0600                	addi	s0,sp,768
 440:	007d                	c.nop	31
 442:	ff08                	sd	a0,56(a4)
 444:	9f1a                	add	t5,t5,t1
 446:	a0022c07          	flw	fs8,-1536(tp) # fffffffffffffa00 <bufferLen+0xffffffffff5fca00>
 44a:	0000                	unimp
 44c:	0000                	unimp
 44e:	3800                	fld	fs0,48(s0)
 450:	a002                	fsd	ft0,0(sp)
 452:	0000                	unimp
 454:	0000                	unimp
 456:	0600                	addi	s0,sp,768
 458:	007d                	c.nop	31
 45a:	ff08                	sd	a0,56(a4)
 45c:	9f1a                	add	t5,t5,t1
 45e:	a0023807          	fld	fa6,-1536(tp) # fffffffffffffa00 <bufferLen+0xffffffffff5fca00>
 462:	0000                	unimp
 464:	0000                	unimp
 466:	3c00                	fld	fs0,56(s0)
 468:	a002                	fsd	ft0,0(sp)
 46a:	0000                	unimp
 46c:	0000                	unimp
 46e:	0800                	addi	s0,sp,16
 470:	007e                	c.slli	zero,0x1f
 472:	0194                	addi	a3,sp,192
 474:	ff08                	sd	a0,56(a4)
 476:	9f1a                	add	t5,t5,t1
 478:	a0023c07          	fld	fs8,-1536(tp) # fffffffffffffa00 <bufferLen+0xffffffffff5fca00>
 47c:	0000                	unimp
 47e:	0000                	unimp
 480:	9600                	0x9600
 482:	a002                	fsd	ft0,0(sp)
 484:	0000                	unimp
 486:	0000                	unimp
 488:	0b00                	addi	s0,sp,400
 48a:	008e                	slli	ra,ra,0x3
 48c:	008d                	addi	ra,ra,3
 48e:	9422                	add	s0,s0,s0
 490:	0801                	addi	a6,a6,0
 492:	1aff                	0x1aff
 494:	079f 0372 00a0      	0xa00372079f
 49a:	0000                	unimp
 49c:	0000                	unimp
 49e:	0376                	slli	t1,t1,0x1d
 4a0:	00a0                	addi	s0,sp,72
 4a2:	0000                	unimp
 4a4:	0000                	unimp
 4a6:	7d06                	ld	s10,96(sp)
 4a8:	0800                	addi	s0,sp,16
 4aa:	1aff                	0x1aff
 4ac:	079f 0376 00a0      	0xa00376079f
 4b2:	0000                	unimp
 4b4:	0000                	unimp
 4b6:	0378                	addi	a4,sp,396
 4b8:	00a0                	addi	s0,sp,72
 4ba:	0000                	unimp
 4bc:	0000                	unimp
 4be:	7e08                	ld	a0,56(a2)
 4c0:	9400                	0x9400
 4c2:	0801                	addi	a6,a6,0
 4c4:	1aff                	0x1aff
 4c6:	079f 0378 00a0      	0xa00378079f
 4cc:	0000                	unimp
 4ce:	0000                	unimp
 4d0:	037c                	addi	a5,sp,396
 4d2:	00a0                	addi	s0,sp,72
 4d4:	0000                	unimp
 4d6:	0000                	unimp
 4d8:	5d01                	li	s10,-32
 4da:	a0040407          	0xa0040407
 4de:	0000                	unimp
 4e0:	0000                	unimp
 4e2:	0600                	addi	s0,sp,768
 4e4:	a004                	fsd	fs1,0(s0)
 4e6:	0000                	unimp
 4e8:	0000                	unimp
 4ea:	0600                	addi	s0,sp,768
 4ec:	007d                	c.nop	31
 4ee:	ff08                	sd	a0,56(a4)
 4f0:	9f1a                	add	t5,t5,t1
 4f2:	a0045207          	0xa0045207
 4f6:	0000                	unimp
 4f8:	0000                	unimp
 4fa:	5a00                	lw	s0,48(a2)
 4fc:	a004                	fsd	fs1,0(s0)
 4fe:	0000                	unimp
 500:	0000                	unimp
 502:	0100                	addi	s0,sp,128
 504:	075d                	addi	a4,a4,23
 506:	045a                	slli	s0,s0,0x16
 508:	00a0                	addi	s0,sp,72
 50a:	0000                	unimp
 50c:	0000                	unimp
 50e:	0464                	addi	s1,sp,524
 510:	00a0                	addi	s0,sp,72
 512:	0000                	unimp
 514:	0000                	unimp
 516:	5e01                	li	t3,-32
 518:	a0046407          	0xa0046407
 51c:	0000                	unimp
 51e:	0000                	unimp
 520:	a000                	fsd	fs0,0(s0)
 522:	a004                	fsd	fs1,0(s0)
 524:	0000                	unimp
 526:	0000                	unimp
 528:	0b00                	addi	s0,sp,400
 52a:	008e                	slli	ra,ra,0x3
 52c:	008d                	addi	ra,ra,3
 52e:	9422                	add	s0,s0,s0
 530:	0801                	addi	a6,a6,0
 532:	1aff                	0x1aff
 534:	009f de07 a000      	0xa000de07009f
 53a:	0000                	unimp
 53c:	0000                	unimp
 53e:	5c00                	lw	s0,56(s0)
 540:	a001                	j	540 <_text-0x9ffac0>
 542:	0000                	unimp
 544:	0000                	unimp
 546:	0200                	addi	s0,sp,256
 548:	9f30                	0x9f30
 54a:	a0019a07          	0xa0019a07
 54e:	0000                	unimp
 550:	0000                	unimp
 552:	0400                	addi	s0,sp,512
 554:	a002                	fsd	ft0,0(sp)
 556:	0000                	unimp
 558:	0000                	unimp
 55a:	0200                	addi	s0,sp,256
 55c:	9f31                	addw	a4,a4,a2
 55e:	a0022c07          	flw	fs8,-1536(tp) # fffffffffffffa00 <bufferLen+0xffffffffff5fca00>
 562:	0000                	unimp
 564:	0000                	unimp
 566:	ce00                	sw	s0,24(a2)
 568:	a002                	fsd	ft0,0(sp)
 56a:	0000                	unimp
 56c:	0000                	unimp
 56e:	0200                	addi	s0,sp,256
 570:	9f31                	addw	a4,a4,a2
 572:	a002ce07          	flq	ft8,-1536(t0)
 576:	0000                	unimp
 578:	0000                	unimp
 57a:	0600                	addi	s0,sp,768
 57c:	0000a003          	lw	zero,0(ra)
 580:	0000                	unimp
 582:	0200                	addi	s0,sp,256
 584:	9f30                	0x9f30
 586:	a0030607          	0xa0030607
 58a:	0000                	unimp
 58c:	0000                	unimp
 58e:	3c00                	fld	fs0,56(s0)
 590:	0000a003          	lw	zero,0(ra)
 594:	0000                	unimp
 596:	0200                	addi	s0,sp,256
 598:	9f31                	addw	a4,a4,a2
 59a:	a0033c07          	fld	fs8,-1536(t1) # ffffffffffffda00 <bufferLen+0xffffffffff5faa00>
 59e:	0000                	unimp
 5a0:	0000                	unimp
 5a2:	7200                	ld	s0,32(a2)
 5a4:	0000a003          	lw	zero,0(ra)
 5a8:	0000                	unimp
 5aa:	0200                	addi	s0,sp,256
 5ac:	9f30                	0x9f30
 5ae:	a0037207          	0xa0037207
 5b2:	0000                	unimp
 5b4:	0000                	unimp
 5b6:	7800                	ld	s0,48(s0)
 5b8:	0000a003          	lw	zero,0(ra)
 5bc:	0000                	unimp
 5be:	0200                	addi	s0,sp,256
 5c0:	9f31                	addw	a4,a4,a2
 5c2:	a0037807          	0xa0037807
 5c6:	0000                	unimp
 5c8:	0000                	unimp
 5ca:	7c00                	ld	s0,56(s0)
 5cc:	0000a003          	lw	zero,0(ra)
 5d0:	0000                	unimp
 5d2:	0200                	addi	s0,sp,256
 5d4:	9f30                	0x9f30
 5d6:	a0040407          	0xa0040407
 5da:	0000                	unimp
 5dc:	0000                	unimp
 5de:	0600                	addi	s0,sp,768
 5e0:	a004                	fsd	fs1,0(s0)
 5e2:	0000                	unimp
 5e4:	0000                	unimp
 5e6:	0200                	addi	s0,sp,256
 5e8:	9f31                	addw	a4,a4,a2
 5ea:	a0045207          	0xa0045207
 5ee:	0000                	unimp
 5f0:	0000                	unimp
 5f2:	a000                	fsd	fs0,0(s0)
 5f4:	a004                	fsd	fs1,0(s0)
 5f6:	0000                	unimp
 5f8:	0000                	unimp
 5fa:	0200                	addi	s0,sp,256
 5fc:	9f30                	0x9f30
 5fe:	0700                	addi	s0,sp,896
 600:	033c                	addi	a5,sp,392
 602:	00a0                	addi	s0,sp,72
 604:	0000                	unimp
 606:	0000                	unimp
 608:	0372                	slli	t1,t1,0x1c
 60a:	00a0                	addi	s0,sp,72
 60c:	0000                	unimp
 60e:	0000                	unimp
 610:	3002                	fld	ft0,32(sp)
 612:	079f 045a 00a0      	0xa0045a079f
 618:	0000                	unimp
 61a:	0000                	unimp
 61c:	04a0                	addi	s0,sp,584
 61e:	00a0                	addi	s0,sp,72
 620:	0000                	unimp
 622:	0000                	unimp
 624:	3002                	fld	ft0,32(sp)
 626:	009f 3c07 a003      	0xa0033c07009f
 62c:	0000                	unimp
 62e:	0000                	unimp
 630:	7200                	ld	s0,32(a2)
 632:	0000a003          	lw	zero,0(ra)
 636:	0000                	unimp
 638:	0200                	addi	s0,sp,256
 63a:	9f40                	0x9f40
 63c:	a0045a07          	0xa0045a07
 640:	0000                	unimp
 642:	0000                	unimp
 644:	a000                	fsd	fs0,0(s0)
 646:	a004                	fsd	fs1,0(s0)
 648:	0000                	unimp
 64a:	0000                	unimp
 64c:	0200                	addi	s0,sp,256
 64e:	9f40                	0x9f40
 650:	0700                	addi	s0,sp,896
 652:	045e                	slli	s0,s0,0x17
 654:	00a0                	addi	s0,sp,72
 656:	0000                	unimp
 658:	0000                	unimp
 65a:	0464                	addi	s1,sp,524
 65c:	00a0                	addi	s0,sp,72
 65e:	0000                	unimp
 660:	0000                	unimp
 662:	3002                	fld	ft0,32(sp)
 664:	079f 0466 00a0      	0xa00466079f
 66a:	0000                	unimp
 66c:	0000                	unimp
 66e:	0468                	addi	a0,sp,524
 670:	00a0                	addi	s0,sp,72
 672:	0000                	unimp
 674:	0000                	unimp
 676:	9f017a03          	0x9f017a03
 67a:	a0046807          	0xa0046807
 67e:	0000                	unimp
 680:	0000                	unimp
 682:	a000                	fsd	fs0,0(s0)
 684:	a004                	fsd	fs1,0(s0)
 686:	0000                	unimp
 688:	0000                	unimp
 68a:	0100                	addi	s0,sp,128
 68c:	005a                	c.slli	zero,0x16
 68e:	a0045e07          	0xa0045e07
 692:	0000                	unimp
 694:	0000                	unimp
 696:	a000                	fsd	fs0,0(s0)
 698:	a004                	fsd	fs1,0(s0)
 69a:	0000                	unimp
 69c:	0000                	unimp
 69e:	0100                	addi	s0,sp,128
 6a0:	3c07005b          	0x3c07005b
 6a4:	0000a003          	lw	zero,0(ra)
 6a8:	0000                	unimp
 6aa:	4a00                	lw	s0,16(a2)
 6ac:	0000a003          	lw	zero,0(ra)
 6b0:	0000                	unimp
 6b2:	0200                	addi	s0,sp,256
 6b4:	0076                	c.slli	zero,0x1d
 6b6:	a0035407          	0xa0035407
 6ba:	0000                	unimp
 6bc:	0000                	unimp
 6be:	6e00                	ld	s0,24(a2)
 6c0:	0000a003          	lw	zero,0(ra)
 6c4:	0000                	unimp
 6c6:	0200                	addi	s0,sp,256
 6c8:	0076                	c.slli	zero,0x1d
 6ca:	0700                	addi	s0,sp,896
 6cc:	033c                	addi	a5,sp,392
 6ce:	00a0                	addi	s0,sp,72
 6d0:	0000                	unimp
 6d2:	0000                	unimp
 6d4:	0346                	slli	t1,t1,0x11
 6d6:	00a0                	addi	s0,sp,72
 6d8:	0000                	unimp
 6da:	0000                	unimp
 6dc:	9f800803          	lb	a6,-1544(zero) # fffffffffffff9f8 <bufferLen+0xffffffffff5fc9f8>
 6e0:	0700                	addi	s0,sp,896
 6e2:	033c                	addi	a5,sp,392
 6e4:	00a0                	addi	s0,sp,72
 6e6:	0000                	unimp
 6e8:	0000                	unimp
 6ea:	0346                	slli	t1,t1,0x11
 6ec:	00a0                	addi	s0,sp,72
 6ee:	0000                	unimp
 6f0:	0000                	unimp
 6f2:	030a                	slli	t1,t1,0x2
 6f4:	2000                	fld	fs0,0(s0)
 6f6:	00a0                	addi	s0,sp,72
 6f8:	0000                	unimp
 6fa:	0000                	unimp
 6fc:	009f fc07 a000      	0xa000fc07009f
 702:	0000                	unimp
 704:	0000                	unimp
 706:	0a00                	addi	s0,sp,272
 708:	a001                	j	708 <_text-0x9ff8f8>
 70a:	0000                	unimp
 70c:	0000                	unimp
 70e:	0500                	addi	s0,sp,640
 710:	2d300077          	0x2d300077
 714:	009f fc07 a000      	0xa000fc07009f
 71a:	0000                	unimp
 71c:	0000                	unimp
 71e:	5c00                	lw	s0,56(s0)
 720:	a001                	j	720 <_text-0x9ff8e0>
 722:	0000                	unimp
 724:	0000                	unimp
 726:	0200                	addi	s0,sp,256
 728:	9f3a                	add	t5,t5,a4
 72a:	a002ce07          	flq	ft8,-1536(t0)
 72e:	0000                	unimp
 730:	0000                	unimp
 732:	0600                	addi	s0,sp,768
 734:	0000a003          	lw	zero,0(ra)
 738:	0000                	unimp
 73a:	0200                	addi	s0,sp,256
 73c:	9f3a                	add	t5,t5,a4
 73e:	0700                	addi	s0,sp,896
 740:	00fc                	addi	a5,sp,76
 742:	00a0                	addi	s0,sp,72
 744:	0000                	unimp
 746:	0000                	unimp
 748:	0150                	addi	a2,sp,132
 74a:	00a0                	addi	s0,sp,72
 74c:	0000                	unimp
 74e:	0000                	unimp
 750:	5701                	li	a4,-32
 752:	0700                	addi	s0,sp,896
 754:	010c                	addi	a1,sp,128
 756:	00a0                	addi	s0,sp,72
 758:	0000                	unimp
 75a:	0000                	unimp
 75c:	010e                	slli	sp,sp,0x3
 75e:	00a0                	addi	s0,sp,72
 760:	0000                	unimp
 762:	0000                	unimp
 764:	9f017b03          	0x9f017b03
 768:	a0010e07          	0xa0010e07
 76c:	0000                	unimp
 76e:	0000                	unimp
 770:	2c00                	fld	fs0,24(s0)
 772:	a001                	j	772 <_text-0x9ff88e>
 774:	0000                	unimp
 776:	0000                	unimp
 778:	0100                	addi	s0,sp,128
 77a:	012c075b          	0x12c075b
 77e:	00a0                	addi	s0,sp,72
 780:	0000                	unimp
 782:	0000                	unimp
 784:	013c                	addi	a5,sp,136
 786:	00a0                	addi	s0,sp,72
 788:	0000                	unimp
 78a:	0000                	unimp
 78c:	9f027603          	0x9f027603
 790:	a0013c07          	fld	fs8,-1536(sp)
 794:	0000                	unimp
 796:	0000                	unimp
 798:	5200                	lw	s0,32(a2)
 79a:	a001                	j	79a <_text-0x9ff866>
 79c:	0000                	unimp
 79e:	0000                	unimp
 7a0:	0300                	addi	s0,sp,384
 7a2:	009f7f7b          	0x9f7f7b
 7a6:	a0010a07          	0xa0010a07
 7aa:	0000                	unimp
 7ac:	0000                	unimp
 7ae:	3000                	fld	fs0,32(s0)
 7b0:	a001                	j	7b0 <_text-0x9ff850>
 7b2:	0000                	unimp
 7b4:	0000                	unimp
 7b6:	0100                	addi	s0,sp,128
 7b8:	075e                	slli	a4,a4,0x17
 7ba:	0130                	addi	a2,sp,136
 7bc:	00a0                	addi	s0,sp,72
 7be:	0000                	unimp
 7c0:	0000                	unimp
 7c2:	015c                	addi	a5,sp,132
 7c4:	00a0                	addi	s0,sp,72
 7c6:	0000                	unimp
 7c8:	0000                	unimp
 7ca:	7a0c                	ld	a1,48(a2)
 7cc:	a800                	fsd	fs0,16(s0)
 7ce:	8c2e                	mv	s8,a1
 7d0:	a800                	fsd	fs0,16(s0)
 7d2:	1b2e                	slli	s6,s6,0x2b
 7d4:	00a8                	addi	a0,sp,72
 7d6:	009f ce07 a002      	0xa002ce07009f
 7dc:	0000                	unimp
 7de:	0000                	unimp
 7e0:	dc00                	sw	s0,56(s0)
 7e2:	a002                	fsd	ft0,0(sp)
 7e4:	0000                	unimp
 7e6:	0000                	unimp
 7e8:	0200                	addi	s0,sp,256
 7ea:	7f76                	ld	t5,376(sp)
 7ec:	a002e607          	0xa002e607
 7f0:	0000                	unimp
 7f2:	0000                	unimp
 7f4:	0000                	unimp
 7f6:	0000a003          	lw	zero,0(ra)
 7fa:	0000                	unimp
 7fc:	0200                	addi	s0,sp,256
 7fe:	7f76                	ld	t5,376(sp)
 800:	0700                	addi	s0,sp,896
 802:	02ce                	slli	t0,t0,0x13
 804:	00a0                	addi	s0,sp,72
 806:	0000                	unimp
 808:	0000                	unimp
 80a:	02d8                	addi	a4,sp,324
 80c:	00a0                	addi	s0,sp,72
 80e:	0000                	unimp
 810:	0000                	unimp
 812:	9f800803          	lb	a6,-1544(zero) # fffffffffffff9f8 <bufferLen+0xffffffffff5fc9f8>
 816:	0700                	addi	s0,sp,896
 818:	02ce                	slli	t0,t0,0x13
 81a:	00a0                	addi	s0,sp,72
 81c:	0000                	unimp
 81e:	0000                	unimp
 820:	02d8                	addi	a4,sp,324
 822:	00a0                	addi	s0,sp,72
 824:	0000                	unimp
 826:	0000                	unimp
 828:	030a                	slli	t1,t1,0x2
 82a:	2000                	fld	fs0,0(s0)
 82c:	00a0                	addi	s0,sp,72
 82e:	0000                	unimp
 830:	0000                	unimp
 832:	009f 1807 a004      	0xa0041807009f
 838:	0000                	unimp
 83a:	0000                	unimp
 83c:	3c00                	fld	fs0,56(s0)
 83e:	a004                	fsd	fs1,0(s0)
 840:	0000                	unimp
 842:	0000                	unimp
 844:	0100                	addi	s0,sp,128
 846:	075d                	addi	a4,a4,23
 848:	0446                	slli	s0,s0,0x11
 84a:	00a0                	addi	s0,sp,72
 84c:	0000                	unimp
 84e:	0000                	unimp
 850:	0452                	slli	s0,s0,0x14
 852:	00a0                	addi	s0,sp,72
 854:	0000                	unimp
 856:	0000                	unimp
 858:	5d01                	li	s10,-32
 85a:	0700                	addi	s0,sp,896
 85c:	042c                	addi	a1,sp,520
 85e:	00a0                	addi	s0,sp,72
 860:	0000                	unimp
 862:	0000                	unimp
 864:	0436                	slli	s0,s0,0xd
 866:	00a0                	addi	s0,sp,72
 868:	0000                	unimp
 86a:	0000                	unimp
 86c:	9f800803          	lb	a6,-1544(zero) # fffffffffffff9f8 <bufferLen+0xffffffffff5fc9f8>
 870:	0700                	addi	s0,sp,896
 872:	042c                	addi	a1,sp,520
 874:	00a0                	addi	s0,sp,72
 876:	0000                	unimp
 878:	0000                	unimp
 87a:	0436                	slli	s0,s0,0xd
 87c:	00a0                	addi	s0,sp,72
 87e:	0000                	unimp
 880:	0000                	unimp
 882:	030a                	slli	t1,t1,0x2
 884:	2000                	fld	fs0,0(s0)
 886:	00a0                	addi	s0,sp,72
 888:	0000                	unimp
 88a:	0000                	unimp
 88c:	009f 8407 a003      	0xa0038407009f
 892:	0000                	unimp
 894:	0000                	unimp
 896:	8c00                	0x8c00
 898:	0000a003          	lw	zero,0(ra)
 89c:	0000                	unimp
 89e:	0100                	addi	s0,sp,128
 8a0:	075d                	addi	a4,a4,23
 8a2:	0398                	addi	a4,sp,448
 8a4:	00a0                	addi	s0,sp,72
 8a6:	0000                	unimp
 8a8:	0000                	unimp
 8aa:	039a                	slli	t2,t2,0x6
 8ac:	00a0                	addi	s0,sp,72
 8ae:	0000                	unimp
 8b0:	0000                	unimp
 8b2:	9f7f7d03          	0x9f7f7d03
 8b6:	a0039a07          	0xa0039a07
 8ba:	0000                	unimp
 8bc:	0000                	unimp
 8be:	b600                	fsd	fs0,40(a2)
 8c0:	0000a003          	lw	zero,0(ra)
 8c4:	0000                	unimp
 8c6:	0100                	addi	s0,sp,128
 8c8:	076d                	addi	a4,a4,27
 8ca:	03b6                	slli	t2,t2,0xd
 8cc:	00a0                	addi	s0,sp,72
 8ce:	0000                	unimp
 8d0:	0000                	unimp
 8d2:	03bc                	addi	a5,sp,456
 8d4:	00a0                	addi	s0,sp,72
 8d6:	0000                	unimp
 8d8:	0000                	unimp
 8da:	5d01                	li	s10,-32
 8dc:	a003bc07          	fld	fs8,-1536(t2)
 8e0:	0000                	unimp
 8e2:	0000                	unimp
 8e4:	c000                	sw	s0,0(s0)
 8e6:	0000a003          	lw	zero,0(ra)
 8ea:	0000                	unimp
 8ec:	0100                	addi	s0,sp,128
 8ee:	076d                	addi	a4,a4,27
 8f0:	03c0                	addi	s0,sp,452
 8f2:	00a0                	addi	s0,sp,72
 8f4:	0000                	unimp
 8f6:	0000                	unimp
 8f8:	03e6                	slli	t2,t2,0x19
 8fa:	00a0                	addi	s0,sp,72
 8fc:	0000                	unimp
 8fe:	0000                	unimp
 900:	9f7f7d03          	0x9f7f7d03
 904:	a003e607          	0xa003e607
 908:	0000                	unimp
 90a:	0000                	unimp
 90c:	0400                	addi	s0,sp,512
 90e:	a004                	fsd	fs1,0(s0)
 910:	0000                	unimp
 912:	0000                	unimp
 914:	0100                	addi	s0,sp,128
 916:	005d                	c.nop	23
 918:	a003c407          	flq	fs0,-1536(t2)
 91c:	0000                	unimp
 91e:	0000                	unimp
 920:	e400                	sd	s0,8(s0)
 922:	0000a003          	lw	zero,0(ra)
 926:	0000                	unimp
 928:	0200                	addi	s0,sp,256
 92a:	9f3d                	addw	a4,a4,a5
 92c:	0700                	addi	s0,sp,896
 92e:	03da                	slli	t2,t2,0x16
 930:	00a0                	addi	s0,sp,72
 932:	0000                	unimp
 934:	0000                	unimp
 936:	03e4                	addi	s1,sp,460
 938:	00a0                	addi	s0,sp,72
 93a:	0000                	unimp
 93c:	0000                	unimp
 93e:	9f800803          	lb	a6,-1544(zero) # fffffffffffff9f8 <bufferLen+0xffffffffff5fc9f8>
 942:	0700                	addi	s0,sp,896
 944:	03da                	slli	t2,t2,0x16
 946:	00a0                	addi	s0,sp,72
 948:	0000                	unimp
 94a:	0000                	unimp
 94c:	03e4                	addi	s1,sp,460
 94e:	00a0                	addi	s0,sp,72
 950:	0000                	unimp
 952:	0000                	unimp
 954:	030a                	slli	t1,t1,0x2
 956:	2000                	fld	fs0,0(s0)
 958:	00a0                	addi	s0,sp,72
 95a:	0000                	unimp
 95c:	0000                	unimp
 95e:	009f 9e07 a003      	0xa0039e07009f
 964:	0000                	unimp
 966:	0000                	unimp
 968:	b200                	fsd	fs0,32(a2)
 96a:	0000a003          	lw	zero,0(ra)
 96e:	0000                	unimp
 970:	0200                	addi	s0,sp,256
 972:	7f8d                	lui	t6,0xfffe3
 974:	a003b207          	fld	ft4,-1536(t2)
 978:	0000                	unimp
 97a:	0000                	unimp
 97c:	b600                	fsd	fs0,40(a2)
 97e:	0000a003          	lw	zero,0(ra)
 982:	0000                	unimp
 984:	0100                	addi	s0,sp,128
 986:	075a                	slli	a4,a4,0x16
 988:	03ea                	slli	t2,t2,0x1a
 98a:	00a0                	addi	s0,sp,72
 98c:	0000                	unimp
 98e:	0000                	unimp
 990:	03f2                	slli	t2,t2,0x1c
 992:	00a0                	addi	s0,sp,72
 994:	0000                	unimp
 996:	0000                	unimp
 998:	7d02                	ld	s10,32(sp)
 99a:	077f                	0x77f
 99c:	03f2                	slli	t2,t2,0x1c
 99e:	00a0                	addi	s0,sp,72
 9a0:	0000                	unimp
 9a2:	0000                	unimp
 9a4:	03f4                	addi	a3,sp,460
 9a6:	00a0                	addi	s0,sp,72
 9a8:	0000                	unimp
 9aa:	0000                	unimp
 9ac:	5e01                	li	t3,-32
 9ae:	a003f407          	0xa003f407
 9b2:	0000                	unimp
 9b4:	0000                	unimp
 9b6:	f600                	sd	s0,40(a2)
 9b8:	0000a003          	lw	zero,0(ra)
 9bc:	0000                	unimp
 9be:	0100                	addi	s0,sp,128
 9c0:	005a                	c.slli	zero,0x16
 9c2:	a003f407          	0xa003f407
 9c6:	0000                	unimp
 9c8:	0000                	unimp
 9ca:	fe00                	sd	s0,56(a2)
 9cc:	0000a003          	lw	zero,0(ra)
 9d0:	0000                	unimp
 9d2:	0300                	addi	s0,sp,384
 9d4:	8008                	0x8008
 9d6:	009f f407 a003      	0xa003f407009f
 9dc:	0000                	unimp
 9de:	0000                	unimp
 9e0:	fe00                	sd	s0,56(a2)
 9e2:	0000a003          	lw	zero,0(ra)
 9e6:	0000                	unimp
 9e8:	0a00                	addi	s0,sp,272
 9ea:	a0200003          	lb	zero,-1534(zero) # fffffffffffffa02 <bufferLen+0xffffffffff5fca02>
 9ee:	0000                	unimp
 9f0:	0000                	unimp
 9f2:	9f00                	0x9f00
 9f4:	0700                	addi	s0,sp,896
 9f6:	00a6                	slli	ra,ra,0x9
 9f8:	00a0                	addi	s0,sp,72
 9fa:	0000                	unimp
 9fc:	0000                	unimp
 9fe:	00ac                	addi	a1,sp,72
 a00:	00a0                	addi	s0,sp,72
 a02:	0000                	unimp
 a04:	0000                	unimp
 a06:	7d02                	ld	s10,32(sp)
 a08:	0700                	addi	s0,sp,896
 a0a:	0180                	addi	s0,sp,192
 a0c:	00a0                	addi	s0,sp,72
 a0e:	0000                	unimp
 a10:	0000                	unimp
 a12:	0188                	addi	a0,sp,192
 a14:	00a0                	addi	s0,sp,72
 a16:	0000                	unimp
 a18:	0000                	unimp
 a1a:	7d02                	ld	s10,32(sp)
 a1c:	0000                	unimp
 a1e:	a0018a07          	0xa0018a07
 a22:	0000                	unimp
 a24:	0000                	unimp
 a26:	9400                	0x9400
 a28:	a001                	j	a28 <_text-0x9ff5d8>
 a2a:	0000                	unimp
 a2c:	0000                	unimp
 a2e:	0300                	addi	s0,sp,384
 a30:	8008                	0x8008
 a32:	009f 8a07 a001      	0xa0018a07009f
 a38:	0000                	unimp
 a3a:	0000                	unimp
 a3c:	9400                	0x9400
 a3e:	a001                	j	a3e <_text-0x9ff5c2>
 a40:	0000                	unimp
 a42:	0000                	unimp
 a44:	0a00                	addi	s0,sp,272
 a46:	a0200003          	lb	zero,-1534(zero) # fffffffffffffa02 <bufferLen+0xffffffffff5fca02>
 a4a:	0000                	unimp
 a4c:	0000                	unimp
 a4e:	9f00                	0x9f00
 a50:	0700                	addi	s0,sp,896
 a52:	0234                	addi	a3,sp,264
 a54:	00a0                	addi	s0,sp,72
 a56:	0000                	unimp
 a58:	0000                	unimp
 a5a:	02ce                	slli	t0,t0,0x13
 a5c:	00a0                	addi	s0,sp,72
 a5e:	0000                	unimp
 a60:	0000                	unimp
 a62:	3a02                	fld	fs4,32(sp)
 a64:	009f 4607 a002      	0xa0024607009f
 a6a:	0000                	unimp
 a6c:	0000                	unimp
 a6e:	4800                	lw	s0,16(s0)
 a70:	a002                	fsd	ft0,0(sp)
 a72:	0000                	unimp
 a74:	0000                	unimp
 a76:	0300                	addi	s0,sp,384
 a78:	079f017b          	0x79f017b
 a7c:	0248                	addi	a0,sp,260
 a7e:	00a0                	addi	s0,sp,72
 a80:	0000                	unimp
 a82:	0000                	unimp
 a84:	0266                	slli	tp,tp,0x19
 a86:	00a0                	addi	s0,sp,72
 a88:	0000                	unimp
 a8a:	0000                	unimp
 a8c:	5b01                	li	s6,-32
 a8e:	a0026607          	0xa0026607
 a92:	0000                	unimp
 a94:	0000                	unimp
 a96:	7600                	ld	s0,40(a2)
 a98:	a002                	fsd	ft0,0(sp)
 a9a:	0000                	unimp
 a9c:	0000                	unimp
 a9e:	0300                	addi	s0,sp,384
 aa0:	0281                	addi	t0,t0,0
 aa2:	079f 0276 00a0      	0xa00276079f
 aa8:	0000                	unimp
 aaa:	0000                	unimp
 aac:	028c                	addi	a1,sp,320
 aae:	00a0                	addi	s0,sp,72
 ab0:	0000                	unimp
 ab2:	0000                	unimp
 ab4:	9f7f7b03          	0x9f7f7b03
 ab8:	0700                	addi	s0,sp,896
 aba:	0244                	addi	s1,sp,260
 abc:	00a0                	addi	s0,sp,72
 abe:	0000                	unimp
 ac0:	0000                	unimp
 ac2:	026a                	slli	tp,tp,0x1a
 ac4:	00a0                	addi	s0,sp,72
 ac6:	0000                	unimp
 ac8:	0000                	unimp
 aca:	5e01                	li	t3,-32
 acc:	a0026a07          	0xa0026a07
 ad0:	0000                	unimp
 ad2:	0000                	unimp
 ad4:	8200                	0x8200
 ad6:	a002                	fsd	ft0,0(sp)
 ad8:	0000                	unimp
 ada:	0000                	unimp
 adc:	0c00                	addi	s0,sp,528
 ade:	007d                	c.nop	31
 ae0:	2ea8                	fld	fa0,88(a3)
 ae2:	008c                	addi	a1,sp,64
 ae4:	2ea8                	fld	fa0,88(a3)
 ae6:	9f00a81b          	0x9f00a81b
 aea:	0700                	addi	s0,sp,896
 aec:	0296                	slli	t0,t0,0x5
 aee:	00a0                	addi	s0,sp,72
 af0:	0000                	unimp
 af2:	0000                	unimp
 af4:	02a4                	addi	s1,sp,328
 af6:	00a0                	addi	s0,sp,72
 af8:	0000                	unimp
 afa:	0000                	unimp
 afc:	7d02                	ld	s10,32(sp)
 afe:	077f                	0x77f
 b00:	02ae                	slli	t0,t0,0xb
 b02:	00a0                	addi	s0,sp,72
 b04:	0000                	unimp
 b06:	0000                	unimp
 b08:	02c8                	addi	a0,sp,324
 b0a:	00a0                	addi	s0,sp,72
 b0c:	0000                	unimp
 b0e:	0000                	unimp
 b10:	7d02                	ld	s10,32(sp)
 b12:	007f                	0x7f
 b14:	a0029607          	0xa0029607
 b18:	0000                	unimp
 b1a:	0000                	unimp
 b1c:	a000                	fsd	fs0,0(s0)
 b1e:	a002                	fsd	ft0,0(sp)
 b20:	0000                	unimp
 b22:	0000                	unimp
 b24:	0300                	addi	s0,sp,384
 b26:	8008                	0x8008
 b28:	009f 9607 a002      	0xa0029607009f
 b2e:	0000                	unimp
 b30:	0000                	unimp
 b32:	a000                	fsd	fs0,0(s0)
 b34:	a002                	fsd	ft0,0(sp)
 b36:	0000                	unimp
 b38:	0000                	unimp
 b3a:	0a00                	addi	s0,sp,272
 b3c:	a0200003          	lb	zero,-1534(zero) # fffffffffffffa02 <bufferLen+0xffffffffff5fca02>
 b40:	0000                	unimp
 b42:	0000                	unimp
 b44:	9f00                	0x9f00
 b46:	0700                	addi	s0,sp,896
 b48:	015c                	addi	a5,sp,132
 b4a:	00a0                	addi	s0,sp,72
 b4c:	0000                	unimp
 b4e:	0000                	unimp
 b50:	017c                	addi	a5,sp,140
 b52:	00a0                	addi	s0,sp,72
 b54:	0000                	unimp
 b56:	0000                	unimp
 b58:	3d02                	fld	fs10,32(sp)
 b5a:	009f 7207 a001      	0xa0017207009f
 b60:	0000                	unimp
 b62:	0000                	unimp
 b64:	7c00                	ld	s0,56(s0)
 b66:	a001                	j	b66 <_text-0x9ff49a>
 b68:	0000                	unimp
 b6a:	0000                	unimp
 b6c:	0300                	addi	s0,sp,384
 b6e:	8008                	0x8008
 b70:	009f 7207 a001      	0xa0017207009f
 b76:	0000                	unimp
 b78:	0000                	unimp
 b7a:	7c00                	ld	s0,56(s0)
 b7c:	a001                	j	b7c <_text-0x9ff484>
 b7e:	0000                	unimp
 b80:	0000                	unimp
 b82:	0a00                	addi	s0,sp,272
 b84:	a0200003          	lb	zero,-1534(zero) # fffffffffffffa02 <bufferLen+0xffffffffff5fca02>
 b88:	0000                	unimp
 b8a:	0000                	unimp
 b8c:	9f00                	0x9f00
 b8e:	0700                	addi	s0,sp,896
 b90:	01be                	slli	gp,gp,0xf
 b92:	00a0                	addi	s0,sp,72
 b94:	0000                	unimp
 b96:	0000                	unimp
 b98:	0200                	addi	s0,sp,256
 b9a:	00a0                	addi	s0,sp,72
 b9c:	0000                	unimp
 b9e:	0000                	unimp
 ba0:	3002                	fld	ft0,32(sp)
 ba2:	079f 0306 00a0      	0xa00306079f
 ba8:	0000                	unimp
 baa:	0000                	unimp
 bac:	033c                	addi	a5,sp,392
 bae:	00a0                	addi	s0,sp,72
 bb0:	0000                	unimp
 bb2:	0000                	unimp
 bb4:	3002                	fld	ft0,32(sp)
 bb6:	009f be07 a001      	0xa001be07009f
 bbc:	0000                	unimp
 bbe:	0000                	unimp
 bc0:	0000                	unimp
 bc2:	a002                	fsd	ft0,0(sp)
 bc4:	0000                	unimp
 bc6:	0000                	unimp
 bc8:	0200                	addi	s0,sp,256
 bca:	9f40                	0x9f40
 bcc:	a0030607          	0xa0030607
 bd0:	0000                	unimp
 bd2:	0000                	unimp
 bd4:	3c00                	fld	fs0,56(s0)
 bd6:	0000a003          	lw	zero,0(ra)
 bda:	0000                	unimp
 bdc:	0200                	addi	s0,sp,256
 bde:	9f40                	0x9f40
 be0:	0700                	addi	s0,sp,896
 be2:	01be                	slli	gp,gp,0xf
 be4:	00a0                	addi	s0,sp,72
 be6:	0000                	unimp
 be8:	0000                	unimp
 bea:	01c4                	addi	s1,sp,196
 bec:	00a0                	addi	s0,sp,72
 bee:	0000                	unimp
 bf0:	0000                	unimp
 bf2:	3002                	fld	ft0,32(sp)
 bf4:	079f 01c6 00a0      	0xa001c6079f
 bfa:	0000                	unimp
 bfc:	0000                	unimp
 bfe:	01c8                	addi	a0,sp,196
 c00:	00a0                	addi	s0,sp,72
 c02:	0000                	unimp
 c04:	0000                	unimp
 c06:	9f017a03          	0x9f017a03
 c0a:	a001c807          	flq	fa6,-1536(gp)
 c0e:	0000                	unimp
 c10:	0000                	unimp
 c12:	0000                	unimp
 c14:	a002                	fsd	ft0,0(sp)
 c16:	0000                	unimp
 c18:	0000                	unimp
 c1a:	0100                	addi	s0,sp,128
 c1c:	005a                	c.slli	zero,0x16
 c1e:	a001c407          	flq	fs0,-1536(gp)
 c22:	0000                	unimp
 c24:	0000                	unimp
 c26:	0000                	unimp
 c28:	a002                	fsd	ft0,0(sp)
 c2a:	0000                	unimp
 c2c:	0000                	unimp
 c2e:	0100                	addi	s0,sp,128
 c30:	0607005b          	0x607005b
 c34:	0000a003          	lw	zero,0(ra)
 c38:	0000                	unimp
 c3a:	1400                	addi	s0,sp,544
 c3c:	0000a003          	lw	zero,0(ra)
 c40:	0000                	unimp
 c42:	0200                	addi	s0,sp,256
 c44:	0076                	c.slli	zero,0x1d
 c46:	a0031e07          	0xa0031e07
 c4a:	0000                	unimp
 c4c:	0000                	unimp
 c4e:	3800                	fld	fs0,48(s0)
 c50:	0000a003          	lw	zero,0(ra)
 c54:	0000                	unimp
 c56:	0200                	addi	s0,sp,256
 c58:	0076                	c.slli	zero,0x1d
 c5a:	0700                	addi	s0,sp,896
 c5c:	0306                	slli	t1,t1,0x1
 c5e:	00a0                	addi	s0,sp,72
 c60:	0000                	unimp
 c62:	0000                	unimp
 c64:	0310                	addi	a2,sp,384
 c66:	00a0                	addi	s0,sp,72
 c68:	0000                	unimp
 c6a:	0000                	unimp
 c6c:	9f800803          	lb	a6,-1544(zero) # fffffffffffff9f8 <bufferLen+0xffffffffff5fc9f8>
 c70:	0700                	addi	s0,sp,896
 c72:	0306                	slli	t1,t1,0x1
 c74:	00a0                	addi	s0,sp,72
 c76:	0000                	unimp
 c78:	0000                	unimp
 c7a:	0310                	addi	a2,sp,384
 c7c:	00a0                	addi	s0,sp,72
 c7e:	0000                	unimp
 c80:	0000                	unimp
 c82:	030a                	slli	t1,t1,0x2
 c84:	2000                	fld	fs0,0(s0)
 c86:	00a0                	addi	s0,sp,72
 c88:	0000                	unimp
 c8a:	0000                	unimp
 c8c:	009f 0407 a002      	0xa0020407009f
 c92:	0000                	unimp
 c94:	0000                	unimp
 c96:	2c00                	fld	fs0,24(s0)
 c98:	a002                	fsd	ft0,0(sp)
 c9a:	0000                	unimp
 c9c:	0000                	unimp
 c9e:	0300                	addi	s0,sp,384
 ca0:	2508                	fld	fa0,8(a0)
 ca2:	009f 1c07 a002      	0xa0021c07009f
 ca8:	0000                	unimp
 caa:	0000                	unimp
 cac:	2600                	fld	fs0,8(a2)
 cae:	a002                	fsd	ft0,0(sp)
 cb0:	0000                	unimp
 cb2:	0000                	unimp
 cb4:	0300                	addi	s0,sp,384
 cb6:	8008                	0x8008
 cb8:	009f 1c07 a002      	0xa0021c07009f
 cbe:	0000                	unimp
 cc0:	0000                	unimp
 cc2:	2600                	fld	fs0,8(a2)
 cc4:	a002                	fsd	ft0,0(sp)
 cc6:	0000                	unimp
 cc8:	0000                	unimp
 cca:	0a00                	addi	s0,sp,272
 ccc:	a0200003          	lb	zero,-1534(zero) # fffffffffffffa02 <bufferLen+0xffffffffff5fca02>
 cd0:	0000                	unimp
 cd2:	0000                	unimp
 cd4:	9f00                	0x9f00
 cd6:	0700                	addi	s0,sp,896
 cd8:	0406                	slli	s0,s0,0x1
 cda:	00a0                	addi	s0,sp,72
 cdc:	0000                	unimp
 cde:	0000                	unimp
 ce0:	0418                	addi	a4,sp,512
 ce2:	00a0                	addi	s0,sp,72
 ce4:	0000                	unimp
 ce6:	0000                	unimp
 ce8:	9f250803          	lb	a6,-1550(a0)
 cec:	a0043c07          	fld	fs8,-1536(s0)
 cf0:	0000                	unimp
 cf2:	0000                	unimp
 cf4:	4600                	lw	s0,8(a2)
 cf6:	a004                	fsd	fs1,0(s0)
 cf8:	0000                	unimp
 cfa:	0000                	unimp
 cfc:	0300                	addi	s0,sp,384
 cfe:	2508                	fld	fa0,8(a0)
 d00:	009f 3c07 a004      	0xa0043c07009f
 d06:	0000                	unimp
 d08:	0000                	unimp
 d0a:	4600                	lw	s0,8(a2)
 d0c:	a004                	fsd	fs1,0(s0)
 d0e:	0000                	unimp
 d10:	0000                	unimp
 d12:	0300                	addi	s0,sp,384
 d14:	8008                	0x8008
 d16:	009f 3c07 a004      	0xa0043c07009f
 d1c:	0000                	unimp
 d1e:	0000                	unimp
 d20:	4600                	lw	s0,8(a2)
 d22:	a004                	fsd	fs1,0(s0)
 d24:	0000                	unimp
 d26:	0000                	unimp
 d28:	0a00                	addi	s0,sp,272
 d2a:	a0200003          	lb	zero,-1534(zero) # fffffffffffffa02 <bufferLen+0xffffffffff5fca02>
 d2e:	0000                	unimp
 d30:	0000                	unimp
 d32:	9f00                	0x9f00
	...

Disassembly of section .debug_rnglists:

0000000000000000 <.debug_rnglists>:
   0:	0000041b          	sext.w	s0,zero
   4:	0005                	c.nop	1
   6:	0008                	0x8
   8:	0000                	unimp
   a:	0000                	unimp
   c:	5406                	lw	s0,96(sp)
   e:	a000                	fsd	fs0,0(s0)
  10:	0000                	unimp
  12:	0000                	unimp
  14:	bc00                	fsd	fs0,56(s0)
  16:	a000                	fsd	fs0,0(s0)
  18:	0000                	unimp
  1a:	0000                	unimp
  1c:	0600                	addi	s0,sp,768
  1e:	00ca                	slli	ra,ra,0x12
  20:	00a0                	addi	s0,sp,72
  22:	0000                	unimp
  24:	0000                	unimp
  26:	023e                	slli	tp,tp,0xf
  28:	00a0                	addi	s0,sp,72
  2a:	0000                	unimp
  2c:	0000                	unimp
  2e:	4406                	lw	s0,64(sp)
  30:	a002                	fsd	ft0,0(sp)
  32:	0000                	unimp
  34:	0000                	unimp
  36:	a000                	fsd	fs0,0(s0)
  38:	a004                	fsd	fs1,0(s0)
  3a:	0000                	unimp
  3c:	0000                	unimp
  3e:	0000                	unimp
  40:	6406                	ld	s0,64(sp)
  42:	a000                	fsd	fs0,0(s0)
  44:	0000                	unimp
  46:	0000                	unimp
  48:	8400                	0x8400
  4a:	a000                	fsd	fs0,0(s0)
  4c:	0000                	unimp
  4e:	0000                	unimp
  50:	0600                	addi	s0,sp,768
  52:	033c                	addi	a5,sp,392
  54:	00a0                	addi	s0,sp,72
  56:	0000                	unimp
  58:	0000                	unimp
  5a:	0372                	slli	t1,t1,0x1c
  5c:	00a0                	addi	s0,sp,72
  5e:	0000                	unimp
  60:	0000                	unimp
  62:	5a06                	lw	s4,96(sp)
  64:	a004                	fsd	fs1,0(s0)
  66:	0000                	unimp
  68:	0000                	unimp
  6a:	a000                	fsd	fs0,0(s0)
  6c:	a004                	fsd	fs1,0(s0)
  6e:	0000                	unimp
  70:	0000                	unimp
  72:	0000                	unimp
  74:	7006                	0x7006
  76:	a000                	fsd	fs0,0(s0)
  78:	0000                	unimp
  7a:	0000                	unimp
  7c:	8400                	0x8400
  7e:	a000                	fsd	fs0,0(s0)
  80:	0000                	unimp
  82:	0000                	unimp
  84:	0600                	addi	s0,sp,768
  86:	033c                	addi	a5,sp,392
  88:	00a0                	addi	s0,sp,72
  8a:	0000                	unimp
  8c:	0000                	unimp
  8e:	034a                	slli	t1,t1,0x12
  90:	00a0                	addi	s0,sp,72
  92:	0000                	unimp
  94:	0000                	unimp
  96:	5406                	lw	s0,96(sp)
  98:	0000a003          	lw	zero,0(ra)
  9c:	0000                	unimp
  9e:	6e00                	ld	s0,24(a2)
  a0:	0000a003          	lw	zero,0(ra)
  a4:	0000                	unimp
  a6:	0000                	unimp
  a8:	8006                	c.mv	zero,ra
  aa:	a000                	fsd	fs0,0(s0)
  ac:	0000                	unimp
  ae:	0000                	unimp
  b0:	8400                	0x8400
  b2:	a000                	fsd	fs0,0(s0)
  b4:	0000                	unimp
  b6:	0000                	unimp
  b8:	0600                	addi	s0,sp,768
  ba:	033c                	addi	a5,sp,392
  bc:	00a0                	addi	s0,sp,72
  be:	0000                	unimp
  c0:	0000                	unimp
  c2:	034a                	slli	t1,t1,0x12
  c4:	00a0                	addi	s0,sp,72
  c6:	0000                	unimp
  c8:	0000                	unimp
  ca:	6806                	ld	a6,64(sp)
  cc:	0000a003          	lw	zero,0(ra)
  d0:	0000                	unimp
  d2:	6e00                	ld	s0,24(a2)
  d4:	0000a003          	lw	zero,0(ra)
  d8:	0000                	unimp
  da:	0000                	unimp
  dc:	8806                	mv	a6,ra
  de:	a000                	fsd	fs0,0(s0)
  e0:	0000                	unimp
  e2:	0000                	unimp
  e4:	9000                	0x9000
  e6:	a000                	fsd	fs0,0(s0)
  e8:	0000                	unimp
  ea:	0000                	unimp
  ec:	0600                	addi	s0,sp,768
  ee:	00fc                	addi	a5,sp,76
  f0:	00a0                	addi	s0,sp,72
  f2:	0000                	unimp
  f4:	0000                	unimp
  f6:	0104                	addi	s1,sp,128
  f8:	00a0                	addi	s0,sp,72
  fa:	0000                	unimp
  fc:	0000                	unimp
  fe:	0a06                	slli	s4,s4,0x1
 100:	a001                	j	100 <_text-0x9fff00>
 102:	0000                	unimp
 104:	0000                	unimp
 106:	5c00                	lw	s0,56(s0)
 108:	a001                	j	108 <_text-0x9ffef8>
 10a:	0000                	unimp
 10c:	0000                	unimp
 10e:	0600                	addi	s0,sp,768
 110:	02ce                	slli	t0,t0,0x13
 112:	00a0                	addi	s0,sp,72
 114:	0000                	unimp
 116:	0000                	unimp
 118:	0300                	addi	s0,sp,384
 11a:	00a0                	addi	s0,sp,72
 11c:	0000                	unimp
 11e:	0000                	unimp
 120:	0406                	slli	s0,s0,0x1
 122:	0000a003          	lw	zero,0(ra)
 126:	0000                	unimp
 128:	0600                	addi	s0,sp,768
 12a:	0000a003          	lw	zero,0(ra)
 12e:	0000                	unimp
 130:	0000                	unimp
 132:	ce06                	sw	ra,28(sp)
 134:	a002                	fsd	ft0,0(sp)
 136:	0000                	unimp
 138:	0000                	unimp
 13a:	dc00                	sw	s0,56(s0)
 13c:	a002                	fsd	ft0,0(sp)
 13e:	0000                	unimp
 140:	0000                	unimp
 142:	0600                	addi	s0,sp,768
 144:	02e6                	slli	t0,t0,0x19
 146:	00a0                	addi	s0,sp,72
 148:	0000                	unimp
 14a:	0000                	unimp
 14c:	0300                	addi	s0,sp,384
 14e:	00a0                	addi	s0,sp,72
 150:	0000                	unimp
 152:	0000                	unimp
 154:	0600                	addi	s0,sp,768
 156:	02ce                	slli	t0,t0,0x13
 158:	00a0                	addi	s0,sp,72
 15a:	0000                	unimp
 15c:	0000                	unimp
 15e:	02dc                	addi	a5,sp,324
 160:	00a0                	addi	s0,sp,72
 162:	0000                	unimp
 164:	0000                	unimp
 166:	fa06                	sd	ra,304(sp)
 168:	a002                	fsd	ft0,0(sp)
 16a:	0000                	unimp
 16c:	0000                	unimp
 16e:	0000                	unimp
 170:	0000a003          	lw	zero,0(ra)
 174:	0000                	unimp
 176:	0000                	unimp
 178:	9006                	c.add	zero,ra
 17a:	a000                	fsd	fs0,0(s0)
 17c:	0000                	unimp
 17e:	0000                	unimp
 180:	9200                	0x9200
 182:	a000                	fsd	fs0,0(s0)
 184:	0000                	unimp
 186:	0000                	unimp
 188:	0600                	addi	s0,sp,768
 18a:	0418                	addi	a4,sp,512
 18c:	00a0                	addi	s0,sp,72
 18e:	0000                	unimp
 190:	0000                	unimp
 192:	0422                	slli	s0,s0,0x8
 194:	00a0                	addi	s0,sp,72
 196:	0000                	unimp
 198:	0000                	unimp
 19a:	2606                	fld	fa2,64(sp)
 19c:	a004                	fsd	fs1,0(s0)
 19e:	0000                	unimp
 1a0:	0000                	unimp
 1a2:	3c00                	fld	fs0,56(s0)
 1a4:	a004                	fsd	fs1,0(s0)
 1a6:	0000                	unimp
 1a8:	0000                	unimp
 1aa:	0600                	addi	s0,sp,768
 1ac:	0446                	slli	s0,s0,0x11
 1ae:	00a0                	addi	s0,sp,72
 1b0:	0000                	unimp
 1b2:	0000                	unimp
 1b4:	044a                	slli	s0,s0,0x12
 1b6:	00a0                	addi	s0,sp,72
 1b8:	0000                	unimp
 1ba:	0000                	unimp
 1bc:	4e06                	lw	t3,64(sp)
 1be:	a004                	fsd	fs1,0(s0)
 1c0:	0000                	unimp
 1c2:	0000                	unimp
 1c4:	5200                	lw	s0,32(a2)
 1c6:	a004                	fsd	fs1,0(s0)
 1c8:	0000                	unimp
 1ca:	0000                	unimp
 1cc:	0000                	unimp
 1ce:	2606                	fld	fa2,64(sp)
 1d0:	a004                	fsd	fs1,0(s0)
 1d2:	0000                	unimp
 1d4:	0000                	unimp
 1d6:	3c00                	fld	fs0,56(s0)
 1d8:	a004                	fsd	fs1,0(s0)
 1da:	0000                	unimp
 1dc:	0000                	unimp
 1de:	0600                	addi	s0,sp,768
 1e0:	044e                	slli	s0,s0,0x13
 1e2:	00a0                	addi	s0,sp,72
 1e4:	0000                	unimp
 1e6:	0000                	unimp
 1e8:	044e                	slli	s0,s0,0x13
 1ea:	00a0                	addi	s0,sp,72
 1ec:	0000                	unimp
 1ee:	0000                	unimp
 1f0:	0600                	addi	s0,sp,768
 1f2:	0092                	slli	ra,ra,0x4
 1f4:	00a0                	addi	s0,sp,72
 1f6:	0000                	unimp
 1f8:	0000                	unimp
 1fa:	0094                	addi	a3,sp,64
 1fc:	00a0                	addi	s0,sp,72
 1fe:	0000                	unimp
 200:	0000                	unimp
 202:	8406                	mv	s0,ra
 204:	0000a003          	lw	zero,0(ra)
 208:	0000                	unimp
 20a:	9000                	0x9000
 20c:	0000a003          	lw	zero,0(ra)
 210:	0000                	unimp
 212:	0600                	addi	s0,sp,768
 214:	0392                	slli	t2,t2,0x4
 216:	00a0                	addi	s0,sp,72
 218:	0000                	unimp
 21a:	0000                	unimp
 21c:	0404                	addi	s1,sp,512
 21e:	00a0                	addi	s0,sp,72
 220:	0000                	unimp
 222:	0000                	unimp
 224:	0600                	addi	s0,sp,768
 226:	0092                	slli	ra,ra,0x4
 228:	00a0                	addi	s0,sp,72
 22a:	0000                	unimp
 22c:	0000                	unimp
 22e:	0094                	addi	a3,sp,64
 230:	00a0                	addi	s0,sp,72
 232:	0000                	unimp
 234:	0000                	unimp
 236:	c406                	sw	ra,8(sp)
 238:	0000a003          	lw	zero,0(ra)
 23c:	0000                	unimp
 23e:	e400                	sd	s0,8(s0)
 240:	0000a003          	lw	zero,0(ra)
 244:	0000                	unimp
 246:	0000                	unimp
 248:	9e06                	add	t3,t3,ra
 24a:	0000a003          	lw	zero,0(ra)
 24e:	0000                	unimp
 250:	b600                	fsd	fs0,40(a2)
 252:	0000a003          	lw	zero,0(ra)
 256:	0000                	unimp
 258:	0600                	addi	s0,sp,768
 25a:	03ea                	slli	t2,t2,0x1a
 25c:	00a0                	addi	s0,sp,72
 25e:	0000                	unimp
 260:	0000                	unimp
 262:	0404                	addi	s1,sp,512
 264:	00a0                	addi	s0,sp,72
 266:	0000                	unimp
 268:	0000                	unimp
 26a:	0600                	addi	s0,sp,768
 26c:	03b2                	slli	t2,t2,0xc
 26e:	00a0                	addi	s0,sp,72
 270:	0000                	unimp
 272:	0000                	unimp
 274:	03b6                	slli	t2,t2,0xd
 276:	00a0                	addi	s0,sp,72
 278:	0000                	unimp
 27a:	0000                	unimp
 27c:	f206                	sd	ra,288(sp)
 27e:	0000a003          	lw	zero,0(ra)
 282:	0000                	unimp
 284:	0400                	addi	s0,sp,512
 286:	a004                	fsd	fs1,0(s0)
 288:	0000                	unimp
 28a:	0000                	unimp
 28c:	0000                	unimp
 28e:	a606                	fsd	ft1,264(sp)
 290:	a000                	fsd	fs0,0(s0)
 292:	0000                	unimp
 294:	0000                	unimp
 296:	bc00                	fsd	fs0,56(s0)
 298:	a000                	fsd	fs0,0(s0)
 29a:	0000                	unimp
 29c:	0000                	unimp
 29e:	0600                	addi	s0,sp,768
 2a0:	0180                	addi	s0,sp,192
 2a2:	00a0                	addi	s0,sp,72
 2a4:	0000                	unimp
 2a6:	0000                	unimp
 2a8:	019a                	slli	gp,gp,0x6
 2aa:	00a0                	addi	s0,sp,72
 2ac:	0000                	unimp
 2ae:	0000                	unimp
 2b0:	0600                	addi	s0,sp,768
 2b2:	00b8                	addi	a4,sp,72
 2b4:	00a0                	addi	s0,sp,72
 2b6:	0000                	unimp
 2b8:	0000                	unimp
 2ba:	00bc                	addi	a5,sp,72
 2bc:	00a0                	addi	s0,sp,72
 2be:	0000                	unimp
 2c0:	0000                	unimp
 2c2:	8806                	mv	a6,ra
 2c4:	a001                	j	2c4 <_text-0x9ffd3c>
 2c6:	0000                	unimp
 2c8:	0000                	unimp
 2ca:	9a00                	0x9a00
 2cc:	a001                	j	2cc <_text-0x9ffd34>
 2ce:	0000                	unimp
 2d0:	0000                	unimp
 2d2:	0000                	unimp
 2d4:	0406                	slli	s0,s0,0x1
 2d6:	a001                	j	2d6 <_text-0x9ffd2a>
 2d8:	0000                	unimp
 2da:	0000                	unimp
 2dc:	0a00                	addi	s0,sp,272
 2de:	a001                	j	2de <_text-0x9ffd22>
 2e0:	0000                	unimp
 2e2:	0000                	unimp
 2e4:	0600                	addi	s0,sp,768
 2e6:	0234                	addi	a3,sp,264
 2e8:	00a0                	addi	s0,sp,72
 2ea:	0000                	unimp
 2ec:	0000                	unimp
 2ee:	023e                	slli	tp,tp,0xf
 2f0:	00a0                	addi	s0,sp,72
 2f2:	0000                	unimp
 2f4:	0000                	unimp
 2f6:	4406                	lw	s0,64(sp)
 2f8:	a002                	fsd	ft0,0(sp)
 2fa:	0000                	unimp
 2fc:	0000                	unimp
 2fe:	c800                	sw	s0,16(s0)
 300:	a002                	fsd	ft0,0(sp)
 302:	0000                	unimp
 304:	0000                	unimp
 306:	0600                	addi	s0,sp,768
 308:	02cc                	addi	a1,sp,324
 30a:	00a0                	addi	s0,sp,72
 30c:	0000                	unimp
 30e:	0000                	unimp
 310:	02ce                	slli	t0,t0,0x13
 312:	00a0                	addi	s0,sp,72
 314:	0000                	unimp
 316:	0000                	unimp
 318:	0600                	addi	s0,sp,768
 31a:	0296                	slli	t0,t0,0x5
 31c:	00a0                	addi	s0,sp,72
 31e:	0000                	unimp
 320:	0000                	unimp
 322:	02a4                	addi	s1,sp,328
 324:	00a0                	addi	s0,sp,72
 326:	0000                	unimp
 328:	0000                	unimp
 32a:	ae06                	fsd	ft1,280(sp)
 32c:	a002                	fsd	ft0,0(sp)
 32e:	0000                	unimp
 330:	0000                	unimp
 332:	c800                	sw	s0,16(s0)
 334:	a002                	fsd	ft0,0(sp)
 336:	0000                	unimp
 338:	0000                	unimp
 33a:	0000                	unimp
 33c:	9606                	add	a2,a2,ra
 33e:	a002                	fsd	ft0,0(sp)
 340:	0000                	unimp
 342:	0000                	unimp
 344:	a400                	fsd	fs0,8(s0)
 346:	a002                	fsd	ft0,0(sp)
 348:	0000                	unimp
 34a:	0000                	unimp
 34c:	0600                	addi	s0,sp,768
 34e:	02c2                	slli	t0,t0,0x10
 350:	00a0                	addi	s0,sp,72
 352:	0000                	unimp
 354:	0000                	unimp
 356:	02c8                	addi	a0,sp,324
 358:	00a0                	addi	s0,sp,72
 35a:	0000                	unimp
 35c:	0000                	unimp
 35e:	0600                	addi	s0,sp,768
 360:	01be                	slli	gp,gp,0xf
 362:	00a0                	addi	s0,sp,72
 364:	0000                	unimp
 366:	0000                	unimp
 368:	01be                	slli	gp,gp,0xf
 36a:	00a0                	addi	s0,sp,72
 36c:	0000                	unimp
 36e:	0000                	unimp
 370:	c206                	sw	ra,4(sp)
 372:	a001                	j	372 <_text-0x9ffc8e>
 374:	0000                	unimp
 376:	0000                	unimp
 378:	0000                	unimp
 37a:	a002                	fsd	ft0,0(sp)
 37c:	0000                	unimp
 37e:	0000                	unimp
 380:	0600                	addi	s0,sp,768
 382:	0306                	slli	t1,t1,0x1
 384:	00a0                	addi	s0,sp,72
 386:	0000                	unimp
 388:	0000                	unimp
 38a:	033c                	addi	a5,sp,392
 38c:	00a0                	addi	s0,sp,72
 38e:	0000                	unimp
 390:	0000                	unimp
 392:	0600                	addi	s0,sp,768
 394:	0306                	slli	t1,t1,0x1
 396:	00a0                	addi	s0,sp,72
 398:	0000                	unimp
 39a:	0000                	unimp
 39c:	0314                	addi	a3,sp,384
 39e:	00a0                	addi	s0,sp,72
 3a0:	0000                	unimp
 3a2:	0000                	unimp
 3a4:	1e06                	slli	t3,t3,0x21
 3a6:	0000a003          	lw	zero,0(ra)
 3aa:	0000                	unimp
 3ac:	3800                	fld	fs0,48(s0)
 3ae:	0000a003          	lw	zero,0(ra)
 3b2:	0000                	unimp
 3b4:	0000                	unimp
 3b6:	0606                	slli	a2,a2,0x1
 3b8:	0000a003          	lw	zero,0(ra)
 3bc:	0000                	unimp
 3be:	1400                	addi	s0,sp,544
 3c0:	0000a003          	lw	zero,0(ra)
 3c4:	0000                	unimp
 3c6:	0600                	addi	s0,sp,768
 3c8:	0332                	slli	t1,t1,0xc
 3ca:	00a0                	addi	s0,sp,72
 3cc:	0000                	unimp
 3ce:	0000                	unimp
 3d0:	0338                	addi	a4,sp,392
 3d2:	00a0                	addi	s0,sp,72
 3d4:	0000                	unimp
 3d6:	0000                	unimp
 3d8:	0600                	addi	s0,sp,768
 3da:	0406                	slli	s0,s0,0x1
 3dc:	00a0                	addi	s0,sp,72
 3de:	0000                	unimp
 3e0:	0000                	unimp
 3e2:	0418                	addi	a4,sp,512
 3e4:	00a0                	addi	s0,sp,72
 3e6:	0000                	unimp
 3e8:	0000                	unimp
 3ea:	3c06                	fld	fs8,96(sp)
 3ec:	a004                	fsd	fs1,0(s0)
 3ee:	0000                	unimp
 3f0:	0000                	unimp
 3f2:	4600                	lw	s0,8(a2)
 3f4:	a004                	fsd	fs1,0(s0)
 3f6:	0000                	unimp
 3f8:	0000                	unimp
 3fa:	0000                	unimp
 3fc:	1406                	slli	s0,s0,0x21
 3fe:	a004                	fsd	fs1,0(s0)
 400:	0000                	unimp
 402:	0000                	unimp
 404:	1800                	addi	s0,sp,48
 406:	a004                	fsd	fs1,0(s0)
 408:	0000                	unimp
 40a:	0000                	unimp
 40c:	0600                	addi	s0,sp,768
 40e:	043c                	addi	a5,sp,520
 410:	00a0                	addi	s0,sp,72
 412:	0000                	unimp
 414:	0000                	unimp
 416:	0446                	slli	s0,s0,0x11
 418:	00a0                	addi	s0,sp,72
 41a:	0000                	unimp
 41c:	0000                	unimp
	...
