
rm.b：     文件格式 elf64-littleriscv


Disassembly of section .text:

0000000000a00000 <_text>:
  a00000:	00013503          	ld	a0,0(sp)
  a00004:	00810593          	addi	a1,sp,8
  a00008:	00013603          	ld	a2,0(sp)
  a0000c:	00160613          	addi	a2,a2,1
  a00010:	00361613          	slli	a2,a2,0x3
  a00014:	00c58633          	add	a2,a1,a2
  a00018:	0c0000ef          	jal	ra,a000d8 <libMain>

0000000000a0001c <_userLoop>:
  a0001c:	000000ef          	jal	ra,a0001c <_userLoop>

0000000000a00020 <userMain>:
  a00020:	00100793          	li	a5,1
  a00024:	04a7da63          	bge	a5,a0,a00078 <userMain+0x58>
  a00028:	00858813          	addi	a6,a1,8
  a0002c:	ffe5031b          	addiw	t1,a0,-2
  a00030:	02031793          	slli	a5,t1,0x20
  a00034:	01d7d313          	srli	t1,a5,0x1d
  a00038:	01058593          	addi	a1,a1,16
  a0003c:	00b30333          	add	t1,t1,a1
  a00040:	f9c00513          	li	a0,-100
  a00044:	00083583          	ld	a1,0(a6)
  a00048:	00000613          	li	a2,0
  a0004c:	00000693          	li	a3,0
  a00050:	00000713          	li	a4,0
  a00054:	00000793          	li	a5,0
  a00058:	02300893          	li	a7,35
  a0005c:	00000073          	ecall
  a00060:	0005051b          	sext.w	a0,a0
  a00064:	04054063          	bltz	a0,a000a4 <userMain+0x84>
  a00068:	00880813          	addi	a6,a6,8
  a0006c:	fc681ae3          	bne	a6,t1,a00040 <userMain+0x20>
  a00070:	00000513          	li	a0,0
  a00074:	00008067          	ret
  a00078:	00200513          	li	a0,2
  a0007c:	00002597          	auipc	a1,0x2
  a00080:	12c58593          	addi	a1,a1,300 # a021a8 <_etext+0x1a8>
  a00084:	01400613          	li	a2,20
  a00088:	00000693          	li	a3,0
  a0008c:	00000713          	li	a4,0
  a00090:	00000793          	li	a5,0
  a00094:	04000893          	li	a7,64
  a00098:	00000073          	ecall
  a0009c:	00100513          	li	a0,1
  a000a0:	00008067          	ret
  a000a4:	ff010113          	addi	sp,sp,-16
  a000a8:	00113423          	sd	ra,8(sp)
  a000ac:	00813023          	sd	s0,0(sp)
  a000b0:	01010413          	addi	s0,sp,16
  a000b4:	00002517          	auipc	a0,0x2
  a000b8:	10c50513          	addi	a0,a0,268 # a021c0 <_etext+0x1c0>
  a000bc:	00001097          	auipc	ra,0x1
  a000c0:	d8c080e7          	jalr	-628(ra) # a00e48 <printf>
  a000c4:	00000513          	li	a0,0
  a000c8:	00813083          	ld	ra,8(sp)
  a000cc:	00013403          	ld	s0,0(sp)
  a000d0:	01010113          	addi	sp,sp,16
  a000d4:	00008067          	ret

0000000000a000d8 <libMain>:
  a000d8:	ff010113          	addi	sp,sp,-16
  a000dc:	00113423          	sd	ra,8(sp)
  a000e0:	00813023          	sd	s0,0(sp)
  a000e4:	01010413          	addi	s0,sp,16
  a000e8:	00000097          	auipc	ra,0x0
  a000ec:	f38080e7          	jalr	-200(ra) # a00020 <userMain>
  a000f0:	00000593          	li	a1,0
  a000f4:	00000613          	li	a2,0
  a000f8:	00000693          	li	a3,0
  a000fc:	00000713          	li	a4,0
  a00100:	00000793          	li	a5,0
  a00104:	05d00893          	li	a7,93
  a00108:	00000073          	ecall
  a0010c:	00813083          	ld	ra,8(sp)
  a00110:	00013403          	ld	s0,0(sp)
  a00114:	01010113          	addi	sp,sp,16
  a00118:	00008067          	ret

0000000000a0011c <printChar>:
  a0011c:	ff010113          	addi	sp,sp,-16
  a00120:	00813423          	sd	s0,8(sp)
  a00124:	01010413          	addi	s0,sp,16
  a00128:	00060713          	mv	a4,a2
  a0012c:	04c05c63          	blez	a2,a00184 <printChar+0x68>
  a00130:	0007071b          	sext.w	a4,a4
  a00134:	04069c63          	bnez	a3,a0018c <printChar+0x70>
  a00138:	00100793          	li	a5,1
  a0013c:	02c7d663          	bge	a5,a2,a00168 <printChar+0x4c>
  a00140:	00050793          	mv	a5,a0
  a00144:	00150693          	addi	a3,a0,1
  a00148:	ffe7061b          	addiw	a2,a4,-2
  a0014c:	02061613          	slli	a2,a2,0x20
  a00150:	02065613          	srli	a2,a2,0x20
  a00154:	00c686b3          	add	a3,a3,a2
  a00158:	02000613          	li	a2,32
  a0015c:	00c78023          	sb	a2,0(a5)
  a00160:	00178793          	addi	a5,a5,1
  a00164:	fed79ce3          	bne	a5,a3,a0015c <printChar+0x40>
  a00168:	00e507b3          	add	a5,a0,a4
  a0016c:	feb78fa3          	sb	a1,-1(a5)
  a00170:	00e50533          	add	a0,a0,a4
  a00174:	00050023          	sb	zero,0(a0)
  a00178:	00813403          	ld	s0,8(sp)
  a0017c:	01010113          	addi	sp,sp,16
  a00180:	00008067          	ret
  a00184:	00100713          	li	a4,1
  a00188:	fa9ff06f          	j	a00130 <printChar+0x14>
  a0018c:	00b50023          	sb	a1,0(a0)
  a00190:	00100793          	li	a5,1
  a00194:	fcc7dee3          	bge	a5,a2,a00170 <printChar+0x54>
  a00198:	02000613          	li	a2,32
  a0019c:	00f506b3          	add	a3,a0,a5
  a001a0:	00c68023          	sb	a2,0(a3)
  a001a4:	00178793          	addi	a5,a5,1
  a001a8:	0007869b          	sext.w	a3,a5
  a001ac:	fee6c8e3          	blt	a3,a4,a0019c <printChar+0x80>
  a001b0:	fc1ff06f          	j	a00170 <printChar+0x54>

0000000000a001b4 <printString>:
  a001b4:	ff010113          	addi	sp,sp,-16
  a001b8:	00813423          	sd	s0,8(sp)
  a001bc:	01010413          	addi	s0,sp,16
  a001c0:	0005c783          	lbu	a5,0(a1)
  a001c4:	10078463          	beqz	a5,a002cc <printString+0x118>
  a001c8:	00158713          	addi	a4,a1,1
  a001cc:	00000793          	li	a5,0
  a001d0:	00078893          	mv	a7,a5
  a001d4:	0017879b          	addiw	a5,a5,1
  a001d8:	00170713          	addi	a4,a4,1
  a001dc:	fff74803          	lbu	a6,-1(a4)
  a001e0:	fe0818e3          	bnez	a6,a001d0 <printString+0x1c>
  a001e4:	00060713          	mv	a4,a2
  a001e8:	00f65463          	bge	a2,a5,a001f0 <printString+0x3c>
  a001ec:	00078713          	mv	a4,a5
  a001f0:	0007081b          	sext.w	a6,a4
  a001f4:	06069063          	bnez	a3,a00254 <printString+0xa0>
  a001f8:	40f7073b          	subw	a4,a4,a5
  a001fc:	02e05663          	blez	a4,a00228 <printString+0x74>
  a00200:	00050693          	mv	a3,a0
  a00204:	00150613          	addi	a2,a0,1
  a00208:	fff7089b          	addiw	a7,a4,-1
  a0020c:	02089893          	slli	a7,a7,0x20
  a00210:	0208d893          	srli	a7,a7,0x20
  a00214:	01160633          	add	a2,a2,a7
  a00218:	02000893          	li	a7,32
  a0021c:	01168023          	sb	a7,0(a3)
  a00220:	00168693          	addi	a3,a3,1
  a00224:	fec69ce3          	bne	a3,a2,a0021c <printString+0x68>
  a00228:	09075463          	bge	a4,a6,a002b0 <printString+0xfc>
  a0022c:	410787b3          	sub	a5,a5,a6
  a00230:	00e786b3          	add	a3,a5,a4
  a00234:	00d586b3          	add	a3,a1,a3
  a00238:	0006c603          	lbu	a2,0(a3)
  a0023c:	00e506b3          	add	a3,a0,a4
  a00240:	00c68023          	sb	a2,0(a3)
  a00244:	00170713          	addi	a4,a4,1
  a00248:	0007069b          	sext.w	a3,a4
  a0024c:	ff06c2e3          	blt	a3,a6,a00230 <printString+0x7c>
  a00250:	0600006f          	j	a002b0 <printString+0xfc>
  a00254:	02f05463          	blez	a5,a0027c <printString+0xc8>
  a00258:	00050613          	mv	a2,a0
  a0025c:	00058713          	mv	a4,a1
  a00260:	00074683          	lbu	a3,0(a4)
  a00264:	00d60023          	sb	a3,0(a2)
  a00268:	00170713          	addi	a4,a4,1
  a0026c:	00160613          	addi	a2,a2,1
  a00270:	40b706bb          	subw	a3,a4,a1
  a00274:	fff6869b          	addiw	a3,a3,-1
  a00278:	ff16c4e3          	blt	a3,a7,a00260 <printString+0xac>
  a0027c:	0307da63          	bge	a5,a6,a002b0 <printString+0xfc>
  a00280:	00f50733          	add	a4,a0,a5
  a00284:	fff8069b          	addiw	a3,a6,-1
  a00288:	40f686bb          	subw	a3,a3,a5
  a0028c:	02069693          	slli	a3,a3,0x20
  a00290:	0206d693          	srli	a3,a3,0x20
  a00294:	00150613          	addi	a2,a0,1
  a00298:	00f607b3          	add	a5,a2,a5
  a0029c:	00f687b3          	add	a5,a3,a5
  a002a0:	02000693          	li	a3,32
  a002a4:	00d70023          	sb	a3,0(a4)
  a002a8:	00170713          	addi	a4,a4,1
  a002ac:	fef71ce3          	bne	a4,a5,a002a4 <printString+0xf0>
  a002b0:	01050833          	add	a6,a0,a6
  a002b4:	00080023          	sb	zero,0(a6)
  a002b8:	00813403          	ld	s0,8(sp)
  a002bc:	01010113          	addi	sp,sp,16
  a002c0:	00008067          	ret
  a002c4:	00000793          	li	a5,0
  a002c8:	fb5ff06f          	j	a0027c <printString+0xc8>
  a002cc:	fff64813          	not	a6,a2
  a002d0:	43f85813          	srai	a6,a6,0x3f
  a002d4:	00c87833          	and	a6,a6,a2
  a002d8:	fe0696e3          	bnez	a3,a002c4 <printString+0x110>
  a002dc:	00080713          	mv	a4,a6
  a002e0:	00068793          	mv	a5,a3
  a002e4:	f0c04ee3          	bgtz	a2,a00200 <printString+0x4c>
  a002e8:	fc9ff06f          	j	a002b0 <printString+0xfc>

0000000000a002ec <printNum>:
  a002ec:	ff010113          	addi	sp,sp,-16
  a002f0:	00813423          	sd	s0,8(sp)
  a002f4:	01010413          	addi	s0,sp,16
  a002f8:	00150e13          	addi	t3,a0,1
  a002fc:	00060f93          	mv	t6,a2
  a00300:	00900f13          	li	t5,9
  a00304:	0280006f          	j	a0032c <printNum+0x40>
  a00308:	04088063          	beqz	a7,a00348 <printNum+0x5c>
  a0030c:	000e0e93          	mv	t4,t3
  a00310:	0373031b          	addiw	t1,t1,55
  a00314:	0ff37313          	zext.b	t1,t1
  a00318:	fe6e0fa3          	sb	t1,-1(t3)
  a0031c:	02c5d333          	divu	t1,a1,a2
  a00320:	001e0e13          	addi	t3,t3,1
  a00324:	03f5ea63          	bltu	a1,t6,a00358 <printNum+0x6c>
  a00328:	00030593          	mv	a1,t1
  a0032c:	02c5f333          	remu	t1,a1,a2
  a00330:	00030e9b          	sext.w	t4,t1
  a00334:	fddf4ae3          	blt	t5,t4,a00308 <printNum+0x1c>
  a00338:	000e0e93          	mv	t4,t3
  a0033c:	0303031b          	addiw	t1,t1,48
  a00340:	0ff37313          	zext.b	t1,t1
  a00344:	fd5ff06f          	j	a00318 <printNum+0x2c>
  a00348:	000e0e93          	mv	t4,t3
  a0034c:	0573031b          	addiw	t1,t1,87
  a00350:	0ff37313          	zext.b	t1,t1
  a00354:	fc5ff06f          	j	a00318 <printNum+0x2c>
  a00358:	02068c63          	beqz	a3,a00390 <printNum+0xa4>
  a0035c:	02d00613          	li	a2,45
  a00360:	00ce8023          	sb	a2,0(t4)
  a00364:	001e8e93          	addi	t4,t4,1
  a00368:	40ae8eb3          	sub	t4,t4,a0
  a0036c:	000e859b          	sext.w	a1,t4
  a00370:	00058893          	mv	a7,a1
  a00374:	00e5d463          	bge	a1,a4,a0037c <printNum+0x90>
  a00378:	00070893          	mv	a7,a4
  a0037c:	0008889b          	sext.w	a7,a7
  a00380:	02079e63          	bnez	a5,a003bc <printNum+0xd0>
  a00384:	0a069663          	bnez	a3,a00430 <printNum+0x144>
  a00388:	0315ce63          	blt	a1,a7,a003c4 <printNum+0xd8>
  a0038c:	0f40006f          	j	a00480 <printNum+0x194>
  a00390:	40ae8eb3          	sub	t4,t4,a0
  a00394:	000e859b          	sext.w	a1,t4
  a00398:	00058893          	mv	a7,a1
  a0039c:	00e5d463          	bge	a1,a4,a003a4 <printNum+0xb8>
  a003a0:	00070893          	mv	a7,a4
  a003a4:	0008889b          	sext.w	a7,a7
  a003a8:	fc078ee3          	beqz	a5,a00384 <printNum+0x98>
  a003ac:	00069863          	bnez	a3,a003bc <printNum+0xd0>
  a003b0:	02000813          	li	a6,32
  a003b4:	0115c863          	blt	a1,a7,a003c4 <printNum+0xd8>
  a003b8:	0280006f          	j	a003e0 <printNum+0xf4>
  a003bc:	02000813          	li	a6,32
  a003c0:	0315d063          	bge	a1,a7,a003e0 <printNum+0xf4>
  a003c4:	00058713          	mv	a4,a1
  a003c8:	00e506b3          	add	a3,a0,a4
  a003cc:	01068023          	sb	a6,0(a3)
  a003d0:	00170713          	addi	a4,a4,1
  a003d4:	0007069b          	sext.w	a3,a4
  a003d8:	ff16c8e3          	blt	a3,a7,a003c8 <printNum+0xdc>
  a003dc:	0a078263          	beqz	a5,a00480 <printNum+0x194>
  a003e0:	fff5859b          	addiw	a1,a1,-1
  a003e4:	02b05c63          	blez	a1,a0041c <printNum+0x130>
  a003e8:	00050693          	mv	a3,a0
  a003ec:	00b50733          	add	a4,a0,a1
  a003f0:	00000613          	li	a2,0
  a003f4:	0006c783          	lbu	a5,0(a3)
  a003f8:	00074803          	lbu	a6,0(a4)
  a003fc:	01068023          	sb	a6,0(a3)
  a00400:	00f70023          	sb	a5,0(a4)
  a00404:	0016079b          	addiw	a5,a2,1
  a00408:	0007861b          	sext.w	a2,a5
  a0040c:	00168693          	addi	a3,a3,1
  a00410:	fff70713          	addi	a4,a4,-1
  a00414:	40f587bb          	subw	a5,a1,a5
  a00418:	fcf64ee3          	blt	a2,a5,a003f4 <printNum+0x108>
  a0041c:	011508b3          	add	a7,a0,a7
  a00420:	00088023          	sb	zero,0(a7)
  a00424:	00813403          	ld	s0,8(sp)
  a00428:	01010113          	addi	sp,sp,16
  a0042c:	00008067          	ret
  a00430:	03000713          	li	a4,48
  a00434:	00e80663          	beq	a6,a4,a00440 <printNum+0x154>
  a00438:	f915c6e3          	blt	a1,a7,a003c4 <printNum+0xd8>
  a0043c:	0440006f          	j	a00480 <printNum+0x194>
  a00440:	fff5871b          	addiw	a4,a1,-1
  a00444:	0315d863          	bge	a1,a7,a00474 <printNum+0x188>
  a00448:	00e50733          	add	a4,a0,a4
  a0044c:	41d887bb          	subw	a5,a7,t4
  a00450:	fff7879b          	addiw	a5,a5,-1
  a00454:	02079793          	slli	a5,a5,0x20
  a00458:	0207d793          	srli	a5,a5,0x20
  a0045c:	00b505b3          	add	a1,a0,a1
  a00460:	00b787b3          	add	a5,a5,a1
  a00464:	03000693          	li	a3,48
  a00468:	00d70023          	sb	a3,0(a4)
  a0046c:	00170713          	addi	a4,a4,1
  a00470:	fef71ce3          	bne	a4,a5,a00468 <printNum+0x17c>
  a00474:	011507b3          	add	a5,a0,a7
  a00478:	02d00713          	li	a4,45
  a0047c:	fee78fa3          	sb	a4,-1(a5)
  a00480:	fff8859b          	addiw	a1,a7,-1
  a00484:	f61ff06f          	j	a003e4 <printNum+0xf8>

0000000000a00488 <print>:
  a00488:	00054783          	lbu	a5,0(a0)
  a0048c:	1a078ce3          	beqz	a5,a00e44 <print+0x9bc>
  a00490:	f3010113          	addi	sp,sp,-208
  a00494:	0c113423          	sd	ra,200(sp)
  a00498:	0c813023          	sd	s0,192(sp)
  a0049c:	0a913c23          	sd	s1,184(sp)
  a004a0:	0b213823          	sd	s2,176(sp)
  a004a4:	0b313423          	sd	s3,168(sp)
  a004a8:	0b413023          	sd	s4,160(sp)
  a004ac:	09513c23          	sd	s5,152(sp)
  a004b0:	09613823          	sd	s6,144(sp)
  a004b4:	09713423          	sd	s7,136(sp)
  a004b8:	09813023          	sd	s8,128(sp)
  a004bc:	0d010413          	addi	s0,sp,208
  a004c0:	00050913          	mv	s2,a0
  a004c4:	00058a93          	mv	s5,a1
  a004c8:	00050813          	mv	a6,a0
  a004cc:	00000b93          	li	s7,0
  a004d0:	00002b17          	auipc	s6,0x2
  a004d4:	b30b0b13          	addi	s6,s6,-1232 # a02000 <_etext>
  a004d8:	00601497          	auipc	s1,0x601
  a004dc:	d2848493          	addi	s1,s1,-728 # 1001200 <bufferLen>
  a004e0:	00601997          	auipc	s3,0x601
  a004e4:	b2098993          	addi	s3,s3,-1248 # 1001000 <printfBuffer>
  a004e8:	08000a13          	li	s4,128
  a004ec:	0340006f          	j	a00520 <print+0x98>
  a004f0:	00084603          	lbu	a2,0(a6)
  a004f4:	0004a783          	lw	a5,0(s1)
  a004f8:	0017871b          	addiw	a4,a5,1
  a004fc:	0007069b          	sext.w	a3,a4
  a00500:	00e4a023          	sw	a4,0(s1)
  a00504:	00f987b3          	add	a5,s3,a5
  a00508:	00c78023          	sb	a2,0(a5)
  a0050c:	07468e63          	beq	a3,s4,a00588 <print+0x100>
  a00510:	001b8b9b          	addiw	s7,s7,1
  a00514:	01790833          	add	a6,s2,s7
  a00518:	00084783          	lbu	a5,0(a6)
  a0051c:	0e078ce3          	beqz	a5,a00e14 <print+0x98c>
  a00520:	02500713          	li	a4,37
  a00524:	08e78663          	beq	a5,a4,a005b0 <print+0x128>
  a00528:	00a00713          	li	a4,10
  a0052c:	fce792e3          	bne	a5,a4,a004f0 <print+0x68>
  a00530:	0004a783          	lw	a5,0(s1)
  a00534:	0017871b          	addiw	a4,a5,1
  a00538:	0007069b          	sext.w	a3,a4
  a0053c:	00e4a023          	sw	a4,0(s1)
  a00540:	00f987b3          	add	a5,s3,a5
  a00544:	00d00713          	li	a4,13
  a00548:	00e78023          	sb	a4,0(a5)
  a0054c:	fb4692e3          	bne	a3,s4,a004f0 <print+0x68>
  a00550:	00098513          	mv	a0,s3
  a00554:	000a0593          	mv	a1,s4
  a00558:	00000613          	li	a2,0
  a0055c:	00000693          	li	a3,0
  a00560:	00000713          	li	a4,0
  a00564:	00000793          	li	a5,0
  a00568:	00500893          	li	a7,5
  a0056c:	00000073          	ecall
  a00570:	0004a023          	sw	zero,0(s1)
  a00574:	00084783          	lbu	a5,0(a6)
  a00578:	00100713          	li	a4,1
  a0057c:	00e4a023          	sw	a4,0(s1)
  a00580:	00f98023          	sb	a5,0(s3)
  a00584:	f8dff06f          	j	a00510 <print+0x88>
  a00588:	00098513          	mv	a0,s3
  a0058c:	000a0593          	mv	a1,s4
  a00590:	00000613          	li	a2,0
  a00594:	00000693          	li	a3,0
  a00598:	00000713          	li	a4,0
  a0059c:	00000793          	li	a5,0
  a005a0:	00500893          	li	a7,5
  a005a4:	00000073          	ecall
  a005a8:	0004a023          	sw	zero,0(s1)
  a005ac:	f65ff06f          	j	a00510 <print+0x88>
  a005b0:	001b831b          	addiw	t1,s7,1
  a005b4:	006907b3          	add	a5,s2,t1
  a005b8:	0007c503          	lbu	a0,0(a5)
  a005bc:	02d00713          	li	a4,45
  a005c0:	00000793          	li	a5,0
  a005c4:	08e50e63          	beq	a0,a4,a00660 <print+0x1d8>
  a005c8:	03000713          	li	a4,48
  a005cc:	02000813          	li	a6,32
  a005d0:	0ae50263          	beq	a0,a4,a00674 <print+0x1ec>
  a005d4:	fd05071b          	addiw	a4,a0,-48
  a005d8:	00900693          	li	a3,9
  a005dc:	0ae6e663          	bltu	a3,a4,a00688 <print+0x200>
  a005e0:	0013059b          	addiw	a1,t1,1
  a005e4:	00000713          	li	a4,0
  a005e8:	00900e13          	li	t3,9
  a005ec:	0027189b          	slliw	a7,a4,0x2
  a005f0:	00e888bb          	addw	a7,a7,a4
  a005f4:	0018989b          	slliw	a7,a7,0x1
  a005f8:	00a888bb          	addw	a7,a7,a0
  a005fc:	fd08871b          	addiw	a4,a7,-48
  a00600:	0005831b          	sext.w	t1,a1
  a00604:	00b90633          	add	a2,s2,a1
  a00608:	00064883          	lbu	a7,0(a2)
  a0060c:	0008851b          	sext.w	a0,a7
  a00610:	00158593          	addi	a1,a1,1
  a00614:	fd08889b          	addiw	a7,a7,-48
  a00618:	fd1e7ae3          	bgeu	t3,a7,a005ec <print+0x164>
  a0061c:	02e00693          	li	a3,46
  a00620:	06d50863          	beq	a0,a3,a00690 <print+0x208>
  a00624:	06c00693          	li	a3,108
  a00628:	0ad50863          	beq	a0,a3,a006d8 <print+0x250>
  a0062c:	7a050663          	beqz	a0,a00dd8 <print+0x950>
  a00630:	fbc5069b          	addiw	a3,a0,-68
  a00634:	03400613          	li	a2,52
  a00638:	7ad66663          	bltu	a2,a3,a00de4 <print+0x95c>
  a0063c:	fbc5069b          	addiw	a3,a0,-68
  a00640:	0006859b          	sext.w	a1,a3
  a00644:	7ab66063          	bltu	a2,a1,a00de4 <print+0x95c>
  a00648:	02069613          	slli	a2,a3,0x20
  a0064c:	01e65693          	srli	a3,a2,0x1e
  a00650:	016686b3          	add	a3,a3,s6
  a00654:	0006a683          	lw	a3,0(a3)
  a00658:	016686b3          	add	a3,a3,s6
  a0065c:	00068067          	jr	a3
  a00660:	002b831b          	addiw	t1,s7,2
  a00664:	006907b3          	add	a5,s2,t1
  a00668:	0007c503          	lbu	a0,0(a5)
  a0066c:	00100793          	li	a5,1
  a00670:	f59ff06f          	j	a005c8 <print+0x140>
  a00674:	0013031b          	addiw	t1,t1,1
  a00678:	00690733          	add	a4,s2,t1
  a0067c:	00074503          	lbu	a0,0(a4)
  a00680:	03000813          	li	a6,48
  a00684:	f51ff06f          	j	a005d4 <print+0x14c>
  a00688:	00000713          	li	a4,0
  a0068c:	f91ff06f          	j	a0061c <print+0x194>
  a00690:	0013069b          	addiw	a3,t1,1
  a00694:	00d90633          	add	a2,s2,a3
  a00698:	00064503          	lbu	a0,0(a2)
  a0069c:	fd050e1b          	addiw	t3,a0,-48
  a006a0:	00900893          	li	a7,9
  a006a4:	0023061b          	addiw	a2,t1,2
  a006a8:	00900593          	li	a1,9
  a006ac:	0005051b          	sext.w	a0,a0
  a006b0:	00068313          	mv	t1,a3
  a006b4:	f7c8e8e3          	bltu	a7,t3,a00624 <print+0x19c>
  a006b8:	0006031b          	sext.w	t1,a2
  a006bc:	00c906b3          	add	a3,s2,a2
  a006c0:	0006c503          	lbu	a0,0(a3)
  a006c4:	00160613          	addi	a2,a2,1
  a006c8:	fd05069b          	addiw	a3,a0,-48
  a006cc:	fed5f6e3          	bgeu	a1,a3,a006b8 <print+0x230>
  a006d0:	0005051b          	sext.w	a0,a0
  a006d4:	f51ff06f          	j	a00624 <print+0x19c>
  a006d8:	0013031b          	addiw	t1,t1,1
  a006dc:	006906b3          	add	a3,s2,t1
  a006e0:	0006c503          	lbu	a0,0(a3)
  a006e4:	6e050a63          	beqz	a0,a00dd8 <print+0x950>
  a006e8:	fbc5069b          	addiw	a3,a0,-68
  a006ec:	0ff6f693          	zext.b	a3,a3
  a006f0:	03400613          	li	a2,52
  a006f4:	6ed66663          	bltu	a2,a3,a00de0 <print+0x958>
  a006f8:	fbc5069b          	addiw	a3,a0,-68
  a006fc:	0ff6f593          	zext.b	a1,a3
  a00700:	6eb66063          	bltu	a2,a1,a00de0 <print+0x958>
  a00704:	00259693          	slli	a3,a1,0x2
  a00708:	00002617          	auipc	a2,0x2
  a0070c:	9cc60613          	addi	a2,a2,-1588 # a020d4 <_etext+0xd4>
  a00710:	00c686b3          	add	a3,a3,a2
  a00714:	0006a683          	lw	a3,0(a3)
  a00718:	00c686b3          	add	a3,a3,a2
  a0071c:	00068067          	jr	a3
  a00720:	00030b93          	mv	s7,t1
  a00724:	0080006f          	j	a0072c <print+0x2a4>
  a00728:	00030b93          	mv	s7,t1
  a0072c:	008a8c13          	addi	s8,s5,8
  a00730:	000aca83          	lbu	s5,0(s5)
  a00734:	00078693          	mv	a3,a5
  a00738:	00070613          	mv	a2,a4
  a0073c:	000a8593          	mv	a1,s5
  a00740:	f3040513          	addi	a0,s0,-208
  a00744:	00000097          	auipc	ra,0x0
  a00748:	9d8080e7          	jalr	-1576(ra) # a0011c <printChar>
  a0074c:	0004a783          	lw	a5,0(s1)
  a00750:	0017871b          	addiw	a4,a5,1
  a00754:	0007069b          	sext.w	a3,a4
  a00758:	00e4a023          	sw	a4,0(s1)
  a0075c:	00f987b3          	add	a5,s3,a5
  a00760:	01578023          	sb	s5,0(a5)
  a00764:	000c0a93          	mv	s5,s8
  a00768:	db4694e3          	bne	a3,s4,a00510 <print+0x88>
  a0076c:	00098513          	mv	a0,s3
  a00770:	000a0593          	mv	a1,s4
  a00774:	00000613          	li	a2,0
  a00778:	00000693          	li	a3,0
  a0077c:	00000713          	li	a4,0
  a00780:	00000793          	li	a5,0
  a00784:	00500893          	li	a7,5
  a00788:	00000073          	ecall
  a0078c:	0004a023          	sw	zero,0(s1)
  a00790:	d81ff06f          	j	a00510 <print+0x88>
  a00794:	000ab583          	ld	a1,0(s5)
  a00798:	00030b93          	mv	s7,t1
  a0079c:	008a8a93          	addi	s5,s5,8
  a007a0:	00000693          	li	a3,0
  a007a4:	0405c263          	bltz	a1,a007e8 <print+0x360>
  a007a8:	00000893          	li	a7,0
  a007ac:	00a00613          	li	a2,10
  a007b0:	f3040513          	addi	a0,s0,-208
  a007b4:	00000097          	auipc	ra,0x0
  a007b8:	b38080e7          	jalr	-1224(ra) # a002ec <printNum>
  a007bc:	f3044783          	lbu	a5,-208(s0)
  a007c0:	d40788e3          	beqz	a5,a00510 <print+0x88>
  a007c4:	f3140813          	addi	a6,s0,-207
  a007c8:	00a00e13          	li	t3,10
  a007cc:	00d00e93          	li	t4,13
  a007d0:	00100f13          	li	t5,1
  a007d4:	0500006f          	j	a00824 <print+0x39c>
  a007d8:	000aa583          	lw	a1,0(s5)
  a007dc:	00030b93          	mv	s7,t1
  a007e0:	008a8a93          	addi	s5,s5,8
  a007e4:	fbdff06f          	j	a007a0 <print+0x318>
  a007e8:	40b005b3          	neg	a1,a1
  a007ec:	00100693          	li	a3,1
  a007f0:	fb9ff06f          	j	a007a8 <print+0x320>
  a007f4:	00080313          	mv	t1,a6
  a007f8:	fff84603          	lbu	a2,-1(a6)
  a007fc:	0004a783          	lw	a5,0(s1)
  a00800:	0017871b          	addiw	a4,a5,1
  a00804:	0007069b          	sext.w	a3,a4
  a00808:	00e4a023          	sw	a4,0(s1)
  a0080c:	00f987b3          	add	a5,s3,a5
  a00810:	00c78023          	sb	a2,0(a5)
  a00814:	07468263          	beq	a3,s4,a00878 <print+0x3f0>
  a00818:	00034783          	lbu	a5,0(t1)
  a0081c:	00180813          	addi	a6,a6,1
  a00820:	ce0788e3          	beqz	a5,a00510 <print+0x88>
  a00824:	fdc798e3          	bne	a5,t3,a007f4 <print+0x36c>
  a00828:	0004a783          	lw	a5,0(s1)
  a0082c:	0017871b          	addiw	a4,a5,1
  a00830:	0007069b          	sext.w	a3,a4
  a00834:	00e4a023          	sw	a4,0(s1)
  a00838:	00f987b3          	add	a5,s3,a5
  a0083c:	01d78023          	sb	t4,0(a5)
  a00840:	fb469ae3          	bne	a3,s4,a007f4 <print+0x36c>
  a00844:	00098513          	mv	a0,s3
  a00848:	000a0593          	mv	a1,s4
  a0084c:	00000613          	li	a2,0
  a00850:	00000693          	li	a3,0
  a00854:	00000713          	li	a4,0
  a00858:	00000793          	li	a5,0
  a0085c:	00500893          	li	a7,5
  a00860:	00000073          	ecall
  a00864:	00080313          	mv	t1,a6
  a00868:	fff84783          	lbu	a5,-1(a6)
  a0086c:	01e4a023          	sw	t5,0(s1)
  a00870:	00f98023          	sb	a5,0(s3)
  a00874:	fa5ff06f          	j	a00818 <print+0x390>
  a00878:	00098513          	mv	a0,s3
  a0087c:	000a0593          	mv	a1,s4
  a00880:	00000613          	li	a2,0
  a00884:	00000693          	li	a3,0
  a00888:	00000713          	li	a4,0
  a0088c:	00000793          	li	a5,0
  a00890:	00500893          	li	a7,5
  a00894:	00000073          	ecall
  a00898:	0004a023          	sw	zero,0(s1)
  a0089c:	f7dff06f          	j	a00818 <print+0x390>
  a008a0:	00030b93          	mv	s7,t1
  a008a4:	00100693          	li	a3,1
  a008a8:	00c0006f          	j	a008b4 <print+0x42c>
  a008ac:	00030b93          	mv	s7,t1
  a008b0:	00000693          	li	a3,0
  a008b4:	04068063          	beqz	a3,a008f4 <print+0x46c>
  a008b8:	000ab583          	ld	a1,0(s5)
  a008bc:	008a8a93          	addi	s5,s5,8
  a008c0:	00000893          	li	a7,0
  a008c4:	00000693          	li	a3,0
  a008c8:	00800613          	li	a2,8
  a008cc:	f3040513          	addi	a0,s0,-208
  a008d0:	00000097          	auipc	ra,0x0
  a008d4:	a1c080e7          	jalr	-1508(ra) # a002ec <printNum>
  a008d8:	f3044783          	lbu	a5,-208(s0)
  a008dc:	c2078ae3          	beqz	a5,a00510 <print+0x88>
  a008e0:	f3140813          	addi	a6,s0,-207
  a008e4:	00a00e13          	li	t3,10
  a008e8:	00d00e93          	li	t4,13
  a008ec:	00100f13          	li	t5,1
  a008f0:	0400006f          	j	a00930 <print+0x4a8>
  a008f4:	000aa583          	lw	a1,0(s5)
  a008f8:	008a8a93          	addi	s5,s5,8
  a008fc:	fc5ff06f          	j	a008c0 <print+0x438>
  a00900:	00080313          	mv	t1,a6
  a00904:	fff84603          	lbu	a2,-1(a6)
  a00908:	0004a783          	lw	a5,0(s1)
  a0090c:	0017871b          	addiw	a4,a5,1
  a00910:	0007069b          	sext.w	a3,a4
  a00914:	00e4a023          	sw	a4,0(s1)
  a00918:	00f987b3          	add	a5,s3,a5
  a0091c:	00c78023          	sb	a2,0(a5)
  a00920:	07468263          	beq	a3,s4,a00984 <print+0x4fc>
  a00924:	00034783          	lbu	a5,0(t1)
  a00928:	00180813          	addi	a6,a6,1
  a0092c:	be0782e3          	beqz	a5,a00510 <print+0x88>
  a00930:	fdc798e3          	bne	a5,t3,a00900 <print+0x478>
  a00934:	0004a783          	lw	a5,0(s1)
  a00938:	0017871b          	addiw	a4,a5,1
  a0093c:	0007069b          	sext.w	a3,a4
  a00940:	00e4a023          	sw	a4,0(s1)
  a00944:	00f987b3          	add	a5,s3,a5
  a00948:	01d78023          	sb	t4,0(a5)
  a0094c:	fb469ae3          	bne	a3,s4,a00900 <print+0x478>
  a00950:	00098513          	mv	a0,s3
  a00954:	000a0593          	mv	a1,s4
  a00958:	00000613          	li	a2,0
  a0095c:	00000693          	li	a3,0
  a00960:	00000713          	li	a4,0
  a00964:	00000793          	li	a5,0
  a00968:	00500893          	li	a7,5
  a0096c:	00000073          	ecall
  a00970:	00080313          	mv	t1,a6
  a00974:	fff84783          	lbu	a5,-1(a6)
  a00978:	01e4a023          	sw	t5,0(s1)
  a0097c:	00f98023          	sb	a5,0(s3)
  a00980:	fa5ff06f          	j	a00924 <print+0x49c>
  a00984:	00098513          	mv	a0,s3
  a00988:	000a0593          	mv	a1,s4
  a0098c:	00000613          	li	a2,0
  a00990:	00000693          	li	a3,0
  a00994:	00000713          	li	a4,0
  a00998:	00000793          	li	a5,0
  a0099c:	00500893          	li	a7,5
  a009a0:	00000073          	ecall
  a009a4:	0004a023          	sw	zero,0(s1)
  a009a8:	f7dff06f          	j	a00924 <print+0x49c>
  a009ac:	00030b93          	mv	s7,t1
  a009b0:	00100693          	li	a3,1
  a009b4:	00c0006f          	j	a009c0 <print+0x538>
  a009b8:	00030b93          	mv	s7,t1
  a009bc:	00000693          	li	a3,0
  a009c0:	04068063          	beqz	a3,a00a00 <print+0x578>
  a009c4:	000ab583          	ld	a1,0(s5)
  a009c8:	008a8a93          	addi	s5,s5,8
  a009cc:	00000893          	li	a7,0
  a009d0:	00000693          	li	a3,0
  a009d4:	00a00613          	li	a2,10
  a009d8:	f3040513          	addi	a0,s0,-208
  a009dc:	00000097          	auipc	ra,0x0
  a009e0:	910080e7          	jalr	-1776(ra) # a002ec <printNum>
  a009e4:	f3044783          	lbu	a5,-208(s0)
  a009e8:	b20784e3          	beqz	a5,a00510 <print+0x88>
  a009ec:	f3140813          	addi	a6,s0,-207
  a009f0:	00a00e13          	li	t3,10
  a009f4:	00d00e93          	li	t4,13
  a009f8:	00100f13          	li	t5,1
  a009fc:	0400006f          	j	a00a3c <print+0x5b4>
  a00a00:	000aa583          	lw	a1,0(s5)
  a00a04:	008a8a93          	addi	s5,s5,8
  a00a08:	fc5ff06f          	j	a009cc <print+0x544>
  a00a0c:	00080313          	mv	t1,a6
  a00a10:	fff84603          	lbu	a2,-1(a6)
  a00a14:	0004a783          	lw	a5,0(s1)
  a00a18:	0017871b          	addiw	a4,a5,1
  a00a1c:	0007069b          	sext.w	a3,a4
  a00a20:	00e4a023          	sw	a4,0(s1)
  a00a24:	00f987b3          	add	a5,s3,a5
  a00a28:	00c78023          	sb	a2,0(a5)
  a00a2c:	07468263          	beq	a3,s4,a00a90 <print+0x608>
  a00a30:	00034783          	lbu	a5,0(t1)
  a00a34:	00180813          	addi	a6,a6,1
  a00a38:	ac078ce3          	beqz	a5,a00510 <print+0x88>
  a00a3c:	fdc798e3          	bne	a5,t3,a00a0c <print+0x584>
  a00a40:	0004a783          	lw	a5,0(s1)
  a00a44:	0017871b          	addiw	a4,a5,1
  a00a48:	0007069b          	sext.w	a3,a4
  a00a4c:	00e4a023          	sw	a4,0(s1)
  a00a50:	00f987b3          	add	a5,s3,a5
  a00a54:	01d78023          	sb	t4,0(a5)
  a00a58:	fb469ae3          	bne	a3,s4,a00a0c <print+0x584>
  a00a5c:	00098513          	mv	a0,s3
  a00a60:	000a0593          	mv	a1,s4
  a00a64:	00000613          	li	a2,0
  a00a68:	00000693          	li	a3,0
  a00a6c:	00000713          	li	a4,0
  a00a70:	00000793          	li	a5,0
  a00a74:	00500893          	li	a7,5
  a00a78:	00000073          	ecall
  a00a7c:	00080313          	mv	t1,a6
  a00a80:	fff84783          	lbu	a5,-1(a6)
  a00a84:	01e4a023          	sw	t5,0(s1)
  a00a88:	00f98023          	sb	a5,0(s3)
  a00a8c:	fa5ff06f          	j	a00a30 <print+0x5a8>
  a00a90:	00098513          	mv	a0,s3
  a00a94:	000a0593          	mv	a1,s4
  a00a98:	00000613          	li	a2,0
  a00a9c:	00000693          	li	a3,0
  a00aa0:	00000713          	li	a4,0
  a00aa4:	00000793          	li	a5,0
  a00aa8:	00500893          	li	a7,5
  a00aac:	00000073          	ecall
  a00ab0:	0004a023          	sw	zero,0(s1)
  a00ab4:	f7dff06f          	j	a00a30 <print+0x5a8>
  a00ab8:	00030b93          	mv	s7,t1
  a00abc:	00100693          	li	a3,1
  a00ac0:	00c0006f          	j	a00acc <print+0x644>
  a00ac4:	00030b93          	mv	s7,t1
  a00ac8:	00000693          	li	a3,0
  a00acc:	04068063          	beqz	a3,a00b0c <print+0x684>
  a00ad0:	000ab583          	ld	a1,0(s5)
  a00ad4:	008a8a93          	addi	s5,s5,8
  a00ad8:	00000893          	li	a7,0
  a00adc:	00000693          	li	a3,0
  a00ae0:	01000613          	li	a2,16
  a00ae4:	f3040513          	addi	a0,s0,-208
  a00ae8:	00000097          	auipc	ra,0x0
  a00aec:	804080e7          	jalr	-2044(ra) # a002ec <printNum>
  a00af0:	f3044783          	lbu	a5,-208(s0)
  a00af4:	a0078ee3          	beqz	a5,a00510 <print+0x88>
  a00af8:	f3140813          	addi	a6,s0,-207
  a00afc:	00a00e13          	li	t3,10
  a00b00:	00d00e93          	li	t4,13
  a00b04:	00100f13          	li	t5,1
  a00b08:	0400006f          	j	a00b48 <print+0x6c0>
  a00b0c:	000aa583          	lw	a1,0(s5)
  a00b10:	008a8a93          	addi	s5,s5,8
  a00b14:	fc5ff06f          	j	a00ad8 <print+0x650>
  a00b18:	00080313          	mv	t1,a6
  a00b1c:	fff84603          	lbu	a2,-1(a6)
  a00b20:	0004a783          	lw	a5,0(s1)
  a00b24:	0017871b          	addiw	a4,a5,1
  a00b28:	0007069b          	sext.w	a3,a4
  a00b2c:	00e4a023          	sw	a4,0(s1)
  a00b30:	00f987b3          	add	a5,s3,a5
  a00b34:	00c78023          	sb	a2,0(a5)
  a00b38:	07468263          	beq	a3,s4,a00b9c <print+0x714>
  a00b3c:	00034783          	lbu	a5,0(t1)
  a00b40:	00180813          	addi	a6,a6,1
  a00b44:	9c0786e3          	beqz	a5,a00510 <print+0x88>
  a00b48:	fdc798e3          	bne	a5,t3,a00b18 <print+0x690>
  a00b4c:	0004a783          	lw	a5,0(s1)
  a00b50:	0017871b          	addiw	a4,a5,1
  a00b54:	0007069b          	sext.w	a3,a4
  a00b58:	00e4a023          	sw	a4,0(s1)
  a00b5c:	00f987b3          	add	a5,s3,a5
  a00b60:	01d78023          	sb	t4,0(a5)
  a00b64:	fb469ae3          	bne	a3,s4,a00b18 <print+0x690>
  a00b68:	00098513          	mv	a0,s3
  a00b6c:	000a0593          	mv	a1,s4
  a00b70:	00000613          	li	a2,0
  a00b74:	00000693          	li	a3,0
  a00b78:	00000713          	li	a4,0
  a00b7c:	00000793          	li	a5,0
  a00b80:	00500893          	li	a7,5
  a00b84:	00000073          	ecall
  a00b88:	00080313          	mv	t1,a6
  a00b8c:	fff84783          	lbu	a5,-1(a6)
  a00b90:	01e4a023          	sw	t5,0(s1)
  a00b94:	00f98023          	sb	a5,0(s3)
  a00b98:	fa5ff06f          	j	a00b3c <print+0x6b4>
  a00b9c:	00098513          	mv	a0,s3
  a00ba0:	000a0593          	mv	a1,s4
  a00ba4:	00000613          	li	a2,0
  a00ba8:	00000693          	li	a3,0
  a00bac:	00000713          	li	a4,0
  a00bb0:	00000793          	li	a5,0
  a00bb4:	00500893          	li	a7,5
  a00bb8:	00000073          	ecall
  a00bbc:	0004a023          	sw	zero,0(s1)
  a00bc0:	f7dff06f          	j	a00b3c <print+0x6b4>
  a00bc4:	00030b93          	mv	s7,t1
  a00bc8:	00100693          	li	a3,1
  a00bcc:	00c0006f          	j	a00bd8 <print+0x750>
  a00bd0:	00030b93          	mv	s7,t1
  a00bd4:	00000693          	li	a3,0
  a00bd8:	04068063          	beqz	a3,a00c18 <print+0x790>
  a00bdc:	000ab583          	ld	a1,0(s5)
  a00be0:	008a8a93          	addi	s5,s5,8
  a00be4:	00100893          	li	a7,1
  a00be8:	00000693          	li	a3,0
  a00bec:	01000613          	li	a2,16
  a00bf0:	f3040513          	addi	a0,s0,-208
  a00bf4:	fffff097          	auipc	ra,0xfffff
  a00bf8:	6f8080e7          	jalr	1784(ra) # a002ec <printNum>
  a00bfc:	f3044783          	lbu	a5,-208(s0)
  a00c00:	900788e3          	beqz	a5,a00510 <print+0x88>
  a00c04:	f3140813          	addi	a6,s0,-207
  a00c08:	00a00e13          	li	t3,10
  a00c0c:	00d00e93          	li	t4,13
  a00c10:	00100f13          	li	t5,1
  a00c14:	0400006f          	j	a00c54 <print+0x7cc>
  a00c18:	000aa583          	lw	a1,0(s5)
  a00c1c:	008a8a93          	addi	s5,s5,8
  a00c20:	fc5ff06f          	j	a00be4 <print+0x75c>
  a00c24:	00080313          	mv	t1,a6
  a00c28:	fff84603          	lbu	a2,-1(a6)
  a00c2c:	0004a783          	lw	a5,0(s1)
  a00c30:	0017871b          	addiw	a4,a5,1
  a00c34:	0007069b          	sext.w	a3,a4
  a00c38:	00e4a023          	sw	a4,0(s1)
  a00c3c:	00f987b3          	add	a5,s3,a5
  a00c40:	00c78023          	sb	a2,0(a5)
  a00c44:	07468263          	beq	a3,s4,a00ca8 <print+0x820>
  a00c48:	00034783          	lbu	a5,0(t1)
  a00c4c:	00180813          	addi	a6,a6,1
  a00c50:	8c0780e3          	beqz	a5,a00510 <print+0x88>
  a00c54:	fdc798e3          	bne	a5,t3,a00c24 <print+0x79c>
  a00c58:	0004a783          	lw	a5,0(s1)
  a00c5c:	0017871b          	addiw	a4,a5,1
  a00c60:	0007069b          	sext.w	a3,a4
  a00c64:	00e4a023          	sw	a4,0(s1)
  a00c68:	00f987b3          	add	a5,s3,a5
  a00c6c:	01d78023          	sb	t4,0(a5)
  a00c70:	fb469ae3          	bne	a3,s4,a00c24 <print+0x79c>
  a00c74:	00098513          	mv	a0,s3
  a00c78:	000a0593          	mv	a1,s4
  a00c7c:	00000613          	li	a2,0
  a00c80:	00000693          	li	a3,0
  a00c84:	00000713          	li	a4,0
  a00c88:	00000793          	li	a5,0
  a00c8c:	00500893          	li	a7,5
  a00c90:	00000073          	ecall
  a00c94:	00080313          	mv	t1,a6
  a00c98:	fff84783          	lbu	a5,-1(a6)
  a00c9c:	01e4a023          	sw	t5,0(s1)
  a00ca0:	00f98023          	sb	a5,0(s3)
  a00ca4:	fa5ff06f          	j	a00c48 <print+0x7c0>
  a00ca8:	00098513          	mv	a0,s3
  a00cac:	000a0593          	mv	a1,s4
  a00cb0:	00000613          	li	a2,0
  a00cb4:	00000693          	li	a3,0
  a00cb8:	00000713          	li	a4,0
  a00cbc:	00000793          	li	a5,0
  a00cc0:	00500893          	li	a7,5
  a00cc4:	00000073          	ecall
  a00cc8:	0004a023          	sw	zero,0(s1)
  a00ccc:	f7dff06f          	j	a00c48 <print+0x7c0>
  a00cd0:	00030b93          	mv	s7,t1
  a00cd4:	0080006f          	j	a00cdc <print+0x854>
  a00cd8:	00030b93          	mv	s7,t1
  a00cdc:	008a8c13          	addi	s8,s5,8
  a00ce0:	000ab583          	ld	a1,0(s5)
  a00ce4:	02058a63          	beqz	a1,a00d18 <print+0x890>
  a00ce8:	00078693          	mv	a3,a5
  a00cec:	00070613          	mv	a2,a4
  a00cf0:	f3040513          	addi	a0,s0,-208
  a00cf4:	fffff097          	auipc	ra,0xfffff
  a00cf8:	4c0080e7          	jalr	1216(ra) # a001b4 <printString>
  a00cfc:	f3044783          	lbu	a5,-208(s0)
  a00d00:	10078663          	beqz	a5,a00e0c <print+0x984>
  a00d04:	f3140813          	addi	a6,s0,-207
  a00d08:	00a00e13          	li	t3,10
  a00d0c:	00d00e93          	li	t4,13
  a00d10:	00100f13          	li	t5,1
  a00d14:	0400006f          	j	a00d54 <print+0x8cc>
  a00d18:	00001597          	auipc	a1,0x1
  a00d1c:	4c858593          	addi	a1,a1,1224 # a021e0 <_etext+0x1e0>
  a00d20:	fc9ff06f          	j	a00ce8 <print+0x860>
  a00d24:	00080313          	mv	t1,a6
  a00d28:	fff84603          	lbu	a2,-1(a6)
  a00d2c:	0004a783          	lw	a5,0(s1)
  a00d30:	0017871b          	addiw	a4,a5,1
  a00d34:	0007069b          	sext.w	a3,a4
  a00d38:	00e4a023          	sw	a4,0(s1)
  a00d3c:	00f987b3          	add	a5,s3,a5
  a00d40:	00c78023          	sb	a2,0(a5)
  a00d44:	07468263          	beq	a3,s4,a00da8 <print+0x920>
  a00d48:	00034783          	lbu	a5,0(t1)
  a00d4c:	00180813          	addi	a6,a6,1
  a00d50:	08078063          	beqz	a5,a00dd0 <print+0x948>
  a00d54:	fdc798e3          	bne	a5,t3,a00d24 <print+0x89c>
  a00d58:	0004a783          	lw	a5,0(s1)
  a00d5c:	0017871b          	addiw	a4,a5,1
  a00d60:	0007069b          	sext.w	a3,a4
  a00d64:	00e4a023          	sw	a4,0(s1)
  a00d68:	00f987b3          	add	a5,s3,a5
  a00d6c:	01d78023          	sb	t4,0(a5)
  a00d70:	fb469ae3          	bne	a3,s4,a00d24 <print+0x89c>
  a00d74:	00098513          	mv	a0,s3
  a00d78:	000a0593          	mv	a1,s4
  a00d7c:	00000613          	li	a2,0
  a00d80:	00000693          	li	a3,0
  a00d84:	00000713          	li	a4,0
  a00d88:	00000793          	li	a5,0
  a00d8c:	00500893          	li	a7,5
  a00d90:	00000073          	ecall
  a00d94:	00080313          	mv	t1,a6
  a00d98:	fff84783          	lbu	a5,-1(a6)
  a00d9c:	01e4a023          	sw	t5,0(s1)
  a00da0:	00f98023          	sb	a5,0(s3)
  a00da4:	fa5ff06f          	j	a00d48 <print+0x8c0>
  a00da8:	00098513          	mv	a0,s3
  a00dac:	000a0593          	mv	a1,s4
  a00db0:	00000613          	li	a2,0
  a00db4:	00000693          	li	a3,0
  a00db8:	00000713          	li	a4,0
  a00dbc:	00000793          	li	a5,0
  a00dc0:	00500893          	li	a7,5
  a00dc4:	00000073          	ecall
  a00dc8:	0004a023          	sw	zero,0(s1)
  a00dcc:	f7dff06f          	j	a00d48 <print+0x8c0>
  a00dd0:	000c0a93          	mv	s5,s8
  a00dd4:	f3cff06f          	j	a00510 <print+0x88>
  a00dd8:	fff30b9b          	addiw	s7,t1,-1
  a00ddc:	f34ff06f          	j	a00510 <print+0x88>
  a00de0:	0005051b          	sext.w	a0,a0
  a00de4:	0ff57513          	zext.b	a0,a0
  a00de8:	00000593          	li	a1,0
  a00dec:	00000613          	li	a2,0
  a00df0:	00000693          	li	a3,0
  a00df4:	00000713          	li	a4,0
  a00df8:	00000793          	li	a5,0
  a00dfc:	00400893          	li	a7,4
  a00e00:	00000073          	ecall
  a00e04:	00030b93          	mv	s7,t1
  a00e08:	f08ff06f          	j	a00510 <print+0x88>
  a00e0c:	000c0a93          	mv	s5,s8
  a00e10:	f00ff06f          	j	a00510 <print+0x88>
  a00e14:	0c813083          	ld	ra,200(sp)
  a00e18:	0c013403          	ld	s0,192(sp)
  a00e1c:	0b813483          	ld	s1,184(sp)
  a00e20:	0b013903          	ld	s2,176(sp)
  a00e24:	0a813983          	ld	s3,168(sp)
  a00e28:	0a013a03          	ld	s4,160(sp)
  a00e2c:	09813a83          	ld	s5,152(sp)
  a00e30:	09013b03          	ld	s6,144(sp)
  a00e34:	08813b83          	ld	s7,136(sp)
  a00e38:	08013c03          	ld	s8,128(sp)
  a00e3c:	0d010113          	addi	sp,sp,208
  a00e40:	00008067          	ret
  a00e44:	00008067          	ret

0000000000a00e48 <printf>:
  a00e48:	fa010113          	addi	sp,sp,-96
  a00e4c:	00113c23          	sd	ra,24(sp)
  a00e50:	00813823          	sd	s0,16(sp)
  a00e54:	02010413          	addi	s0,sp,32
  a00e58:	00b43423          	sd	a1,8(s0)
  a00e5c:	00c43823          	sd	a2,16(s0)
  a00e60:	00d43c23          	sd	a3,24(s0)
  a00e64:	02e43023          	sd	a4,32(s0)
  a00e68:	02f43423          	sd	a5,40(s0)
  a00e6c:	03043823          	sd	a6,48(s0)
  a00e70:	03143c23          	sd	a7,56(s0)
  a00e74:	00840593          	addi	a1,s0,8
  a00e78:	feb43423          	sd	a1,-24(s0)
  a00e7c:	fffff097          	auipc	ra,0xfffff
  a00e80:	60c080e7          	jalr	1548(ra) # a00488 <print>
  a00e84:	00600597          	auipc	a1,0x600
  a00e88:	37c5a583          	lw	a1,892(a1) # 1001200 <bufferLen>
  a00e8c:	02b05663          	blez	a1,a00eb8 <printf+0x70>
  a00e90:	00600517          	auipc	a0,0x600
  a00e94:	17050513          	addi	a0,a0,368 # 1001000 <printfBuffer>
  a00e98:	00000613          	li	a2,0
  a00e9c:	00000693          	li	a3,0
  a00ea0:	00000713          	li	a4,0
  a00ea4:	00000793          	li	a5,0
  a00ea8:	00500893          	li	a7,5
  a00eac:	00000073          	ecall
  a00eb0:	00600797          	auipc	a5,0x600
  a00eb4:	3407a823          	sw	zero,848(a5) # 1001200 <bufferLen>
  a00eb8:	01813083          	ld	ra,24(sp)
  a00ebc:	01013403          	ld	s0,16(sp)
  a00ec0:	06010113          	addi	sp,sp,96
  a00ec4:	00008067          	ret

0000000000a00ec8 <_panic_>:
  a00ec8:	fa010113          	addi	sp,sp,-96
  a00ecc:	02113423          	sd	ra,40(sp)
  a00ed0:	02813023          	sd	s0,32(sp)
  a00ed4:	00913c23          	sd	s1,24(sp)
  a00ed8:	03010413          	addi	s0,sp,48
  a00edc:	00060493          	mv	s1,a2
  a00ee0:	00d43423          	sd	a3,8(s0)
  a00ee4:	00e43823          	sd	a4,16(s0)
  a00ee8:	00f43c23          	sd	a5,24(s0)
  a00eec:	03043023          	sd	a6,32(s0)
  a00ef0:	03143423          	sd	a7,40(s0)
  a00ef4:	00058613          	mv	a2,a1
  a00ef8:	00050593          	mv	a1,a0
  a00efc:	00001517          	auipc	a0,0x1
  a00f00:	2ec50513          	addi	a0,a0,748 # a021e8 <_etext+0x1e8>
  a00f04:	00000097          	auipc	ra,0x0
  a00f08:	f44080e7          	jalr	-188(ra) # a00e48 <printf>
  a00f0c:	00840593          	addi	a1,s0,8
  a00f10:	fcb43c23          	sd	a1,-40(s0)
  a00f14:	00048513          	mv	a0,s1
  a00f18:	fffff097          	auipc	ra,0xfffff
  a00f1c:	570080e7          	jalr	1392(ra) # a00488 <print>
  a00f20:	00a00513          	li	a0,10
  a00f24:	00000593          	li	a1,0
  a00f28:	00000613          	li	a2,0
  a00f2c:	00000693          	li	a3,0
  a00f30:	00000713          	li	a4,0
  a00f34:	00000793          	li	a5,0
  a00f38:	00400893          	li	a7,4
  a00f3c:	00000073          	ecall
  a00f40:	0000006f          	j	a00f40 <_panic_+0x78>

0000000000a00f44 <_assert_>:
  a00f44:	00068463          	beqz	a3,a00f4c <_assert_+0x8>
  a00f48:	00008067          	ret
  a00f4c:	ff010113          	addi	sp,sp,-16
  a00f50:	00113423          	sd	ra,8(sp)
  a00f54:	00813023          	sd	s0,0(sp)
  a00f58:	01010413          	addi	s0,sp,16
  a00f5c:	00001697          	auipc	a3,0x1
  a00f60:	2a468693          	addi	a3,a3,676 # a02200 <_etext+0x200>
  a00f64:	00000097          	auipc	ra,0x0
  a00f68:	f64080e7          	jalr	-156(ra) # a00ec8 <_panic_>

0000000000a00f6c <strcpy>:
  a00f6c:	ff010113          	addi	sp,sp,-16
  a00f70:	00813423          	sd	s0,8(sp)
  a00f74:	01010413          	addi	s0,sp,16
  a00f78:	00050793          	mv	a5,a0
  a00f7c:	00158593          	addi	a1,a1,1
  a00f80:	00178793          	addi	a5,a5,1
  a00f84:	fff5c703          	lbu	a4,-1(a1)
  a00f88:	fee78fa3          	sb	a4,-1(a5)
  a00f8c:	fe0718e3          	bnez	a4,a00f7c <strcpy+0x10>
  a00f90:	00813403          	ld	s0,8(sp)
  a00f94:	01010113          	addi	sp,sp,16
  a00f98:	00008067          	ret

0000000000a00f9c <strcmp>:
  a00f9c:	ff010113          	addi	sp,sp,-16
  a00fa0:	00813423          	sd	s0,8(sp)
  a00fa4:	01010413          	addi	s0,sp,16
  a00fa8:	00054783          	lbu	a5,0(a0)
  a00fac:	00078e63          	beqz	a5,a00fc8 <strcmp+0x2c>
  a00fb0:	0005c703          	lbu	a4,0(a1)
  a00fb4:	00f71a63          	bne	a4,a5,a00fc8 <strcmp+0x2c>
  a00fb8:	00150513          	addi	a0,a0,1
  a00fbc:	00158593          	addi	a1,a1,1
  a00fc0:	00054783          	lbu	a5,0(a0)
  a00fc4:	fe0796e3          	bnez	a5,a00fb0 <strcmp+0x14>
  a00fc8:	0005c503          	lbu	a0,0(a1)
  a00fcc:	40a7853b          	subw	a0,a5,a0
  a00fd0:	00813403          	ld	s0,8(sp)
  a00fd4:	01010113          	addi	sp,sp,16
  a00fd8:	00008067          	ret

0000000000a00fdc <strlen>:
  a00fdc:	ff010113          	addi	sp,sp,-16
  a00fe0:	00813423          	sd	s0,8(sp)
  a00fe4:	01010413          	addi	s0,sp,16
  a00fe8:	00054783          	lbu	a5,0(a0)
  a00fec:	02078863          	beqz	a5,a0101c <strlen+0x40>
  a00ff0:	00150513          	addi	a0,a0,1
  a00ff4:	00050793          	mv	a5,a0
  a00ff8:	00100693          	li	a3,1
  a00ffc:	40a686bb          	subw	a3,a3,a0
  a01000:	00f6853b          	addw	a0,a3,a5
  a01004:	00178793          	addi	a5,a5,1
  a01008:	fff7c703          	lbu	a4,-1(a5)
  a0100c:	fe071ae3          	bnez	a4,a01000 <strlen+0x24>
  a01010:	00813403          	ld	s0,8(sp)
  a01014:	01010113          	addi	sp,sp,16
  a01018:	00008067          	ret
  a0101c:	00000513          	li	a0,0
  a01020:	ff1ff06f          	j	a01010 <strlen+0x34>

0000000000a01024 <memset>:
  a01024:	ff010113          	addi	sp,sp,-16
  a01028:	00813423          	sd	s0,8(sp)
  a0102c:	01010413          	addi	s0,sp,16
  a01030:	02060063          	beqz	a2,a01050 <memset+0x2c>
  a01034:	00050793          	mv	a5,a0
  a01038:	02061613          	slli	a2,a2,0x20
  a0103c:	02065613          	srli	a2,a2,0x20
  a01040:	00a60733          	add	a4,a2,a0
  a01044:	00b78023          	sb	a1,0(a5)
  a01048:	00178793          	addi	a5,a5,1
  a0104c:	fee79ce3          	bne	a5,a4,a01044 <memset+0x20>
  a01050:	00813403          	ld	s0,8(sp)
  a01054:	01010113          	addi	sp,sp,16
  a01058:	00008067          	ret

0000000000a0105c <strchr>:
  a0105c:	ff010113          	addi	sp,sp,-16
  a01060:	00813423          	sd	s0,8(sp)
  a01064:	01010413          	addi	s0,sp,16
  a01068:	00054783          	lbu	a5,0(a0)
  a0106c:	02078263          	beqz	a5,a01090 <strchr+0x34>
  a01070:	00f58a63          	beq	a1,a5,a01084 <strchr+0x28>
  a01074:	00150513          	addi	a0,a0,1
  a01078:	00054783          	lbu	a5,0(a0)
  a0107c:	fe079ae3          	bnez	a5,a01070 <strchr+0x14>
  a01080:	00000513          	li	a0,0
  a01084:	00813403          	ld	s0,8(sp)
  a01088:	01010113          	addi	sp,sp,16
  a0108c:	00008067          	ret
  a01090:	00000513          	li	a0,0
  a01094:	ff1ff06f          	j	a01084 <strchr+0x28>

0000000000a01098 <gets>:
  a01098:	00050e93          	mv	t4,a0
  a0109c:	00100793          	li	a5,1
  a010a0:	0cb7d863          	bge	a5,a1,a01170 <gets+0xd8>
  a010a4:	fe010113          	addi	sp,sp,-32
  a010a8:	00813c23          	sd	s0,24(sp)
  a010ac:	02010413          	addi	s0,sp,32
  a010b0:	00058e13          	mv	t3,a1
  a010b4:	00000813          	li	a6,0
  a010b8:	00100313          	li	t1,1
  a010bc:	07f00f13          	li	t5,127
  a010c0:	00a00f93          	li	t6,10
  a010c4:	00d00293          	li	t0,13
  a010c8:	00001397          	auipc	t2,0x1
  a010cc:	14838393          	addi	t2,t2,328 # a02210 <backspace.0>
  a010d0:	02c0006f          	j	a010fc <gets+0x64>
  a010d4:	03005063          	blez	a6,a010f4 <gets+0x5c>
  a010d8:	fff8081b          	addiw	a6,a6,-1
  a010dc:	00100513          	li	a0,1
  a010e0:	00038593          	mv	a1,t2
  a010e4:	00300613          	li	a2,3
  a010e8:	00000793          	li	a5,0
  a010ec:	04000893          	li	a7,64
  a010f0:	00000073          	ecall
  a010f4:	0018031b          	addiw	t1,a6,1
  a010f8:	07c35863          	bge	t1,t3,a01168 <gets+0xd0>
  a010fc:	00000513          	li	a0,0
  a01100:	fef40593          	addi	a1,s0,-17
  a01104:	00100613          	li	a2,1
  a01108:	00000693          	li	a3,0
  a0110c:	00000713          	li	a4,0
  a01110:	00000793          	li	a5,0
  a01114:	03f00893          	li	a7,63
  a01118:	00000073          	ecall
  a0111c:	0005051b          	sext.w	a0,a0
  a01120:	06a05063          	blez	a0,a01180 <gets+0xe8>
  a01124:	fef44783          	lbu	a5,-17(s0)
  a01128:	fbe786e3          	beq	a5,t5,a010d4 <gets+0x3c>
  a0112c:	00100513          	li	a0,1
  a01130:	fef40593          	addi	a1,s0,-17
  a01134:	00100613          	li	a2,1
  a01138:	00000693          	li	a3,0
  a0113c:	00000713          	li	a4,0
  a01140:	00000793          	li	a5,0
  a01144:	04000893          	li	a7,64
  a01148:	00000073          	ecall
  a0114c:	fef44783          	lbu	a5,-17(s0)
  a01150:	010e8833          	add	a6,t4,a6
  a01154:	00f80023          	sb	a5,0(a6)
  a01158:	03f78663          	beq	a5,t6,a01184 <gets+0xec>
  a0115c:	02578463          	beq	a5,t0,a01184 <gets+0xec>
  a01160:	00030813          	mv	a6,t1
  a01164:	f91ff06f          	j	a010f4 <gets+0x5c>
  a01168:	00080313          	mv	t1,a6
  a0116c:	0180006f          	j	a01184 <gets+0xec>
  a01170:	00000313          	li	t1,0
  a01174:	00650333          	add	t1,a0,t1
  a01178:	00030023          	sb	zero,0(t1)
  a0117c:	00008067          	ret
  a01180:	00080313          	mv	t1,a6
  a01184:	006e8333          	add	t1,t4,t1
  a01188:	00030023          	sb	zero,0(t1)
  a0118c:	000e8513          	mv	a0,t4
  a01190:	01813403          	ld	s0,24(sp)
  a01194:	02010113          	addi	sp,sp,32
  a01198:	00008067          	ret

0000000000a0119c <stat>:
  a0119c:	ff010113          	addi	sp,sp,-16
  a011a0:	00813423          	sd	s0,8(sp)
  a011a4:	01010413          	addi	s0,sp,16
  a011a8:	00050793          	mv	a5,a0
  a011ac:	00058313          	mv	t1,a1
  a011b0:	f9c00513          	li	a0,-100
  a011b4:	00078593          	mv	a1,a5
  a011b8:	00000613          	li	a2,0
  a011bc:	00200693          	li	a3,2
  a011c0:	00000713          	li	a4,0
  a011c4:	00000793          	li	a5,0
  a011c8:	03800893          	li	a7,56
  a011cc:	00000073          	ecall
  a011d0:	0005081b          	sext.w	a6,a0
  a011d4:	02084e63          	bltz	a6,a01210 <stat+0x74>
  a011d8:	00080513          	mv	a0,a6
  a011dc:	00030593          	mv	a1,t1
  a011e0:	00000693          	li	a3,0
  a011e4:	05000893          	li	a7,80
  a011e8:	00000073          	ecall
  a011ec:	0005031b          	sext.w	t1,a0
  a011f0:	00080513          	mv	a0,a6
  a011f4:	00000593          	li	a1,0
  a011f8:	03900893          	li	a7,57
  a011fc:	00000073          	ecall
  a01200:	00030513          	mv	a0,t1
  a01204:	00813403          	ld	s0,8(sp)
  a01208:	01010113          	addi	sp,sp,16
  a0120c:	00008067          	ret
  a01210:	fff00313          	li	t1,-1
  a01214:	fedff06f          	j	a01200 <stat+0x64>

0000000000a01218 <atoi>:
  a01218:	ff010113          	addi	sp,sp,-16
  a0121c:	00813423          	sd	s0,8(sp)
  a01220:	01010413          	addi	s0,sp,16
  a01224:	00054683          	lbu	a3,0(a0)
  a01228:	fd06879b          	addiw	a5,a3,-48
  a0122c:	0ff7f793          	zext.b	a5,a5
  a01230:	00900613          	li	a2,9
  a01234:	04f66063          	bltu	a2,a5,a01274 <atoi+0x5c>
  a01238:	00050713          	mv	a4,a0
  a0123c:	00000513          	li	a0,0
  a01240:	00170713          	addi	a4,a4,1
  a01244:	0025179b          	slliw	a5,a0,0x2
  a01248:	00a787bb          	addw	a5,a5,a0
  a0124c:	0017979b          	slliw	a5,a5,0x1
  a01250:	00d787bb          	addw	a5,a5,a3
  a01254:	fd07851b          	addiw	a0,a5,-48
  a01258:	00074683          	lbu	a3,0(a4)
  a0125c:	fd06879b          	addiw	a5,a3,-48
  a01260:	0ff7f793          	zext.b	a5,a5
  a01264:	fcf67ee3          	bgeu	a2,a5,a01240 <atoi+0x28>
  a01268:	00813403          	ld	s0,8(sp)
  a0126c:	01010113          	addi	sp,sp,16
  a01270:	00008067          	ret
  a01274:	00000513          	li	a0,0
  a01278:	ff1ff06f          	j	a01268 <atoi+0x50>

0000000000a0127c <memmove>:
  a0127c:	ff010113          	addi	sp,sp,-16
  a01280:	00813423          	sd	s0,8(sp)
  a01284:	01010413          	addi	s0,sp,16
  a01288:	02b57c63          	bgeu	a0,a1,a012c0 <memmove+0x44>
  a0128c:	02c05463          	blez	a2,a012b4 <memmove+0x38>
  a01290:	02061613          	slli	a2,a2,0x20
  a01294:	02065613          	srli	a2,a2,0x20
  a01298:	00c507b3          	add	a5,a0,a2
  a0129c:	00050713          	mv	a4,a0
  a012a0:	00158593          	addi	a1,a1,1
  a012a4:	00170713          	addi	a4,a4,1
  a012a8:	fff5c683          	lbu	a3,-1(a1)
  a012ac:	fed70fa3          	sb	a3,-1(a4)
  a012b0:	fee798e3          	bne	a5,a4,a012a0 <memmove+0x24>
  a012b4:	00813403          	ld	s0,8(sp)
  a012b8:	01010113          	addi	sp,sp,16
  a012bc:	00008067          	ret
  a012c0:	00c50733          	add	a4,a0,a2
  a012c4:	00c585b3          	add	a1,a1,a2
  a012c8:	fec056e3          	blez	a2,a012b4 <memmove+0x38>
  a012cc:	fff6079b          	addiw	a5,a2,-1
  a012d0:	02079793          	slli	a5,a5,0x20
  a012d4:	0207d793          	srli	a5,a5,0x20
  a012d8:	fff7c793          	not	a5,a5
  a012dc:	00f707b3          	add	a5,a4,a5
  a012e0:	fff58593          	addi	a1,a1,-1
  a012e4:	fff70713          	addi	a4,a4,-1
  a012e8:	0005c683          	lbu	a3,0(a1)
  a012ec:	00d70023          	sb	a3,0(a4)
  a012f0:	fee798e3          	bne	a5,a4,a012e0 <memmove+0x64>
  a012f4:	fc1ff06f          	j	a012b4 <memmove+0x38>

0000000000a012f8 <memcmp>:
  a012f8:	ff010113          	addi	sp,sp,-16
  a012fc:	00813423          	sd	s0,8(sp)
  a01300:	01010413          	addi	s0,sp,16
  a01304:	04060463          	beqz	a2,a0134c <memcmp+0x54>
  a01308:	fff6069b          	addiw	a3,a2,-1
  a0130c:	02069693          	slli	a3,a3,0x20
  a01310:	0206d693          	srli	a3,a3,0x20
  a01314:	00168693          	addi	a3,a3,1
  a01318:	00d506b3          	add	a3,a0,a3
  a0131c:	00054783          	lbu	a5,0(a0)
  a01320:	0005c703          	lbu	a4,0(a1)
  a01324:	00e79c63          	bne	a5,a4,a0133c <memcmp+0x44>
  a01328:	00150513          	addi	a0,a0,1
  a0132c:	00158593          	addi	a1,a1,1
  a01330:	fed516e3          	bne	a0,a3,a0131c <memcmp+0x24>
  a01334:	00000513          	li	a0,0
  a01338:	0080006f          	j	a01340 <memcmp+0x48>
  a0133c:	40e7853b          	subw	a0,a5,a4
  a01340:	00813403          	ld	s0,8(sp)
  a01344:	01010113          	addi	sp,sp,16
  a01348:	00008067          	ret
  a0134c:	00000513          	li	a0,0
  a01350:	ff1ff06f          	j	a01340 <memcmp+0x48>

0000000000a01354 <memcpy>:
  a01354:	ff010113          	addi	sp,sp,-16
  a01358:	00113423          	sd	ra,8(sp)
  a0135c:	00813023          	sd	s0,0(sp)
  a01360:	01010413          	addi	s0,sp,16
  a01364:	00000097          	auipc	ra,0x0
  a01368:	f18080e7          	jalr	-232(ra) # a0127c <memmove>
  a0136c:	00813083          	ld	ra,8(sp)
  a01370:	00013403          	ld	s0,0(sp)
  a01374:	01010113          	addi	sp,sp,16
  a01378:	00008067          	ret

0000000000a0137c <free>:
  a0137c:	ff010113          	addi	sp,sp,-16
  a01380:	00813423          	sd	s0,8(sp)
  a01384:	01010413          	addi	s0,sp,16
  a01388:	ff050693          	addi	a3,a0,-16
  a0138c:	005ff797          	auipc	a5,0x5ff
  a01390:	c747b783          	ld	a5,-908(a5) # 1000000 <freep>
  a01394:	0400006f          	j	a013d4 <free+0x58>
  a01398:	00862703          	lw	a4,8(a2)
  a0139c:	00b7073b          	addw	a4,a4,a1
  a013a0:	fee52c23          	sw	a4,-8(a0)
  a013a4:	0007b703          	ld	a4,0(a5)
  a013a8:	00073603          	ld	a2,0(a4)
  a013ac:	0500006f          	j	a013fc <free+0x80>
  a013b0:	ff852703          	lw	a4,-8(a0)
  a013b4:	00c7073b          	addw	a4,a4,a2
  a013b8:	00e7a423          	sw	a4,8(a5)
  a013bc:	ff053683          	ld	a3,-16(a0)
  a013c0:	0540006f          	j	a01414 <free+0x98>
  a013c4:	0007b703          	ld	a4,0(a5)
  a013c8:	00e7e463          	bltu	a5,a4,a013d0 <free+0x54>
  a013cc:	00e6ec63          	bltu	a3,a4,a013e4 <free+0x68>
  a013d0:	00070793          	mv	a5,a4
  a013d4:	fed7f8e3          	bgeu	a5,a3,a013c4 <free+0x48>
  a013d8:	0007b703          	ld	a4,0(a5)
  a013dc:	00e6e463          	bltu	a3,a4,a013e4 <free+0x68>
  a013e0:	fee7e8e3          	bltu	a5,a4,a013d0 <free+0x54>
  a013e4:	ff852583          	lw	a1,-8(a0)
  a013e8:	0007b603          	ld	a2,0(a5)
  a013ec:	02059813          	slli	a6,a1,0x20
  a013f0:	01c85713          	srli	a4,a6,0x1c
  a013f4:	00e68733          	add	a4,a3,a4
  a013f8:	fae600e3          	beq	a2,a4,a01398 <free+0x1c>
  a013fc:	fec53823          	sd	a2,-16(a0)
  a01400:	0087a603          	lw	a2,8(a5)
  a01404:	02061593          	slli	a1,a2,0x20
  a01408:	01c5d713          	srli	a4,a1,0x1c
  a0140c:	00e78733          	add	a4,a5,a4
  a01410:	fae680e3          	beq	a3,a4,a013b0 <free+0x34>
  a01414:	00d7b023          	sd	a3,0(a5)
  a01418:	005ff717          	auipc	a4,0x5ff
  a0141c:	bef73423          	sd	a5,-1048(a4) # 1000000 <freep>
  a01420:	00813403          	ld	s0,8(sp)
  a01424:	01010113          	addi	sp,sp,16
  a01428:	00008067          	ret

0000000000a0142c <malloc>:
  a0142c:	fc010113          	addi	sp,sp,-64
  a01430:	02113c23          	sd	ra,56(sp)
  a01434:	02813823          	sd	s0,48(sp)
  a01438:	02913423          	sd	s1,40(sp)
  a0143c:	03213023          	sd	s2,32(sp)
  a01440:	01313c23          	sd	s3,24(sp)
  a01444:	01413823          	sd	s4,16(sp)
  a01448:	01513423          	sd	s5,8(sp)
  a0144c:	01613023          	sd	s6,0(sp)
  a01450:	04010413          	addi	s0,sp,64
  a01454:	02051493          	slli	s1,a0,0x20
  a01458:	0204d493          	srli	s1,s1,0x20
  a0145c:	00f48493          	addi	s1,s1,15
  a01460:	0044d493          	srli	s1,s1,0x4
  a01464:	0014899b          	addiw	s3,s1,1
  a01468:	00148493          	addi	s1,s1,1
  a0146c:	005ff517          	auipc	a0,0x5ff
  a01470:	b9453503          	ld	a0,-1132(a0) # 1000000 <freep>
  a01474:	02050e63          	beqz	a0,a014b0 <malloc+0x84>
  a01478:	00053783          	ld	a5,0(a0)
  a0147c:	0087a703          	lw	a4,8(a5)
  a01480:	04977663          	bgeu	a4,s1,a014cc <malloc+0xa0>
  a01484:	00098a13          	mv	s4,s3
  a01488:	0009871b          	sext.w	a4,s3
  a0148c:	000016b7          	lui	a3,0x1
  a01490:	00d77463          	bgeu	a4,a3,a01498 <malloc+0x6c>
  a01494:	00001a37          	lui	s4,0x1
  a01498:	000a0b1b          	sext.w	s6,s4
  a0149c:	004a1a1b          	slliw	s4,s4,0x4
  a014a0:	005ff917          	auipc	s2,0x5ff
  a014a4:	b6090913          	addi	s2,s2,-1184 # 1000000 <freep>
  a014a8:	fff00a93          	li	s5,-1
  a014ac:	0a00006f          	j	a0154c <malloc+0x120>
  a014b0:	00002797          	auipc	a5,0x2
  a014b4:	b5078793          	addi	a5,a5,-1200 # a03000 <base>
  a014b8:	005ff717          	auipc	a4,0x5ff
  a014bc:	b4f73423          	sd	a5,-1208(a4) # 1000000 <freep>
  a014c0:	00f7b023          	sd	a5,0(a5)
  a014c4:	0007a423          	sw	zero,8(a5)
  a014c8:	fbdff06f          	j	a01484 <malloc+0x58>
  a014cc:	04e48863          	beq	s1,a4,a0151c <malloc+0xf0>
  a014d0:	4137073b          	subw	a4,a4,s3
  a014d4:	00e7a423          	sw	a4,8(a5)
  a014d8:	02071693          	slli	a3,a4,0x20
  a014dc:	01c6d713          	srli	a4,a3,0x1c
  a014e0:	00e787b3          	add	a5,a5,a4
  a014e4:	0137a423          	sw	s3,8(a5)
  a014e8:	005ff717          	auipc	a4,0x5ff
  a014ec:	b0a73c23          	sd	a0,-1256(a4) # 1000000 <freep>
  a014f0:	01078513          	addi	a0,a5,16
  a014f4:	03813083          	ld	ra,56(sp)
  a014f8:	03013403          	ld	s0,48(sp)
  a014fc:	02813483          	ld	s1,40(sp)
  a01500:	02013903          	ld	s2,32(sp)
  a01504:	01813983          	ld	s3,24(sp)
  a01508:	01013a03          	ld	s4,16(sp)
  a0150c:	00813a83          	ld	s5,8(sp)
  a01510:	00013b03          	ld	s6,0(sp)
  a01514:	04010113          	addi	sp,sp,64
  a01518:	00008067          	ret
  a0151c:	0007b703          	ld	a4,0(a5)
  a01520:	00e53023          	sd	a4,0(a0)
  a01524:	fc5ff06f          	j	a014e8 <malloc+0xbc>
  a01528:	01652423          	sw	s6,8(a0)
  a0152c:	01050513          	addi	a0,a0,16
  a01530:	00000097          	auipc	ra,0x0
  a01534:	e4c080e7          	jalr	-436(ra) # a0137c <free>
  a01538:	00093503          	ld	a0,0(s2)
  a0153c:	fa050ce3          	beqz	a0,a014f4 <malloc+0xc8>
  a01540:	00053783          	ld	a5,0(a0)
  a01544:	0087a703          	lw	a4,8(a5)
  a01548:	f89772e3          	bgeu	a4,s1,a014cc <malloc+0xa0>
  a0154c:	00093703          	ld	a4,0(s2)
  a01550:	00078513          	mv	a0,a5
  a01554:	fef716e3          	bne	a4,a5,a01540 <malloc+0x114>
  a01558:	000a0513          	mv	a0,s4
  a0155c:	00000593          	li	a1,0
  a01560:	00000613          	li	a2,0
  a01564:	00000693          	li	a3,0
  a01568:	00000713          	li	a4,0
  a0156c:	00000793          	li	a5,0
  a01570:	00d00893          	li	a7,13
  a01574:	00000073          	ecall
  a01578:	fb5518e3          	bne	a0,s5,a01528 <malloc+0xfc>
  a0157c:	00000513          	li	a0,0
  a01580:	f75ff06f          	j	a014f4 <malloc+0xc8>

Disassembly of section .data:

0000000000a02000 <_etext>:
  a02000:	e7d8                	sd	a4,136(a5)
  a02002:	ffff                	0xffff
  a02004:	ede4                	sd	s1,216(a1)
  a02006:	ffff                	0xffff
  a02008:	ede4                	sd	s1,216(a1)
  a0200a:	ffff                	0xffff
  a0200c:	ede4                	sd	s1,216(a1)
  a0200e:	ffff                	0xffff
  a02010:	ede4                	sd	s1,216(a1)
  a02012:	ffff                	0xffff
  a02014:	ede4                	sd	s1,216(a1)
  a02016:	ffff                	0xffff
  a02018:	ede4                	sd	s1,216(a1)
  a0201a:	ffff                	0xffff
  a0201c:	ede4                	sd	s1,216(a1)
  a0201e:	ffff                	0xffff
  a02020:	ede4                	sd	s1,216(a1)
  a02022:	ffff                	0xffff
  a02024:	ede4                	sd	s1,216(a1)
  a02026:	ffff                	0xffff
  a02028:	ede4                	sd	s1,216(a1)
  a0202a:	ffff                	0xffff
  a0202c:	e8ac                	sd	a1,80(s1)
  a0202e:	ffff                	0xffff
  a02030:	ede4                	sd	s1,216(a1)
  a02032:	ffff                	0xffff
  a02034:	ede4                	sd	s1,216(a1)
  a02036:	ffff                	0xffff
  a02038:	ede4                	sd	s1,216(a1)
  a0203a:	ffff                	0xffff
  a0203c:	ede4                	sd	s1,216(a1)
  a0203e:	ffff                	0xffff
  a02040:	ede4                	sd	s1,216(a1)
  a02042:	ffff                	0xffff
  a02044:	e9b8                	sd	a4,80(a1)
  a02046:	ffff                	0xffff
  a02048:	ede4                	sd	s1,216(a1)
  a0204a:	ffff                	0xffff
  a0204c:	ede4                	sd	s1,216(a1)
  a0204e:	ffff                	0xffff
  a02050:	ebd0                	sd	a2,144(a5)
  a02052:	ffff                	0xffff
  a02054:	ede4                	sd	s1,216(a1)
  a02056:	ffff                	0xffff
  a02058:	ede4                	sd	s1,216(a1)
  a0205a:	ffff                	0xffff
  a0205c:	ede4                	sd	s1,216(a1)
  a0205e:	ffff                	0xffff
  a02060:	ede4                	sd	s1,216(a1)
  a02062:	ffff                	0xffff
  a02064:	ede4                	sd	s1,216(a1)
  a02066:	ffff                	0xffff
  a02068:	ede4                	sd	s1,216(a1)
  a0206a:	ffff                	0xffff
  a0206c:	ede4                	sd	s1,216(a1)
  a0206e:	ffff                	0xffff
  a02070:	ede4                	sd	s1,216(a1)
  a02072:	ffff                	0xffff
  a02074:	ede4                	sd	s1,216(a1)
  a02076:	ffff                	0xffff
  a02078:	ede4                	sd	s1,216(a1)
  a0207a:	ffff                	0xffff
  a0207c:	e728                	sd	a0,72(a4)
  a0207e:	ffff                	0xffff
  a02080:	e7d8                	sd	a4,136(a5)
  a02082:	ffff                	0xffff
  a02084:	ede4                	sd	s1,216(a1)
  a02086:	ffff                	0xffff
  a02088:	ede4                	sd	s1,216(a1)
  a0208a:	ffff                	0xffff
  a0208c:	ede4                	sd	s1,216(a1)
  a0208e:	ffff                	0xffff
  a02090:	ede4                	sd	s1,216(a1)
  a02092:	ffff                	0xffff
  a02094:	ede4                	sd	s1,216(a1)
  a02096:	ffff                	0xffff
  a02098:	ede4                	sd	s1,216(a1)
  a0209a:	ffff                	0xffff
  a0209c:	ede4                	sd	s1,216(a1)
  a0209e:	ffff                	0xffff
  a020a0:	ede4                	sd	s1,216(a1)
  a020a2:	ffff                	0xffff
  a020a4:	ede4                	sd	s1,216(a1)
  a020a6:	ffff                	0xffff
  a020a8:	ede4                	sd	s1,216(a1)
  a020aa:	ffff                	0xffff
  a020ac:	e8ac                	sd	a1,80(s1)
  a020ae:	ffff                	0xffff
  a020b0:	ede4                	sd	s1,216(a1)
  a020b2:	ffff                	0xffff
  a020b4:	ede4                	sd	s1,216(a1)
  a020b6:	ffff                	0xffff
  a020b8:	ede4                	sd	s1,216(a1)
  a020ba:	ffff                	0xffff
  a020bc:	ecd8                	sd	a4,152(s1)
  a020be:	ffff                	0xffff
  a020c0:	ede4                	sd	s1,216(a1)
  a020c2:	ffff                	0xffff
  a020c4:	e9b8                	sd	a4,80(a1)
  a020c6:	ffff                	0xffff
  a020c8:	ede4                	sd	s1,216(a1)
  a020ca:	ffff                	0xffff
  a020cc:	ede4                	sd	s1,216(a1)
  a020ce:	ffff                	0xffff
  a020d0:	eac4                	sd	s1,144(a3)
  a020d2:	ffff                	0xffff
  a020d4:	e6c0                	sd	s0,136(a3)
  a020d6:	ffff                	0xffff
  a020d8:	ed0c                	sd	a1,24(a0)
  a020da:	ffff                	0xffff
  a020dc:	ed0c                	sd	a1,24(a0)
  a020de:	ffff                	0xffff
  a020e0:	ed0c                	sd	a1,24(a0)
  a020e2:	ffff                	0xffff
  a020e4:	ed0c                	sd	a1,24(a0)
  a020e6:	ffff                	0xffff
  a020e8:	ed0c                	sd	a1,24(a0)
  a020ea:	ffff                	0xffff
  a020ec:	ed0c                	sd	a1,24(a0)
  a020ee:	ffff                	0xffff
  a020f0:	ed0c                	sd	a1,24(a0)
  a020f2:	ffff                	0xffff
  a020f4:	ed0c                	sd	a1,24(a0)
  a020f6:	ffff                	0xffff
  a020f8:	ed0c                	sd	a1,24(a0)
  a020fa:	ffff                	0xffff
  a020fc:	ed0c                	sd	a1,24(a0)
  a020fe:	ffff                	0xffff
  a02100:	e7cc                	sd	a1,136(a5)
  a02102:	ffff                	0xffff
  a02104:	ed0c                	sd	a1,24(a0)
  a02106:	ffff                	0xffff
  a02108:	ed0c                	sd	a1,24(a0)
  a0210a:	ffff                	0xffff
  a0210c:	ed0c                	sd	a1,24(a0)
  a0210e:	ffff                	0xffff
  a02110:	ed0c                	sd	a1,24(a0)
  a02112:	ffff                	0xffff
  a02114:	ed0c                	sd	a1,24(a0)
  a02116:	ffff                	0xffff
  a02118:	e8d8                	sd	a4,144(s1)
  a0211a:	ffff                	0xffff
  a0211c:	ed0c                	sd	a1,24(a0)
  a0211e:	ffff                	0xffff
  a02120:	ed0c                	sd	a1,24(a0)
  a02122:	ffff                	0xffff
  a02124:	eaf0                	sd	a2,208(a3)
  a02126:	ffff                	0xffff
  a02128:	ed0c                	sd	a1,24(a0)
  a0212a:	ffff                	0xffff
  a0212c:	ed0c                	sd	a1,24(a0)
  a0212e:	ffff                	0xffff
  a02130:	ed0c                	sd	a1,24(a0)
  a02132:	ffff                	0xffff
  a02134:	ed0c                	sd	a1,24(a0)
  a02136:	ffff                	0xffff
  a02138:	ed0c                	sd	a1,24(a0)
  a0213a:	ffff                	0xffff
  a0213c:	ed0c                	sd	a1,24(a0)
  a0213e:	ffff                	0xffff
  a02140:	ed0c                	sd	a1,24(a0)
  a02142:	ffff                	0xffff
  a02144:	ed0c                	sd	a1,24(a0)
  a02146:	ffff                	0xffff
  a02148:	ed0c                	sd	a1,24(a0)
  a0214a:	ffff                	0xffff
  a0214c:	ed0c                	sd	a1,24(a0)
  a0214e:	ffff                	0xffff
  a02150:	e64c                	sd	a1,136(a2)
  a02152:	ffff                	0xffff
  a02154:	e6c0                	sd	s0,136(a3)
  a02156:	ffff                	0xffff
  a02158:	ed0c                	sd	a1,24(a0)
  a0215a:	ffff                	0xffff
  a0215c:	ed0c                	sd	a1,24(a0)
  a0215e:	ffff                	0xffff
  a02160:	ed0c                	sd	a1,24(a0)
  a02162:	ffff                	0xffff
  a02164:	ed0c                	sd	a1,24(a0)
  a02166:	ffff                	0xffff
  a02168:	ed0c                	sd	a1,24(a0)
  a0216a:	ffff                	0xffff
  a0216c:	ed0c                	sd	a1,24(a0)
  a0216e:	ffff                	0xffff
  a02170:	ed0c                	sd	a1,24(a0)
  a02172:	ffff                	0xffff
  a02174:	ed0c                	sd	a1,24(a0)
  a02176:	ffff                	0xffff
  a02178:	ed0c                	sd	a1,24(a0)
  a0217a:	ffff                	0xffff
  a0217c:	ed0c                	sd	a1,24(a0)
  a0217e:	ffff                	0xffff
  a02180:	e7cc                	sd	a1,136(a5)
  a02182:	ffff                	0xffff
  a02184:	ed0c                	sd	a1,24(a0)
  a02186:	ffff                	0xffff
  a02188:	ed0c                	sd	a1,24(a0)
  a0218a:	ffff                	0xffff
  a0218c:	ed0c                	sd	a1,24(a0)
  a0218e:	ffff                	0xffff
  a02190:	ebfc                	sd	a5,208(a5)
  a02192:	ffff                	0xffff
  a02194:	ed0c                	sd	a1,24(a0)
  a02196:	ffff                	0xffff
  a02198:	e8d8                	sd	a4,144(s1)
  a0219a:	ffff                	0xffff
  a0219c:	ed0c                	sd	a1,24(a0)
  a0219e:	ffff                	0xffff
  a021a0:	ed0c                	sd	a1,24(a0)
  a021a2:	ffff                	0xffff
  a021a4:	e9e4                	sd	s1,208(a1)
  a021a6:	ffff                	0xffff
  a021a8:	7355                	lui	t1,0xffff5
  a021aa:	6761                	lui	a4,0x18
  a021ac:	3a65                	addiw	s4,s4,-7
  a021ae:	7220                	ld	s0,96(a2)
  a021b0:	206d                	0x206d
  a021b2:	6966                	ld	s2,88(sp)
  a021b4:	656c                	ld	a1,200(a0)
  a021b6:	2e2e2e73          	csrrs	t3,0x2e2,t3
  a021ba:	000a                	c.slli	zero,0x2
  a021bc:	0000                	unimp
  a021be:	0000                	unimp
  a021c0:	6d72                	ld	s10,280(sp)
  a021c2:	203a                	fld	ft0,392(sp)
  a021c4:	7325                	lui	t1,0xfffe9
  a021c6:	6620                	ld	s0,72(a2)
  a021c8:	6961                	lui	s2,0x18
  a021ca:	656c                	ld	a1,200(a0)
  a021cc:	2064                	fld	fs1,192(s0)
  a021ce:	6f74                	ld	a3,216(a4)
  a021d0:	6420                	ld	s0,72(s0)
  a021d2:	6c65                	lui	s8,0x19
  a021d4:	7465                	lui	s0,0xffff9
  a021d6:	0a65                	addi	s4,s4,25
	...
  a021e0:	6e28                	ld	a0,88(a2)
  a021e2:	6c75                	lui	s8,0x1d
  a021e4:	296c                	fld	fa1,208(a0)
  a021e6:	0000                	unimp
  a021e8:	7375                	lui	t1,0xffffd
  a021ea:	7265                	lui	tp,0xffff9
  a021ec:	7020                	ld	s0,96(s0)
  a021ee:	6e61                	lui	t3,0x18
  a021f0:	6369                	lui	t1,0x1a
  a021f2:	6120                	ld	s0,64(a0)
  a021f4:	2074                	fld	fa3,192(s0)
  a021f6:	7325                	lui	t1,0xfffe9
  a021f8:	203a                	fld	ft0,392(sp)
  a021fa:	6425                	lui	s0,0x9
  a021fc:	203a                	fld	ft0,392(sp)
  a021fe:	0000                	unimp
  a02200:	7361                	lui	t1,0xffff8
  a02202:	74726573          	csrrsi	a0,0x747,4
  a02206:	6620                	ld	s0,72(a2)
  a02208:	6961                	lui	s2,0x18
  a0220a:	656c                	ld	a1,200(a0)
  a0220c:	0a64                	addi	s1,sp,284
	...

Disassembly of section .sdata:

0000000000a02210 <backspace.0>:
  a02210:	2008                	fld	fa0,0(s0)
  a02212:	0008                	0x8

Disassembly of section .bss:

0000000000a03000 <base>:
	...

Disassembly of section .sbss:

0000000001000000 <freep>:
	...

Disassembly of section .buffer:

0000000001001000 <printfBuffer>:
	...

0000000001001200 <bufferLen>:
	...

Disassembly of section .riscv.attributes:

0000000000000000 <.riscv.attributes>:
   0:	2f41                	addiw	t5,t5,16
   2:	0000                	unimp
   4:	7200                	ld	s0,32(a2)
   6:	7369                	lui	t1,0xffffa
   8:	01007663          	bgeu	zero,a6,14 <_text-0x9fffec>
   c:	0025                	c.nop	9
   e:	0000                	unimp
  10:	1004                	addi	s1,sp,32
  12:	7205                	lui	tp,0xfffe1
  14:	3676                	fld	fa2,376(sp)
  16:	6934                	ld	a3,80(a0)
  18:	7032                	0x7032
  1a:	5f30                	lw	a2,120(a4)
  1c:	326d                	addiw	tp,tp,-5
  1e:	3070                	fld	fa2,224(s0)
  20:	615f 7032 5f30      	0x5f307032615f
  26:	3266                	fld	ft4,120(sp)
  28:	3070                	fld	fa2,224(s0)
  2a:	645f 7032 0030      	0x307032645f

Disassembly of section .comment:

0000000000000000 <.comment>:
   0:	3a434347          	fmsub.d	ft6,ft6,ft4,ft7,rmm
   4:	2820                	fld	fs0,80(s0)
   6:	29554e47          	fmsub.s	ft8,fa0,fs5,ft5,rmm
   a:	3120                	fld	fs0,96(a0)
   c:	2e31                	addiw	t3,t3,12
   e:	2e31                	addiw	t3,t3,12
  10:	0030                	addi	a2,sp,8

Disassembly of section .debug_line:

0000000000000000 <.debug_line>:
       0:	006e                	c.slli	zero,0x1b
       2:	0000                	unimp
       4:	0005                	c.nop	1
       6:	0008                	0x8
       8:	002a                	c.slli	zero,0xa
       a:	0000                	unimp
       c:	0101                	addi	sp,sp,0
       e:	fb01                	bnez	a4,ffffffffffffff1e <end+0xfffffffffeffdf1e>
      10:	0d0e                	slli	s10,s10,0x3
      12:	0100                	addi	s0,sp,128
      14:	0101                	addi	sp,sp,0
      16:	0001                	nop
      18:	0000                	unimp
      1a:	0001                	nop
      1c:	0100                	addi	s0,sp,128
      1e:	0101                	addi	sp,sp,0
      20:	011f 0000 0000      	0x11f
      26:	0102                	c.slli64	sp
      28:	021f 020f 0027      	0x27020f021f
      2e:	0000                	unimp
      30:	2700                	fld	fs0,8(a4)
      32:	0000                	unimp
      34:	0000                	unimp
      36:	0900                	addi	s0,sp,144
      38:	0002                	c.slli64	zero
      3a:	a000                	fsd	fs0,0(s0)
      3c:	0000                	unimp
      3e:	0000                	unimp
      40:	1500                	addi	s0,sp,672
      42:	04090103          	lb	sp,64(s2) # 18040 <_text-0x9e7fc0>
      46:	0100                	addi	s0,sp,128
      48:	04090103          	lb	sp,64(s2)
      4c:	0100                	addi	s0,sp,128
      4e:	04090103          	lb	sp,64(s2)
      52:	0100                	addi	s0,sp,128
      54:	04090103          	lb	sp,64(s2)
      58:	0100                	addi	s0,sp,128
      5a:	04090103          	lb	sp,64(s2)
      5e:	0100                	addi	s0,sp,128
      60:	04090103          	lb	sp,64(s2)
      64:	0100                	addi	s0,sp,128
      66:	04090203          	lb	tp,64(s2)
      6a:	0100                	addi	s0,sp,128
      6c:	0409                	addi	s0,s0,2
      6e:	0000                	unimp
      70:	0101                	addi	sp,sp,0
      72:	0231                	addi	tp,tp,12
      74:	0000                	unimp
      76:	0005                	c.nop	1
      78:	0008                	0x8
      7a:	004a                	c.slli	zero,0x12
      7c:	0000                	unimp
      7e:	0101                	addi	sp,sp,0
      80:	fb01                	bnez	a4,ffffffffffffff90 <end+0xfffffffffeffdf90>
      82:	0d0e                	slli	s10,s10,0x3
      84:	0100                	addi	s0,sp,128
      86:	0101                	addi	sp,sp,0
      88:	0001                	nop
      8a:	0000                	unimp
      8c:	0001                	nop
      8e:	0100                	addi	s0,sp,128
      90:	0101                	addi	sp,sp,0
      92:	041f 0000 0000      	0x41f
      98:	004e                	c.slli	zero,0x13
      9a:	0000                	unimp
      9c:	0034                	addi	a3,sp,8
      9e:	0000                	unimp
      a0:	0040                	addi	s0,sp,4
      a2:	0000                	unimp
      a4:	0102                	c.slli64	sp
      a6:	021f 060f 002f      	0x2f060f021f
      ac:	0000                	unimp
      ae:	2f00                	fld	fs0,24(a4)
      b0:	0000                	unimp
      b2:	0000                	unimp
      b4:	0058                	addi	a4,sp,4
      b6:	0000                	unimp
      b8:	6501                	0x6501
      ba:	0000                	unimp
      bc:	0200                	addi	s0,sp,256
      be:	0000006f          	j	be <_text-0x9fff42>
      c2:	7801                	lui	a6,0xfffe0
      c4:	0000                	unimp
      c6:	0300                	addi	s0,sp,384
      c8:	2505                	addiw	a0,a0,1
      ca:	0900                	addi	s0,sp,144
      cc:	2002                	fld	ft0,0(sp)
      ce:	a000                	fsd	fs0,0(s0)
      d0:	0000                	unimp
      d2:	0000                	unimp
      d4:	1700                	addi	s0,sp,928
      d6:	0505                	addi	a0,a0,1
      d8:	00090103          	lb	sp,0(s2)
      dc:	0100                	addi	s0,sp,128
      de:	00090203          	lb	tp,0(s2)
      e2:	0100                	addi	s0,sp,128
      e4:	0805                	addi	a6,a6,1
      e6:	0306                	slli	t1,t1,0x1
      e8:	0900                	addi	s0,sp,144
      ea:	0000                	unimp
      ec:	0501                	addi	a0,a0,0
      ee:	0609                	addi	a2,a2,2
      f0:	20090603          	lb	a2,512(s2)
      f4:	0100                	addi	s0,sp,128
      f6:	0204                	addi	s1,sp,256
      f8:	0505                	addi	a0,a0,1
      fa:	0900d703          	lhu	a4,144(ra)
      fe:	0000                	unimp
     100:	0401                	addi	s0,s0,0
     102:	03020503          	lb	a0,48(tp) # fffffffffffe1030 <end+0xfffffffffefdf030>
     106:	7fa2                	ld	t6,40(sp)
     108:	0009                	c.nop	2
     10a:	0100                	addi	s0,sp,128
     10c:	0f05                	addi	t5,t5,1
     10e:	0306                	slli	t1,t1,0x1
     110:	0900                	addi	s0,sp,144
     112:	0000                	unimp
     114:	0501                	addi	a0,a0,0
     116:	0602                	c.slli64	a2
     118:	04090103          	lb	sp,64(s2)
     11c:	0100                	addi	s0,sp,128
     11e:	0f05                	addi	t5,t5,1
     120:	0306                	slli	t1,t1,0x1
     122:	0900                	addi	s0,sp,144
     124:	0000                	unimp
     126:	0501                	addi	a0,a0,0
     128:	0602                	c.slli64	a2
     12a:	04090103          	lb	sp,64(s2)
     12e:	0100                	addi	s0,sp,128
     130:	0f05                	addi	t5,t5,1
     132:	0306                	slli	t1,t1,0x1
     134:	0900                	addi	s0,sp,144
     136:	0000                	unimp
     138:	0501                	addi	a0,a0,0
     13a:	0602                	c.slli64	a2
     13c:	04090103          	lb	sp,64(s2)
     140:	0100                	addi	s0,sp,128
     142:	0f05                	addi	t5,t5,1
     144:	0306                	slli	t1,t1,0x1
     146:	0900                	addi	s0,sp,144
     148:	0000                	unimp
     14a:	0501                	addi	a0,a0,0
     14c:	0602                	c.slli64	a2
     14e:	04090103          	lb	sp,64(s2)
     152:	0100                	addi	s0,sp,128
     154:	0f05                	addi	t5,t5,1
     156:	0306                	slli	t1,t1,0x1
     158:	0900                	addi	s0,sp,144
     15a:	0000                	unimp
     15c:	0501                	addi	a0,a0,0
     15e:	0602                	c.slli64	a2
     160:	04090103          	lb	sp,64(s2)
     164:	0100                	addi	s0,sp,128
     166:	0f05                	addi	t5,t5,1
     168:	0306                	slli	t1,t1,0x1
     16a:	0900                	addi	s0,sp,144
     16c:	0000                	unimp
     16e:	0501                	addi	a0,a0,0
     170:	0602                	c.slli64	a2
     172:	04090103          	lb	sp,64(s2)
     176:	0100                	addi	s0,sp,128
     178:	1005                	c.nop	-31
     17a:	0306                	slli	t1,t1,0x1
     17c:	0900                	addi	s0,sp,144
     17e:	0000                	unimp
     180:	0501                	addi	a0,a0,0
     182:	0602                	c.slli64	a2
     184:	04090103          	lb	sp,64(s2)
     188:	0100                	addi	s0,sp,128
     18a:	04090203          	lb	tp,64(s2)
     18e:	0100                	addi	s0,sp,128
     190:	0104                	addi	s1,sp,128
     192:	0c05                	addi	s8,s8,1
     194:	0306                	slli	t1,t1,0x1
     196:	097e                	slli	s2,s2,0x1f
     198:	0000                	unimp
     19a:	0501                	addi	a0,a0,0
     19c:	001c                	0x1c
     19e:	0402                	c.slli64	s0
     1a0:	0602                	c.slli64	a2
     1a2:	08097f03          	0x8097f03
     1a6:	0100                	addi	s0,sp,128
     1a8:	1305                	addi	t1,t1,-31
     1aa:	0200                	addi	s0,sp,256
     1ac:	0204                	addi	s1,sp,256
     1ae:	00090003          	lb	zero,0(s2)
     1b2:	0100                	addi	s0,sp,128
     1b4:	0c05                	addi	s8,s8,1
     1b6:	0306                	slli	t1,t1,0x1
     1b8:	00080907          	0x80907
     1bc:	0501                	addi	a0,a0,0
     1be:	0301                	addi	t1,t1,0
     1c0:	0901                	addi	s2,s2,0
     1c2:	0004                	0x4
     1c4:	0501                	addi	a0,a0,0
     1c6:	0609                	addi	a2,a2,2
     1c8:	04097403          	0x4097403
     1cc:	0100                	addi	s0,sp,128
     1ce:	0204                	addi	s1,sp,256
     1d0:	0505                	addi	a0,a0,1
     1d2:	00092c03          	lw	s8,0(s2)
     1d6:	0100                	addi	s0,sp,128
     1d8:	0304                	addi	s1,sp,384
     1da:	0205                	addi	tp,tp,1
     1dc:	00095203          	lhu	tp,0(s2)
     1e0:	0100                	addi	s0,sp,128
     1e2:	0f05                	addi	t5,t5,1
     1e4:	0306                	slli	t1,t1,0x1
     1e6:	0900                	addi	s0,sp,144
     1e8:	0000                	unimp
     1ea:	0501                	addi	a0,a0,0
     1ec:	0602                	c.slli64	a2
     1ee:	04090103          	lb	sp,64(s2)
     1f2:	0100                	addi	s0,sp,128
     1f4:	0f05                	addi	t5,t5,1
     1f6:	0306                	slli	t1,t1,0x1
     1f8:	0900                	addi	s0,sp,144
     1fa:	0000                	unimp
     1fc:	0501                	addi	a0,a0,0
     1fe:	0602                	c.slli64	a2
     200:	08090103          	lb	sp,128(s2)
     204:	0100                	addi	s0,sp,128
     206:	0f05                	addi	t5,t5,1
     208:	0306                	slli	t1,t1,0x1
     20a:	0900                	addi	s0,sp,144
     20c:	0000                	unimp
     20e:	0501                	addi	a0,a0,0
     210:	0602                	c.slli64	a2
     212:	04090103          	lb	sp,64(s2)
     216:	0100                	addi	s0,sp,128
     218:	0f05                	addi	t5,t5,1
     21a:	0306                	slli	t1,t1,0x1
     21c:	0900                	addi	s0,sp,144
     21e:	0000                	unimp
     220:	0501                	addi	a0,a0,0
     222:	0602                	c.slli64	a2
     224:	04090103          	lb	sp,64(s2)
     228:	0100                	addi	s0,sp,128
     22a:	0f05                	addi	t5,t5,1
     22c:	0306                	slli	t1,t1,0x1
     22e:	0900                	addi	s0,sp,144
     230:	0000                	unimp
     232:	0501                	addi	a0,a0,0
     234:	0602                	c.slli64	a2
     236:	04090103          	lb	sp,64(s2)
     23a:	0100                	addi	s0,sp,128
     23c:	0f05                	addi	t5,t5,1
     23e:	0306                	slli	t1,t1,0x1
     240:	0900                	addi	s0,sp,144
     242:	0000                	unimp
     244:	0501                	addi	a0,a0,0
     246:	0602                	c.slli64	a2
     248:	04090103          	lb	sp,64(s2)
     24c:	0100                	addi	s0,sp,128
     24e:	1005                	c.nop	-31
     250:	0306                	slli	t1,t1,0x1
     252:	0900                	addi	s0,sp,144
     254:	0000                	unimp
     256:	0501                	addi	a0,a0,0
     258:	0602                	c.slli64	a2
     25a:	04090103          	lb	sp,64(s2)
     25e:	0100                	addi	s0,sp,128
     260:	04090203          	lb	tp,64(s2)
     264:	0100                	addi	s0,sp,128
     266:	0104                	addi	s1,sp,128
     268:	0905                	addi	s2,s2,1
     26a:	00097a03          	0x97a03
     26e:	0100                	addi	s0,sp,128
     270:	1005                	c.nop	-31
     272:	0306                	slli	t1,t1,0x1
     274:	0900                	addi	s0,sp,144
     276:	0000                	unimp
     278:	0501                	addi	a0,a0,0
     27a:	0325                	addi	t1,t1,9
     27c:	0008097b          	0x8097b
     280:	0501                	addi	a0,a0,0
     282:	060d                	addi	a2,a2,3
     284:	10090a03          	lb	s4,256(s2)
     288:	0100                	addi	s0,sp,128
     28a:	10090103          	lb	sp,256(s2)
     28e:	0100                	addi	s0,sp,128
     290:	0c05                	addi	s8,s8,1
     292:	0306                	slli	t1,t1,0x1
     294:	0904                	addi	s1,sp,144
     296:	0000                	unimp
     298:	0501                	addi	a0,a0,0
     29a:	0301                	addi	t1,t1,0
     29c:	0901                	addi	s2,s2,0
     29e:	0004                	0x4
     2a0:	0901                	addi	s2,s2,0
     2a2:	0010                	0x10
     2a4:	0100                	addi	s0,sp,128
     2a6:	1a01                	addi	s4,s4,-32
     2a8:	0001                	nop
     2aa:	0500                	addi	s0,sp,640
     2ac:	0800                	addi	s0,sp,16
     2ae:	4f00                	lw	s0,24(a4)
     2b0:	0000                	unimp
     2b2:	0100                	addi	s0,sp,128
     2b4:	0101                	addi	sp,sp,0
     2b6:	000d0efb          	0xd0efb
     2ba:	0101                	addi	sp,sp,0
     2bc:	0101                	addi	sp,sp,0
     2be:	0000                	unimp
     2c0:	0100                	addi	s0,sp,128
     2c2:	0000                	unimp
     2c4:	0101                	addi	sp,sp,0
     2c6:	1f01                	addi	t5,t5,-32
     2c8:	0004                	0x4
     2ca:	0000                	unimp
     2cc:	4e00                	lw	s0,24(a2)
     2ce:	0000                	unimp
     2d0:	3400                	fld	fs0,40(s0)
     2d2:	0000                	unimp
     2d4:	4000                	lw	s0,0(s0)
     2d6:	0000                	unimp
     2d8:	0200                	addi	s0,sp,256
     2da:	1f01                	addi	t5,t5,-32
     2dc:	0f02                	c.slli64	t5
     2de:	00007f07          	0x7f07
     2e2:	0000                	unimp
     2e4:	007f                	0x7f
     2e6:	0000                	unimp
     2e8:	5800                	lw	s0,48(s0)
     2ea:	0000                	unimp
     2ec:	0100                	addi	s0,sp,128
     2ee:	0065                	c.nop	25
     2f0:	0000                	unimp
     2f2:	7802                	ld	a6,32(sp)
     2f4:	0000                	unimp
     2f6:	0300                	addi	s0,sp,384
     2f8:	0000006f          	j	2f8 <_text-0x9ffd08>
     2fc:	8901                	andi	a0,a0,0
     2fe:	0000                	unimp
     300:	0100                	addi	s0,sp,128
     302:	3205                	addiw	tp,tp,-31
     304:	0900                	addi	s0,sp,144
     306:	d802                	sw	zero,48(sp)
     308:	a000                	fsd	fs0,0(s0)
     30a:	0000                	unimp
     30c:	0000                	unimp
     30e:	1700                	addi	s0,sp,928
     310:	0505                	addi	a0,a0,1
     312:	10090103          	lb	sp,256(s2)
     316:	0100                	addi	s0,sp,128
     318:	0f05                	addi	t5,t5,1
     31a:	0306                	slli	t1,t1,0x1
     31c:	0900                	addi	s0,sp,144
     31e:	0000                	unimp
     320:	0501                	addi	a0,a0,0
     322:	0605                	addi	a2,a2,1
     324:	08090103          	lb	sp,128(s2)
     328:	0100                	addi	s0,sp,128
     32a:	0204                	addi	s1,sp,256
     32c:	00093603          	ld	a2,0(s2)
     330:	0100                	addi	s0,sp,128
     332:	0304                	addi	s1,sp,384
     334:	0205                	addi	tp,tp,1
     336:	00094a03          	lbu	s4,0(s2)
     33a:	0100                	addi	s0,sp,128
     33c:	00090103          	lb	sp,0(s2)
     340:	0100                	addi	s0,sp,128
     342:	0f05                	addi	t5,t5,1
     344:	0306                	slli	t1,t1,0x1
     346:	0900                	addi	s0,sp,144
     348:	0000                	unimp
     34a:	0501                	addi	a0,a0,0
     34c:	0602                	c.slli64	a2
     34e:	04090103          	lb	sp,64(s2)
     352:	0100                	addi	s0,sp,128
     354:	0f05                	addi	t5,t5,1
     356:	0306                	slli	t1,t1,0x1
     358:	0900                	addi	s0,sp,144
     35a:	0000                	unimp
     35c:	0501                	addi	a0,a0,0
     35e:	0602                	c.slli64	a2
     360:	04090103          	lb	sp,64(s2)
     364:	0100                	addi	s0,sp,128
     366:	0f05                	addi	t5,t5,1
     368:	0306                	slli	t1,t1,0x1
     36a:	0900                	addi	s0,sp,144
     36c:	0000                	unimp
     36e:	0501                	addi	a0,a0,0
     370:	0602                	c.slli64	a2
     372:	04090103          	lb	sp,64(s2)
     376:	0100                	addi	s0,sp,128
     378:	0f05                	addi	t5,t5,1
     37a:	0306                	slli	t1,t1,0x1
     37c:	0900                	addi	s0,sp,144
     37e:	0000                	unimp
     380:	0501                	addi	a0,a0,0
     382:	0602                	c.slli64	a2
     384:	04090103          	lb	sp,64(s2)
     388:	0100                	addi	s0,sp,128
     38a:	0f05                	addi	t5,t5,1
     38c:	0306                	slli	t1,t1,0x1
     38e:	0900                	addi	s0,sp,144
     390:	0000                	unimp
     392:	0501                	addi	a0,a0,0
     394:	0602                	c.slli64	a2
     396:	04090103          	lb	sp,64(s2)
     39a:	0100                	addi	s0,sp,128
     39c:	1005                	c.nop	-31
     39e:	0306                	slli	t1,t1,0x1
     3a0:	0900                	addi	s0,sp,144
     3a2:	0000                	unimp
     3a4:	0501                	addi	a0,a0,0
     3a6:	0602                	c.slli64	a2
     3a8:	04090103          	lb	sp,64(s2)
     3ac:	0100                	addi	s0,sp,128
     3ae:	04090203          	lb	tp,64(s2)
     3b2:	0100                	addi	s0,sp,128
     3b4:	0104                	addi	s1,sp,128
     3b6:	0105                	addi	sp,sp,1
     3b8:	0306                	slli	t1,t1,0x1
     3ba:	0978                	addi	a4,sp,156
     3bc:	0000                	unimp
     3be:	0901                	addi	s2,s2,0
     3c0:	0010                	0x10
     3c2:	0100                	addi	s0,sp,128
     3c4:	7b01                	lui	s6,0xfffe0
     3c6:	0021                	c.nop	8
     3c8:	0500                	addi	s0,sp,640
     3ca:	0800                	addi	s0,sp,16
     3cc:	4a00                	lw	s0,16(a2)
     3ce:	0000                	unimp
     3d0:	0100                	addi	s0,sp,128
     3d2:	0101                	addi	sp,sp,0
     3d4:	000d0efb          	0xd0efb
     3d8:	0101                	addi	sp,sp,0
     3da:	0101                	addi	sp,sp,0
     3dc:	0000                	unimp
     3de:	0100                	addi	s0,sp,128
     3e0:	0000                	unimp
     3e2:	0101                	addi	sp,sp,0
     3e4:	1f01                	addi	t5,t5,-32
     3e6:	0004                	0x4
     3e8:	0000                	unimp
     3ea:	4e00                	lw	s0,24(a2)
     3ec:	0000                	unimp
     3ee:	3400                	fld	fs0,40(s0)
     3f0:	0000                	unimp
     3f2:	4000                	lw	s0,0(s0)
     3f4:	0000                	unimp
     3f6:	0200                	addi	s0,sp,256
     3f8:	1f01                	addi	t5,t5,-32
     3fa:	0f02                	c.slli64	t5
     3fc:	9306                	add	t1,t1,ra
     3fe:	0000                	unimp
     400:	0000                	unimp
     402:	00000093          	li	ra,0
     406:	6f00                	ld	s0,24(a4)
     408:	0000                	unimp
     40a:	0100                	addi	s0,sp,128
     40c:	0058                	addi	a4,sp,4
     40e:	0000                	unimp
     410:	6501                	0x6501
     412:	0000                	unimp
     414:	0200                	addi	s0,sp,256
     416:	0078                	addi	a4,sp,12
     418:	0000                	unimp
     41a:	003c0503          	lb	a0,3(s8) # 1d003 <_text-0x9e2ffd>
     41e:	0209                	addi	tp,tp,2
     420:	011c                	addi	a5,sp,128
     422:	00a0                	addi	s0,sp,72
     424:	0000                	unimp
     426:	0000                	unimp
     428:	0101b603          	ld	a2,16(gp)
     42c:	0505                	addi	a0,a0,1
     42e:	0c090103          	lb	sp,192(s2)
     432:	0100                	addi	s0,sp,128
     434:	00090203          	lb	tp,0(s2)
     438:	0100                	addi	s0,sp,128
     43a:	0c090203          	lb	tp,192(s2)
     43e:	0100                	addi	s0,sp,128
     440:	0805                	addi	a6,a6,1
     442:	0306                	slli	t1,t1,0x1
     444:	0900                	addi	s0,sp,144
     446:	0000                	unimp
     448:	0501                	addi	a0,a0,0
     44a:	08030617          	auipc	a2,0x8030
     44e:	0409                	addi	s0,s0,2
     450:	0100                	addi	s0,sp,128
     452:	1405                	addi	s0,s0,-31
     454:	0306                	slli	t1,t1,0x1
     456:	0901                	addi	s2,s2,0
     458:	0020                	addi	s0,sp,8
     45a:	0501                	addi	a0,a0,0
     45c:	000d                	c.nop	3
     45e:	0402                	c.slli64	s0
     460:	00030603          	lb	a2,0(t1) # ffffffffffffa000 <end+0xfffffffffeff8000>
     464:	0409                	addi	s0,s0,2
     466:	0100                	addi	s0,sp,128
     468:	1405                	addi	s0,s0,-31
     46a:	0200                	addi	s0,sp,256
     46c:	0304                	addi	s1,sp,384
     46e:	0306                	slli	t1,t1,0x1
     470:	0900                	addi	s0,sp,144
     472:	0000                	unimp
     474:	0501                	addi	a0,a0,0
     476:	0026                	c.slli	zero,0x9
     478:	0402                	c.slli64	s0
     47a:	7f030603          	lb	a2,2032(t1)
     47e:	0409                	addi	s0,s0,2
     480:	0100                	addi	s0,sp,128
     482:	1705                	addi	a4,a4,-31
     484:	0200                	addi	s0,sp,256
     486:	0304                	addi	s1,sp,384
     488:	00090003          	lb	zero,0(s2)
     48c:	0100                	addi	s0,sp,128
     48e:	0905                	addi	s2,s2,1
     490:	08090203          	lb	tp,128(s2)
     494:	0100                	addi	s0,sp,128
     496:	1905                	addi	s2,s2,-31
     498:	0306                	slli	t1,t1,0x1
     49a:	0900                	addi	s0,sp,144
     49c:	0000                	unimp
     49e:	0501                	addi	a0,a0,0
     4a0:	0605                	addi	a2,a2,1
     4a2:	08090203          	lb	tp,128(s2)
     4a6:	0100                	addi	s0,sp,128
     4a8:	1105                	addi	sp,sp,-31
     4aa:	0306                	slli	t1,t1,0x1
     4ac:	0900                	addi	s0,sp,144
     4ae:	0000                	unimp
     4b0:	0501                	addi	a0,a0,0
     4b2:	0301                	addi	t1,t1,0
     4b4:	0901                	addi	s2,s2,0
     4b6:	0008                	0x8
     4b8:	0501                	addi	a0,a0,0
     4ba:	0609                	addi	a2,a2,2
     4bc:	14097503          	0x14097503
     4c0:	0100                	addi	s0,sp,128
     4c2:	0e05                	addi	t3,t3,1
     4c4:	0306                	slli	t1,t1,0x1
     4c6:	0900                	addi	s0,sp,144
     4c8:	0000                	unimp
     4ca:	0501                	addi	a0,a0,0
     4cc:	0609                	addi	a2,a2,2
     4ce:	04090103          	lb	sp,64(s2)
     4d2:	0100                	addi	s0,sp,128
     4d4:	1705                	addi	a4,a4,-31
     4d6:	00090003          	lb	zero,0(s2)
     4da:	0100                	addi	s0,sp,128
     4dc:	1405                	addi	s0,s0,-31
     4de:	0306                	slli	t1,t1,0x1
     4e0:	0901                	addi	s2,s2,0
     4e2:	0008                	0x8
     4e4:	0501                	addi	a0,a0,0
     4e6:	000d                	c.nop	3
     4e8:	0402                	c.slli64	s0
     4ea:	00030603          	lb	a2,0(t1)
     4ee:	0409                	addi	s0,s0,2
     4f0:	0100                	addi	s0,sp,128
     4f2:	1405                	addi	s0,s0,-31
     4f4:	0200                	addi	s0,sp,256
     4f6:	0304                	addi	s1,sp,384
     4f8:	0306                	slli	t1,t1,0x1
     4fa:	0900                	addi	s0,sp,144
     4fc:	0000                	unimp
     4fe:	0501                	addi	a0,a0,0
     500:	0022                	c.slli	zero,0x8
     502:	0402                	c.slli64	s0
     504:	7f030603          	lb	a2,2032(t1)
     508:	0809                	addi	a6,a6,2
     50a:	0100                	addi	s0,sp,128
     50c:	1705                	addi	a4,a4,-31
     50e:	0200                	addi	s0,sp,256
     510:	0304                	addi	s1,sp,384
     512:	00090003          	lb	zero,0(s2)
     516:	0100                	addi	s0,sp,128
     518:	4005                	c.li	zero,1
     51a:	10090c03          	lb	s8,256(s2)
     51e:	0100                	addi	s0,sp,128
     520:	0505                	addi	a0,a0,1
     522:	0c090103          	lb	sp,192(s2)
     526:	0100                	addi	s0,sp,128
     528:	00090103          	lb	sp,0(s2)
     52c:	0100                	addi	s0,sp,128
     52e:	00090103          	lb	sp,0(s2)
     532:	0100                	addi	s0,sp,128
     534:	00090103          	lb	sp,0(s2)
     538:	0100                	addi	s0,sp,128
     53a:	0c05                	addi	s8,s8,1
     53c:	00090003          	lb	zero,0(s2)
     540:	0100                	addi	s0,sp,128
     542:	0905                	addi	s2,s2,1
     544:	0306                	slli	t1,t1,0x1
     546:	097e                	slli	s2,s2,0x1f
     548:	000c                	0xc
     54a:	0601                	addi	a2,a2,0
     54c:	04090303          	lb	t1,64(s2)
     550:	0100                	addi	s0,sp,128
     552:	0c05                	addi	s8,s8,1
     554:	0306                	slli	t1,t1,0x1
     556:	0900                	addi	s0,sp,144
     558:	0004                	0x4
     55a:	0601                	addi	a2,a2,0
     55c:	04097f03          	0x4097f03
     560:	0100                	addi	s0,sp,128
     562:	0505                	addi	a0,a0,1
     564:	0c090203          	lb	tp,192(s2)
     568:	0100                	addi	s0,sp,128
     56a:	10090303          	lb	t1,256(s2)
     56e:	0100                	addi	s0,sp,128
     570:	0805                	addi	a6,a6,1
     572:	0306                	slli	t1,t1,0x1
     574:	0900                	addi	s0,sp,144
     576:	0000                	unimp
     578:	0501                	addi	a0,a0,0
     57a:	09030617          	auipc	a2,0x9030
     57e:	0409                	addi	s0,s0,2
     580:	0100                	addi	s0,sp,128
     582:	2005                	0x2005
     584:	0306                	slli	t1,t1,0x1
     586:	0900                	addi	s0,sp,144
     588:	0000                	unimp
     58a:	0501                	addi	a0,a0,0
     58c:	09000317          	auipc	t1,0x9000
     590:	0004                	0x4
     592:	0501                	addi	a0,a0,0
     594:	0314                	addi	a3,sp,384
     596:	0901                	addi	s2,s2,0
     598:	001c                	0x1c
     59a:	0501                	addi	a0,a0,0
     59c:	000d                	c.nop	3
     59e:	0402                	c.slli64	s0
     5a0:	00030603          	lb	a2,0(t1) # 900058c <end+0x7ffe58c>
     5a4:	0409                	addi	s0,s0,2
     5a6:	0100                	addi	s0,sp,128
     5a8:	1405                	addi	s0,s0,-31
     5aa:	0200                	addi	s0,sp,256
     5ac:	0304                	addi	s1,sp,384
     5ae:	0306                	slli	t1,t1,0x1
     5b0:	0900                	addi	s0,sp,144
     5b2:	0000                	unimp
     5b4:	0501                	addi	a0,a0,0
     5b6:	0028                	addi	a0,sp,8
     5b8:	0402                	c.slli64	s0
     5ba:	7f030603          	lb	a2,2032(t1)
     5be:	0409                	addi	s0,s0,2
     5c0:	0100                	addi	s0,sp,128
     5c2:	1705                	addi	a4,a4,-31
     5c4:	0200                	addi	s0,sp,256
     5c6:	0304                	addi	s1,sp,384
     5c8:	00090003          	lb	zero,0(s2)
     5cc:	0100                	addi	s0,sp,128
     5ce:	2205                	addiw	tp,tp,1
     5d0:	08090203          	lb	tp,128(s2)
     5d4:	0100                	addi	s0,sp,128
     5d6:	1705                	addi	a4,a4,-31
     5d8:	0306                	slli	t1,t1,0x1
     5da:	0901                	addi	s2,s2,0
     5dc:	0004                	0x4
     5de:	0501                	addi	a0,a0,0
     5e0:	000d                	c.nop	3
     5e2:	0402                	c.slli64	s0
     5e4:	00030603          	lb	a2,0(t1)
     5e8:	0409                	addi	s0,s0,2
     5ea:	0100                	addi	s0,sp,128
     5ec:	1705                	addi	a4,a4,-31
     5ee:	0200                	addi	s0,sp,256
     5f0:	0304                	addi	s1,sp,384
     5f2:	0306                	slli	t1,t1,0x1
     5f4:	0900                	addi	s0,sp,144
     5f6:	0000                	unimp
     5f8:	0501                	addi	a0,a0,0
     5fa:	0014                	0x14
     5fc:	0402                	c.slli64	s0
     5fe:	09000303          	lb	t1,144(zero) # 90 <_text-0x9fff70>
     602:	000c                	0xc
     604:	0501                	addi	a0,a0,0
     606:	002d                	c.nop	11
     608:	0402                	c.slli64	s0
     60a:	7f030603          	lb	a2,2032(t1)
     60e:	0809                	addi	a6,a6,2
     610:	0100                	addi	s0,sp,128
     612:	2205                	addiw	tp,tp,1
     614:	0200                	addi	s0,sp,256
     616:	0304                	addi	s1,sp,384
     618:	00090003          	lb	zero,0(s2)
     61c:	0100                	addi	s0,sp,128
     61e:	1705                	addi	a4,a4,-31
     620:	10097703          	0x10097703
     624:	0100                	addi	s0,sp,128
     626:	0d05                	addi	s10,s10,1
     628:	0200                	addi	s0,sp,256
     62a:	0304                	addi	s1,sp,384
     62c:	0c090103          	lb	sp,192(s2)
     630:	0100                	addi	s0,sp,128
     632:	1705                	addi	a4,a4,-31
     634:	0200                	addi	s0,sp,256
     636:	0304                	addi	s1,sp,384
     638:	0306                	slli	t1,t1,0x1
     63a:	0900                	addi	s0,sp,144
     63c:	0000                	unimp
     63e:	0501                	addi	a0,a0,0
     640:	0014                	0x14
     642:	0402                	c.slli64	s0
     644:	09000303          	lb	t1,144(zero) # 90 <_text-0x9fff70>
     648:	0004                	0x4
     64a:	0501                	addi	a0,a0,0
     64c:	001f 0402 0603      	0x6030402001f
     652:	04097f03          	0x4097f03
     656:	0100                	addi	s0,sp,128
     658:	1705                	addi	a4,a4,-31
     65a:	0200                	addi	s0,sp,256
     65c:	0304                	addi	s1,sp,384
     65e:	00090003          	lb	zero,0(s2)
     662:	0100                	addi	s0,sp,128
     664:	1905                	addi	s2,s2,-31
     666:	14090203          	lb	tp,320(s2)
     66a:	0100                	addi	s0,sp,128
     66c:	1405                	addi	s0,s0,-31
     66e:	0306                	slli	t1,t1,0x1
     670:	0901                	addi	s2,s2,0
     672:	0024                	addi	s1,sp,8
     674:	0501                	addi	a0,a0,0
     676:	000d                	c.nop	3
     678:	0402                	c.slli64	s0
     67a:	00030603          	lb	a2,0(t1)
     67e:	0409                	addi	s0,s0,2
     680:	0100                	addi	s0,sp,128
     682:	1405                	addi	s0,s0,-31
     684:	0200                	addi	s0,sp,256
     686:	0304                	addi	s1,sp,384
     688:	0306                	slli	t1,t1,0x1
     68a:	0900                	addi	s0,sp,144
     68c:	0000                	unimp
     68e:	0501                	addi	a0,a0,0
     690:	0024                	addi	s1,sp,8
     692:	0402                	c.slli64	s0
     694:	7f030603          	lb	a2,2032(t1)
     698:	0409                	addi	s0,s0,2
     69a:	0100                	addi	s0,sp,128
     69c:	1905                	addi	s2,s2,-31
     69e:	0200                	addi	s0,sp,256
     6a0:	0304                	addi	s1,sp,384
     6a2:	00090003          	lb	zero,0(s2)
     6a6:	0100                	addi	s0,sp,128
     6a8:	0505                	addi	a0,a0,1
     6aa:	08090a03          	lb	s4,128(s2)
     6ae:	0100                	addi	s0,sp,128
     6b0:	1105                	addi	sp,sp,-31
     6b2:	0306                	slli	t1,t1,0x1
     6b4:	0900                	addi	s0,sp,144
     6b6:	0000                	unimp
     6b8:	0501                	addi	a0,a0,0
     6ba:	0301                	addi	t1,t1,0
     6bc:	0901                	addi	s2,s2,0
     6be:	0008                	0x8
     6c0:	0501                	addi	a0,a0,0
     6c2:	0309                	addi	t1,t1,2
     6c4:	096a                	slli	s2,s2,0x1a
     6c6:	000c                	0xc
     6c8:	0501                	addi	a0,a0,0
     6ca:	0605                	addi	a2,a2,1
     6cc:	08090403          	lb	s0,128(s2)
     6d0:	0100                	addi	s0,sp,128
     6d2:	0c090303          	lb	t1,192(s2)
     6d6:	0100                	addi	s0,sp,128
     6d8:	0805                	addi	a6,a6,1
     6da:	0306                	slli	t1,t1,0x1
     6dc:	0900                	addi	s0,sp,144
     6de:	0000                	unimp
     6e0:	0501                	addi	a0,a0,0
     6e2:	09030617          	auipc	a2,0x9030
     6e6:	0409                	addi	s0,s0,2
     6e8:	0100                	addi	s0,sp,128
     6ea:	2005                	0x2005
     6ec:	0306                	slli	t1,t1,0x1
     6ee:	0900                	addi	s0,sp,144
     6f0:	0000                	unimp
     6f2:	0501                	addi	a0,a0,0
     6f4:	0309                	addi	t1,t1,2
     6f6:	0970                	addi	a2,sp,156
     6f8:	0004                	0x4
     6fa:	0501                	addi	a0,a0,0
     6fc:	09100317          	auipc	t1,0x9100
     700:	0004                	0x4
     702:	0501                	addi	a0,a0,0
     704:	0601                	addi	a2,a2,0
     706:	08090a03          	lb	s4,128(s2)
     70a:	0100                	addi	s0,sp,128
     70c:	0505                	addi	a0,a0,1
     70e:	0c090103          	lb	sp,192(s2)
     712:	0100                	addi	s0,sp,128
     714:	00090103          	lb	sp,0(s2)
     718:	0100                	addi	s0,sp,128
     71a:	1505                	addi	a0,a0,-31
     71c:	0306                	slli	t1,t1,0x1
     71e:	0905                	addi	s2,s2,1
     720:	0004                	0x4
     722:	0501                	addi	a0,a0,0
     724:	030c                	addi	a1,sp,384
     726:	0901                	addi	s2,s2,0
     728:	0004                	0x4
     72a:	0501                	addi	a0,a0,0
     72c:	060e                	slli	a2,a2,0x3
     72e:	08090403          	lb	s0,128(s2)
     732:	0100                	addi	s0,sp,128
     734:	1105                	addi	sp,sp,-31
     736:	0306                	slli	t1,t1,0x1
     738:	0900                	addi	s0,sp,144
     73a:	0000                	unimp
     73c:	0501                	addi	a0,a0,0
     73e:	060d                	addi	a2,a2,3
     740:	04090203          	lb	tp,64(s2)
     744:	0100                	addi	s0,sp,128
     746:	0f05                	addi	t5,t5,1
     748:	0306                	slli	t1,t1,0x1
     74a:	0900                	addi	s0,sp,144
     74c:	0000                	unimp
     74e:	0501                	addi	a0,a0,0
     750:	031e                	slli	t1,t1,0x7
     752:	0900                	addi	s0,sp,144
     754:	0004                	0x4
     756:	0501                	addi	a0,a0,0
     758:	0312                	slli	t1,t1,0x4
     75a:	097c                	addi	a5,sp,156
     75c:	0008                	0x8
     75e:	0501                	addi	a0,a0,0
     760:	0609                	addi	a2,a2,2
     762:	04090a03          	lb	s4,64(s2)
     766:	0100                	addi	s0,sp,128
     768:	0b05                	addi	s6,s6,1
     76a:	0306                	slli	t1,t1,0x1
     76c:	0900                	addi	s0,sp,144
     76e:	0000                	unimp
     770:	0501                	addi	a0,a0,0
     772:	0610                	addi	a2,sp,768
     774:	04090103          	lb	sp,64(s2)
     778:	0100                	addi	s0,sp,128
     77a:	0b05                	addi	s6,s6,1
     77c:	0306                	slli	t1,t1,0x1
     77e:	097f                	0x97f
     780:	0008                	0x8
     782:	0501                	addi	a0,a0,0
     784:	0605                	addi	a2,a2,1
     786:	04096f03          	lwu	t5,64(s2)
     78a:	0100                	addi	s0,sp,128
     78c:	00090203          	lb	tp,0(s2)
     790:	0100                	addi	s0,sp,128
     792:	0905                	addi	s2,s2,1
     794:	00090203          	lb	tp,0(s2)
     798:	0100                	addi	s0,sp,128
     79a:	1505                	addi	a0,a0,-31
     79c:	0306                	slli	t1,t1,0x1
     79e:	0900                	addi	s0,sp,144
     7a0:	0000                	unimp
     7a2:	0501                	addi	a0,a0,0
     7a4:	0609                	addi	a2,a2,2
     7a6:	04090103          	lb	sp,64(s2)
     7aa:	0100                	addi	s0,sp,128
     7ac:	0c05                	addi	s8,s8,1
     7ae:	0306                	slli	t1,t1,0x1
     7b0:	0900                	addi	s0,sp,144
     7b2:	0000                	unimp
     7b4:	0501                	addi	a0,a0,0
     7b6:	060d                	addi	a2,a2,3
     7b8:	08090203          	lb	tp,128(s2)
     7bc:	0100                	addi	s0,sp,128
     7be:	0f05                	addi	t5,t5,1
     7c0:	0306                	slli	t1,t1,0x1
     7c2:	0900                	addi	s0,sp,144
     7c4:	0000                	unimp
     7c6:	0501                	addi	a0,a0,0
     7c8:	0318                	addi	a4,sp,384
     7ca:	0900                	addi	s0,sp,144
     7cc:	0004                	0x4
     7ce:	0501                	addi	a0,a0,0
     7d0:	060d                	addi	a2,a2,3
     7d2:	0c090803          	lb	a6,192(s2)
     7d6:	0100                	addi	s0,sp,128
     7d8:	0f05                	addi	t5,t5,1
     7da:	0306                	slli	t1,t1,0x1
     7dc:	0900                	addi	s0,sp,144
     7de:	0000                	unimp
     7e0:	0501                	addi	a0,a0,0
     7e2:	031e                	slli	t1,t1,0x7
     7e4:	0900                	addi	s0,sp,144
     7e6:	0004                	0x4
     7e8:	0501                	addi	a0,a0,0
     7ea:	0605                	addi	a2,a2,1
     7ec:	0c090503          	lb	a0,192(s2)
     7f0:	0100                	addi	s0,sp,128
     7f2:	0805                	addi	a6,a6,1
     7f4:	0306                	slli	t1,t1,0x1
     7f6:	0900                	addi	s0,sp,144
     7f8:	0000                	unimp
     7fa:	0501                	addi	a0,a0,0
     7fc:	0609                	addi	a2,a2,2
     7fe:	04090203          	lb	tp,64(s2)
     802:	0100                	addi	s0,sp,128
     804:	0e05                	addi	t3,t3,1
     806:	0306                	slli	t1,t1,0x1
     808:	0900                	addi	s0,sp,144
     80a:	0000                	unimp
     80c:	0501                	addi	a0,a0,0
     80e:	0605                	addi	a2,a2,1
     810:	08090403          	lb	s0,128(s2)
     814:	0100                	addi	s0,sp,128
     816:	0b05                	addi	s6,s6,1
     818:	0306                	slli	t1,t1,0x1
     81a:	097c                	addi	a5,sp,156
     81c:	0000                	unimp
     81e:	0501                	addi	a0,a0,0
     820:	0316                	slli	t1,t1,0x5
     822:	0904                	addi	s1,sp,144
     824:	0004                	0x4
     826:	0501                	addi	a0,a0,0
     828:	0312                	slli	t1,t1,0x4
     82a:	0900                	addi	s0,sp,144
     82c:	0004                	0x4
     82e:	0501                	addi	a0,a0,0
     830:	0605                	addi	a2,a2,1
     832:	04090103          	lb	sp,64(s2)
     836:	0100                	addi	s0,sp,128
     838:	10090403          	lb	s0,256(s2)
     83c:	0100                	addi	s0,sp,128
     83e:	0805                	addi	a6,a6,1
     840:	0306                	slli	t1,t1,0x1
     842:	0900                	addi	s0,sp,144
     844:	0000                	unimp
     846:	0501                	addi	a0,a0,0
     848:	0605                	addi	a2,a2,1
     84a:	04090403          	lb	s0,64(s2)
     84e:	0100                	addi	s0,sp,128
     850:	0805                	addi	a6,a6,1
     852:	0306                	slli	t1,t1,0x1
     854:	0900                	addi	s0,sp,144
     856:	0000                	unimp
     858:	0501                	addi	a0,a0,0
     85a:	0622                	slli	a2,a2,0x8
     85c:	04090803          	lb	a6,64(s2)
     860:	0100                	addi	s0,sp,128
     862:	0505                	addi	a0,a0,1
     864:	08096f03          	lwu	t5,128(s2)
     868:	0100                	addi	s0,sp,128
     86a:	1605                	addi	a2,a2,-31
     86c:	0306                	slli	t1,t1,0x1
     86e:	0900                	addi	s0,sp,144
     870:	0000                	unimp
     872:	0501                	addi	a0,a0,0
     874:	0312                	slli	t1,t1,0x4
     876:	0900                	addi	s0,sp,144
     878:	0004                	0x4
     87a:	0501                	addi	a0,a0,0
     87c:	0605                	addi	a2,a2,1
     87e:	04090103          	lb	sp,64(s2)
     882:	0100                	addi	s0,sp,128
     884:	10090403          	lb	s0,256(s2)
     888:	0100                	addi	s0,sp,128
     88a:	0805                	addi	a6,a6,1
     88c:	0306                	slli	t1,t1,0x1
     88e:	0900                	addi	s0,sp,144
     890:	0000                	unimp
     892:	0501                	addi	a0,a0,0
     894:	0609                	addi	a2,a2,2
     896:	04090203          	lb	tp,64(s2)
     89a:	0100                	addi	s0,sp,128
     89c:	0505                	addi	a0,a0,1
     89e:	00090203          	lb	tp,0(s2)
     8a2:	0100                	addi	s0,sp,128
     8a4:	0805                	addi	a6,a6,1
     8a6:	0306                	slli	t1,t1,0x1
     8a8:	0900                	addi	s0,sp,144
     8aa:	0000                	unimp
     8ac:	0501                	addi	a0,a0,0
     8ae:	0622                	slli	a2,a2,0x8
     8b0:	04090803          	lb	a6,64(s2)
     8b4:	0100                	addi	s0,sp,128
     8b6:	0e05                	addi	t3,t3,1
     8b8:	0306                	slli	t1,t1,0x1
     8ba:	0976                	slli	s2,s2,0x1d
     8bc:	0000                	unimp
     8be:	0501                	addi	a0,a0,0
     8c0:	0322                	slli	t1,t1,0x8
     8c2:	090a                	slli	s2,s2,0x2
     8c4:	0004                	0x4
     8c6:	0001                	nop
     8c8:	0402                	c.slli64	s0
     8ca:	0601                	addi	a2,a2,0
     8cc:	08090003          	lb	zero,128(s2)
     8d0:	0100                	addi	s0,sp,128
     8d2:	0e05                	addi	t3,t3,1
     8d4:	0200                	addi	s0,sp,256
     8d6:	0104                	addi	s1,sp,128
     8d8:	0306                	slli	t1,t1,0x1
     8da:	0976                	slli	s2,s2,0x1d
     8dc:	0000                	unimp
     8de:	0501                	addi	a0,a0,0
     8e0:	0022                	c.slli	zero,0x8
     8e2:	0402                	c.slli64	s0
     8e4:	0301                	addi	t1,t1,0
     8e6:	090a                	slli	s2,s2,0x2
     8e8:	0004                	0x4
     8ea:	0501                	addi	a0,a0,0
     8ec:	000d                	c.nop	3
     8ee:	0402                	c.slli64	s0
     8f0:	01030603          	lb	a2,16(t1) # 910070c <end+0x80fe70c>
     8f4:	0809                	addi	a6,a6,2
     8f6:	0100                	addi	s0,sp,128
     8f8:	1405                	addi	s0,s0,-31
     8fa:	0200                	addi	s0,sp,256
     8fc:	0304                	addi	s1,sp,384
     8fe:	0306                	slli	t1,t1,0x1
     900:	0900                	addi	s0,sp,144
     902:	0000                	unimp
     904:	0501                	addi	a0,a0,0
     906:	002d                	c.nop	11
     908:	0402                	c.slli64	s0
     90a:	7f030603          	lb	a2,2032(t1)
     90e:	0809                	addi	a6,a6,2
     910:	0100                	addi	s0,sp,128
     912:	2205                	addiw	tp,tp,1
     914:	0200                	addi	s0,sp,256
     916:	0304                	addi	s1,sp,384
     918:	00090003          	lb	zero,0(s2)
     91c:	0100                	addi	s0,sp,128
     91e:	0905                	addi	s2,s2,1
     920:	0c090603          	lb	a2,192(s2)
     924:	0100                	addi	s0,sp,128
     926:	00090103          	lb	sp,0(s2)
     92a:	0100                	addi	s0,sp,128
     92c:	00090103          	lb	sp,0(s2)
     930:	0100                	addi	s0,sp,128
     932:	0c05                	addi	s8,s8,1
     934:	0306                	slli	t1,t1,0x1
     936:	0900                	addi	s0,sp,144
     938:	0000                	unimp
     93a:	0501                	addi	a0,a0,0
     93c:	060d                	addi	a2,a2,3
     93e:	04090203          	lb	tp,64(s2)
     942:	0100                	addi	s0,sp,128
     944:	1105                	addi	sp,sp,-31
     946:	0306                	slli	t1,t1,0x1
     948:	0900                	addi	s0,sp,144
     94a:	0000                	unimp
     94c:	0501                	addi	a0,a0,0
     94e:	0614                	addi	a3,sp,768
     950:	04090703          	lb	a4,64(s2)
     954:	0100                	addi	s0,sp,128
     956:	0d05                	addi	s10,s10,1
     958:	10090203          	lb	tp,256(s2)
     95c:	0100                	addi	s0,sp,128
     95e:	1205                	addi	tp,tp,-31
     960:	0306                	slli	t1,t1,0x1
     962:	0900                	addi	s0,sp,144
     964:	0000                	unimp
     966:	0501                	addi	a0,a0,0
     968:	060d                	addi	a2,a2,3
     96a:	04090103          	lb	sp,64(s2)
     96e:	0100                	addi	s0,sp,128
     970:	1d05                	addi	s10,s10,-31
     972:	0306                	slli	t1,t1,0x1
     974:	0900                	addi	s0,sp,144
     976:	0000                	unimp
     978:	0501                	addi	a0,a0,0
     97a:	0318                	addi	a4,sp,384
     97c:	0900                	addi	s0,sp,144
     97e:	0004                	0x4
     980:	0501                	addi	a0,a0,0
     982:	060d                	addi	a2,a2,3
     984:	04090103          	lb	sp,64(s2)
     988:	0100                	addi	s0,sp,128
     98a:	1605                	addi	a2,a2,-31
     98c:	0306                	slli	t1,t1,0x1
     98e:	0900                	addi	s0,sp,144
     990:	0000                	unimp
     992:	0501                	addi	a0,a0,0
     994:	060d                	addi	a2,a2,3
     996:	04090103          	lb	sp,64(s2)
     99a:	0100                	addi	s0,sp,128
     99c:	1205                	addi	tp,tp,-31
     99e:	0306                	slli	t1,t1,0x1
     9a0:	0900                	addi	s0,sp,144
     9a2:	0000                	unimp
     9a4:	0501                	addi	a0,a0,0
     9a6:	060d                	addi	a2,a2,3
     9a8:	08090103          	lb	sp,128(s2)
     9ac:	0100                	addi	s0,sp,128
     9ae:	1405                	addi	s0,s0,-31
     9b0:	00097a03          	0x97a03
     9b4:	0100                	addi	s0,sp,128
     9b6:	0505                	addi	a0,a0,1
     9b8:	10090b03          	lb	s6,256(s2)
     9bc:	0100                	addi	s0,sp,128
     9be:	1105                	addi	sp,sp,-31
     9c0:	0306                	slli	t1,t1,0x1
     9c2:	0900                	addi	s0,sp,144
     9c4:	0000                	unimp
     9c6:	0501                	addi	a0,a0,0
     9c8:	0301                	addi	t1,t1,0
     9ca:	0901                	addi	s2,s2,0
     9cc:	0008                	0x8
     9ce:	0501                	addi	a0,a0,0
     9d0:	001d                	c.nop	7
     9d2:	0402                	c.slli64	s0
     9d4:	0302                	c.slli64	t1
     9d6:	000c095b          	0xc095b
     9da:	0501                	addi	a0,a0,0
     9dc:	0622                	slli	a2,a2,0x8
     9de:	08090803          	lb	a6,128(s2)
     9e2:	0100                	addi	s0,sp,128
     9e4:	0905                	addi	s2,s2,1
     9e6:	08097a03          	0x8097a03
     9ea:	0100                	addi	s0,sp,128
     9ec:	1005                	c.nop	-31
     9ee:	0306                	slli	t1,t1,0x1
     9f0:	0900                	addi	s0,sp,144
     9f2:	0000                	unimp
     9f4:	0501                	addi	a0,a0,0
     9f6:	0626                	slli	a2,a2,0x9
     9f8:	04090003          	lb	zero,64(s2)
     9fc:	0100                	addi	s0,sp,128
     9fe:	1405                	addi	s0,s0,-31
     a00:	0306                	slli	t1,t1,0x1
     a02:	0901                	addi	s2,s2,0
     a04:	0020                	addi	s0,sp,8
     a06:	0501                	addi	a0,a0,0
     a08:	000d                	c.nop	3
     a0a:	0402                	c.slli64	s0
     a0c:	00030603          	lb	a2,0(t1)
     a10:	0409                	addi	s0,s0,2
     a12:	0100                	addi	s0,sp,128
     a14:	1405                	addi	s0,s0,-31
     a16:	0200                	addi	s0,sp,256
     a18:	0304                	addi	s1,sp,384
     a1a:	0306                	slli	t1,t1,0x1
     a1c:	0900                	addi	s0,sp,144
     a1e:	0000                	unimp
     a20:	0501                	addi	a0,a0,0
     a22:	0035                	c.nop	13
     a24:	0402                	c.slli64	s0
     a26:	7f030603          	lb	a2,2032(t1)
     a2a:	0409                	addi	s0,s0,2
     a2c:	0100                	addi	s0,sp,128
     a2e:	2605                	addiw	a2,a2,1
     a30:	0200                	addi	s0,sp,256
     a32:	0304                	addi	s1,sp,384
     a34:	00090003          	lb	zero,0(s2)
     a38:	0100                	addi	s0,sp,128
     a3a:	0905                	addi	s2,s2,1
     a3c:	08090203          	lb	tp,128(s2)
     a40:	0100                	addi	s0,sp,128
     a42:	1905                	addi	s2,s2,-31
     a44:	0306                	slli	t1,t1,0x1
     a46:	0900                	addi	s0,sp,144
     a48:	0000                	unimp
     a4a:	0501                	addi	a0,a0,0
     a4c:	0609                	addi	a2,a2,2
     a4e:	0c090a03          	lb	s4,192(s2)
     a52:	0100                	addi	s0,sp,128
     a54:	00090103          	lb	sp,0(s2)
     a58:	0100                	addi	s0,sp,128
     a5a:	00090103          	lb	sp,0(s2)
     a5e:	0100                	addi	s0,sp,128
     a60:	0d05                	addi	s10,s10,1
     a62:	00090603          	lb	a2,0(s2)
     a66:	0100                	addi	s0,sp,128
     a68:	1105                	addi	sp,sp,-31
     a6a:	0306                	slli	t1,t1,0x1
     a6c:	0900                	addi	s0,sp,144
     a6e:	0000                	unimp
     a70:	0501                	addi	a0,a0,0
     a72:	0630                	addi	a2,sp,776
     a74:	097de403          	lwu	s0,151(s11)
     a78:	0008                	0x8
     a7a:	0501                	addi	a0,a0,0
     a7c:	0305                	addi	t1,t1,1
     a7e:	0901                	addi	s2,s2,0
     a80:	0000                	unimp
     a82:	0301                	addi	t1,t1,0
     a84:	0902                	c.slli64	s2
     a86:	0000                	unimp
     a88:	0301                	addi	t1,t1,0
     a8a:	0901                	addi	s2,s2,0
     a8c:	0000                	unimp
     a8e:	0301                	addi	t1,t1,0
     a90:	0901                	addi	s2,s2,0
     a92:	0000                	unimp
     a94:	0301                	addi	t1,t1,0
     a96:	0902                	c.slli64	s2
     a98:	0000                	unimp
     a9a:	0301                	addi	t1,t1,0
     a9c:	0901                	addi	s2,s2,0
     a9e:	0000                	unimp
     aa0:	0301                	addi	t1,t1,0
     aa2:	0902                	c.slli64	s2
     aa4:	0000                	unimp
     aa6:	0501                	addi	a0,a0,0
     aa8:	0311                	addi	t1,t1,4
     aaa:	0900                	addi	s0,sp,144
     aac:	0000                	unimp
     aae:	0501                	addi	a0,a0,0
     ab0:	0614                	addi	a3,sp,768
     ab2:	00090003          	lb	zero,0(s2)
     ab6:	0100                	addi	s0,sp,128
     ab8:	1105                	addi	sp,sp,-31
     aba:	04090003          	lb	zero,64(s2)
     abe:	0100                	addi	s0,sp,128
     ac0:	3005                	0x3005
     ac2:	04097603          	0x4097603
     ac6:	0100                	addi	s0,sp,128
     ac8:	1405                	addi	s0,s0,-31
     aca:	38090a03          	lb	s4,896(s2)
     ace:	0100                	addi	s0,sp,128
     ad0:	0c05                	addi	s8,s8,1
     ad2:	04090003          	lb	zero,64(s2)
     ad6:	0100                	addi	s0,sp,128
     ad8:	0905                	addi	s2,s2,1
     ada:	04093203          	ld	tp,64(s2)
     ade:	0100                	addi	s0,sp,128
     ae0:	0204                	addi	s1,sp,256
     ae2:	1b05                	addi	s6,s6,-31
     ae4:	08095003          	lhu	zero,128(s2)
     ae8:	0100                	addi	s0,sp,128
     aea:	1f05                	addi	t5,t5,-31
     aec:	08090003          	lb	zero,128(s2)
     af0:	0100                	addi	s0,sp,128
     af2:	0805                	addi	a6,a6,1
     af4:	08097903          	0x8097903
     af8:	0100                	addi	s0,sp,128
     afa:	0104                	addi	s1,sp,128
     afc:	0d05                	addi	s10,s10,1
     afe:	0306                	slli	t1,t1,0x1
     b00:	090a                	slli	s2,s2,0x2
     b02:	0008                	0x8
     b04:	0401                	addi	s0,s0,0
     b06:	0502                	c.slli64	a0
     b08:	0305                	addi	t1,t1,1
     b0a:	097d                	addi	s2,s2,31
     b0c:	0004                	0x4
     b0e:	0501                	addi	a0,a0,0
     b10:	0003061b          	sext.w	a2,t1
     b14:	0009                	c.nop	2
     b16:	0100                	addi	s0,sp,128
     b18:	1f05                	addi	t5,t5,-31
     b1a:	10090003          	lb	zero,256(s2)
     b1e:	0100                	addi	s0,sp,128
     b20:	0505                	addi	a0,a0,1
     b22:	0306                	slli	t1,t1,0x1
     b24:	0901                	addi	s2,s2,0
     b26:	0008                	0x8
     b28:	0501                	addi	a0,a0,0
     b2a:	0309                	addi	t1,t1,2
     b2c:	0901                	addi	s2,s2,0
     b2e:	0000                	unimp
     b30:	0501                	addi	a0,a0,0
     b32:	0305                	addi	t1,t1,1
     b34:	00000977          	0x977
     b38:	0501                	addi	a0,a0,0
     b3a:	0608                	addi	a0,sp,768
     b3c:	00090003          	lb	zero,0(s2)
     b40:	0100                	addi	s0,sp,128
     b42:	0104                	addi	s1,sp,128
     b44:	1a05                	addi	s4,s4,-31
     b46:	0200                	addi	s0,sp,256
     b48:	0204                	addi	s1,sp,256
     b4a:	0306                	slli	t1,t1,0x1
     b4c:	0905                	addi	s2,s2,1
     b4e:	0004                	0x4
     b50:	0501                	addi	a0,a0,0
     b52:	0011                	c.nop	4
     b54:	0402                	c.slli64	s0
     b56:	0302                	c.slli64	t1
     b58:	0900                	addi	s0,sp,144
     b5a:	0004                	0x4
     b5c:	0501                	addi	a0,a0,0
     b5e:	0014                	0x14
     b60:	0402                	c.slli64	s0
     b62:	0602                	c.slli64	a2
     b64:	00090003          	lb	zero,0(s2)
     b68:	0100                	addi	s0,sp,128
     b6a:	1105                	addi	sp,sp,-31
     b6c:	0200                	addi	s0,sp,256
     b6e:	0204                	addi	s1,sp,256
     b70:	08090003          	lb	zero,128(s2)
     b74:	0100                	addi	s0,sp,128
     b76:	0905                	addi	s2,s2,1
     b78:	0306                	slli	t1,t1,0x1
     b7a:	0901                	addi	s2,s2,0
     b7c:	0004                	0x4
     b7e:	0501                	addi	a0,a0,0
     b80:	060c                	addi	a1,sp,768
     b82:	00090003          	lb	zero,0(s2)
     b86:	0100                	addi	s0,sp,128
     b88:	0d05                	addi	s10,s10,1
     b8a:	0306                	slli	t1,t1,0x1
     b8c:	0901                	addi	s2,s2,0
     b8e:	0008                	0x8
     b90:	0501                	addi	a0,a0,0
     b92:	0610                	addi	a2,sp,768
     b94:	00090003          	lb	zero,0(s2)
     b98:	0100                	addi	s0,sp,128
     b9a:	1105                	addi	sp,sp,-31
     b9c:	0306                	slli	t1,t1,0x1
     b9e:	0901                	addi	s2,s2,0
     ba0:	0008                	0x8
     ba2:	0401                	addi	s0,s0,0
     ba4:	0502                	c.slli64	a0
     ba6:	0305                	addi	t1,t1,1
     ba8:	097f                	0x97f
     baa:	0000                	unimp
     bac:	0501                	addi	a0,a0,0
     bae:	0003061b          	sext.w	a2,t1
     bb2:	0009                	c.nop	2
     bb4:	0100                	addi	s0,sp,128
     bb6:	1f05                	addi	t5,t5,-31
     bb8:	10090003          	lb	zero,256(s2)
     bbc:	0100                	addi	s0,sp,128
     bbe:	0505                	addi	a0,a0,1
     bc0:	0306                	slli	t1,t1,0x1
     bc2:	0901                	addi	s2,s2,0
     bc4:	000c                	0xc
     bc6:	0501                	addi	a0,a0,0
     bc8:	0309                	addi	t1,t1,2
     bca:	0901                	addi	s2,s2,0
     bcc:	0000                	unimp
     bce:	0501                	addi	a0,a0,0
     bd0:	0305                	addi	t1,t1,1
     bd2:	00000977          	0x977
     bd6:	0501                	addi	a0,a0,0
     bd8:	0608                	addi	a0,sp,768
     bda:	00090003          	lb	zero,0(s2)
     bde:	0100                	addi	s0,sp,128
     be0:	0905                	addi	s2,s2,1
     be2:	0306                	slli	t1,t1,0x1
     be4:	0901                	addi	s2,s2,0
     be6:	0004                	0x4
     be8:	0401                	addi	s0,s0,0
     bea:	03050503          	lb	a0,48(a0)
     bee:	0904                	addi	s1,sp,144
     bf0:	0000                	unimp
     bf2:	0401                	addi	s0,s0,0
     bf4:	0504                	addi	s1,sp,640
     bf6:	0302                	c.slli64	t1
     bf8:	00000977          	0x977
     bfc:	0501                	addi	a0,a0,0
     bfe:	0003060f          	0x3060f
     c02:	0009                	c.nop	2
     c04:	0100                	addi	s0,sp,128
     c06:	0205                	addi	tp,tp,1
     c08:	0306                	slli	t1,t1,0x1
     c0a:	0901                	addi	s2,s2,0
     c0c:	0004                	0x4
     c0e:	0501                	addi	a0,a0,0
     c10:	0003060f          	0x3060f
     c14:	0009                	c.nop	2
     c16:	0100                	addi	s0,sp,128
     c18:	0205                	addi	tp,tp,1
     c1a:	0306                	slli	t1,t1,0x1
     c1c:	0901                	addi	s2,s2,0
     c1e:	0004                	0x4
     c20:	0501                	addi	a0,a0,0
     c22:	0003060f          	0x3060f
     c26:	0009                	c.nop	2
     c28:	0100                	addi	s0,sp,128
     c2a:	0205                	addi	tp,tp,1
     c2c:	0306                	slli	t1,t1,0x1
     c2e:	0901                	addi	s2,s2,0
     c30:	0004                	0x4
     c32:	0501                	addi	a0,a0,0
     c34:	0003060f          	0x3060f
     c38:	0009                	c.nop	2
     c3a:	0100                	addi	s0,sp,128
     c3c:	0205                	addi	tp,tp,1
     c3e:	0306                	slli	t1,t1,0x1
     c40:	0901                	addi	s2,s2,0
     c42:	0004                	0x4
     c44:	0501                	addi	a0,a0,0
     c46:	0003060f          	0x3060f
     c4a:	0009                	c.nop	2
     c4c:	0100                	addi	s0,sp,128
     c4e:	0205                	addi	tp,tp,1
     c50:	0306                	slli	t1,t1,0x1
     c52:	0901                	addi	s2,s2,0
     c54:	0004                	0x4
     c56:	0501                	addi	a0,a0,0
     c58:	0003060f          	0x3060f
     c5c:	0009                	c.nop	2
     c5e:	0100                	addi	s0,sp,128
     c60:	0205                	addi	tp,tp,1
     c62:	0306                	slli	t1,t1,0x1
     c64:	0901                	addi	s2,s2,0
     c66:	0004                	0x4
     c68:	0501                	addi	a0,a0,0
     c6a:	0610                	addi	a2,sp,768
     c6c:	00090003          	lb	zero,0(s2)
     c70:	0100                	addi	s0,sp,128
     c72:	0205                	addi	tp,tp,1
     c74:	0306                	slli	t1,t1,0x1
     c76:	0901                	addi	s2,s2,0
     c78:	0004                	0x4
     c7a:	0301                	addi	t1,t1,0
     c7c:	0902                	c.slli64	s2
     c7e:	0004                	0x4
     c80:	0401                	addi	s0,s0,0
     c82:	0502                	c.slli64	a0
     c84:	0309                	addi	t1,t1,2
     c86:	097d                	addi	s2,s2,31
     c88:	0000                	unimp
     c8a:	0501                	addi	a0,a0,0
     c8c:	00030613          	mv	a2,t1
     c90:	0009                	c.nop	2
     c92:	0100                	addi	s0,sp,128
     c94:	0104                	addi	s1,sp,128
     c96:	0d05                	addi	s10,s10,1
     c98:	0306                	slli	t1,t1,0x1
     c9a:	0908                	addi	a0,sp,144
     c9c:	0004                	0x4
     c9e:	0401                	addi	s0,s0,0
     ca0:	0502                	c.slli64	a0
     ca2:	0305                	addi	t1,t1,1
     ca4:	097d                	addi	s2,s2,31
     ca6:	0004                	0x4
     ca8:	0501                	addi	a0,a0,0
     caa:	0003061b          	sext.w	a2,t1
     cae:	0009                	c.nop	2
     cb0:	0100                	addi	s0,sp,128
     cb2:	1f05                	addi	t5,t5,-31
     cb4:	08090003          	lb	zero,128(s2)
     cb8:	0100                	addi	s0,sp,128
     cba:	0505                	addi	a0,a0,1
     cbc:	0306                	slli	t1,t1,0x1
     cbe:	0901                	addi	s2,s2,0
     cc0:	0004                	0x4
     cc2:	0501                	addi	a0,a0,0
     cc4:	0309                	addi	t1,t1,2
     cc6:	0901                	addi	s2,s2,0
     cc8:	0000                	unimp
     cca:	0501                	addi	a0,a0,0
     ccc:	0305                	addi	t1,t1,1
     cce:	00000977          	0x977
     cd2:	0501                	addi	a0,a0,0
     cd4:	0309                	addi	t1,t1,2
     cd6:	0901                	addi	s2,s2,0
     cd8:	0004                	0x4
     cda:	0401                	addi	s0,s0,0
     cdc:	03050503          	lb	a0,48(a0)
     ce0:	0904                	addi	s1,sp,144
     ce2:	0000                	unimp
     ce4:	0401                	addi	s0,s0,0
     ce6:	0504                	addi	s1,sp,640
     ce8:	0302                	c.slli64	t1
     cea:	00000977          	0x977
     cee:	0501                	addi	a0,a0,0
     cf0:	0003060f          	0x3060f
     cf4:	0009                	c.nop	2
     cf6:	0100                	addi	s0,sp,128
     cf8:	0205                	addi	tp,tp,1
     cfa:	0306                	slli	t1,t1,0x1
     cfc:	0901                	addi	s2,s2,0
     cfe:	0004                	0x4
     d00:	0501                	addi	a0,a0,0
     d02:	0003060f          	0x3060f
     d06:	0009                	c.nop	2
     d08:	0100                	addi	s0,sp,128
     d0a:	0205                	addi	tp,tp,1
     d0c:	0306                	slli	t1,t1,0x1
     d0e:	0901                	addi	s2,s2,0
     d10:	0004                	0x4
     d12:	0501                	addi	a0,a0,0
     d14:	0003060f          	0x3060f
     d18:	0009                	c.nop	2
     d1a:	0100                	addi	s0,sp,128
     d1c:	0205                	addi	tp,tp,1
     d1e:	0306                	slli	t1,t1,0x1
     d20:	0901                	addi	s2,s2,0
     d22:	0004                	0x4
     d24:	0501                	addi	a0,a0,0
     d26:	0003060f          	0x3060f
     d2a:	0009                	c.nop	2
     d2c:	0100                	addi	s0,sp,128
     d2e:	0205                	addi	tp,tp,1
     d30:	0306                	slli	t1,t1,0x1
     d32:	0901                	addi	s2,s2,0
     d34:	0004                	0x4
     d36:	0501                	addi	a0,a0,0
     d38:	0003060f          	0x3060f
     d3c:	0009                	c.nop	2
     d3e:	0100                	addi	s0,sp,128
     d40:	0205                	addi	tp,tp,1
     d42:	0306                	slli	t1,t1,0x1
     d44:	0901                	addi	s2,s2,0
     d46:	0004                	0x4
     d48:	0501                	addi	a0,a0,0
     d4a:	0003060f          	0x3060f
     d4e:	0009                	c.nop	2
     d50:	0100                	addi	s0,sp,128
     d52:	0205                	addi	tp,tp,1
     d54:	0306                	slli	t1,t1,0x1
     d56:	0901                	addi	s2,s2,0
     d58:	0004                	0x4
     d5a:	0501                	addi	a0,a0,0
     d5c:	0610                	addi	a2,sp,768
     d5e:	00090003          	lb	zero,0(s2)
     d62:	0100                	addi	s0,sp,128
     d64:	0205                	addi	tp,tp,1
     d66:	0306                	slli	t1,t1,0x1
     d68:	0901                	addi	s2,s2,0
     d6a:	0004                	0x4
     d6c:	0301                	addi	t1,t1,0
     d6e:	0902                	c.slli64	s2
     d70:	0004                	0x4
     d72:	0401                	addi	s0,s0,0
     d74:	0502                	c.slli64	a0
     d76:	0309                	addi	t1,t1,2
     d78:	097d                	addi	s2,s2,31
     d7a:	0000                	unimp
     d7c:	0501                	addi	a0,a0,0
     d7e:	00030613          	mv	a2,t1
     d82:	0009                	c.nop	2
     d84:	0100                	addi	s0,sp,128
     d86:	0104                	addi	s1,sp,128
     d88:	0905                	addi	s2,s2,1
     d8a:	0306                	slli	t1,t1,0x1
     d8c:	090c                	addi	a1,sp,144
     d8e:	0008                	0x8
     d90:	0501                	addi	a0,a0,0
     d92:	0003060b          	0x3060b
     d96:	0009                	c.nop	2
     d98:	0100                	addi	s0,sp,128
     d9a:	1005                	c.nop	-31
     d9c:	04090003          	lb	zero,64(s2)
     da0:	0100                	addi	s0,sp,128
     da2:	0b05                	addi	s6,s6,1
     da4:	04090003          	lb	zero,64(s2)
     da8:	0100                	addi	s0,sp,128
     daa:	0905                	addi	s2,s2,1
     dac:	0306                	slli	t1,t1,0x1
     dae:	0902                	c.slli64	s2
     db0:	0004                	0x4
     db2:	0501                	addi	a0,a0,0
     db4:	060c                	addi	a1,sp,768
     db6:	00090003          	lb	zero,0(s2)
     dba:	0100                	addi	s0,sp,128
     dbc:	1505                	addi	a0,a0,-31
     dbe:	04090403          	lb	s0,64(s2)
     dc2:	0100                	addi	s0,sp,128
     dc4:	0c05                	addi	s8,s8,1
     dc6:	04097c03          	0x4097c03
     dca:	0100                	addi	s0,sp,128
     dcc:	0905                	addi	s2,s2,1
     dce:	0306                	slli	t1,t1,0x1
     dd0:	00040907          	0x40907
     dd4:	0501                	addi	a0,a0,0
     dd6:	060c                	addi	a1,sp,768
     dd8:	00090003          	lb	zero,0(s2)
     ddc:	0100                	addi	s0,sp,128
     dde:	1205                	addi	tp,tp,-31
     de0:	04090403          	lb	s0,64(s2)
     de4:	0100                	addi	s0,sp,128
     de6:	0c05                	addi	s8,s8,1
     de8:	04097c03          	0x4097c03
     dec:	0100                	addi	s0,sp,128
     dee:	0905                	addi	s2,s2,1
     df0:	0306                	slli	t1,t1,0x1
     df2:	00040907          	0x40907
     df6:	0301                	addi	t1,t1,0
     df8:	0901                	addi	s2,s2,0
     dfa:	0000                	unimp
     dfc:	0501                	addi	a0,a0,0
     dfe:	0310                	addi	a2,sp,384
     e00:	0900                	addi	s0,sp,144
     e02:	0000                	unimp
     e04:	0501                	addi	a0,a0,0
     e06:	7f03060f          	0x7f03060f
     e0a:	1009                	c.nop	-30
     e0c:	0100                	addi	s0,sp,128
     e0e:	1005                	c.nop	-31
     e10:	04090103          	lb	sp,64(s2)
     e14:	0100                	addi	s0,sp,128
     e16:	0d05                	addi	s10,s10,1
     e18:	0306                	slli	t1,t1,0x1
     e1a:	0901                	addi	s2,s2,0
     e1c:	0004                	0x4
     e1e:	0501                	addi	a0,a0,0
     e20:	0622                	slli	a2,a2,0x8
     e22:	00090003          	lb	zero,0(s2)
     e26:	0100                	addi	s0,sp,128
     e28:	3105                	addiw	sp,sp,-31
     e2a:	0c090003          	lb	zero,192(s2)
     e2e:	0100                	addi	s0,sp,128
     e30:	1305                	addi	t1,t1,-31
     e32:	04090003          	lb	zero,64(s2)
     e36:	0100                	addi	s0,sp,128
     e38:	0d05                	addi	s10,s10,1
     e3a:	0306                	slli	t1,t1,0x1
     e3c:	0901                	addi	s2,s2,0
     e3e:	0004                	0x4
     e40:	0501                	addi	a0,a0,0
     e42:	0003060f          	0x3060f
     e46:	0009                	c.nop	2
     e48:	0100                	addi	s0,sp,128
     e4a:	1405                	addi	s0,s0,-31
     e4c:	04090003          	lb	zero,64(s2)
     e50:	0100                	addi	s0,sp,128
     e52:	0f05                	addi	t5,t5,1
     e54:	08090003          	lb	zero,128(s2)
     e58:	0100                	addi	s0,sp,128
     e5a:	1005                	c.nop	-31
     e5c:	0306                	slli	t1,t1,0x1
     e5e:	097e                	slli	s2,s2,0x1f
     e60:	0004                	0x4
     e62:	0501                	addi	a0,a0,0
     e64:	0309                	addi	t1,t1,2
     e66:	0905                	addi	s2,s2,1
     e68:	000c                	0xc
     e6a:	0501                	addi	a0,a0,0
     e6c:	060c                	addi	a1,sp,768
     e6e:	00090003          	lb	zero,0(s2)
     e72:	0100                	addi	s0,sp,128
     e74:	0905                	addi	s2,s2,1
     e76:	0306                	slli	t1,t1,0x1
     e78:	0008090b          	0x8090b
     e7c:	0501                	addi	a0,a0,0
     e7e:	060c                	addi	a1,sp,768
     e80:	00090003          	lb	zero,0(s2)
     e84:	0100                	addi	s0,sp,128
     e86:	0905                	addi	s2,s2,1
     e88:	0306                	slli	t1,t1,0x1
     e8a:	00080907          	0x80907
     e8e:	0301                	addi	t1,t1,0
     e90:	0901                	addi	s2,s2,0
     e92:	0000                	unimp
     e94:	0501                	addi	a0,a0,0
     e96:	030d                	addi	t1,t1,3
     e98:	095a                	slli	s2,s2,0x16
     e9a:	0034                	addi	a3,sp,8
     e9c:	0501                	addi	a0,a0,0
     e9e:	0003060f          	0x3060f
     ea2:	0009                	c.nop	2
     ea4:	0100                	addi	s0,sp,128
     ea6:	1405                	addi	s0,s0,-31
     ea8:	04090003          	lb	zero,64(s2)
     eac:	0100                	addi	s0,sp,128
     eae:	0f05                	addi	t5,t5,1
     eb0:	04090003          	lb	zero,64(s2)
     eb4:	0100                	addi	s0,sp,128
     eb6:	0d05                	addi	s10,s10,1
     eb8:	0306                	slli	t1,t1,0x1
     eba:	0901                	addi	s2,s2,0
     ebc:	0004                	0x4
     ebe:	0501                	addi	a0,a0,0
     ec0:	0615                	addi	a2,a2,5
     ec2:	00090003          	lb	zero,0(s2)
     ec6:	0100                	addi	s0,sp,128
     ec8:	0d05                	addi	s10,s10,1
     eca:	0306                	slli	t1,t1,0x1
     ecc:	0906                	slli	s2,s2,0x1
     ece:	0008                	0x8
     ed0:	0501                	addi	a0,a0,0
     ed2:	0003060f          	0x3060f
     ed6:	0009                	c.nop	2
     ed8:	0100                	addi	s0,sp,128
     eda:	1405                	addi	s0,s0,-31
     edc:	04090003          	lb	zero,64(s2)
     ee0:	0100                	addi	s0,sp,128
     ee2:	0f05                	addi	t5,t5,1
     ee4:	04090003          	lb	zero,64(s2)
     ee8:	0100                	addi	s0,sp,128
     eea:	0d05                	addi	s10,s10,1
     eec:	0306                	slli	t1,t1,0x1
     eee:	0901                	addi	s2,s2,0
     ef0:	0004                	0x4
     ef2:	0501                	addi	a0,a0,0
     ef4:	0612                	slli	a2,a2,0x4
     ef6:	00090003          	lb	zero,0(s2)
     efa:	0100                	addi	s0,sp,128
     efc:	0f05                	addi	t5,t5,1
     efe:	08090503          	lb	a0,128(s2)
     f02:	0100                	addi	s0,sp,128
     f04:	0d05                	addi	s10,s10,1
     f06:	0306                	slli	t1,t1,0x1
     f08:	00080907          	0x80907
     f0c:	0501                	addi	a0,a0,0
     f0e:	0003060f          	0x3060f
     f12:	0009                	c.nop	2
     f14:	0100                	addi	s0,sp,128
     f16:	1405                	addi	s0,s0,-31
     f18:	04090003          	lb	zero,64(s2)
     f1c:	0100                	addi	s0,sp,128
     f1e:	0d05                	addi	s10,s10,1
     f20:	0306                	slli	t1,t1,0x1
     f22:	0901                	addi	s2,s2,0
     f24:	0008                	0x8
     f26:	0301                	addi	t1,t1,0
     f28:	0901                	addi	s2,s2,0
     f2a:	0000                	unimp
     f2c:	0501                	addi	a0,a0,0
     f2e:	0314                	addi	a3,sp,384
     f30:	0900                	addi	s0,sp,144
     f32:	0000                	unimp
     f34:	0501                	addi	a0,a0,0
     f36:	7e03060f          	0x7e03060f
     f3a:	1009                	c.nop	-30
     f3c:	0100                	addi	s0,sp,128
     f3e:	1405                	addi	s0,s0,-31
     f40:	08090203          	lb	tp,128(s2)
     f44:	0100                	addi	s0,sp,128
     f46:	1105                	addi	sp,sp,-31
     f48:	0306                	slli	t1,t1,0x1
     f4a:	0901                	addi	s2,s2,0
     f4c:	0004                	0x4
     f4e:	0301                	addi	t1,t1,0
     f50:	0901                	addi	s2,s2,0
     f52:	0000                	unimp
     f54:	0501                	addi	a0,a0,0
     f56:	00030613          	mv	a2,t1
     f5a:	0009                	c.nop	2
     f5c:	0100                	addi	s0,sp,128
     f5e:	1805                	addi	a6,a6,-31
     f60:	04090003          	lb	zero,64(s2)
     f64:	0100                	addi	s0,sp,128
     f66:	1405                	addi	s0,s0,-31
     f68:	0306                	slli	t1,t1,0x1
     f6a:	097e                	slli	s2,s2,0x1f
     f6c:	0008                	0x8
     f6e:	0501                	addi	a0,a0,0
     f70:	02030613          	addi	a2,t1,32
     f74:	0c09                	addi	s8,s8,2
     f76:	0100                	addi	s0,sp,128
     f78:	0d05                	addi	s10,s10,1
     f7a:	0306                	slli	t1,t1,0x1
     f7c:	00080907          	0x80907
     f80:	0301                	addi	t1,t1,0
     f82:	0901                	addi	s2,s2,0
     f84:	0000                	unimp
     f86:	0501                	addi	a0,a0,0
     f88:	0003060f          	0x3060f
     f8c:	0009                	c.nop	2
     f8e:	0100                	addi	s0,sp,128
     f90:	1405                	addi	s0,s0,-31
     f92:	04090003          	lb	zero,64(s2)
     f96:	0100                	addi	s0,sp,128
     f98:	0905                	addi	s2,s2,1
     f9a:	0306                	slli	t1,t1,0x1
     f9c:	0905                	addi	s2,s2,1
     f9e:	0008                	0x8
     fa0:	0301                	addi	t1,t1,0
     fa2:	0901                	addi	s2,s2,0
     fa4:	0000                	unimp
     fa6:	0501                	addi	a0,a0,0
     fa8:	0311                	addi	t1,t1,4
     faa:	0902                	c.slli64	s2
     fac:	0048                	addi	a0,sp,4
     fae:	0501                	addi	a0,a0,0
     fb0:	0003061b          	sext.w	a2,t1
     fb4:	0009                	c.nop	2
     fb6:	0100                	addi	s0,sp,128
     fb8:	1505                	addi	a0,a0,-31
     fba:	04090003          	lb	zero,64(s2)
     fbe:	0100                	addi	s0,sp,128
     fc0:	0e05                	addi	t3,t3,1
     fc2:	0306                	slli	t1,t1,0x1
     fc4:	0901                	addi	s2,s2,0
     fc6:	0004                	0x4
     fc8:	0501                	addi	a0,a0,0
     fca:	0311                	addi	t1,t1,4
     fcc:	0901                	addi	s2,s2,0
     fce:	0018                	0x18
     fd0:	0401                	addi	s0,s0,0
     fd2:	0502                	c.slli64	a0
     fd4:	0305                	addi	t1,t1,1
     fd6:	094c                	addi	a1,sp,148
     fd8:	0000                	unimp
     fda:	0501                	addi	a0,a0,0
     fdc:	0003061b          	sext.w	a2,t1
     fe0:	0009                	c.nop	2
     fe2:	0100                	addi	s0,sp,128
     fe4:	1f05                	addi	t5,t5,-31
     fe6:	10090003          	lb	zero,256(s2)
     fea:	0100                	addi	s0,sp,128
     fec:	0505                	addi	a0,a0,1
     fee:	0306                	slli	t1,t1,0x1
     ff0:	0901                	addi	s2,s2,0
     ff2:	0008                	0x8
     ff4:	0501                	addi	a0,a0,0
     ff6:	0309                	addi	t1,t1,2
     ff8:	0901                	addi	s2,s2,0
     ffa:	0000                	unimp
     ffc:	0501                	addi	a0,a0,0
     ffe:	0305                	addi	t1,t1,1
    1000:	00000977          	0x977
    1004:	0401                	addi	s0,s0,0
    1006:	0501                	addi	a0,a0,0
    1008:	3903061b          	addiw	a2,t1,912
    100c:	0009                	c.nop	2
    100e:	0100                	addi	s0,sp,128
    1010:	0204                	addi	s1,sp,256
    1012:	0805                	addi	a6,a6,1
    1014:	04094703          	lbu	a4,64(s2)
    1018:	0100                	addi	s0,sp,128
    101a:	0905                	addi	s2,s2,1
    101c:	0306                	slli	t1,t1,0x1
    101e:	0901                	addi	s2,s2,0
    1020:	0004                	0x4
    1022:	0401                	addi	s0,s0,0
    1024:	03050503          	lb	a0,48(a0)
    1028:	0904                	addi	s1,sp,144
    102a:	0000                	unimp
    102c:	0401                	addi	s0,s0,0
    102e:	0504                	addi	s1,sp,640
    1030:	0302                	c.slli64	t1
    1032:	00000977          	0x977
    1036:	0501                	addi	a0,a0,0
    1038:	0003060f          	0x3060f
    103c:	0009                	c.nop	2
    103e:	0100                	addi	s0,sp,128
    1040:	0205                	addi	tp,tp,1
    1042:	0306                	slli	t1,t1,0x1
    1044:	0901                	addi	s2,s2,0
    1046:	0004                	0x4
    1048:	0501                	addi	a0,a0,0
    104a:	0003060f          	0x3060f
    104e:	0009                	c.nop	2
    1050:	0100                	addi	s0,sp,128
    1052:	0205                	addi	tp,tp,1
    1054:	0306                	slli	t1,t1,0x1
    1056:	0901                	addi	s2,s2,0
    1058:	0004                	0x4
    105a:	0501                	addi	a0,a0,0
    105c:	0003060f          	0x3060f
    1060:	0009                	c.nop	2
    1062:	0100                	addi	s0,sp,128
    1064:	0205                	addi	tp,tp,1
    1066:	0306                	slli	t1,t1,0x1
    1068:	0901                	addi	s2,s2,0
    106a:	0004                	0x4
    106c:	0501                	addi	a0,a0,0
    106e:	0003060f          	0x3060f
    1072:	0009                	c.nop	2
    1074:	0100                	addi	s0,sp,128
    1076:	0205                	addi	tp,tp,1
    1078:	0306                	slli	t1,t1,0x1
    107a:	0901                	addi	s2,s2,0
    107c:	0004                	0x4
    107e:	0501                	addi	a0,a0,0
    1080:	0003060f          	0x3060f
    1084:	0009                	c.nop	2
    1086:	0100                	addi	s0,sp,128
    1088:	0205                	addi	tp,tp,1
    108a:	0306                	slli	t1,t1,0x1
    108c:	0901                	addi	s2,s2,0
    108e:	0004                	0x4
    1090:	0501                	addi	a0,a0,0
    1092:	0003060f          	0x3060f
    1096:	0009                	c.nop	2
    1098:	0100                	addi	s0,sp,128
    109a:	0205                	addi	tp,tp,1
    109c:	0306                	slli	t1,t1,0x1
    109e:	0901                	addi	s2,s2,0
    10a0:	0004                	0x4
    10a2:	0501                	addi	a0,a0,0
    10a4:	0610                	addi	a2,sp,768
    10a6:	00090003          	lb	zero,0(s2)
    10aa:	0100                	addi	s0,sp,128
    10ac:	0205                	addi	tp,tp,1
    10ae:	0306                	slli	t1,t1,0x1
    10b0:	0901                	addi	s2,s2,0
    10b2:	0004                	0x4
    10b4:	0301                	addi	t1,t1,0
    10b6:	0902                	c.slli64	s2
    10b8:	0004                	0x4
    10ba:	0401                	addi	s0,s0,0
    10bc:	0502                	c.slli64	a0
    10be:	0309                	addi	t1,t1,2
    10c0:	097d                	addi	s2,s2,31
    10c2:	0000                	unimp
    10c4:	0501                	addi	a0,a0,0
    10c6:	00030613          	mv	a2,t1
    10ca:	0009                	c.nop	2
    10cc:	0100                	addi	s0,sp,128
    10ce:	0104                	addi	s1,sp,128
    10d0:	1105                	addi	sp,sp,-31
    10d2:	0306                	slli	t1,t1,0x1
    10d4:	093e                	slli	s2,s2,0xf
    10d6:	0008                	0x8
    10d8:	0501                	addi	a0,a0,0
    10da:	0315                	addi	t1,t1,5
    10dc:	0901                	addi	s2,s2,0
    10de:	0000                	unimp
    10e0:	0501                	addi	a0,a0,0
    10e2:	0619                	addi	a2,a2,6
    10e4:	00090003          	lb	zero,0(s2)
    10e8:	0100                	addi	s0,sp,128
    10ea:	0f05                	addi	t5,t5,1
    10ec:	04097003          	0x4097003
    10f0:	0100                	addi	s0,sp,128
    10f2:	1905                	addi	s2,s2,-31
    10f4:	04091003          	lh	zero,64(s2)
    10f8:	0100                	addi	s0,sp,128
    10fa:	1105                	addi	sp,sp,-31
    10fc:	0306                	slli	t1,t1,0x1
    10fe:	0905                	addi	s2,s2,1
    1100:	0004                	0x4
    1102:	0601                	addi	a2,a2,0
    1104:	00097003          	0x97003
    1108:	0100                	addi	s0,sp,128
    110a:	1405                	addi	s0,s0,-31
    110c:	04091003          	lh	zero,64(s2)
    1110:	0100                	addi	s0,sp,128
    1112:	0e05                	addi	t3,t3,1
    1114:	0306                	slli	t1,t1,0x1
    1116:	0905                	addi	s2,s2,1
    1118:	0004                	0x4
    111a:	0501                	addi	a0,a0,0
    111c:	0311                	addi	t1,t1,4
    111e:	0901                	addi	s2,s2,0
    1120:	0014                	0x14
    1122:	0401                	addi	s0,s0,0
    1124:	0502                	c.slli64	a0
    1126:	0305                	addi	t1,t1,1
    1128:	0942                	slli	s2,s2,0x10
    112a:	0000                	unimp
    112c:	0501                	addi	a0,a0,0
    112e:	030c                	addi	a1,sp,384
    1130:	0900                	addi	s0,sp,144
    1132:	0000                	unimp
    1134:	0601                	addi	a2,a2,0
    1136:	0c090103          	lb	sp,192(s2)
    113a:	0100                	addi	s0,sp,128
    113c:	1f05                	addi	t5,t5,-31
    113e:	04097803          	0x4097803
    1142:	0100                	addi	s0,sp,128
    1144:	1b05                	addi	s6,s6,-31
    1146:	04090003          	lb	zero,64(s2)
    114a:	0100                	addi	s0,sp,128
    114c:	0104                	addi	s1,sp,128
    114e:	1105                	addi	sp,sp,-31
    1150:	0306                	slli	t1,t1,0x1
    1152:	0939                	addi	s2,s2,14
    1154:	0008                	0x8
    1156:	0501                	addi	a0,a0,0
    1158:	0315                	addi	t1,t1,5
    115a:	00000903          	lb	s2,0(zero) # 0 <_text-0xa00000>
    115e:	0501                	addi	a0,a0,0
    1160:	0619                	addi	a2,a2,6
    1162:	00090003          	lb	zero,0(s2)
    1166:	0100                	addi	s0,sp,128
    1168:	1b05                	addi	s6,s6,-31
    116a:	08090003          	lb	zero,128(s2)
    116e:	0100                	addi	s0,sp,128
    1170:	1505                	addi	a0,a0,-31
    1172:	0306                	slli	t1,t1,0x1
    1174:	0904                	addi	s1,sp,144
    1176:	0008                	0x8
    1178:	0501                	addi	a0,a0,0
    117a:	0619                	addi	a2,a2,6
    117c:	00090003          	lb	zero,0(s2)
    1180:	0100                	addi	s0,sp,128
    1182:	1505                	addi	a0,a0,-31
    1184:	0306                	slli	t1,t1,0x1
    1186:	0901                	addi	s2,s2,0
    1188:	0004                	0x4
    118a:	0501                	addi	a0,a0,0
    118c:	061d                	addi	a2,a2,7
    118e:	00090003          	lb	zero,0(s2)
    1192:	0100                	addi	s0,sp,128
    1194:	0204                	addi	s1,sp,256
    1196:	0905                	addi	s2,s2,1
    1198:	0306                	slli	t1,t1,0x1
    119a:	0949                	addi	s2,s2,18
    119c:	0008                	0x8
    119e:	0501                	addi	a0,a0,0
    11a0:	0618                	addi	a4,sp,768
    11a2:	00090003          	lb	zero,0(s2)
    11a6:	0100                	addi	s0,sp,128
    11a8:	0905                	addi	s2,s2,1
    11aa:	04090003          	lb	zero,64(s2)
    11ae:	0100                	addi	s0,sp,128
    11b0:	0505                	addi	a0,a0,1
    11b2:	0306                	slli	t1,t1,0x1
    11b4:	0976                	slli	s2,s2,0x1d
    11b6:	0004                	0x4
    11b8:	0501                	addi	a0,a0,0
    11ba:	0003061b          	sext.w	a2,t1
    11be:	0009                	c.nop	2
    11c0:	0100                	addi	s0,sp,128
    11c2:	1f05                	addi	t5,t5,-31
    11c4:	10090003          	lb	zero,256(s2)
    11c8:	0100                	addi	s0,sp,128
    11ca:	0505                	addi	a0,a0,1
    11cc:	0306                	slli	t1,t1,0x1
    11ce:	0901                	addi	s2,s2,0
    11d0:	0008                	0x8
    11d2:	0501                	addi	a0,a0,0
    11d4:	0309                	addi	t1,t1,2
    11d6:	0901                	addi	s2,s2,0
    11d8:	0000                	unimp
    11da:	0501                	addi	a0,a0,0
    11dc:	0305                	addi	t1,t1,1
    11de:	00000977          	0x977
    11e2:	0501                	addi	a0,a0,0
    11e4:	0608                	addi	a0,sp,768
    11e6:	00090003          	lb	zero,0(s2)
    11ea:	0100                	addi	s0,sp,128
    11ec:	0c05                	addi	s8,s8,1
    11ee:	0306                	slli	t1,t1,0x1
    11f0:	090e                	slli	s2,s2,0x3
    11f2:	0004                	0x4
    11f4:	0501                	addi	a0,a0,0
    11f6:	0309                	addi	t1,t1,2
    11f8:	0901                	addi	s2,s2,0
    11fa:	000c                	0xc
    11fc:	0501                	addi	a0,a0,0
    11fe:	060c                	addi	a1,sp,768
    1200:	00090003          	lb	zero,0(s2)
    1204:	0100                	addi	s0,sp,128
    1206:	0d05                	addi	s10,s10,1
    1208:	0306                	slli	t1,t1,0x1
    120a:	0901                	addi	s2,s2,0
    120c:	0004                	0x4
    120e:	0501                	addi	a0,a0,0
    1210:	0305                	addi	t1,t1,1
    1212:	00000977          	0x977
    1216:	0501                	addi	a0,a0,0
    1218:	0003061b          	sext.w	a2,t1
    121c:	0009                	c.nop	2
    121e:	0100                	addi	s0,sp,128
    1220:	1f05                	addi	t5,t5,-31
    1222:	10090003          	lb	zero,256(s2)
    1226:	0100                	addi	s0,sp,128
    1228:	0505                	addi	a0,a0,1
    122a:	0306                	slli	t1,t1,0x1
    122c:	0901                	addi	s2,s2,0
    122e:	0008                	0x8
    1230:	0501                	addi	a0,a0,0
    1232:	0309                	addi	t1,t1,2
    1234:	0901                	addi	s2,s2,0
    1236:	0000                	unimp
    1238:	0501                	addi	a0,a0,0
    123a:	0305                	addi	t1,t1,1
    123c:	00000977          	0x977
    1240:	0501                	addi	a0,a0,0
    1242:	0608                	addi	a0,sp,768
    1244:	00090003          	lb	zero,0(s2)
    1248:	0100                	addi	s0,sp,128
    124a:	0905                	addi	s2,s2,1
    124c:	0306                	slli	t1,t1,0x1
    124e:	0901                	addi	s2,s2,0
    1250:	0004                	0x4
    1252:	0401                	addi	s0,s0,0
    1254:	03050503          	lb	a0,48(a0)
    1258:	0904                	addi	s1,sp,144
    125a:	0000                	unimp
    125c:	0401                	addi	s0,s0,0
    125e:	0504                	addi	s1,sp,640
    1260:	0302                	c.slli64	t1
    1262:	00000977          	0x977
    1266:	0501                	addi	a0,a0,0
    1268:	0003060f          	0x3060f
    126c:	0009                	c.nop	2
    126e:	0100                	addi	s0,sp,128
    1270:	0205                	addi	tp,tp,1
    1272:	0306                	slli	t1,t1,0x1
    1274:	0901                	addi	s2,s2,0
    1276:	0004                	0x4
    1278:	0501                	addi	a0,a0,0
    127a:	0003060f          	0x3060f
    127e:	0009                	c.nop	2
    1280:	0100                	addi	s0,sp,128
    1282:	0205                	addi	tp,tp,1
    1284:	0306                	slli	t1,t1,0x1
    1286:	0901                	addi	s2,s2,0
    1288:	0004                	0x4
    128a:	0501                	addi	a0,a0,0
    128c:	0003060f          	0x3060f
    1290:	0009                	c.nop	2
    1292:	0100                	addi	s0,sp,128
    1294:	0205                	addi	tp,tp,1
    1296:	0306                	slli	t1,t1,0x1
    1298:	0901                	addi	s2,s2,0
    129a:	0004                	0x4
    129c:	0501                	addi	a0,a0,0
    129e:	0003060f          	0x3060f
    12a2:	0009                	c.nop	2
    12a4:	0100                	addi	s0,sp,128
    12a6:	0205                	addi	tp,tp,1
    12a8:	0306                	slli	t1,t1,0x1
    12aa:	0901                	addi	s2,s2,0
    12ac:	0004                	0x4
    12ae:	0501                	addi	a0,a0,0
    12b0:	0003060f          	0x3060f
    12b4:	0009                	c.nop	2
    12b6:	0100                	addi	s0,sp,128
    12b8:	0205                	addi	tp,tp,1
    12ba:	0306                	slli	t1,t1,0x1
    12bc:	0901                	addi	s2,s2,0
    12be:	0004                	0x4
    12c0:	0501                	addi	a0,a0,0
    12c2:	0003060f          	0x3060f
    12c6:	0009                	c.nop	2
    12c8:	0100                	addi	s0,sp,128
    12ca:	0205                	addi	tp,tp,1
    12cc:	0306                	slli	t1,t1,0x1
    12ce:	0901                	addi	s2,s2,0
    12d0:	0004                	0x4
    12d2:	0501                	addi	a0,a0,0
    12d4:	0610                	addi	a2,sp,768
    12d6:	00090003          	lb	zero,0(s2)
    12da:	0100                	addi	s0,sp,128
    12dc:	0205                	addi	tp,tp,1
    12de:	0306                	slli	t1,t1,0x1
    12e0:	0901                	addi	s2,s2,0
    12e2:	0004                	0x4
    12e4:	0301                	addi	t1,t1,0
    12e6:	0902                	c.slli64	s2
    12e8:	0004                	0x4
    12ea:	0401                	addi	s0,s0,0
    12ec:	0502                	c.slli64	a0
    12ee:	0309                	addi	t1,t1,2
    12f0:	097d                	addi	s2,s2,31
    12f2:	0000                	unimp
    12f4:	0301                	addi	t1,t1,0
    12f6:	0000090f          	0x90f
    12fa:	0501                	addi	a0,a0,0
    12fc:	0618                	addi	a4,sp,768
    12fe:	00090003          	lb	zero,0(s2)
    1302:	0100                	addi	s0,sp,128
    1304:	0905                	addi	s2,s2,1
    1306:	04090003          	lb	zero,64(s2)
    130a:	0100                	addi	s0,sp,128
    130c:	0505                	addi	a0,a0,1
    130e:	0306                	slli	t1,t1,0x1
    1310:	0976                	slli	s2,s2,0x1d
    1312:	0004                	0x4
    1314:	0501                	addi	a0,a0,0
    1316:	0003061b          	sext.w	a2,t1
    131a:	0009                	c.nop	2
    131c:	0100                	addi	s0,sp,128
    131e:	1f05                	addi	t5,t5,-31
    1320:	04090003          	lb	zero,64(s2)
    1324:	0100                	addi	s0,sp,128
    1326:	0505                	addi	a0,a0,1
    1328:	0306                	slli	t1,t1,0x1
    132a:	0901                	addi	s2,s2,0
    132c:	0004                	0x4
    132e:	0501                	addi	a0,a0,0
    1330:	0309                	addi	t1,t1,2
    1332:	0901                	addi	s2,s2,0
    1334:	0000                	unimp
    1336:	0501                	addi	a0,a0,0
    1338:	0305                	addi	t1,t1,1
    133a:	00000977          	0x977
    133e:	0501                	addi	a0,a0,0
    1340:	0309                	addi	t1,t1,2
    1342:	0901                	addi	s2,s2,0
    1344:	0004                	0x4
    1346:	0401                	addi	s0,s0,0
    1348:	03050503          	lb	a0,48(a0)
    134c:	0904                	addi	s1,sp,144
    134e:	0000                	unimp
    1350:	0401                	addi	s0,s0,0
    1352:	0504                	addi	s1,sp,640
    1354:	0302                	c.slli64	t1
    1356:	00000977          	0x977
    135a:	0501                	addi	a0,a0,0
    135c:	0003060f          	0x3060f
    1360:	0009                	c.nop	2
    1362:	0100                	addi	s0,sp,128
    1364:	0205                	addi	tp,tp,1
    1366:	0306                	slli	t1,t1,0x1
    1368:	0901                	addi	s2,s2,0
    136a:	0004                	0x4
    136c:	0501                	addi	a0,a0,0
    136e:	0003060f          	0x3060f
    1372:	0009                	c.nop	2
    1374:	0100                	addi	s0,sp,128
    1376:	0205                	addi	tp,tp,1
    1378:	0306                	slli	t1,t1,0x1
    137a:	0901                	addi	s2,s2,0
    137c:	0004                	0x4
    137e:	0501                	addi	a0,a0,0
    1380:	0003060f          	0x3060f
    1384:	0009                	c.nop	2
    1386:	0100                	addi	s0,sp,128
    1388:	0205                	addi	tp,tp,1
    138a:	0306                	slli	t1,t1,0x1
    138c:	0901                	addi	s2,s2,0
    138e:	0004                	0x4
    1390:	0501                	addi	a0,a0,0
    1392:	0003060f          	0x3060f
    1396:	0009                	c.nop	2
    1398:	0100                	addi	s0,sp,128
    139a:	0205                	addi	tp,tp,1
    139c:	0306                	slli	t1,t1,0x1
    139e:	0901                	addi	s2,s2,0
    13a0:	0004                	0x4
    13a2:	0501                	addi	a0,a0,0
    13a4:	0003060f          	0x3060f
    13a8:	0009                	c.nop	2
    13aa:	0100                	addi	s0,sp,128
    13ac:	0205                	addi	tp,tp,1
    13ae:	0306                	slli	t1,t1,0x1
    13b0:	0901                	addi	s2,s2,0
    13b2:	0004                	0x4
    13b4:	0501                	addi	a0,a0,0
    13b6:	0003060f          	0x3060f
    13ba:	0009                	c.nop	2
    13bc:	0100                	addi	s0,sp,128
    13be:	0205                	addi	tp,tp,1
    13c0:	0306                	slli	t1,t1,0x1
    13c2:	0901                	addi	s2,s2,0
    13c4:	0004                	0x4
    13c6:	0501                	addi	a0,a0,0
    13c8:	0610                	addi	a2,sp,768
    13ca:	00090003          	lb	zero,0(s2)
    13ce:	0100                	addi	s0,sp,128
    13d0:	0205                	addi	tp,tp,1
    13d2:	0306                	slli	t1,t1,0x1
    13d4:	0901                	addi	s2,s2,0
    13d6:	0004                	0x4
    13d8:	0301                	addi	t1,t1,0
    13da:	0902                	c.slli64	s2
    13dc:	0004                	0x4
    13de:	0401                	addi	s0,s0,0
    13e0:	0502                	c.slli64	a0
    13e2:	0309                	addi	t1,t1,2
    13e4:	097d                	addi	s2,s2,31
    13e6:	0000                	unimp
    13e8:	0501                	addi	a0,a0,0
    13ea:	00030613          	mv	a2,t1
    13ee:	0009                	c.nop	2
    13f0:	0100                	addi	s0,sp,128
    13f2:	0104                	addi	s1,sp,128
    13f4:	0905                	addi	s2,s2,1
    13f6:	08093503          	ld	a0,128(s2)
    13fa:	0100                	addi	s0,sp,128
    13fc:	1105                	addi	sp,sp,-31
    13fe:	0306                	slli	t1,t1,0x1
    1400:	091a                	slli	s2,s2,0x6
    1402:	0014                	0x14
    1404:	0501                	addi	a0,a0,0
    1406:	0614                	addi	a3,sp,768
    1408:	00090003          	lb	zero,0(s2)
    140c:	0100                	addi	s0,sp,128
    140e:	1505                	addi	a0,a0,-31
    1410:	0306                	slli	t1,t1,0x1
    1412:	0901                	addi	s2,s2,0
    1414:	0004                	0x4
    1416:	0501                	addi	a0,a0,0
    1418:	0619                	addi	a2,a2,6
    141a:	00090003          	lb	zero,0(s2)
    141e:	0100                	addi	s0,sp,128
    1420:	1105                	addi	sp,sp,-31
    1422:	0306                	slli	t1,t1,0x1
    1424:	0905                	addi	s2,s2,1
    1426:	0008                	0x8
    1428:	0301                	addi	t1,t1,0
    142a:	0901                	addi	s2,s2,0
    142c:	0018                	0x18
    142e:	0401                	addi	s0,s0,0
    1430:	0502                	c.slli64	a0
    1432:	0305                	addi	t1,t1,1
    1434:	7fb6                	ld	t6,360(sp)
    1436:	0009                	c.nop	2
    1438:	0100                	addi	s0,sp,128
    143a:	0c05                	addi	s8,s8,1
    143c:	00090003          	lb	zero,0(s2)
    1440:	0100                	addi	s0,sp,128
    1442:	0306                	slli	t1,t1,0x1
    1444:	0901                	addi	s2,s2,0
    1446:	000c                	0xc
    1448:	0501                	addi	a0,a0,0
    144a:	031f 0978 0004      	0x40978031f
    1450:	0501                	addi	a0,a0,0
    1452:	0900031b          	addiw	t1,zero,144
    1456:	0004                	0x4
    1458:	0401                	addi	s0,s0,0
    145a:	0501                	addi	a0,a0,0
    145c:	0615                	addi	a2,a2,5
    145e:	0900cd03          	lbu	s10,144(ra)
    1462:	0008                	0x8
    1464:	0501                	addi	a0,a0,0
    1466:	0619                	addi	a2,a2,6
    1468:	00090003          	lb	zero,0(s2)
    146c:	0100                	addi	s0,sp,128
    146e:	1b05                	addi	s6,s6,-31
    1470:	04090003          	lb	zero,64(s2)
    1474:	0100                	addi	s0,sp,128
    1476:	0204                	addi	s1,sp,256
    1478:	0905                	addi	s2,s2,1
    147a:	0306                	slli	t1,t1,0x1
    147c:	7fbd                	lui	t6,0xfffef
    147e:	0809                	addi	a6,a6,2
    1480:	0100                	addi	s0,sp,128
    1482:	1805                	addi	a6,a6,-31
    1484:	0306                	slli	t1,t1,0x1
    1486:	0900                	addi	s0,sp,144
    1488:	0000                	unimp
    148a:	0501                	addi	a0,a0,0
    148c:	0309                	addi	t1,t1,2
    148e:	0900                	addi	s0,sp,144
    1490:	0004                	0x4
    1492:	0501                	addi	a0,a0,0
    1494:	0605                	addi	a2,a2,1
    1496:	04097603          	0x4097603
    149a:	0100                	addi	s0,sp,128
    149c:	1b05                	addi	s6,s6,-31
    149e:	0306                	slli	t1,t1,0x1
    14a0:	0900                	addi	s0,sp,144
    14a2:	0000                	unimp
    14a4:	0501                	addi	a0,a0,0
    14a6:	031f 0900 0010      	0x100900031f
    14ac:	0501                	addi	a0,a0,0
    14ae:	0605                	addi	a2,a2,1
    14b0:	08090103          	lb	sp,128(s2)
    14b4:	0100                	addi	s0,sp,128
    14b6:	0905                	addi	s2,s2,1
    14b8:	00090103          	lb	sp,0(s2)
    14bc:	0100                	addi	s0,sp,128
    14be:	0505                	addi	a0,a0,1
    14c0:	00097703          	0x97703
    14c4:	0100                	addi	s0,sp,128
    14c6:	0805                	addi	a6,a6,1
    14c8:	0306                	slli	t1,t1,0x1
    14ca:	0900                	addi	s0,sp,144
    14cc:	0000                	unimp
    14ce:	0501                	addi	a0,a0,0
    14d0:	060c                	addi	a1,sp,768
    14d2:	04090e03          	lb	t3,64(s2)
    14d6:	0100                	addi	s0,sp,128
    14d8:	0905                	addi	s2,s2,1
    14da:	0c090103          	lb	sp,192(s2)
    14de:	0100                	addi	s0,sp,128
    14e0:	0c05                	addi	s8,s8,1
    14e2:	0306                	slli	t1,t1,0x1
    14e4:	0900                	addi	s0,sp,144
    14e6:	0000                	unimp
    14e8:	0501                	addi	a0,a0,0
    14ea:	060d                	addi	a2,a2,3
    14ec:	04090103          	lb	sp,64(s2)
    14f0:	0100                	addi	s0,sp,128
    14f2:	0505                	addi	a0,a0,1
    14f4:	00097703          	0x97703
    14f8:	0100                	addi	s0,sp,128
    14fa:	1b05                	addi	s6,s6,-31
    14fc:	0306                	slli	t1,t1,0x1
    14fe:	0900                	addi	s0,sp,144
    1500:	0000                	unimp
    1502:	0501                	addi	a0,a0,0
    1504:	031f 0900 0010      	0x100900031f
    150a:	0501                	addi	a0,a0,0
    150c:	0605                	addi	a2,a2,1
    150e:	08090103          	lb	sp,128(s2)
    1512:	0100                	addi	s0,sp,128
    1514:	0905                	addi	s2,s2,1
    1516:	00090103          	lb	sp,0(s2)
    151a:	0100                	addi	s0,sp,128
    151c:	0505                	addi	a0,a0,1
    151e:	00097703          	0x97703
    1522:	0100                	addi	s0,sp,128
    1524:	0805                	addi	a6,a6,1
    1526:	0306                	slli	t1,t1,0x1
    1528:	0900                	addi	s0,sp,144
    152a:	0000                	unimp
    152c:	0501                	addi	a0,a0,0
    152e:	0609                	addi	a2,a2,2
    1530:	04090103          	lb	sp,64(s2)
    1534:	0100                	addi	s0,sp,128
    1536:	0304                	addi	s1,sp,384
    1538:	0505                	addi	a0,a0,1
    153a:	00090403          	lb	s0,0(s2)
    153e:	0100                	addi	s0,sp,128
    1540:	0404                	addi	s1,sp,512
    1542:	0205                	addi	tp,tp,1
    1544:	00097703          	0x97703
    1548:	0100                	addi	s0,sp,128
    154a:	0f05                	addi	t5,t5,1
    154c:	0306                	slli	t1,t1,0x1
    154e:	0900                	addi	s0,sp,144
    1550:	0000                	unimp
    1552:	0501                	addi	a0,a0,0
    1554:	0602                	c.slli64	a2
    1556:	04090103          	lb	sp,64(s2)
    155a:	0100                	addi	s0,sp,128
    155c:	0f05                	addi	t5,t5,1
    155e:	0306                	slli	t1,t1,0x1
    1560:	0900                	addi	s0,sp,144
    1562:	0000                	unimp
    1564:	0501                	addi	a0,a0,0
    1566:	0602                	c.slli64	a2
    1568:	04090103          	lb	sp,64(s2)
    156c:	0100                	addi	s0,sp,128
    156e:	0f05                	addi	t5,t5,1
    1570:	0306                	slli	t1,t1,0x1
    1572:	0900                	addi	s0,sp,144
    1574:	0000                	unimp
    1576:	0501                	addi	a0,a0,0
    1578:	0602                	c.slli64	a2
    157a:	04090103          	lb	sp,64(s2)
    157e:	0100                	addi	s0,sp,128
    1580:	0f05                	addi	t5,t5,1
    1582:	0306                	slli	t1,t1,0x1
    1584:	0900                	addi	s0,sp,144
    1586:	0000                	unimp
    1588:	0501                	addi	a0,a0,0
    158a:	0602                	c.slli64	a2
    158c:	04090103          	lb	sp,64(s2)
    1590:	0100                	addi	s0,sp,128
    1592:	0f05                	addi	t5,t5,1
    1594:	0306                	slli	t1,t1,0x1
    1596:	0900                	addi	s0,sp,144
    1598:	0000                	unimp
    159a:	0501                	addi	a0,a0,0
    159c:	0602                	c.slli64	a2
    159e:	04090103          	lb	sp,64(s2)
    15a2:	0100                	addi	s0,sp,128
    15a4:	0f05                	addi	t5,t5,1
    15a6:	0306                	slli	t1,t1,0x1
    15a8:	0900                	addi	s0,sp,144
    15aa:	0000                	unimp
    15ac:	0501                	addi	a0,a0,0
    15ae:	0602                	c.slli64	a2
    15b0:	04090103          	lb	sp,64(s2)
    15b4:	0100                	addi	s0,sp,128
    15b6:	1005                	c.nop	-31
    15b8:	0306                	slli	t1,t1,0x1
    15ba:	0900                	addi	s0,sp,144
    15bc:	0000                	unimp
    15be:	0501                	addi	a0,a0,0
    15c0:	0602                	c.slli64	a2
    15c2:	04090103          	lb	sp,64(s2)
    15c6:	0100                	addi	s0,sp,128
    15c8:	04090203          	lb	tp,64(s2)
    15cc:	0100                	addi	s0,sp,128
    15ce:	0204                	addi	s1,sp,256
    15d0:	0905                	addi	s2,s2,1
    15d2:	00097d03          	0x97d03
    15d6:	0100                	addi	s0,sp,128
    15d8:	00090f03          	lb	t5,0(s2)
    15dc:	0100                	addi	s0,sp,128
    15de:	1805                	addi	a6,a6,-31
    15e0:	0306                	slli	t1,t1,0x1
    15e2:	0900                	addi	s0,sp,144
    15e4:	0000                	unimp
    15e6:	0501                	addi	a0,a0,0
    15e8:	0309                	addi	t1,t1,2
    15ea:	0900                	addi	s0,sp,144
    15ec:	0004                	0x4
    15ee:	0501                	addi	a0,a0,0
    15f0:	0605                	addi	a2,a2,1
    15f2:	04097603          	0x4097603
    15f6:	0100                	addi	s0,sp,128
    15f8:	1b05                	addi	s6,s6,-31
    15fa:	0306                	slli	t1,t1,0x1
    15fc:	0900                	addi	s0,sp,144
    15fe:	0000                	unimp
    1600:	0501                	addi	a0,a0,0
    1602:	031f 0900 0004      	0x40900031f
    1608:	0501                	addi	a0,a0,0
    160a:	0605                	addi	a2,a2,1
    160c:	04090103          	lb	sp,64(s2)
    1610:	0100                	addi	s0,sp,128
    1612:	0905                	addi	s2,s2,1
    1614:	00090103          	lb	sp,0(s2)
    1618:	0100                	addi	s0,sp,128
    161a:	0505                	addi	a0,a0,1
    161c:	00097703          	0x97703
    1620:	0100                	addi	s0,sp,128
    1622:	0905                	addi	s2,s2,1
    1624:	04090103          	lb	sp,64(s2)
    1628:	0100                	addi	s0,sp,128
    162a:	0304                	addi	s1,sp,384
    162c:	0505                	addi	a0,a0,1
    162e:	00090403          	lb	s0,0(s2)
    1632:	0100                	addi	s0,sp,128
    1634:	0404                	addi	s1,sp,512
    1636:	0205                	addi	tp,tp,1
    1638:	00097703          	0x97703
    163c:	0100                	addi	s0,sp,128
    163e:	0f05                	addi	t5,t5,1
    1640:	0306                	slli	t1,t1,0x1
    1642:	0900                	addi	s0,sp,144
    1644:	0000                	unimp
    1646:	0501                	addi	a0,a0,0
    1648:	0602                	c.slli64	a2
    164a:	04090103          	lb	sp,64(s2)
    164e:	0100                	addi	s0,sp,128
    1650:	0f05                	addi	t5,t5,1
    1652:	0306                	slli	t1,t1,0x1
    1654:	0900                	addi	s0,sp,144
    1656:	0000                	unimp
    1658:	0501                	addi	a0,a0,0
    165a:	0602                	c.slli64	a2
    165c:	04090103          	lb	sp,64(s2)
    1660:	0100                	addi	s0,sp,128
    1662:	0f05                	addi	t5,t5,1
    1664:	0306                	slli	t1,t1,0x1
    1666:	0900                	addi	s0,sp,144
    1668:	0000                	unimp
    166a:	0501                	addi	a0,a0,0
    166c:	0602                	c.slli64	a2
    166e:	04090103          	lb	sp,64(s2)
    1672:	0100                	addi	s0,sp,128
    1674:	0f05                	addi	t5,t5,1
    1676:	0306                	slli	t1,t1,0x1
    1678:	0900                	addi	s0,sp,144
    167a:	0000                	unimp
    167c:	0501                	addi	a0,a0,0
    167e:	0602                	c.slli64	a2
    1680:	04090103          	lb	sp,64(s2)
    1684:	0100                	addi	s0,sp,128
    1686:	0f05                	addi	t5,t5,1
    1688:	0306                	slli	t1,t1,0x1
    168a:	0900                	addi	s0,sp,144
    168c:	0000                	unimp
    168e:	0501                	addi	a0,a0,0
    1690:	0602                	c.slli64	a2
    1692:	04090103          	lb	sp,64(s2)
    1696:	0100                	addi	s0,sp,128
    1698:	0f05                	addi	t5,t5,1
    169a:	0306                	slli	t1,t1,0x1
    169c:	0900                	addi	s0,sp,144
    169e:	0000                	unimp
    16a0:	0501                	addi	a0,a0,0
    16a2:	0602                	c.slli64	a2
    16a4:	04090103          	lb	sp,64(s2)
    16a8:	0100                	addi	s0,sp,128
    16aa:	1005                	c.nop	-31
    16ac:	0306                	slli	t1,t1,0x1
    16ae:	0900                	addi	s0,sp,144
    16b0:	0000                	unimp
    16b2:	0501                	addi	a0,a0,0
    16b4:	0602                	c.slli64	a2
    16b6:	04090103          	lb	sp,64(s2)
    16ba:	0100                	addi	s0,sp,128
    16bc:	04090203          	lb	tp,64(s2)
    16c0:	0100                	addi	s0,sp,128
    16c2:	0204                	addi	s1,sp,256
    16c4:	0905                	addi	s2,s2,1
    16c6:	00097d03          	0x97d03
    16ca:	0100                	addi	s0,sp,128
    16cc:	1305                	addi	t1,t1,-31
    16ce:	0306                	slli	t1,t1,0x1
    16d0:	0900                	addi	s0,sp,144
    16d2:	0000                	unimp
    16d4:	0401                	addi	s0,s0,0
    16d6:	0501                	addi	a0,a0,0
    16d8:	0309                	addi	t1,t1,2
    16da:	0935                	addi	s2,s2,13
    16dc:	0008                	0x8
    16de:	0501                	addi	a0,a0,0
    16e0:	0611                	addi	a2,a2,4
    16e2:	14092603          	lw	a2,320(s2)
    16e6:	0100                	addi	s0,sp,128
    16e8:	1405                	addi	s0,s0,-31
    16ea:	0306                	slli	t1,t1,0x1
    16ec:	0900                	addi	s0,sp,144
    16ee:	0000                	unimp
    16f0:	0501                	addi	a0,a0,0
    16f2:	0615                	addi	a2,a2,5
    16f4:	04090103          	lb	sp,64(s2)
    16f8:	0100                	addi	s0,sp,128
    16fa:	1905                	addi	s2,s2,-31
    16fc:	0306                	slli	t1,t1,0x1
    16fe:	0900                	addi	s0,sp,144
    1700:	0000                	unimp
    1702:	0501                	addi	a0,a0,0
    1704:	060e                	slli	a2,a2,0x3
    1706:	08090503          	lb	a0,128(s2)
    170a:	0100                	addi	s0,sp,128
    170c:	1105                	addi	sp,sp,-31
    170e:	18090103          	lb	sp,384(s2)
    1712:	0100                	addi	s0,sp,128
    1714:	0204                	addi	s1,sp,256
    1716:	0505                	addi	a0,a0,1
    1718:	097faa03          	lw	s4,151(t6) # fffffffffffef097 <end+0xfffffffffefed097>
    171c:	0000                	unimp
    171e:	0501                	addi	a0,a0,0
    1720:	030c                	addi	a1,sp,384
    1722:	0900                	addi	s0,sp,144
    1724:	0000                	unimp
    1726:	0601                	addi	a2,a2,0
    1728:	0c090103          	lb	sp,192(s2)
    172c:	0100                	addi	s0,sp,128
    172e:	1f05                	addi	t5,t5,-31
    1730:	04097803          	0x4097803
    1734:	0100                	addi	s0,sp,128
    1736:	1b05                	addi	s6,s6,-31
    1738:	04090003          	lb	zero,64(s2)
    173c:	0100                	addi	s0,sp,128
    173e:	0104                	addi	s1,sp,128
    1740:	1505                	addi	a0,a0,-31
    1742:	0306                	slli	t1,t1,0x1
    1744:	00d9                	addi	ra,ra,22
    1746:	0809                	addi	a6,a6,2
    1748:	0100                	addi	s0,sp,128
    174a:	1905                	addi	s2,s2,-31
    174c:	0306                	slli	t1,t1,0x1
    174e:	0900                	addi	s0,sp,144
    1750:	0000                	unimp
    1752:	0501                	addi	a0,a0,0
    1754:	0900031b          	addiw	t1,zero,144
    1758:	0004                	0x4
    175a:	0401                	addi	s0,s0,0
    175c:	0502                	c.slli64	a0
    175e:	0609                	addi	a2,a2,2
    1760:	097fb103          	ld	sp,151(t6)
    1764:	0008                	0x8
    1766:	0501                	addi	a0,a0,0
    1768:	0618                	addi	a4,sp,768
    176a:	00090003          	lb	zero,0(s2)
    176e:	0100                	addi	s0,sp,128
    1770:	0905                	addi	s2,s2,1
    1772:	04090003          	lb	zero,64(s2)
    1776:	0100                	addi	s0,sp,128
    1778:	0505                	addi	a0,a0,1
    177a:	0306                	slli	t1,t1,0x1
    177c:	0976                	slli	s2,s2,0x1d
    177e:	0004                	0x4
    1780:	0501                	addi	a0,a0,0
    1782:	0003061b          	sext.w	a2,t1
    1786:	0009                	c.nop	2
    1788:	0100                	addi	s0,sp,128
    178a:	1f05                	addi	t5,t5,-31
    178c:	10090003          	lb	zero,256(s2)
    1790:	0100                	addi	s0,sp,128
    1792:	0505                	addi	a0,a0,1
    1794:	0306                	slli	t1,t1,0x1
    1796:	0901                	addi	s2,s2,0
    1798:	0008                	0x8
    179a:	0501                	addi	a0,a0,0
    179c:	0309                	addi	t1,t1,2
    179e:	0901                	addi	s2,s2,0
    17a0:	0000                	unimp
    17a2:	0501                	addi	a0,a0,0
    17a4:	0305                	addi	t1,t1,1
    17a6:	00000977          	0x977
    17aa:	0501                	addi	a0,a0,0
    17ac:	0608                	addi	a0,sp,768
    17ae:	00090003          	lb	zero,0(s2)
    17b2:	0100                	addi	s0,sp,128
    17b4:	0c05                	addi	s8,s8,1
    17b6:	0306                	slli	t1,t1,0x1
    17b8:	090e                	slli	s2,s2,0x3
    17ba:	0004                	0x4
    17bc:	0501                	addi	a0,a0,0
    17be:	0309                	addi	t1,t1,2
    17c0:	0901                	addi	s2,s2,0
    17c2:	000c                	0xc
    17c4:	0501                	addi	a0,a0,0
    17c6:	060c                	addi	a1,sp,768
    17c8:	00090003          	lb	zero,0(s2)
    17cc:	0100                	addi	s0,sp,128
    17ce:	0d05                	addi	s10,s10,1
    17d0:	0306                	slli	t1,t1,0x1
    17d2:	0901                	addi	s2,s2,0
    17d4:	0004                	0x4
    17d6:	0501                	addi	a0,a0,0
    17d8:	0305                	addi	t1,t1,1
    17da:	00000977          	0x977
    17de:	0501                	addi	a0,a0,0
    17e0:	0003061b          	sext.w	a2,t1
    17e4:	0009                	c.nop	2
    17e6:	0100                	addi	s0,sp,128
    17e8:	1f05                	addi	t5,t5,-31
    17ea:	10090003          	lb	zero,256(s2)
    17ee:	0100                	addi	s0,sp,128
    17f0:	0505                	addi	a0,a0,1
    17f2:	0306                	slli	t1,t1,0x1
    17f4:	0901                	addi	s2,s2,0
    17f6:	0008                	0x8
    17f8:	0501                	addi	a0,a0,0
    17fa:	0309                	addi	t1,t1,2
    17fc:	0901                	addi	s2,s2,0
    17fe:	0000                	unimp
    1800:	0501                	addi	a0,a0,0
    1802:	0305                	addi	t1,t1,1
    1804:	00000977          	0x977
    1808:	0501                	addi	a0,a0,0
    180a:	0608                	addi	a0,sp,768
    180c:	00090003          	lb	zero,0(s2)
    1810:	0100                	addi	s0,sp,128
    1812:	0905                	addi	s2,s2,1
    1814:	0306                	slli	t1,t1,0x1
    1816:	0901                	addi	s2,s2,0
    1818:	0004                	0x4
    181a:	0401                	addi	s0,s0,0
    181c:	03050503          	lb	a0,48(a0)
    1820:	0904                	addi	s1,sp,144
    1822:	0000                	unimp
    1824:	0401                	addi	s0,s0,0
    1826:	0504                	addi	s1,sp,640
    1828:	0302                	c.slli64	t1
    182a:	00000977          	0x977
    182e:	0501                	addi	a0,a0,0
    1830:	0003060f          	0x3060f
    1834:	0009                	c.nop	2
    1836:	0100                	addi	s0,sp,128
    1838:	0205                	addi	tp,tp,1
    183a:	0306                	slli	t1,t1,0x1
    183c:	0901                	addi	s2,s2,0
    183e:	0004                	0x4
    1840:	0501                	addi	a0,a0,0
    1842:	0003060f          	0x3060f
    1846:	0009                	c.nop	2
    1848:	0100                	addi	s0,sp,128
    184a:	0205                	addi	tp,tp,1
    184c:	0306                	slli	t1,t1,0x1
    184e:	0901                	addi	s2,s2,0
    1850:	0004                	0x4
    1852:	0501                	addi	a0,a0,0
    1854:	0003060f          	0x3060f
    1858:	0009                	c.nop	2
    185a:	0100                	addi	s0,sp,128
    185c:	0205                	addi	tp,tp,1
    185e:	0306                	slli	t1,t1,0x1
    1860:	0901                	addi	s2,s2,0
    1862:	0004                	0x4
    1864:	0501                	addi	a0,a0,0
    1866:	0003060f          	0x3060f
    186a:	0009                	c.nop	2
    186c:	0100                	addi	s0,sp,128
    186e:	0205                	addi	tp,tp,1
    1870:	0306                	slli	t1,t1,0x1
    1872:	0901                	addi	s2,s2,0
    1874:	0004                	0x4
    1876:	0501                	addi	a0,a0,0
    1878:	0003060f          	0x3060f
    187c:	0009                	c.nop	2
    187e:	0100                	addi	s0,sp,128
    1880:	0205                	addi	tp,tp,1
    1882:	0306                	slli	t1,t1,0x1
    1884:	0901                	addi	s2,s2,0
    1886:	0004                	0x4
    1888:	0501                	addi	a0,a0,0
    188a:	0003060f          	0x3060f
    188e:	0009                	c.nop	2
    1890:	0100                	addi	s0,sp,128
    1892:	0205                	addi	tp,tp,1
    1894:	0306                	slli	t1,t1,0x1
    1896:	0901                	addi	s2,s2,0
    1898:	0004                	0x4
    189a:	0501                	addi	a0,a0,0
    189c:	0610                	addi	a2,sp,768
    189e:	00090003          	lb	zero,0(s2)
    18a2:	0100                	addi	s0,sp,128
    18a4:	0205                	addi	tp,tp,1
    18a6:	0306                	slli	t1,t1,0x1
    18a8:	0901                	addi	s2,s2,0
    18aa:	0004                	0x4
    18ac:	0301                	addi	t1,t1,0
    18ae:	0902                	c.slli64	s2
    18b0:	0004                	0x4
    18b2:	0401                	addi	s0,s0,0
    18b4:	0502                	c.slli64	a0
    18b6:	0309                	addi	t1,t1,2
    18b8:	097d                	addi	s2,s2,31
    18ba:	0000                	unimp
    18bc:	0301                	addi	t1,t1,0
    18be:	0000090f          	0x90f
    18c2:	0501                	addi	a0,a0,0
    18c4:	0618                	addi	a4,sp,768
    18c6:	00090003          	lb	zero,0(s2)
    18ca:	0100                	addi	s0,sp,128
    18cc:	0905                	addi	s2,s2,1
    18ce:	04090003          	lb	zero,64(s2)
    18d2:	0100                	addi	s0,sp,128
    18d4:	0505                	addi	a0,a0,1
    18d6:	0306                	slli	t1,t1,0x1
    18d8:	0976                	slli	s2,s2,0x1d
    18da:	0004                	0x4
    18dc:	0501                	addi	a0,a0,0
    18de:	0003061b          	sext.w	a2,t1
    18e2:	0009                	c.nop	2
    18e4:	0100                	addi	s0,sp,128
    18e6:	1f05                	addi	t5,t5,-31
    18e8:	04090003          	lb	zero,64(s2)
    18ec:	0100                	addi	s0,sp,128
    18ee:	0505                	addi	a0,a0,1
    18f0:	0306                	slli	t1,t1,0x1
    18f2:	0901                	addi	s2,s2,0
    18f4:	0004                	0x4
    18f6:	0501                	addi	a0,a0,0
    18f8:	0309                	addi	t1,t1,2
    18fa:	0901                	addi	s2,s2,0
    18fc:	0000                	unimp
    18fe:	0501                	addi	a0,a0,0
    1900:	0305                	addi	t1,t1,1
    1902:	00000977          	0x977
    1906:	0501                	addi	a0,a0,0
    1908:	0309                	addi	t1,t1,2
    190a:	0901                	addi	s2,s2,0
    190c:	0004                	0x4
    190e:	0401                	addi	s0,s0,0
    1910:	03050503          	lb	a0,48(a0)
    1914:	0904                	addi	s1,sp,144
    1916:	0000                	unimp
    1918:	0401                	addi	s0,s0,0
    191a:	0504                	addi	s1,sp,640
    191c:	0302                	c.slli64	t1
    191e:	00000977          	0x977
    1922:	0501                	addi	a0,a0,0
    1924:	0003060f          	0x3060f
    1928:	0009                	c.nop	2
    192a:	0100                	addi	s0,sp,128
    192c:	0205                	addi	tp,tp,1
    192e:	0306                	slli	t1,t1,0x1
    1930:	0901                	addi	s2,s2,0
    1932:	0004                	0x4
    1934:	0501                	addi	a0,a0,0
    1936:	0003060f          	0x3060f
    193a:	0009                	c.nop	2
    193c:	0100                	addi	s0,sp,128
    193e:	0205                	addi	tp,tp,1
    1940:	0306                	slli	t1,t1,0x1
    1942:	0901                	addi	s2,s2,0
    1944:	0004                	0x4
    1946:	0501                	addi	a0,a0,0
    1948:	0003060f          	0x3060f
    194c:	0009                	c.nop	2
    194e:	0100                	addi	s0,sp,128
    1950:	0205                	addi	tp,tp,1
    1952:	0306                	slli	t1,t1,0x1
    1954:	0901                	addi	s2,s2,0
    1956:	0004                	0x4
    1958:	0501                	addi	a0,a0,0
    195a:	0003060f          	0x3060f
    195e:	0009                	c.nop	2
    1960:	0100                	addi	s0,sp,128
    1962:	0205                	addi	tp,tp,1
    1964:	0306                	slli	t1,t1,0x1
    1966:	0901                	addi	s2,s2,0
    1968:	0004                	0x4
    196a:	0501                	addi	a0,a0,0
    196c:	0003060f          	0x3060f
    1970:	0009                	c.nop	2
    1972:	0100                	addi	s0,sp,128
    1974:	0205                	addi	tp,tp,1
    1976:	0306                	slli	t1,t1,0x1
    1978:	0901                	addi	s2,s2,0
    197a:	0004                	0x4
    197c:	0501                	addi	a0,a0,0
    197e:	0003060f          	0x3060f
    1982:	0009                	c.nop	2
    1984:	0100                	addi	s0,sp,128
    1986:	0205                	addi	tp,tp,1
    1988:	0306                	slli	t1,t1,0x1
    198a:	0901                	addi	s2,s2,0
    198c:	0004                	0x4
    198e:	0501                	addi	a0,a0,0
    1990:	0610                	addi	a2,sp,768
    1992:	00090003          	lb	zero,0(s2)
    1996:	0100                	addi	s0,sp,128
    1998:	0205                	addi	tp,tp,1
    199a:	0306                	slli	t1,t1,0x1
    199c:	0901                	addi	s2,s2,0
    199e:	0004                	0x4
    19a0:	0301                	addi	t1,t1,0
    19a2:	0902                	c.slli64	s2
    19a4:	0004                	0x4
    19a6:	0401                	addi	s0,s0,0
    19a8:	0502                	c.slli64	a0
    19aa:	0309                	addi	t1,t1,2
    19ac:	097d                	addi	s2,s2,31
    19ae:	0000                	unimp
    19b0:	0501                	addi	a0,a0,0
    19b2:	00030613          	mv	a2,t1
    19b6:	0009                	c.nop	2
    19b8:	0100                	addi	s0,sp,128
    19ba:	0104                	addi	s1,sp,128
    19bc:	0905                	addi	s2,s2,1
    19be:	08093503          	ld	a0,128(s2)
    19c2:	0100                	addi	s0,sp,128
    19c4:	1105                	addi	sp,sp,-31
    19c6:	0306                	slli	t1,t1,0x1
    19c8:	0931                	addi	s2,s2,12
    19ca:	0014                	0x14
    19cc:	0501                	addi	a0,a0,0
    19ce:	0614                	addi	a3,sp,768
    19d0:	00090003          	lb	zero,0(s2)
    19d4:	0100                	addi	s0,sp,128
    19d6:	1505                	addi	a0,a0,-31
    19d8:	0306                	slli	t1,t1,0x1
    19da:	0901                	addi	s2,s2,0
    19dc:	0004                	0x4
    19de:	0501                	addi	a0,a0,0
    19e0:	0619                	addi	a2,a2,6
    19e2:	00090003          	lb	zero,0(s2)
    19e6:	0100                	addi	s0,sp,128
    19e8:	1105                	addi	sp,sp,-31
    19ea:	0306                	slli	t1,t1,0x1
    19ec:	0905                	addi	s2,s2,1
    19ee:	0008                	0x8
    19f0:	0301                	addi	t1,t1,0
    19f2:	0901                	addi	s2,s2,0
    19f4:	0018                	0x18
    19f6:	0401                	addi	s0,s0,0
    19f8:	0502                	c.slli64	a0
    19fa:	0305                	addi	t1,t1,1
    19fc:	7f9f 0009 0100      	0x10000097f9f
    1a02:	0c05                	addi	s8,s8,1
    1a04:	00090003          	lb	zero,0(s2)
    1a08:	0100                	addi	s0,sp,128
    1a0a:	0306                	slli	t1,t1,0x1
    1a0c:	0901                	addi	s2,s2,0
    1a0e:	000c                	0xc
    1a10:	0501                	addi	a0,a0,0
    1a12:	031f 0978 0004      	0x40978031f
    1a18:	0501                	addi	a0,a0,0
    1a1a:	0900031b          	addiw	t1,zero,144
    1a1e:	0004                	0x4
    1a20:	0401                	addi	s0,s0,0
    1a22:	0501                	addi	a0,a0,0
    1a24:	0615                	addi	a2,a2,5
    1a26:	0900e403          	lwu	s0,144(ra)
    1a2a:	0008                	0x8
    1a2c:	0501                	addi	a0,a0,0
    1a2e:	0619                	addi	a2,a2,6
    1a30:	00090003          	lb	zero,0(s2)
    1a34:	0100                	addi	s0,sp,128
    1a36:	1b05                	addi	s6,s6,-31
    1a38:	04090003          	lb	zero,64(s2)
    1a3c:	0100                	addi	s0,sp,128
    1a3e:	0204                	addi	s1,sp,256
    1a40:	0905                	addi	s2,s2,1
    1a42:	0306                	slli	t1,t1,0x1
    1a44:	7fa6                	ld	t6,104(sp)
    1a46:	0809                	addi	a6,a6,2
    1a48:	0100                	addi	s0,sp,128
    1a4a:	1805                	addi	a6,a6,-31
    1a4c:	0306                	slli	t1,t1,0x1
    1a4e:	0900                	addi	s0,sp,144
    1a50:	0000                	unimp
    1a52:	0501                	addi	a0,a0,0
    1a54:	0309                	addi	t1,t1,2
    1a56:	0900                	addi	s0,sp,144
    1a58:	0004                	0x4
    1a5a:	0501                	addi	a0,a0,0
    1a5c:	0605                	addi	a2,a2,1
    1a5e:	04097603          	0x4097603
    1a62:	0100                	addi	s0,sp,128
    1a64:	1b05                	addi	s6,s6,-31
    1a66:	0306                	slli	t1,t1,0x1
    1a68:	0900                	addi	s0,sp,144
    1a6a:	0000                	unimp
    1a6c:	0501                	addi	a0,a0,0
    1a6e:	031f 0900 0010      	0x100900031f
    1a74:	0501                	addi	a0,a0,0
    1a76:	0605                	addi	a2,a2,1
    1a78:	08090103          	lb	sp,128(s2)
    1a7c:	0100                	addi	s0,sp,128
    1a7e:	0905                	addi	s2,s2,1
    1a80:	00090103          	lb	sp,0(s2)
    1a84:	0100                	addi	s0,sp,128
    1a86:	0505                	addi	a0,a0,1
    1a88:	00097703          	0x97703
    1a8c:	0100                	addi	s0,sp,128
    1a8e:	0805                	addi	a6,a6,1
    1a90:	0306                	slli	t1,t1,0x1
    1a92:	0900                	addi	s0,sp,144
    1a94:	0000                	unimp
    1a96:	0501                	addi	a0,a0,0
    1a98:	060c                	addi	a1,sp,768
    1a9a:	04090e03          	lb	t3,64(s2)
    1a9e:	0100                	addi	s0,sp,128
    1aa0:	0905                	addi	s2,s2,1
    1aa2:	0c090103          	lb	sp,192(s2)
    1aa6:	0100                	addi	s0,sp,128
    1aa8:	0c05                	addi	s8,s8,1
    1aaa:	0306                	slli	t1,t1,0x1
    1aac:	0900                	addi	s0,sp,144
    1aae:	0000                	unimp
    1ab0:	0501                	addi	a0,a0,0
    1ab2:	060d                	addi	a2,a2,3
    1ab4:	04090103          	lb	sp,64(s2)
    1ab8:	0100                	addi	s0,sp,128
    1aba:	0505                	addi	a0,a0,1
    1abc:	00097703          	0x97703
    1ac0:	0100                	addi	s0,sp,128
    1ac2:	1b05                	addi	s6,s6,-31
    1ac4:	0306                	slli	t1,t1,0x1
    1ac6:	0900                	addi	s0,sp,144
    1ac8:	0000                	unimp
    1aca:	0501                	addi	a0,a0,0
    1acc:	031f 0900 0010      	0x100900031f
    1ad2:	0501                	addi	a0,a0,0
    1ad4:	0605                	addi	a2,a2,1
    1ad6:	08090103          	lb	sp,128(s2)
    1ada:	0100                	addi	s0,sp,128
    1adc:	0905                	addi	s2,s2,1
    1ade:	00090103          	lb	sp,0(s2)
    1ae2:	0100                	addi	s0,sp,128
    1ae4:	0505                	addi	a0,a0,1
    1ae6:	00097703          	0x97703
    1aea:	0100                	addi	s0,sp,128
    1aec:	0805                	addi	a6,a6,1
    1aee:	0306                	slli	t1,t1,0x1
    1af0:	0900                	addi	s0,sp,144
    1af2:	0000                	unimp
    1af4:	0501                	addi	a0,a0,0
    1af6:	0609                	addi	a2,a2,2
    1af8:	04090103          	lb	sp,64(s2)
    1afc:	0100                	addi	s0,sp,128
    1afe:	0304                	addi	s1,sp,384
    1b00:	0505                	addi	a0,a0,1
    1b02:	00090403          	lb	s0,0(s2)
    1b06:	0100                	addi	s0,sp,128
    1b08:	0404                	addi	s1,sp,512
    1b0a:	0205                	addi	tp,tp,1
    1b0c:	00097703          	0x97703
    1b10:	0100                	addi	s0,sp,128
    1b12:	0f05                	addi	t5,t5,1
    1b14:	0306                	slli	t1,t1,0x1
    1b16:	0900                	addi	s0,sp,144
    1b18:	0000                	unimp
    1b1a:	0501                	addi	a0,a0,0
    1b1c:	0602                	c.slli64	a2
    1b1e:	04090103          	lb	sp,64(s2)
    1b22:	0100                	addi	s0,sp,128
    1b24:	0f05                	addi	t5,t5,1
    1b26:	0306                	slli	t1,t1,0x1
    1b28:	0900                	addi	s0,sp,144
    1b2a:	0000                	unimp
    1b2c:	0501                	addi	a0,a0,0
    1b2e:	0602                	c.slli64	a2
    1b30:	04090103          	lb	sp,64(s2)
    1b34:	0100                	addi	s0,sp,128
    1b36:	0f05                	addi	t5,t5,1
    1b38:	0306                	slli	t1,t1,0x1
    1b3a:	0900                	addi	s0,sp,144
    1b3c:	0000                	unimp
    1b3e:	0501                	addi	a0,a0,0
    1b40:	0602                	c.slli64	a2
    1b42:	04090103          	lb	sp,64(s2)
    1b46:	0100                	addi	s0,sp,128
    1b48:	0f05                	addi	t5,t5,1
    1b4a:	0306                	slli	t1,t1,0x1
    1b4c:	0900                	addi	s0,sp,144
    1b4e:	0000                	unimp
    1b50:	0501                	addi	a0,a0,0
    1b52:	0602                	c.slli64	a2
    1b54:	04090103          	lb	sp,64(s2)
    1b58:	0100                	addi	s0,sp,128
    1b5a:	0f05                	addi	t5,t5,1
    1b5c:	0306                	slli	t1,t1,0x1
    1b5e:	0900                	addi	s0,sp,144
    1b60:	0000                	unimp
    1b62:	0501                	addi	a0,a0,0
    1b64:	0602                	c.slli64	a2
    1b66:	04090103          	lb	sp,64(s2)
    1b6a:	0100                	addi	s0,sp,128
    1b6c:	0f05                	addi	t5,t5,1
    1b6e:	0306                	slli	t1,t1,0x1
    1b70:	0900                	addi	s0,sp,144
    1b72:	0000                	unimp
    1b74:	0501                	addi	a0,a0,0
    1b76:	0602                	c.slli64	a2
    1b78:	04090103          	lb	sp,64(s2)
    1b7c:	0100                	addi	s0,sp,128
    1b7e:	1005                	c.nop	-31
    1b80:	0306                	slli	t1,t1,0x1
    1b82:	0900                	addi	s0,sp,144
    1b84:	0000                	unimp
    1b86:	0501                	addi	a0,a0,0
    1b88:	0602                	c.slli64	a2
    1b8a:	04090103          	lb	sp,64(s2)
    1b8e:	0100                	addi	s0,sp,128
    1b90:	04090203          	lb	tp,64(s2)
    1b94:	0100                	addi	s0,sp,128
    1b96:	0204                	addi	s1,sp,256
    1b98:	0905                	addi	s2,s2,1
    1b9a:	00097d03          	0x97d03
    1b9e:	0100                	addi	s0,sp,128
    1ba0:	00090f03          	lb	t5,0(s2)
    1ba4:	0100                	addi	s0,sp,128
    1ba6:	1805                	addi	a6,a6,-31
    1ba8:	0306                	slli	t1,t1,0x1
    1baa:	0900                	addi	s0,sp,144
    1bac:	0000                	unimp
    1bae:	0501                	addi	a0,a0,0
    1bb0:	0309                	addi	t1,t1,2
    1bb2:	0900                	addi	s0,sp,144
    1bb4:	0004                	0x4
    1bb6:	0501                	addi	a0,a0,0
    1bb8:	0605                	addi	a2,a2,1
    1bba:	04097603          	0x4097603
    1bbe:	0100                	addi	s0,sp,128
    1bc0:	1b05                	addi	s6,s6,-31
    1bc2:	0306                	slli	t1,t1,0x1
    1bc4:	0900                	addi	s0,sp,144
    1bc6:	0000                	unimp
    1bc8:	0501                	addi	a0,a0,0
    1bca:	031f 0900 0004      	0x40900031f
    1bd0:	0501                	addi	a0,a0,0
    1bd2:	0605                	addi	a2,a2,1
    1bd4:	04090103          	lb	sp,64(s2)
    1bd8:	0100                	addi	s0,sp,128
    1bda:	0905                	addi	s2,s2,1
    1bdc:	00090103          	lb	sp,0(s2)
    1be0:	0100                	addi	s0,sp,128
    1be2:	0505                	addi	a0,a0,1
    1be4:	00097703          	0x97703
    1be8:	0100                	addi	s0,sp,128
    1bea:	0905                	addi	s2,s2,1
    1bec:	04090103          	lb	sp,64(s2)
    1bf0:	0100                	addi	s0,sp,128
    1bf2:	0304                	addi	s1,sp,384
    1bf4:	0505                	addi	a0,a0,1
    1bf6:	00090403          	lb	s0,0(s2)
    1bfa:	0100                	addi	s0,sp,128
    1bfc:	0404                	addi	s1,sp,512
    1bfe:	0205                	addi	tp,tp,1
    1c00:	00097703          	0x97703
    1c04:	0100                	addi	s0,sp,128
    1c06:	0f05                	addi	t5,t5,1
    1c08:	0306                	slli	t1,t1,0x1
    1c0a:	0900                	addi	s0,sp,144
    1c0c:	0000                	unimp
    1c0e:	0501                	addi	a0,a0,0
    1c10:	0602                	c.slli64	a2
    1c12:	04090103          	lb	sp,64(s2)
    1c16:	0100                	addi	s0,sp,128
    1c18:	0f05                	addi	t5,t5,1
    1c1a:	0306                	slli	t1,t1,0x1
    1c1c:	0900                	addi	s0,sp,144
    1c1e:	0000                	unimp
    1c20:	0501                	addi	a0,a0,0
    1c22:	0602                	c.slli64	a2
    1c24:	04090103          	lb	sp,64(s2)
    1c28:	0100                	addi	s0,sp,128
    1c2a:	0f05                	addi	t5,t5,1
    1c2c:	0306                	slli	t1,t1,0x1
    1c2e:	0900                	addi	s0,sp,144
    1c30:	0000                	unimp
    1c32:	0501                	addi	a0,a0,0
    1c34:	0602                	c.slli64	a2
    1c36:	04090103          	lb	sp,64(s2)
    1c3a:	0100                	addi	s0,sp,128
    1c3c:	0f05                	addi	t5,t5,1
    1c3e:	0306                	slli	t1,t1,0x1
    1c40:	0900                	addi	s0,sp,144
    1c42:	0000                	unimp
    1c44:	0501                	addi	a0,a0,0
    1c46:	0602                	c.slli64	a2
    1c48:	04090103          	lb	sp,64(s2)
    1c4c:	0100                	addi	s0,sp,128
    1c4e:	0f05                	addi	t5,t5,1
    1c50:	0306                	slli	t1,t1,0x1
    1c52:	0900                	addi	s0,sp,144
    1c54:	0000                	unimp
    1c56:	0501                	addi	a0,a0,0
    1c58:	0602                	c.slli64	a2
    1c5a:	04090103          	lb	sp,64(s2)
    1c5e:	0100                	addi	s0,sp,128
    1c60:	0f05                	addi	t5,t5,1
    1c62:	0306                	slli	t1,t1,0x1
    1c64:	0900                	addi	s0,sp,144
    1c66:	0000                	unimp
    1c68:	0501                	addi	a0,a0,0
    1c6a:	0602                	c.slli64	a2
    1c6c:	04090103          	lb	sp,64(s2)
    1c70:	0100                	addi	s0,sp,128
    1c72:	1005                	c.nop	-31
    1c74:	0306                	slli	t1,t1,0x1
    1c76:	0900                	addi	s0,sp,144
    1c78:	0000                	unimp
    1c7a:	0501                	addi	a0,a0,0
    1c7c:	0602                	c.slli64	a2
    1c7e:	04090103          	lb	sp,64(s2)
    1c82:	0100                	addi	s0,sp,128
    1c84:	04090203          	lb	tp,64(s2)
    1c88:	0100                	addi	s0,sp,128
    1c8a:	0204                	addi	s1,sp,256
    1c8c:	0905                	addi	s2,s2,1
    1c8e:	00097d03          	0x97d03
    1c92:	0100                	addi	s0,sp,128
    1c94:	1305                	addi	t1,t1,-31
    1c96:	0306                	slli	t1,t1,0x1
    1c98:	0900                	addi	s0,sp,144
    1c9a:	0000                	unimp
    1c9c:	0401                	addi	s0,s0,0
    1c9e:	0501                	addi	a0,a0,0
    1ca0:	0309                	addi	t1,t1,2
    1ca2:	0935                	addi	s2,s2,13
    1ca4:	0008                	0x8
    1ca6:	0501                	addi	a0,a0,0
    1ca8:	0611                	addi	a2,a2,4
    1caa:	14093c03          	ld	s8,320(s2)
    1cae:	0100                	addi	s0,sp,128
    1cb0:	1405                	addi	s0,s0,-31
    1cb2:	0306                	slli	t1,t1,0x1
    1cb4:	0900                	addi	s0,sp,144
    1cb6:	0000                	unimp
    1cb8:	0501                	addi	a0,a0,0
    1cba:	0615                	addi	a2,a2,5
    1cbc:	04090103          	lb	sp,64(s2)
    1cc0:	0100                	addi	s0,sp,128
    1cc2:	1905                	addi	s2,s2,-31
    1cc4:	0306                	slli	t1,t1,0x1
    1cc6:	0900                	addi	s0,sp,144
    1cc8:	0000                	unimp
    1cca:	0501                	addi	a0,a0,0
    1ccc:	0611                	addi	a2,a2,4
    1cce:	08090503          	lb	a0,128(s2)
    1cd2:	0100                	addi	s0,sp,128
    1cd4:	18090103          	lb	sp,384(s2)
    1cd8:	0100                	addi	s0,sp,128
    1cda:	0204                	addi	s1,sp,256
    1cdc:	0505                	addi	a0,a0,1
    1cde:	097f9403          	lh	s0,151(t6)
    1ce2:	0000                	unimp
    1ce4:	0501                	addi	a0,a0,0
    1ce6:	030c                	addi	a1,sp,384
    1ce8:	0900                	addi	s0,sp,144
    1cea:	0000                	unimp
    1cec:	0601                	addi	a2,a2,0
    1cee:	0c090103          	lb	sp,192(s2)
    1cf2:	0100                	addi	s0,sp,128
    1cf4:	1f05                	addi	t5,t5,-31
    1cf6:	04097803          	0x4097803
    1cfa:	0100                	addi	s0,sp,128
    1cfc:	1b05                	addi	s6,s6,-31
    1cfe:	04090003          	lb	zero,64(s2)
    1d02:	0100                	addi	s0,sp,128
    1d04:	0104                	addi	s1,sp,128
    1d06:	1505                	addi	a0,a0,-31
    1d08:	0306                	slli	t1,t1,0x1
    1d0a:	080900ef          	jal	ra,91d8a <_text-0x96e276>
    1d0e:	0100                	addi	s0,sp,128
    1d10:	1905                	addi	s2,s2,-31
    1d12:	0306                	slli	t1,t1,0x1
    1d14:	0900                	addi	s0,sp,144
    1d16:	0000                	unimp
    1d18:	0501                	addi	a0,a0,0
    1d1a:	0900031b          	addiw	t1,zero,144
    1d1e:	0004                	0x4
    1d20:	0401                	addi	s0,s0,0
    1d22:	0502                	c.slli64	a0
    1d24:	0609                	addi	a2,a2,2
    1d26:	097f9b03          	lh	s6,151(t6)
    1d2a:	0008                	0x8
    1d2c:	0501                	addi	a0,a0,0
    1d2e:	0618                	addi	a4,sp,768
    1d30:	00090003          	lb	zero,0(s2)
    1d34:	0100                	addi	s0,sp,128
    1d36:	0905                	addi	s2,s2,1
    1d38:	04090003          	lb	zero,64(s2)
    1d3c:	0100                	addi	s0,sp,128
    1d3e:	0505                	addi	a0,a0,1
    1d40:	0306                	slli	t1,t1,0x1
    1d42:	0976                	slli	s2,s2,0x1d
    1d44:	0004                	0x4
    1d46:	0501                	addi	a0,a0,0
    1d48:	0003061b          	sext.w	a2,t1
    1d4c:	0009                	c.nop	2
    1d4e:	0100                	addi	s0,sp,128
    1d50:	1f05                	addi	t5,t5,-31
    1d52:	10090003          	lb	zero,256(s2)
    1d56:	0100                	addi	s0,sp,128
    1d58:	0505                	addi	a0,a0,1
    1d5a:	0306                	slli	t1,t1,0x1
    1d5c:	0901                	addi	s2,s2,0
    1d5e:	0008                	0x8
    1d60:	0501                	addi	a0,a0,0
    1d62:	0309                	addi	t1,t1,2
    1d64:	0901                	addi	s2,s2,0
    1d66:	0000                	unimp
    1d68:	0501                	addi	a0,a0,0
    1d6a:	0305                	addi	t1,t1,1
    1d6c:	00000977          	0x977
    1d70:	0501                	addi	a0,a0,0
    1d72:	0608                	addi	a0,sp,768
    1d74:	00090003          	lb	zero,0(s2)
    1d78:	0100                	addi	s0,sp,128
    1d7a:	0c05                	addi	s8,s8,1
    1d7c:	0306                	slli	t1,t1,0x1
    1d7e:	090e                	slli	s2,s2,0x3
    1d80:	0004                	0x4
    1d82:	0501                	addi	a0,a0,0
    1d84:	0309                	addi	t1,t1,2
    1d86:	0901                	addi	s2,s2,0
    1d88:	000c                	0xc
    1d8a:	0501                	addi	a0,a0,0
    1d8c:	060c                	addi	a1,sp,768
    1d8e:	00090003          	lb	zero,0(s2)
    1d92:	0100                	addi	s0,sp,128
    1d94:	0d05                	addi	s10,s10,1
    1d96:	0306                	slli	t1,t1,0x1
    1d98:	0901                	addi	s2,s2,0
    1d9a:	0004                	0x4
    1d9c:	0501                	addi	a0,a0,0
    1d9e:	0305                	addi	t1,t1,1
    1da0:	00000977          	0x977
    1da4:	0501                	addi	a0,a0,0
    1da6:	0003061b          	sext.w	a2,t1
    1daa:	0009                	c.nop	2
    1dac:	0100                	addi	s0,sp,128
    1dae:	1f05                	addi	t5,t5,-31
    1db0:	10090003          	lb	zero,256(s2)
    1db4:	0100                	addi	s0,sp,128
    1db6:	0505                	addi	a0,a0,1
    1db8:	0306                	slli	t1,t1,0x1
    1dba:	0901                	addi	s2,s2,0
    1dbc:	0008                	0x8
    1dbe:	0501                	addi	a0,a0,0
    1dc0:	0309                	addi	t1,t1,2
    1dc2:	0901                	addi	s2,s2,0
    1dc4:	0000                	unimp
    1dc6:	0501                	addi	a0,a0,0
    1dc8:	0305                	addi	t1,t1,1
    1dca:	00000977          	0x977
    1dce:	0501                	addi	a0,a0,0
    1dd0:	0608                	addi	a0,sp,768
    1dd2:	00090003          	lb	zero,0(s2)
    1dd6:	0100                	addi	s0,sp,128
    1dd8:	0905                	addi	s2,s2,1
    1dda:	0306                	slli	t1,t1,0x1
    1ddc:	0901                	addi	s2,s2,0
    1dde:	0004                	0x4
    1de0:	0401                	addi	s0,s0,0
    1de2:	03050503          	lb	a0,48(a0)
    1de6:	0904                	addi	s1,sp,144
    1de8:	0000                	unimp
    1dea:	0401                	addi	s0,s0,0
    1dec:	0504                	addi	s1,sp,640
    1dee:	0302                	c.slli64	t1
    1df0:	00000977          	0x977
    1df4:	0501                	addi	a0,a0,0
    1df6:	0003060f          	0x3060f
    1dfa:	0009                	c.nop	2
    1dfc:	0100                	addi	s0,sp,128
    1dfe:	0205                	addi	tp,tp,1
    1e00:	0306                	slli	t1,t1,0x1
    1e02:	0901                	addi	s2,s2,0
    1e04:	0004                	0x4
    1e06:	0501                	addi	a0,a0,0
    1e08:	0003060f          	0x3060f
    1e0c:	0009                	c.nop	2
    1e0e:	0100                	addi	s0,sp,128
    1e10:	0205                	addi	tp,tp,1
    1e12:	0306                	slli	t1,t1,0x1
    1e14:	0901                	addi	s2,s2,0
    1e16:	0004                	0x4
    1e18:	0501                	addi	a0,a0,0
    1e1a:	0003060f          	0x3060f
    1e1e:	0009                	c.nop	2
    1e20:	0100                	addi	s0,sp,128
    1e22:	0205                	addi	tp,tp,1
    1e24:	0306                	slli	t1,t1,0x1
    1e26:	0901                	addi	s2,s2,0
    1e28:	0004                	0x4
    1e2a:	0501                	addi	a0,a0,0
    1e2c:	0003060f          	0x3060f
    1e30:	0009                	c.nop	2
    1e32:	0100                	addi	s0,sp,128
    1e34:	0205                	addi	tp,tp,1
    1e36:	0306                	slli	t1,t1,0x1
    1e38:	0901                	addi	s2,s2,0
    1e3a:	0004                	0x4
    1e3c:	0501                	addi	a0,a0,0
    1e3e:	0003060f          	0x3060f
    1e42:	0009                	c.nop	2
    1e44:	0100                	addi	s0,sp,128
    1e46:	0205                	addi	tp,tp,1
    1e48:	0306                	slli	t1,t1,0x1
    1e4a:	0901                	addi	s2,s2,0
    1e4c:	0004                	0x4
    1e4e:	0501                	addi	a0,a0,0
    1e50:	0003060f          	0x3060f
    1e54:	0009                	c.nop	2
    1e56:	0100                	addi	s0,sp,128
    1e58:	0205                	addi	tp,tp,1
    1e5a:	0306                	slli	t1,t1,0x1
    1e5c:	0901                	addi	s2,s2,0
    1e5e:	0004                	0x4
    1e60:	0501                	addi	a0,a0,0
    1e62:	0610                	addi	a2,sp,768
    1e64:	00090003          	lb	zero,0(s2)
    1e68:	0100                	addi	s0,sp,128
    1e6a:	0205                	addi	tp,tp,1
    1e6c:	0306                	slli	t1,t1,0x1
    1e6e:	0901                	addi	s2,s2,0
    1e70:	0004                	0x4
    1e72:	0301                	addi	t1,t1,0
    1e74:	0902                	c.slli64	s2
    1e76:	0004                	0x4
    1e78:	0401                	addi	s0,s0,0
    1e7a:	0502                	c.slli64	a0
    1e7c:	0309                	addi	t1,t1,2
    1e7e:	097d                	addi	s2,s2,31
    1e80:	0000                	unimp
    1e82:	0301                	addi	t1,t1,0
    1e84:	0000090f          	0x90f
    1e88:	0501                	addi	a0,a0,0
    1e8a:	0618                	addi	a4,sp,768
    1e8c:	00090003          	lb	zero,0(s2)
    1e90:	0100                	addi	s0,sp,128
    1e92:	0905                	addi	s2,s2,1
    1e94:	04090003          	lb	zero,64(s2)
    1e98:	0100                	addi	s0,sp,128
    1e9a:	0505                	addi	a0,a0,1
    1e9c:	0306                	slli	t1,t1,0x1
    1e9e:	0976                	slli	s2,s2,0x1d
    1ea0:	0004                	0x4
    1ea2:	0501                	addi	a0,a0,0
    1ea4:	0003061b          	sext.w	a2,t1
    1ea8:	0009                	c.nop	2
    1eaa:	0100                	addi	s0,sp,128
    1eac:	1f05                	addi	t5,t5,-31
    1eae:	04090003          	lb	zero,64(s2)
    1eb2:	0100                	addi	s0,sp,128
    1eb4:	0505                	addi	a0,a0,1
    1eb6:	0306                	slli	t1,t1,0x1
    1eb8:	0901                	addi	s2,s2,0
    1eba:	0004                	0x4
    1ebc:	0501                	addi	a0,a0,0
    1ebe:	0309                	addi	t1,t1,2
    1ec0:	0901                	addi	s2,s2,0
    1ec2:	0000                	unimp
    1ec4:	0501                	addi	a0,a0,0
    1ec6:	0305                	addi	t1,t1,1
    1ec8:	00000977          	0x977
    1ecc:	0501                	addi	a0,a0,0
    1ece:	0309                	addi	t1,t1,2
    1ed0:	0901                	addi	s2,s2,0
    1ed2:	0004                	0x4
    1ed4:	0401                	addi	s0,s0,0
    1ed6:	03050503          	lb	a0,48(a0)
    1eda:	0904                	addi	s1,sp,144
    1edc:	0000                	unimp
    1ede:	0401                	addi	s0,s0,0
    1ee0:	0504                	addi	s1,sp,640
    1ee2:	0302                	c.slli64	t1
    1ee4:	00000977          	0x977
    1ee8:	0501                	addi	a0,a0,0
    1eea:	0003060f          	0x3060f
    1eee:	0009                	c.nop	2
    1ef0:	0100                	addi	s0,sp,128
    1ef2:	0205                	addi	tp,tp,1
    1ef4:	0306                	slli	t1,t1,0x1
    1ef6:	0901                	addi	s2,s2,0
    1ef8:	0004                	0x4
    1efa:	0501                	addi	a0,a0,0
    1efc:	0003060f          	0x3060f
    1f00:	0009                	c.nop	2
    1f02:	0100                	addi	s0,sp,128
    1f04:	0205                	addi	tp,tp,1
    1f06:	0306                	slli	t1,t1,0x1
    1f08:	0901                	addi	s2,s2,0
    1f0a:	0004                	0x4
    1f0c:	0501                	addi	a0,a0,0
    1f0e:	0003060f          	0x3060f
    1f12:	0009                	c.nop	2
    1f14:	0100                	addi	s0,sp,128
    1f16:	0205                	addi	tp,tp,1
    1f18:	0306                	slli	t1,t1,0x1
    1f1a:	0901                	addi	s2,s2,0
    1f1c:	0004                	0x4
    1f1e:	0501                	addi	a0,a0,0
    1f20:	0003060f          	0x3060f
    1f24:	0009                	c.nop	2
    1f26:	0100                	addi	s0,sp,128
    1f28:	0205                	addi	tp,tp,1
    1f2a:	0306                	slli	t1,t1,0x1
    1f2c:	0901                	addi	s2,s2,0
    1f2e:	0004                	0x4
    1f30:	0501                	addi	a0,a0,0
    1f32:	0003060f          	0x3060f
    1f36:	0009                	c.nop	2
    1f38:	0100                	addi	s0,sp,128
    1f3a:	0205                	addi	tp,tp,1
    1f3c:	0306                	slli	t1,t1,0x1
    1f3e:	0901                	addi	s2,s2,0
    1f40:	0004                	0x4
    1f42:	0501                	addi	a0,a0,0
    1f44:	0003060f          	0x3060f
    1f48:	0009                	c.nop	2
    1f4a:	0100                	addi	s0,sp,128
    1f4c:	0205                	addi	tp,tp,1
    1f4e:	0306                	slli	t1,t1,0x1
    1f50:	0901                	addi	s2,s2,0
    1f52:	0004                	0x4
    1f54:	0501                	addi	a0,a0,0
    1f56:	0610                	addi	a2,sp,768
    1f58:	00090003          	lb	zero,0(s2)
    1f5c:	0100                	addi	s0,sp,128
    1f5e:	0205                	addi	tp,tp,1
    1f60:	0306                	slli	t1,t1,0x1
    1f62:	0901                	addi	s2,s2,0
    1f64:	0004                	0x4
    1f66:	0301                	addi	t1,t1,0
    1f68:	0902                	c.slli64	s2
    1f6a:	0004                	0x4
    1f6c:	0401                	addi	s0,s0,0
    1f6e:	0502                	c.slli64	a0
    1f70:	0309                	addi	t1,t1,2
    1f72:	097d                	addi	s2,s2,31
    1f74:	0000                	unimp
    1f76:	0501                	addi	a0,a0,0
    1f78:	00030613          	mv	a2,t1
    1f7c:	0009                	c.nop	2
    1f7e:	0100                	addi	s0,sp,128
    1f80:	0104                	addi	s1,sp,128
    1f82:	0905                	addi	s2,s2,1
    1f84:	08093503          	ld	a0,128(s2)
    1f88:	0100                	addi	s0,sp,128
    1f8a:	1105                	addi	sp,sp,-31
    1f8c:	0306                	slli	t1,t1,0x1
    1f8e:	0c0900c7          	0xc0900c7
    1f92:	0100                	addi	s0,sp,128
    1f94:	1805                	addi	a6,a6,-31
    1f96:	0306                	slli	t1,t1,0x1
    1f98:	0900                	addi	s0,sp,144
    1f9a:	0000                	unimp
    1f9c:	0501                	addi	a0,a0,0
    1f9e:	0314                	addi	a3,sp,384
    1fa0:	0900                	addi	s0,sp,144
    1fa2:	0008                	0x8
    1fa4:	0501                	addi	a0,a0,0
    1fa6:	0611                	addi	a2,a2,4
    1fa8:	04090403          	lb	s0,64(s2)
    1fac:	0100                	addi	s0,sp,128
    1fae:	14090103          	lb	sp,320(s2)
    1fb2:	0100                	addi	s0,sp,128
    1fb4:	0204                	addi	s1,sp,256
    1fb6:	0505                	addi	a0,a0,1
    1fb8:	097f8b03          	lb	s6,151(t6)
    1fbc:	0000                	unimp
    1fbe:	0501                	addi	a0,a0,0
    1fc0:	030c                	addi	a1,sp,384
    1fc2:	0900                	addi	s0,sp,144
    1fc4:	0000                	unimp
    1fc6:	0601                	addi	a2,a2,0
    1fc8:	0c090103          	lb	sp,192(s2)
    1fcc:	0100                	addi	s0,sp,128
    1fce:	1f05                	addi	t5,t5,-31
    1fd0:	04097803          	0x4097803
    1fd4:	0100                	addi	s0,sp,128
    1fd6:	1b05                	addi	s6,s6,-31
    1fd8:	04090003          	lb	zero,64(s2)
    1fdc:	0100                	addi	s0,sp,128
    1fde:	0104                	addi	s1,sp,128
    1fe0:	1705                	addi	a4,a4,-31
    1fe2:	0900f803          	0x900f803
    1fe6:	0008                	0x8
    1fe8:	0401                	addi	s0,s0,0
    1fea:	0502                	c.slli64	a0
    1fec:	0609                	addi	a2,a2,2
    1fee:	097f9203          	lh	tp,151(t6)
    1ff2:	000c                	0xc
    1ff4:	0501                	addi	a0,a0,0
    1ff6:	0618                	addi	a4,sp,768
    1ff8:	00090003          	lb	zero,0(s2)
    1ffc:	0100                	addi	s0,sp,128
    1ffe:	0905                	addi	s2,s2,1
    2000:	04090003          	lb	zero,64(s2)
    2004:	0100                	addi	s0,sp,128
    2006:	0505                	addi	a0,a0,1
    2008:	0306                	slli	t1,t1,0x1
    200a:	0976                	slli	s2,s2,0x1d
    200c:	0004                	0x4
    200e:	0501                	addi	a0,a0,0
    2010:	0003061b          	sext.w	a2,t1
    2014:	0009                	c.nop	2
    2016:	0100                	addi	s0,sp,128
    2018:	1f05                	addi	t5,t5,-31
    201a:	10090003          	lb	zero,256(s2)
    201e:	0100                	addi	s0,sp,128
    2020:	0505                	addi	a0,a0,1
    2022:	0306                	slli	t1,t1,0x1
    2024:	0901                	addi	s2,s2,0
    2026:	0008                	0x8
    2028:	0501                	addi	a0,a0,0
    202a:	0309                	addi	t1,t1,2
    202c:	0901                	addi	s2,s2,0
    202e:	0000                	unimp
    2030:	0501                	addi	a0,a0,0
    2032:	0305                	addi	t1,t1,1
    2034:	00000977          	0x977
    2038:	0501                	addi	a0,a0,0
    203a:	0608                	addi	a0,sp,768
    203c:	00090003          	lb	zero,0(s2)
    2040:	0100                	addi	s0,sp,128
    2042:	0c05                	addi	s8,s8,1
    2044:	0306                	slli	t1,t1,0x1
    2046:	090e                	slli	s2,s2,0x3
    2048:	0004                	0x4
    204a:	0501                	addi	a0,a0,0
    204c:	0309                	addi	t1,t1,2
    204e:	0901                	addi	s2,s2,0
    2050:	000c                	0xc
    2052:	0501                	addi	a0,a0,0
    2054:	060c                	addi	a1,sp,768
    2056:	00090003          	lb	zero,0(s2)
    205a:	0100                	addi	s0,sp,128
    205c:	0d05                	addi	s10,s10,1
    205e:	0306                	slli	t1,t1,0x1
    2060:	0901                	addi	s2,s2,0
    2062:	0004                	0x4
    2064:	0501                	addi	a0,a0,0
    2066:	0305                	addi	t1,t1,1
    2068:	00000977          	0x977
    206c:	0501                	addi	a0,a0,0
    206e:	0003061b          	sext.w	a2,t1
    2072:	0009                	c.nop	2
    2074:	0100                	addi	s0,sp,128
    2076:	1f05                	addi	t5,t5,-31
    2078:	10090003          	lb	zero,256(s2)
    207c:	0100                	addi	s0,sp,128
    207e:	0505                	addi	a0,a0,1
    2080:	0306                	slli	t1,t1,0x1
    2082:	0901                	addi	s2,s2,0
    2084:	0008                	0x8
    2086:	0501                	addi	a0,a0,0
    2088:	0309                	addi	t1,t1,2
    208a:	0901                	addi	s2,s2,0
    208c:	0000                	unimp
    208e:	0501                	addi	a0,a0,0
    2090:	0305                	addi	t1,t1,1
    2092:	00000977          	0x977
    2096:	0501                	addi	a0,a0,0
    2098:	0608                	addi	a0,sp,768
    209a:	00090003          	lb	zero,0(s2)
    209e:	0100                	addi	s0,sp,128
    20a0:	0905                	addi	s2,s2,1
    20a2:	0306                	slli	t1,t1,0x1
    20a4:	0901                	addi	s2,s2,0
    20a6:	0004                	0x4
    20a8:	0401                	addi	s0,s0,0
    20aa:	03050503          	lb	a0,48(a0)
    20ae:	0904                	addi	s1,sp,144
    20b0:	0000                	unimp
    20b2:	0401                	addi	s0,s0,0
    20b4:	0504                	addi	s1,sp,640
    20b6:	0302                	c.slli64	t1
    20b8:	00000977          	0x977
    20bc:	0501                	addi	a0,a0,0
    20be:	0003060f          	0x3060f
    20c2:	0009                	c.nop	2
    20c4:	0100                	addi	s0,sp,128
    20c6:	0205                	addi	tp,tp,1
    20c8:	0306                	slli	t1,t1,0x1
    20ca:	0901                	addi	s2,s2,0
    20cc:	0004                	0x4
    20ce:	0501                	addi	a0,a0,0
    20d0:	0003060f          	0x3060f
    20d4:	0009                	c.nop	2
    20d6:	0100                	addi	s0,sp,128
    20d8:	0205                	addi	tp,tp,1
    20da:	0306                	slli	t1,t1,0x1
    20dc:	0901                	addi	s2,s2,0
    20de:	0004                	0x4
    20e0:	0501                	addi	a0,a0,0
    20e2:	0003060f          	0x3060f
    20e6:	0009                	c.nop	2
    20e8:	0100                	addi	s0,sp,128
    20ea:	0205                	addi	tp,tp,1
    20ec:	0306                	slli	t1,t1,0x1
    20ee:	0901                	addi	s2,s2,0
    20f0:	0004                	0x4
    20f2:	0501                	addi	a0,a0,0
    20f4:	0003060f          	0x3060f
    20f8:	0009                	c.nop	2
    20fa:	0100                	addi	s0,sp,128
    20fc:	0205                	addi	tp,tp,1
    20fe:	0306                	slli	t1,t1,0x1
    2100:	0901                	addi	s2,s2,0
    2102:	0004                	0x4
    2104:	0501                	addi	a0,a0,0
    2106:	0003060f          	0x3060f
    210a:	0009                	c.nop	2
    210c:	0100                	addi	s0,sp,128
    210e:	0205                	addi	tp,tp,1
    2110:	0306                	slli	t1,t1,0x1
    2112:	0901                	addi	s2,s2,0
    2114:	0004                	0x4
    2116:	0501                	addi	a0,a0,0
    2118:	0003060f          	0x3060f
    211c:	0009                	c.nop	2
    211e:	0100                	addi	s0,sp,128
    2120:	0205                	addi	tp,tp,1
    2122:	0306                	slli	t1,t1,0x1
    2124:	0901                	addi	s2,s2,0
    2126:	0004                	0x4
    2128:	0501                	addi	a0,a0,0
    212a:	0610                	addi	a2,sp,768
    212c:	00090003          	lb	zero,0(s2)
    2130:	0100                	addi	s0,sp,128
    2132:	0205                	addi	tp,tp,1
    2134:	0306                	slli	t1,t1,0x1
    2136:	0901                	addi	s2,s2,0
    2138:	0004                	0x4
    213a:	0301                	addi	t1,t1,0
    213c:	0902                	c.slli64	s2
    213e:	0004                	0x4
    2140:	0401                	addi	s0,s0,0
    2142:	0502                	c.slli64	a0
    2144:	0309                	addi	t1,t1,2
    2146:	097d                	addi	s2,s2,31
    2148:	0000                	unimp
    214a:	0301                	addi	t1,t1,0
    214c:	0000090f          	0x90f
    2150:	0501                	addi	a0,a0,0
    2152:	0618                	addi	a4,sp,768
    2154:	00090003          	lb	zero,0(s2)
    2158:	0100                	addi	s0,sp,128
    215a:	0905                	addi	s2,s2,1
    215c:	04090003          	lb	zero,64(s2)
    2160:	0100                	addi	s0,sp,128
    2162:	0505                	addi	a0,a0,1
    2164:	0306                	slli	t1,t1,0x1
    2166:	0976                	slli	s2,s2,0x1d
    2168:	0004                	0x4
    216a:	0501                	addi	a0,a0,0
    216c:	0003061b          	sext.w	a2,t1
    2170:	0009                	c.nop	2
    2172:	0100                	addi	s0,sp,128
    2174:	1f05                	addi	t5,t5,-31
    2176:	04090003          	lb	zero,64(s2)
    217a:	0100                	addi	s0,sp,128
    217c:	0505                	addi	a0,a0,1
    217e:	0306                	slli	t1,t1,0x1
    2180:	0901                	addi	s2,s2,0
    2182:	0004                	0x4
    2184:	0501                	addi	a0,a0,0
    2186:	0309                	addi	t1,t1,2
    2188:	0901                	addi	s2,s2,0
    218a:	0000                	unimp
    218c:	0501                	addi	a0,a0,0
    218e:	0305                	addi	t1,t1,1
    2190:	00000977          	0x977
    2194:	0501                	addi	a0,a0,0
    2196:	0309                	addi	t1,t1,2
    2198:	0901                	addi	s2,s2,0
    219a:	0004                	0x4
    219c:	0401                	addi	s0,s0,0
    219e:	03050503          	lb	a0,48(a0)
    21a2:	0904                	addi	s1,sp,144
    21a4:	0000                	unimp
    21a6:	0401                	addi	s0,s0,0
    21a8:	0504                	addi	s1,sp,640
    21aa:	0302                	c.slli64	t1
    21ac:	00000977          	0x977
    21b0:	0501                	addi	a0,a0,0
    21b2:	0003060f          	0x3060f
    21b6:	0009                	c.nop	2
    21b8:	0100                	addi	s0,sp,128
    21ba:	0205                	addi	tp,tp,1
    21bc:	0306                	slli	t1,t1,0x1
    21be:	0901                	addi	s2,s2,0
    21c0:	0004                	0x4
    21c2:	0501                	addi	a0,a0,0
    21c4:	0003060f          	0x3060f
    21c8:	0009                	c.nop	2
    21ca:	0100                	addi	s0,sp,128
    21cc:	0205                	addi	tp,tp,1
    21ce:	0306                	slli	t1,t1,0x1
    21d0:	0901                	addi	s2,s2,0
    21d2:	0004                	0x4
    21d4:	0501                	addi	a0,a0,0
    21d6:	0003060f          	0x3060f
    21da:	0009                	c.nop	2
    21dc:	0100                	addi	s0,sp,128
    21de:	0205                	addi	tp,tp,1
    21e0:	0306                	slli	t1,t1,0x1
    21e2:	0901                	addi	s2,s2,0
    21e4:	0004                	0x4
    21e6:	0501                	addi	a0,a0,0
    21e8:	0003060f          	0x3060f
    21ec:	0009                	c.nop	2
    21ee:	0100                	addi	s0,sp,128
    21f0:	0205                	addi	tp,tp,1
    21f2:	0306                	slli	t1,t1,0x1
    21f4:	0901                	addi	s2,s2,0
    21f6:	0004                	0x4
    21f8:	0501                	addi	a0,a0,0
    21fa:	0003060f          	0x3060f
    21fe:	0009                	c.nop	2
    2200:	0100                	addi	s0,sp,128
    2202:	0205                	addi	tp,tp,1
    2204:	0306                	slli	t1,t1,0x1
    2206:	0901                	addi	s2,s2,0
    2208:	0004                	0x4
    220a:	0501                	addi	a0,a0,0
    220c:	0003060f          	0x3060f
    2210:	0009                	c.nop	2
    2212:	0100                	addi	s0,sp,128
    2214:	0205                	addi	tp,tp,1
    2216:	0306                	slli	t1,t1,0x1
    2218:	0901                	addi	s2,s2,0
    221a:	0004                	0x4
    221c:	0501                	addi	a0,a0,0
    221e:	0610                	addi	a2,sp,768
    2220:	00090003          	lb	zero,0(s2)
    2224:	0100                	addi	s0,sp,128
    2226:	0205                	addi	tp,tp,1
    2228:	0306                	slli	t1,t1,0x1
    222a:	0901                	addi	s2,s2,0
    222c:	0004                	0x4
    222e:	0301                	addi	t1,t1,0
    2230:	0902                	c.slli64	s2
    2232:	0004                	0x4
    2234:	0401                	addi	s0,s0,0
    2236:	0502                	c.slli64	a0
    2238:	0309                	addi	t1,t1,2
    223a:	097d                	addi	s2,s2,31
    223c:	0000                	unimp
    223e:	0501                	addi	a0,a0,0
    2240:	00030613          	mv	a2,t1
    2244:	0009                	c.nop	2
    2246:	0100                	addi	s0,sp,128
    2248:	0104                	addi	s1,sp,128
    224a:	1805                	addi	a6,a6,-31
    224c:	0900fc03          	0x900fc03
    2250:	0008                	0x8
    2252:	0501                	addi	a0,a0,0
    2254:	0611                	addi	a2,a2,4
    2256:	08090903          	lb	s2,128(s2)
    225a:	0100                	addi	s0,sp,128
    225c:	1205                	addi	tp,tp,-31
    225e:	0306                	slli	t1,t1,0x1
    2260:	0900                	addi	s0,sp,144
    2262:	0000                	unimp
    2264:	0501                	addi	a0,a0,0
    2266:	0611                	addi	a2,a2,4
    2268:	04090103          	lb	sp,64(s2)
    226c:	0100                	addi	s0,sp,128
    226e:	0f05                	addi	t5,t5,1
    2270:	0306                	slli	t1,t1,0x1
    2272:	7fa9                	lui	t6,0xfffea
    2274:	0409                	addi	s0,s0,2
    2276:	0100                	addi	s0,sp,128
    2278:	1105                	addi	sp,sp,-31
    227a:	0306                	slli	t1,t1,0x1
    227c:	00da                	slli	ra,ra,0x16
    227e:	0409                	addi	s0,s0,2
    2280:	0100                	addi	s0,sp,128
    2282:	0304                	addi	s1,sp,384
    2284:	0505                	addi	a0,a0,1
    2286:	097ef603          	0x97ef603
    228a:	0000                	unimp
    228c:	0401                	addi	s0,s0,0
    228e:	0504                	addi	s1,sp,640
    2290:	0302                	c.slli64	t1
    2292:	0000097b          	0x97b
    2296:	0401                	addi	s0,s0,0
    2298:	06050503          	lb	a0,96(a0)
    229c:	00090503          	lb	a0,0(s2)
    22a0:	0100                	addi	s0,sp,128
    22a2:	0404                	addi	s1,sp,512
    22a4:	0205                	addi	tp,tp,1
    22a6:	0306                	slli	t1,t1,0x1
    22a8:	097c                	addi	a5,sp,156
    22aa:	0004                	0x4
    22ac:	0501                	addi	a0,a0,0
    22ae:	0003060f          	0x3060f
    22b2:	0009                	c.nop	2
    22b4:	0100                	addi	s0,sp,128
    22b6:	0205                	addi	tp,tp,1
    22b8:	0306                	slli	t1,t1,0x1
    22ba:	0901                	addi	s2,s2,0
    22bc:	0004                	0x4
    22be:	0501                	addi	a0,a0,0
    22c0:	0003060f          	0x3060f
    22c4:	0009                	c.nop	2
    22c6:	0100                	addi	s0,sp,128
    22c8:	0205                	addi	tp,tp,1
    22ca:	0306                	slli	t1,t1,0x1
    22cc:	0901                	addi	s2,s2,0
    22ce:	0004                	0x4
    22d0:	0501                	addi	a0,a0,0
    22d2:	0003060f          	0x3060f
    22d6:	0009                	c.nop	2
    22d8:	0100                	addi	s0,sp,128
    22da:	0205                	addi	tp,tp,1
    22dc:	0306                	slli	t1,t1,0x1
    22de:	0901                	addi	s2,s2,0
    22e0:	0004                	0x4
    22e2:	0501                	addi	a0,a0,0
    22e4:	0003060f          	0x3060f
    22e8:	0009                	c.nop	2
    22ea:	0100                	addi	s0,sp,128
    22ec:	0205                	addi	tp,tp,1
    22ee:	0306                	slli	t1,t1,0x1
    22f0:	0901                	addi	s2,s2,0
    22f2:	0004                	0x4
    22f4:	0501                	addi	a0,a0,0
    22f6:	0003060f          	0x3060f
    22fa:	0009                	c.nop	2
    22fc:	0100                	addi	s0,sp,128
    22fe:	0205                	addi	tp,tp,1
    2300:	0306                	slli	t1,t1,0x1
    2302:	0901                	addi	s2,s2,0
    2304:	0004                	0x4
    2306:	0501                	addi	a0,a0,0
    2308:	0610                	addi	a2,sp,768
    230a:	00090003          	lb	zero,0(s2)
    230e:	0100                	addi	s0,sp,128
    2310:	0205                	addi	tp,tp,1
    2312:	0306                	slli	t1,t1,0x1
    2314:	0901                	addi	s2,s2,0
    2316:	0004                	0x4
    2318:	0301                	addi	t1,t1,0
    231a:	0902                	c.slli64	s2
    231c:	0004                	0x4
    231e:	0401                	addi	s0,s0,0
    2320:	06010503          	lb	a0,96(sp)
    2324:	00097d03          	0x97d03
    2328:	0100                	addi	s0,sp,128
    232a:	0104                	addi	s1,sp,128
    232c:	1805                	addi	a6,a6,-31
    232e:	0900fc03          	0x900fc03
    2332:	0008                	0x8
    2334:	0501                	addi	a0,a0,0
    2336:	0301                	addi	t1,t1,0
    2338:	00080913          	mv	s2,a6
    233c:	0501                	addi	a0,a0,0
    233e:	02030623          	sb	zero,44(t1)
    2342:	3409                	addiw	s0,s0,-30
    2344:	0100                	addi	s0,sp,128
    2346:	0505                	addi	a0,a0,1
    2348:	2c090103          	lb	sp,704(s2)
    234c:	0100                	addi	s0,sp,128
    234e:	00090103          	lb	sp,0(s2)
    2352:	0100                	addi	s0,sp,128
    2354:	08090103          	lb	sp,128(s2)
    2358:	0100                	addi	s0,sp,128
    235a:	08090103          	lb	sp,128(s2)
    235e:	0100                	addi	s0,sp,128
    2360:	00090103          	lb	sp,0(s2)
    2364:	0100                	addi	s0,sp,128
    2366:	0204                	addi	s1,sp,256
    2368:	097ee803          	lwu	a6,151(t4)
    236c:	0000                	unimp
    236e:	0501                	addi	a0,a0,0
    2370:	00030613          	mv	a2,t1
    2374:	0009                	c.nop	2
    2376:	0100                	addi	s0,sp,128
    2378:	0805                	addi	a6,a6,1
    237a:	08090003          	lb	zero,128(s2)
    237e:	0100                	addi	s0,sp,128
    2380:	0905                	addi	s2,s2,1
    2382:	0306                	slli	t1,t1,0x1
    2384:	0901                	addi	s2,s2,0
    2386:	0004                	0x4
    2388:	0401                	addi	s0,s0,0
    238a:	03050503          	lb	a0,48(a0)
    238e:	0904                	addi	s1,sp,144
    2390:	0000                	unimp
    2392:	0401                	addi	s0,s0,0
    2394:	0504                	addi	s1,sp,640
    2396:	0302                	c.slli64	t1
    2398:	00000977          	0x977
    239c:	0501                	addi	a0,a0,0
    239e:	0003060f          	0x3060f
    23a2:	0009                	c.nop	2
    23a4:	0100                	addi	s0,sp,128
    23a6:	0205                	addi	tp,tp,1
    23a8:	0306                	slli	t1,t1,0x1
    23aa:	0901                	addi	s2,s2,0
    23ac:	0008                	0x8
    23ae:	0301                	addi	t1,t1,0
    23b0:	0901                	addi	s2,s2,0
    23b2:	0000                	unimp
    23b4:	0501                	addi	a0,a0,0
    23b6:	0003060f          	0x3060f
    23ba:	0009                	c.nop	2
    23bc:	0100                	addi	s0,sp,128
    23be:	0205                	addi	tp,tp,1
    23c0:	0306                	slli	t1,t1,0x1
    23c2:	0901                	addi	s2,s2,0
    23c4:	0004                	0x4
    23c6:	0501                	addi	a0,a0,0
    23c8:	0003060f          	0x3060f
    23cc:	0009                	c.nop	2
    23ce:	0100                	addi	s0,sp,128
    23d0:	0205                	addi	tp,tp,1
    23d2:	0306                	slli	t1,t1,0x1
    23d4:	0901                	addi	s2,s2,0
    23d6:	0004                	0x4
    23d8:	0501                	addi	a0,a0,0
    23da:	0003060f          	0x3060f
    23de:	0009                	c.nop	2
    23e0:	0100                	addi	s0,sp,128
    23e2:	0205                	addi	tp,tp,1
    23e4:	0306                	slli	t1,t1,0x1
    23e6:	0901                	addi	s2,s2,0
    23e8:	0004                	0x4
    23ea:	0501                	addi	a0,a0,0
    23ec:	0003060f          	0x3060f
    23f0:	0009                	c.nop	2
    23f2:	0100                	addi	s0,sp,128
    23f4:	0205                	addi	tp,tp,1
    23f6:	0306                	slli	t1,t1,0x1
    23f8:	0901                	addi	s2,s2,0
    23fa:	0004                	0x4
    23fc:	0501                	addi	a0,a0,0
    23fe:	0610                	addi	a2,sp,768
    2400:	00090003          	lb	zero,0(s2)
    2404:	0100                	addi	s0,sp,128
    2406:	0205                	addi	tp,tp,1
    2408:	0306                	slli	t1,t1,0x1
    240a:	0901                	addi	s2,s2,0
    240c:	0004                	0x4
    240e:	0301                	addi	t1,t1,0
    2410:	0902                	c.slli64	s2
    2412:	0004                	0x4
    2414:	0401                	addi	s0,s0,0
    2416:	0502                	c.slli64	a0
    2418:	0309                	addi	t1,t1,2
    241a:	097d                	addi	s2,s2,31
    241c:	0000                	unimp
    241e:	0501                	addi	a0,a0,0
    2420:	00030613          	mv	a2,t1
    2424:	0009                	c.nop	2
    2426:	0100                	addi	s0,sp,128
    2428:	0104                	addi	s1,sp,128
    242a:	0105                	addi	sp,sp,1
    242c:	09019703          	lh	a4,144(gp)
    2430:	0008                	0x8
    2432:	0501                	addi	a0,a0,0
    2434:	0640                	addi	s0,sp,772
    2436:	10090203          	lb	tp,256(s2)
    243a:	0100                	addi	s0,sp,128
    243c:	0505                	addi	a0,a0,1
    243e:	2c090103          	lb	sp,704(s2)
    2442:	0100                	addi	s0,sp,128
    2444:	18090103          	lb	sp,384(s2)
    2448:	0100                	addi	s0,sp,128
    244a:	00090103          	lb	sp,0(s2)
    244e:	0100                	addi	s0,sp,128
    2450:	08090103          	lb	sp,128(s2)
    2454:	0100                	addi	s0,sp,128
    2456:	0c090103          	lb	sp,192(s2)
    245a:	0100                	addi	s0,sp,128
    245c:	00090103          	lb	sp,0(s2)
    2460:	0100                	addi	s0,sp,128
    2462:	0304                	addi	s1,sp,384
    2464:	097ee003          	lwu	zero,151(t4)
    2468:	0000                	unimp
    246a:	0401                	addi	s0,s0,0
    246c:	0504                	addi	s1,sp,640
    246e:	0302                	c.slli64	t1
    2470:	0000097b          	0x97b
    2474:	0501                	addi	a0,a0,0
    2476:	0003060f          	0x3060f
    247a:	0009                	c.nop	2
    247c:	0100                	addi	s0,sp,128
    247e:	0205                	addi	tp,tp,1
    2480:	0306                	slli	t1,t1,0x1
    2482:	0901                	addi	s2,s2,0
    2484:	0004                	0x4
    2486:	0501                	addi	a0,a0,0
    2488:	0003060f          	0x3060f
    248c:	0009                	c.nop	2
    248e:	0100                	addi	s0,sp,128
    2490:	0205                	addi	tp,tp,1
    2492:	0306                	slli	t1,t1,0x1
    2494:	0901                	addi	s2,s2,0
    2496:	0004                	0x4
    2498:	0501                	addi	a0,a0,0
    249a:	0003060f          	0x3060f
    249e:	0009                	c.nop	2
    24a0:	0100                	addi	s0,sp,128
    24a2:	0205                	addi	tp,tp,1
    24a4:	0306                	slli	t1,t1,0x1
    24a6:	0901                	addi	s2,s2,0
    24a8:	0004                	0x4
    24aa:	0501                	addi	a0,a0,0
    24ac:	0003060f          	0x3060f
    24b0:	0009                	c.nop	2
    24b2:	0100                	addi	s0,sp,128
    24b4:	0205                	addi	tp,tp,1
    24b6:	0306                	slli	t1,t1,0x1
    24b8:	0901                	addi	s2,s2,0
    24ba:	0004                	0x4
    24bc:	0501                	addi	a0,a0,0
    24be:	0003060f          	0x3060f
    24c2:	0009                	c.nop	2
    24c4:	0100                	addi	s0,sp,128
    24c6:	0205                	addi	tp,tp,1
    24c8:	0306                	slli	t1,t1,0x1
    24ca:	0901                	addi	s2,s2,0
    24cc:	0004                	0x4
    24ce:	0501                	addi	a0,a0,0
    24d0:	0003060f          	0x3060f
    24d4:	0009                	c.nop	2
    24d6:	0100                	addi	s0,sp,128
    24d8:	0205                	addi	tp,tp,1
    24da:	0306                	slli	t1,t1,0x1
    24dc:	0901                	addi	s2,s2,0
    24de:	0004                	0x4
    24e0:	0501                	addi	a0,a0,0
    24e2:	0610                	addi	a2,sp,768
    24e4:	00090003          	lb	zero,0(s2)
    24e8:	0100                	addi	s0,sp,128
    24ea:	0205                	addi	tp,tp,1
    24ec:	0306                	slli	t1,t1,0x1
    24ee:	0901                	addi	s2,s2,0
    24f0:	0004                	0x4
    24f2:	0301                	addi	t1,t1,0
    24f4:	0902                	c.slli64	s2
    24f6:	0004                	0x4
    24f8:	0401                	addi	s0,s0,0
    24fa:	0501                	addi	a0,a0,0
    24fc:	0005                	c.nop	1
    24fe:	0402                	c.slli64	s0
    2500:	0301                	addi	t1,t1,0
    2502:	019d                	addi	gp,gp,7
    2504:	0009                	c.nop	2
    2506:	0100                	addi	s0,sp,128
    2508:	0b05                	addi	s6,s6,1
    250a:	0200                	addi	s0,sp,256
    250c:	0104                	addi	s1,sp,128
    250e:	00090003          	lb	zero,0(s2)
    2512:	0100                	addi	s0,sp,128
    2514:	4c05                	li	s8,1
    2516:	04090303          	lb	t1,64(s2)
    251a:	0100                	addi	s0,sp,128
    251c:	0505                	addi	a0,a0,1
    251e:	00090103          	lb	sp,0(s2)
    2522:	0100                	addi	s0,sp,128
    2524:	0805                	addi	a6,a6,1
    2526:	0306                	slli	t1,t1,0x1
    2528:	0900                	addi	s0,sp,144
    252a:	0000                	unimp
    252c:	0501                	addi	a0,a0,0
    252e:	034c                	addi	a1,sp,388
    2530:	097f                	0x97f
    2532:	0008                	0x8
    2534:	0501                	addi	a0,a0,0
    2536:	0609                	addi	a2,a2,2
    2538:	10090203          	lb	tp,256(s2)
    253c:	0100                	addi	s0,sp,128
    253e:	1009                	c.nop	-30
    2540:	0000                	unimp
    2542:	0101                	addi	sp,sp,0
    2544:	099a                	slli	s3,s3,0x6
    2546:	0000                	unimp
    2548:	0005                	c.nop	1
    254a:	0008                	0x8
    254c:	0000004b          	fnmsub.s	ft0,ft0,ft0,ft0,rne
    2550:	0101                	addi	sp,sp,0
    2552:	fb01                	bnez	a4,2462 <_text-0x9fdb9e>
    2554:	0d0e                	slli	s10,s10,0x3
    2556:	0100                	addi	s0,sp,128
    2558:	0101                	addi	sp,sp,0
    255a:	0001                	nop
    255c:	0000                	unimp
    255e:	0001                	nop
    2560:	0100                	addi	s0,sp,128
    2562:	0101                	addi	sp,sp,0
    2564:	031f 0000 0000      	0x31f
    256a:	004e                	c.slli	zero,0x13
    256c:	0000                	unimp
    256e:	0040                	addi	s0,sp,4
    2570:	0000                	unimp
    2572:	0102                	c.slli64	sp
    2574:	021f 070f 009c      	0x9c070f021f
    257a:	0000                	unimp
    257c:	9c00                	0x9c00
    257e:	0000                	unimp
    2580:	0000                	unimp
    2582:	0058                	addi	a4,sp,4
    2584:	0000                	unimp
    2586:	6501                	0x6501
    2588:	0000                	unimp
    258a:	0100                	addi	s0,sp,128
    258c:	0078                	addi	a4,sp,12
    258e:	0000                	unimp
    2590:	a302                	fsd	ft0,384(sp)
    2592:	0000                	unimp
    2594:	0200                	addi	s0,sp,256
    2596:	0000006f          	j	2596 <_text-0x9fda6a>
    259a:	0501                	addi	a0,a0,0
    259c:	0026                	c.slli	zero,0x9
    259e:	0209                	addi	tp,tp,2
    25a0:	0f6c                	addi	a1,sp,924
    25a2:	00a0                	addi	s0,sp,72
    25a4:	0000                	unimp
    25a6:	0000                	unimp
    25a8:	0515                	addi	a0,a0,5
    25aa:	0305                	addi	t1,t1,1
    25ac:	0901                	addi	s2,s2,0
    25ae:	000c                	0xc
    25b0:	0301                	addi	t1,t1,0
    25b2:	0902                	c.slli64	s2
    25b4:	0000                	unimp
    25b6:	0301                	addi	t1,t1,0
    25b8:	0901                	addi	s2,s2,0
    25ba:	0000                	unimp
    25bc:	0501                	addi	a0,a0,0
    25be:	0003060b          	0x3060b
    25c2:	0009                	c.nop	2
    25c4:	0100                	addi	s0,sp,128
    25c6:	1a05                	addi	s4,s4,-31
    25c8:	0200                	addi	s0,sp,256
    25ca:	0104                	addi	s1,sp,128
    25cc:	0306                	slli	t1,t1,0x1
    25ce:	0900                	addi	s0,sp,144
    25d0:	0004                	0x4
    25d2:	0501                	addi	a0,a0,0
    25d4:	0016                	c.slli	zero,0x5
    25d6:	0402                	c.slli64	s0
    25d8:	0601                	addi	a2,a2,0
    25da:	00090003          	lb	zero,0(s2)
    25de:	0100                	addi	s0,sp,128
    25e0:	0f05                	addi	t5,t5,1
    25e2:	0200                	addi	s0,sp,256
    25e4:	0104                	addi	s1,sp,128
    25e6:	04090003          	lb	zero,64(s2)
    25ea:	0100                	addi	s0,sp,128
    25ec:	1405                	addi	s0,s0,-31
    25ee:	0200                	addi	s0,sp,256
    25f0:	0104                	addi	s1,sp,128
    25f2:	04090003          	lb	zero,64(s2)
    25f6:	0100                	addi	s0,sp,128
    25f8:	1205                	addi	tp,tp,-31
    25fa:	0200                	addi	s0,sp,256
    25fc:	0104                	addi	s1,sp,128
    25fe:	04090003          	lb	zero,64(s2)
    2602:	0100                	addi	s0,sp,128
    2604:	1a05                	addi	s4,s4,-31
    2606:	0200                	addi	s0,sp,256
    2608:	0104                	addi	s1,sp,128
    260a:	04090003          	lb	zero,64(s2)
    260e:	0100                	addi	s0,sp,128
    2610:	0505                	addi	a0,a0,1
    2612:	0306                	slli	t1,t1,0x1
    2614:	0902                	c.slli64	s2
    2616:	0004                	0x4
    2618:	0501                	addi	a0,a0,0
    261a:	0601                	addi	a2,a2,0
    261c:	00090103          	lb	sp,0(s2)
    2620:	0100                	addi	s0,sp,128
    2622:	2a05                	addiw	s4,s4,1
    2624:	0306                	slli	t1,t1,0x1
    2626:	0902                	c.slli64	s2
    2628:	000c                	0xc
    262a:	0501                	addi	a0,a0,0
    262c:	0305                	addi	t1,t1,1
    262e:	0901                	addi	s2,s2,0
    2630:	000c                	0xc
    2632:	0501                	addi	a0,a0,0
    2634:	0900030f          	0x900030f
    2638:	0000                	unimp
    263a:	0501                	addi	a0,a0,0
    263c:	060c                	addi	a1,sp,768
    263e:	00090003          	lb	zero,0(s2)
    2642:	0100                	addi	s0,sp,128
    2644:	0f05                	addi	t5,t5,1
    2646:	04090003          	lb	zero,64(s2)
    264a:	0100                	addi	s0,sp,128
    264c:	0200                	addi	s0,sp,256
    264e:	0104                	addi	s1,sp,128
    2650:	04090003          	lb	zero,64(s2)
    2654:	0100                	addi	s0,sp,128
    2656:	0905                	addi	s2,s2,1
    2658:	0306                	slli	t1,t1,0x1
    265a:	0901                	addi	s2,s2,0
    265c:	0008                	0x8
    265e:	0501                	addi	a0,a0,0
    2660:	060a                	slli	a2,a2,0x2
    2662:	00090003          	lb	zero,0(s2)
    2666:	0100                	addi	s0,sp,128
    2668:	0f05                	addi	t5,t5,1
    266a:	04090003          	lb	zero,64(s2)
    266e:	0100                	addi	s0,sp,128
    2670:	0306                	slli	t1,t1,0x1
    2672:	097f                	0x97f
    2674:	0004                	0x4
    2676:	0501                	addi	a0,a0,0
    2678:	060c                	addi	a1,sp,768
    267a:	00090003          	lb	zero,0(s2)
    267e:	0100                	addi	s0,sp,128
    2680:	0f05                	addi	t5,t5,1
    2682:	04090003          	lb	zero,64(s2)
    2686:	0100                	addi	s0,sp,128
    2688:	0505                	addi	a0,a0,1
    268a:	0306                	slli	t1,t1,0x1
    268c:	0902                	c.slli64	s2
    268e:	0004                	0x4
    2690:	0501                	addi	a0,a0,0
    2692:	0618                	addi	a4,sp,768
    2694:	00090003          	lb	zero,0(s2)
    2698:	0100                	addi	s0,sp,128
    269a:	0105                	addi	sp,sp,1
    269c:	04090103          	lb	sp,64(s2)
    26a0:	0100                	addi	s0,sp,128
    26a2:	1c05                	addi	s8,s8,-31
    26a4:	0306                	slli	t1,t1,0x1
    26a6:	0902                	c.slli64	s2
    26a8:	0010                	0x10
    26aa:	0501                	addi	a0,a0,0
    26ac:	0305                	addi	t1,t1,1
    26ae:	0901                	addi	s2,s2,0
    26b0:	000c                	0xc
    26b2:	0301                	addi	t1,t1,0
    26b4:	0902                	c.slli64	s2
    26b6:	0000                	unimp
    26b8:	0501                	addi	a0,a0,0
    26ba:	0311                	addi	t1,t1,4
    26bc:	0900                	addi	s0,sp,144
    26be:	0000                	unimp
    26c0:	0501                	addi	a0,a0,0
    26c2:	0018                	0x18
    26c4:	0402                	c.slli64	s0
    26c6:	09000303          	lb	t1,144(zero) # 90 <_text-0x9fff70>
    26ca:	0018                	0x18
    26cc:	0501                	addi	a0,a0,0
    26ce:	0011                	c.nop	4
    26d0:	0402                	c.slli64	s0
    26d2:	09000303          	lb	t1,144(zero) # 90 <_text-0x9fff70>
    26d6:	0004                	0x4
    26d8:	0501                	addi	a0,a0,0
    26da:	0305                	addi	t1,t1,1
    26dc:	0902                	c.slli64	s2
    26de:	000c                	0xc
    26e0:	0501                	addi	a0,a0,0
    26e2:	0601                	addi	a2,a2,0
    26e4:	00090103          	lb	sp,0(s2)
    26e8:	0100                	addi	s0,sp,128
    26ea:	0c05                	addi	s8,s8,1
    26ec:	0c097d03          	0xc097d03
    26f0:	0100                	addi	s0,sp,128
    26f2:	2805                	addiw	a6,a6,1
    26f4:	0306                	slli	t1,t1,0x1
    26f6:	0905                	addi	s2,s2,1
    26f8:	0008                	0x8
    26fa:	0501                	addi	a0,a0,0
    26fc:	0305                	addi	t1,t1,1
    26fe:	0901                	addi	s2,s2,0
    2700:	000c                	0xc
    2702:	0301                	addi	t1,t1,0
    2704:	0901                	addi	s2,s2,0
    2706:	0000                	unimp
    2708:	0301                	addi	t1,t1,0
    270a:	0901                	addi	s2,s2,0
    270c:	0000                	unimp
    270e:	0501                	addi	a0,a0,0
    2710:	09000313          	li	t1,144
    2714:	0000                	unimp
    2716:	0501                	addi	a0,a0,0
    2718:	0009                	c.nop	2
    271a:	0402                	c.slli64	s0
    271c:	09010303          	lb	t1,144(sp)
    2720:	0014                	0x14
    2722:	0501                	addi	a0,a0,0
    2724:	0011                	c.nop	4
    2726:	0402                	c.slli64	s0
    2728:	00030603          	lb	a2,0(t1)
    272c:	0009                	c.nop	2
    272e:	0100                	addi	s0,sp,128
    2730:	1905                	addi	s2,s2,-31
    2732:	0200                	addi	s0,sp,256
    2734:	0304                	addi	s1,sp,384
    2736:	0306                	slli	t1,t1,0x1
    2738:	097f                	0x97f
    273a:	0004                	0x4
    273c:	0501                	addi	a0,a0,0
    273e:	04020013          	addi	zero,tp,64 # 40 <_text-0x9fffc0>
    2742:	09000303          	lb	t1,144(zero) # 90 <_text-0x9fff70>
    2746:	0000                	unimp
    2748:	0501                	addi	a0,a0,0
    274a:	0305                	addi	t1,t1,1
    274c:	00080903          	lb	s2,0(a6) # fffffffffffe0000 <end+0xfffffffffefde000>
    2750:	0501                	addi	a0,a0,0
    2752:	0601                	addi	a2,a2,0
    2754:	00090103          	lb	sp,0(s2)
    2758:	0100                	addi	s0,sp,128
    275a:	2505                	addiw	a0,a0,1
    275c:	0306                	slli	t1,t1,0x1
    275e:	0902                	c.slli64	s2
    2760:	000c                	0xc
    2762:	0501                	addi	a0,a0,0
    2764:	0305                	addi	t1,t1,1
    2766:	0901                	addi	s2,s2,0
    2768:	000c                	0xc
    276a:	0501                	addi	a0,a0,0
    276c:	030c                	addi	a1,sp,384
    276e:	0900                	addi	s0,sp,144
    2770:	0000                	unimp
    2772:	0501                	addi	a0,a0,0
    2774:	0309                	addi	t1,t1,2
    2776:	0901                	addi	s2,s2,0
    2778:	0008                	0x8
    277a:	0501                	addi	a0,a0,0
    277c:	060c                	addi	a1,sp,768
    277e:	00090003          	lb	zero,0(s2)
    2782:	0100                	addi	s0,sp,128
    2784:	1105                	addi	sp,sp,-31
    2786:	0306                	slli	t1,t1,0x1
    2788:	097f                	0x97f
    278a:	0004                	0x4
    278c:	0501                	addi	a0,a0,0
    278e:	030c                	addi	a1,sp,384
    2790:	0900                	addi	s0,sp,144
    2792:	0004                	0x4
    2794:	0601                	addi	a2,a2,0
    2796:	08090303          	lb	t1,128(s2)
    279a:	0100                	addi	s0,sp,128
    279c:	0105                	addi	sp,sp,1
    279e:	04090103          	lb	sp,64(s2)
    27a2:	0100                	addi	s0,sp,128
    27a4:	0c05                	addi	s8,s8,1
    27a6:	0c097f03          	0xc097f03
    27aa:	0100                	addi	s0,sp,128
    27ac:	2005                	0x2005
    27ae:	0306                	slli	t1,t1,0x1
    27b0:	00080903          	lb	s2,0(a6)
    27b4:	0501                	addi	a0,a0,0
    27b6:	0305                	addi	t1,t1,1
    27b8:	0901                	addi	s2,s2,0
    27ba:	0004                	0x4
    27bc:	0301                	addi	t1,t1,0
    27be:	0901                	addi	s2,s2,0
    27c0:	0000                	unimp
    27c2:	0301                	addi	t1,t1,0
    27c4:	0901                	addi	s2,s2,0
    27c6:	0000                	unimp
    27c8:	0301                	addi	t1,t1,0
    27ca:	0901                	addi	s2,s2,0
    27cc:	0000                	unimp
    27ce:	0501                	addi	a0,a0,0
    27d0:	09000317          	auipc	t1,0x9000
    27d4:	0000                	unimp
    27d6:	0501                	addi	a0,a0,0
    27d8:	0620                	addi	s0,sp,776
    27da:	08097c03          	0x8097c03
    27de:	0100                	addi	s0,sp,128
    27e0:	0c05                	addi	s8,s8,1
    27e2:	10090403          	lb	s0,256(s2)
    27e6:	0100                	addi	s0,sp,128
    27e8:	1305                	addi	t1,t1,-31
    27ea:	04090003          	lb	zero,64(s2)
    27ee:	0100                	addi	s0,sp,128
    27f0:	0b05                	addi	s6,s6,1
    27f2:	04090403          	lb	s0,64(s2)
    27f6:	0100                	addi	s0,sp,128
    27f8:	0c05                	addi	s8,s8,1
    27fa:	04090903          	lb	s2,64(s2)
    27fe:	0100                	addi	s0,sp,128
    2800:	1705                	addi	a4,a4,-31
    2802:	04090003          	lb	zero,64(s2)
    2806:	0100                	addi	s0,sp,128
    2808:	0204                	addi	s1,sp,256
    280a:	0c05                	addi	s8,s8,1
    280c:	04097a03          	0x4097a03
    2810:	0100                	addi	s0,sp,128
    2812:	0104                	addi	s1,sp,128
    2814:	0d05                	addi	s10,s10,1
    2816:	0306                	slli	t1,t1,0x1
    2818:	097e                	slli	s2,s2,0x1f
    281a:	000c                	0xc
    281c:	0501                	addi	a0,a0,0
    281e:	0003060f          	0x3060f
    2822:	0009                	c.nop	2
    2824:	0100                	addi	s0,sp,128
    2826:	1105                	addi	sp,sp,-31
    2828:	0306                	slli	t1,t1,0x1
    282a:	0901                	addi	s2,s2,0
    282c:	0004                	0x4
    282e:	0301                	addi	t1,t1,0
    2830:	0901                	addi	s2,s2,0
    2832:	0004                	0x4
    2834:	0401                	addi	s0,s0,0
    2836:	0502                	c.slli64	a0
    2838:	0305                	addi	t1,t1,1
    283a:	0900                	addi	s0,sp,144
    283c:	0000                	unimp
    283e:	0401                	addi	s0,s0,0
    2840:	03020503          	lb	a0,48(tp) # 30 <_text-0x9fffd0>
    2844:	0952                	slli	s2,s2,0x14
    2846:	0000                	unimp
    2848:	0501                	addi	a0,a0,0
    284a:	0003060f          	0x3060f
    284e:	0009                	c.nop	2
    2850:	0100                	addi	s0,sp,128
    2852:	0205                	addi	tp,tp,1
    2854:	0306                	slli	t1,t1,0x1
    2856:	0901                	addi	s2,s2,0
    2858:	0004                	0x4
    285a:	0501                	addi	a0,a0,0
    285c:	0003060f          	0x3060f
    2860:	0009                	c.nop	2
    2862:	0100                	addi	s0,sp,128
    2864:	0205                	addi	tp,tp,1
    2866:	0306                	slli	t1,t1,0x1
    2868:	0901                	addi	s2,s2,0
    286a:	0004                	0x4
    286c:	0501                	addi	a0,a0,0
    286e:	0003060f          	0x3060f
    2872:	0009                	c.nop	2
    2874:	0100                	addi	s0,sp,128
    2876:	0205                	addi	tp,tp,1
    2878:	0306                	slli	t1,t1,0x1
    287a:	0901                	addi	s2,s2,0
    287c:	0004                	0x4
    287e:	0301                	addi	t1,t1,0
    2880:	0901                	addi	s2,s2,0
    2882:	0000                	unimp
    2884:	0301                	addi	t1,t1,0
    2886:	0901                	addi	s2,s2,0
    2888:	0000                	unimp
    288a:	0501                	addi	a0,a0,0
    288c:	0003060f          	0x3060f
    2890:	0009                	c.nop	2
    2892:	0100                	addi	s0,sp,128
    2894:	0205                	addi	tp,tp,1
    2896:	0306                	slli	t1,t1,0x1
    2898:	0901                	addi	s2,s2,0
    289a:	0004                	0x4
    289c:	0501                	addi	a0,a0,0
    289e:	0610                	addi	a2,sp,768
    28a0:	00090003          	lb	zero,0(s2)
    28a4:	0100                	addi	s0,sp,128
    28a6:	0205                	addi	tp,tp,1
    28a8:	0306                	slli	t1,t1,0x1
    28aa:	0901                	addi	s2,s2,0
    28ac:	0004                	0x4
    28ae:	0301                	addi	t1,t1,0
    28b0:	0902                	c.slli64	s2
    28b2:	0004                	0x4
    28b4:	0401                	addi	s0,s0,0
    28b6:	0501                	addi	a0,a0,0
    28b8:	04020017          	auipc	zero,0x4020
    28bc:	0301                	addi	t1,t1,0
    28be:	091e                	slli	s2,s2,0x7
    28c0:	0000                	unimp
    28c2:	0501                	addi	a0,a0,0
    28c4:	04020013          	addi	zero,tp,64 # 40 <_text-0x9fffc0>
    28c8:	0601                	addi	a2,a2,0
    28ca:	00090003          	lb	zero,0(s2)
    28ce:	0100                	addi	s0,sp,128
    28d0:	1705                	addi	a4,a4,-31
    28d2:	0200                	addi	s0,sp,256
    28d4:	0104                	addi	s1,sp,128
    28d6:	04090003          	lb	zero,64(s2)
    28da:	0100                	addi	s0,sp,128
    28dc:	0905                	addi	s2,s2,1
    28de:	0306                	slli	t1,t1,0x1
    28e0:	0901                	addi	s2,s2,0
    28e2:	0004                	0x4
    28e4:	0401                	addi	s0,s0,0
    28e6:	0502                	c.slli64	a0
    28e8:	0305                	addi	t1,t1,1
    28ea:	092e                	slli	s2,s2,0xb
    28ec:	0000                	unimp
    28ee:	0401                	addi	s0,s0,0
    28f0:	03020503          	lb	a0,48(tp) # 30 <_text-0x9fffd0>
    28f4:	7faa                	ld	t6,168(sp)
    28f6:	0009                	c.nop	2
    28f8:	0100                	addi	s0,sp,128
    28fa:	0f05                	addi	t5,t5,1
    28fc:	0306                	slli	t1,t1,0x1
    28fe:	0900                	addi	s0,sp,144
    2900:	0000                	unimp
    2902:	0501                	addi	a0,a0,0
    2904:	0602                	c.slli64	a2
    2906:	04090103          	lb	sp,64(s2)
    290a:	0100                	addi	s0,sp,128
    290c:	0f05                	addi	t5,t5,1
    290e:	0306                	slli	t1,t1,0x1
    2910:	0900                	addi	s0,sp,144
    2912:	0000                	unimp
    2914:	0501                	addi	a0,a0,0
    2916:	0602                	c.slli64	a2
    2918:	04090103          	lb	sp,64(s2)
    291c:	0100                	addi	s0,sp,128
    291e:	0f05                	addi	t5,t5,1
    2920:	0306                	slli	t1,t1,0x1
    2922:	0900                	addi	s0,sp,144
    2924:	0000                	unimp
    2926:	0501                	addi	a0,a0,0
    2928:	0602                	c.slli64	a2
    292a:	04090103          	lb	sp,64(s2)
    292e:	0100                	addi	s0,sp,128
    2930:	0f05                	addi	t5,t5,1
    2932:	0306                	slli	t1,t1,0x1
    2934:	0900                	addi	s0,sp,144
    2936:	0000                	unimp
    2938:	0501                	addi	a0,a0,0
    293a:	0602                	c.slli64	a2
    293c:	04090103          	lb	sp,64(s2)
    2940:	0100                	addi	s0,sp,128
    2942:	0f05                	addi	t5,t5,1
    2944:	0306                	slli	t1,t1,0x1
    2946:	0900                	addi	s0,sp,144
    2948:	0000                	unimp
    294a:	0501                	addi	a0,a0,0
    294c:	0602                	c.slli64	a2
    294e:	04090103          	lb	sp,64(s2)
    2952:	0100                	addi	s0,sp,128
    2954:	0f05                	addi	t5,t5,1
    2956:	0306                	slli	t1,t1,0x1
    2958:	0900                	addi	s0,sp,144
    295a:	0000                	unimp
    295c:	0501                	addi	a0,a0,0
    295e:	0602                	c.slli64	a2
    2960:	04090103          	lb	sp,64(s2)
    2964:	0100                	addi	s0,sp,128
    2966:	1005                	c.nop	-31
    2968:	0306                	slli	t1,t1,0x1
    296a:	0900                	addi	s0,sp,144
    296c:	0000                	unimp
    296e:	0501                	addi	a0,a0,0
    2970:	0602                	c.slli64	a2
    2972:	04090103          	lb	sp,64(s2)
    2976:	0100                	addi	s0,sp,128
    2978:	04090203          	lb	tp,64(s2)
    297c:	0100                	addi	s0,sp,128
    297e:	0104                	addi	s1,sp,128
    2980:	0905                	addi	s2,s2,1
    2982:	00092003          	lw	zero,0(s2)
    2986:	0100                	addi	s0,sp,128
    2988:	0c05                	addi	s8,s8,1
    298a:	0306                	slli	t1,t1,0x1
    298c:	0900                	addi	s0,sp,144
    298e:	0000                	unimp
    2990:	0501                	addi	a0,a0,0
    2992:	0609                	addi	a2,a2,2
    2994:	08090203          	lb	tp,128(s2)
    2998:	0100                	addi	s0,sp,128
    299a:	0b05                	addi	s6,s6,1
    299c:	0306                	slli	t1,t1,0x1
    299e:	0900                	addi	s0,sp,144
    29a0:	0000                	unimp
    29a2:	0501                	addi	a0,a0,0
    29a4:	0609                	addi	a2,a2,2
    29a6:	08090703          	lb	a4,128(s2)
    29aa:	0100                	addi	s0,sp,128
    29ac:	0204                	addi	s1,sp,256
    29ae:	0505                	addi	a0,a0,1
    29b0:	00097c03          	0x97c03
    29b4:	0100                	addi	s0,sp,128
    29b6:	0304                	addi	s1,sp,384
    29b8:	0205                	addi	tp,tp,1
    29ba:	00095203          	lhu	tp,0(s2)
    29be:	0100                	addi	s0,sp,128
    29c0:	0f05                	addi	t5,t5,1
    29c2:	0306                	slli	t1,t1,0x1
    29c4:	0900                	addi	s0,sp,144
    29c6:	0000                	unimp
    29c8:	0501                	addi	a0,a0,0
    29ca:	0602                	c.slli64	a2
    29cc:	04090103          	lb	sp,64(s2)
    29d0:	0100                	addi	s0,sp,128
    29d2:	0f05                	addi	t5,t5,1
    29d4:	0306                	slli	t1,t1,0x1
    29d6:	0900                	addi	s0,sp,144
    29d8:	0000                	unimp
    29da:	0501                	addi	a0,a0,0
    29dc:	0602                	c.slli64	a2
    29de:	04090103          	lb	sp,64(s2)
    29e2:	0100                	addi	s0,sp,128
    29e4:	0f05                	addi	t5,t5,1
    29e6:	0306                	slli	t1,t1,0x1
    29e8:	0900                	addi	s0,sp,144
    29ea:	0000                	unimp
    29ec:	0501                	addi	a0,a0,0
    29ee:	0602                	c.slli64	a2
    29f0:	04090103          	lb	sp,64(s2)
    29f4:	0100                	addi	s0,sp,128
    29f6:	0f05                	addi	t5,t5,1
    29f8:	0306                	slli	t1,t1,0x1
    29fa:	0900                	addi	s0,sp,144
    29fc:	0000                	unimp
    29fe:	0501                	addi	a0,a0,0
    2a00:	0602                	c.slli64	a2
    2a02:	04090103          	lb	sp,64(s2)
    2a06:	0100                	addi	s0,sp,128
    2a08:	0f05                	addi	t5,t5,1
    2a0a:	0306                	slli	t1,t1,0x1
    2a0c:	0900                	addi	s0,sp,144
    2a0e:	0000                	unimp
    2a10:	0501                	addi	a0,a0,0
    2a12:	0602                	c.slli64	a2
    2a14:	04090103          	lb	sp,64(s2)
    2a18:	0100                	addi	s0,sp,128
    2a1a:	0f05                	addi	t5,t5,1
    2a1c:	0306                	slli	t1,t1,0x1
    2a1e:	0900                	addi	s0,sp,144
    2a20:	0000                	unimp
    2a22:	0501                	addi	a0,a0,0
    2a24:	0602                	c.slli64	a2
    2a26:	04090103          	lb	sp,64(s2)
    2a2a:	0100                	addi	s0,sp,128
    2a2c:	1005                	c.nop	-31
    2a2e:	0306                	slli	t1,t1,0x1
    2a30:	0900                	addi	s0,sp,144
    2a32:	0000                	unimp
    2a34:	0501                	addi	a0,a0,0
    2a36:	0602                	c.slli64	a2
    2a38:	04090103          	lb	sp,64(s2)
    2a3c:	0100                	addi	s0,sp,128
    2a3e:	04090203          	lb	tp,64(s2)
    2a42:	0100                	addi	s0,sp,128
    2a44:	0104                	addi	s1,sp,128
    2a46:	0905                	addi	s2,s2,1
    2a48:	00092a03          	lw	s4,0(s2)
    2a4c:	0100                	addi	s0,sp,128
    2a4e:	1205                	addi	tp,tp,-31
    2a50:	0306                	slli	t1,t1,0x1
    2a52:	0900                	addi	s0,sp,144
    2a54:	0000                	unimp
    2a56:	0501                	addi	a0,a0,0
    2a58:	0609                	addi	a2,a2,2
    2a5a:	0c090103          	lb	sp,192(s2)
    2a5e:	0100                	addi	s0,sp,128
    2a60:	0c05                	addi	s8,s8,1
    2a62:	0306                	slli	t1,t1,0x1
    2a64:	0900                	addi	s0,sp,144
    2a66:	0000                	unimp
    2a68:	0501                	addi	a0,a0,0
    2a6a:	04020017          	auipc	zero,0x4020
    2a6e:	0301                	addi	t1,t1,0
    2a70:	0900                	addi	s0,sp,144
    2a72:	0004                	0x4
    2a74:	0501                	addi	a0,a0,0
    2a76:	030c                	addi	a1,sp,384
    2a78:	00140973          	0x140973
    2a7c:	0501                	addi	a0,a0,0
    2a7e:	0605                	addi	a2,a2,1
    2a80:	04091003          	lh	zero,64(s2)
    2a84:	0100                	addi	s0,sp,128
    2a86:	0c05                	addi	s8,s8,1
    2a88:	0306                	slli	t1,t1,0x1
    2a8a:	0900                	addi	s0,sp,144
    2a8c:	0000                	unimp
    2a8e:	0501                	addi	a0,a0,0
    2a90:	0605                	addi	a2,a2,1
    2a92:	08090103          	lb	sp,128(s2)
    2a96:	0100                	addi	s0,sp,128
    2a98:	0105                	addi	sp,sp,1
    2a9a:	0306                	slli	t1,t1,0x1
    2a9c:	0901                	addi	s2,s2,0
    2a9e:	0000                	unimp
    2aa0:	0501                	addi	a0,a0,0
    2aa2:	0605                	addi	a2,a2,1
    2aa4:	08097e03          	0x8097e03
    2aa8:	0100                	addi	s0,sp,128
    2aaa:	0c05                	addi	s8,s8,1
    2aac:	0306                	slli	t1,t1,0x1
    2aae:	0900                	addi	s0,sp,144
    2ab0:	0000                	unimp
    2ab2:	0501                	addi	a0,a0,0
    2ab4:	0605                	addi	a2,a2,1
    2ab6:	08090103          	lb	sp,128(s2)
    2aba:	0100                	addi	s0,sp,128
    2abc:	0105                	addi	sp,sp,1
    2abe:	0306                	slli	t1,t1,0x1
    2ac0:	0901                	addi	s2,s2,0
    2ac2:	0000                	unimp
    2ac4:	0501                	addi	a0,a0,0
    2ac6:	062a                	slli	a2,a2,0xa
    2ac8:	10090203          	lb	tp,256(s2)
    2acc:	0100                	addi	s0,sp,128
    2ace:	0505                	addi	a0,a0,1
    2ad0:	14090103          	lb	sp,320(s2)
    2ad4:	0100                	addi	s0,sp,128
    2ad6:	00090103          	lb	sp,0(s2)
    2ada:	0100                	addi	s0,sp,128
    2adc:	00090203          	lb	tp,0(s2)
    2ae0:	0100                	addi	s0,sp,128
    2ae2:	0204                	addi	s1,sp,256
    2ae4:	00090303          	lb	t1,0(s2)
    2ae8:	0100                	addi	s0,sp,128
    2aea:	0304                	addi	s1,sp,384
    2aec:	0205                	addi	tp,tp,1
    2aee:	097fbe03          	ld	t3,151(t6) # fffffffffffea097 <end+0xfffffffffefe8097>
    2af2:	0000                	unimp
    2af4:	0501                	addi	a0,a0,0
    2af6:	0003060f          	0x3060f
    2afa:	0009                	c.nop	2
    2afc:	0100                	addi	s0,sp,128
    2afe:	0205                	addi	tp,tp,1
    2b00:	0306                	slli	t1,t1,0x1
    2b02:	0901                	addi	s2,s2,0
    2b04:	0004                	0x4
    2b06:	0501                	addi	a0,a0,0
    2b08:	0003060f          	0x3060f
    2b0c:	0009                	c.nop	2
    2b0e:	0100                	addi	s0,sp,128
    2b10:	0205                	addi	tp,tp,1
    2b12:	0306                	slli	t1,t1,0x1
    2b14:	0901                	addi	s2,s2,0
    2b16:	0004                	0x4
    2b18:	0501                	addi	a0,a0,0
    2b1a:	0003060f          	0x3060f
    2b1e:	0009                	c.nop	2
    2b20:	0100                	addi	s0,sp,128
    2b22:	0205                	addi	tp,tp,1
    2b24:	0306                	slli	t1,t1,0x1
    2b26:	0901                	addi	s2,s2,0
    2b28:	0004                	0x4
    2b2a:	0501                	addi	a0,a0,0
    2b2c:	0003060f          	0x3060f
    2b30:	0009                	c.nop	2
    2b32:	0100                	addi	s0,sp,128
    2b34:	0205                	addi	tp,tp,1
    2b36:	0306                	slli	t1,t1,0x1
    2b38:	0901                	addi	s2,s2,0
    2b3a:	0004                	0x4
    2b3c:	0501                	addi	a0,a0,0
    2b3e:	0003060f          	0x3060f
    2b42:	0009                	c.nop	2
    2b44:	0100                	addi	s0,sp,128
    2b46:	0205                	addi	tp,tp,1
    2b48:	0306                	slli	t1,t1,0x1
    2b4a:	0901                	addi	s2,s2,0
    2b4c:	0004                	0x4
    2b4e:	0501                	addi	a0,a0,0
    2b50:	0003060f          	0x3060f
    2b54:	0009                	c.nop	2
    2b56:	0100                	addi	s0,sp,128
    2b58:	0205                	addi	tp,tp,1
    2b5a:	0306                	slli	t1,t1,0x1
    2b5c:	0901                	addi	s2,s2,0
    2b5e:	0004                	0x4
    2b60:	0501                	addi	a0,a0,0
    2b62:	0610                	addi	a2,sp,768
    2b64:	00090003          	lb	zero,0(s2)
    2b68:	0100                	addi	s0,sp,128
    2b6a:	0205                	addi	tp,tp,1
    2b6c:	0306                	slli	t1,t1,0x1
    2b6e:	0901                	addi	s2,s2,0
    2b70:	0004                	0x4
    2b72:	0301                	addi	t1,t1,0
    2b74:	0902                	c.slli64	s2
    2b76:	0004                	0x4
    2b78:	0401                	addi	s0,s0,0
    2b7a:	0502                	c.slli64	a0
    2b7c:	060c                	addi	a1,sp,768
    2b7e:	00093903          	ld	s2,0(s2)
    2b82:	0100                	addi	s0,sp,128
    2b84:	0104                	addi	s1,sp,128
    2b86:	0505                	addi	a0,a0,1
    2b88:	0306                	slli	t1,t1,0x1
    2b8a:	097e                	slli	s2,s2,0x1f
    2b8c:	0004                	0x4
    2b8e:	0501                	addi	a0,a0,0
    2b90:	0608                	addi	a0,sp,768
    2b92:	00090003          	lb	zero,0(s2)
    2b96:	0100                	addi	s0,sp,128
    2b98:	0505                	addi	a0,a0,1
    2b9a:	0306                	slli	t1,t1,0x1
    2b9c:	0902                	c.slli64	s2
    2b9e:	0004                	0x4
    2ba0:	0401                	addi	s0,s0,0
    2ba2:	0302                	c.slli64	t1
    2ba4:	0920                	addi	s0,sp,152
    2ba6:	0000                	unimp
    2ba8:	0401                	addi	s0,s0,0
    2baa:	03020503          	lb	a0,48(tp) # 30 <_text-0x9fffd0>
    2bae:	7f9e                	ld	t6,480(sp)
    2bb0:	0009                	c.nop	2
    2bb2:	0100                	addi	s0,sp,128
    2bb4:	0f05                	addi	t5,t5,1
    2bb6:	0306                	slli	t1,t1,0x1
    2bb8:	0900                	addi	s0,sp,144
    2bba:	0000                	unimp
    2bbc:	0501                	addi	a0,a0,0
    2bbe:	0602                	c.slli64	a2
    2bc0:	04090103          	lb	sp,64(s2)
    2bc4:	0100                	addi	s0,sp,128
    2bc6:	0f05                	addi	t5,t5,1
    2bc8:	0306                	slli	t1,t1,0x1
    2bca:	0900                	addi	s0,sp,144
    2bcc:	0000                	unimp
    2bce:	0501                	addi	a0,a0,0
    2bd0:	0602                	c.slli64	a2
    2bd2:	04090103          	lb	sp,64(s2)
    2bd6:	0100                	addi	s0,sp,128
    2bd8:	00090103          	lb	sp,0(s2)
    2bdc:	0100                	addi	s0,sp,128
    2bde:	0f05                	addi	t5,t5,1
    2be0:	0306                	slli	t1,t1,0x1
    2be2:	0900                	addi	s0,sp,144
    2be4:	0000                	unimp
    2be6:	0501                	addi	a0,a0,0
    2be8:	0602                	c.slli64	a2
    2bea:	04090103          	lb	sp,64(s2)
    2bee:	0100                	addi	s0,sp,128
    2bf0:	00090103          	lb	sp,0(s2)
    2bf4:	0100                	addi	s0,sp,128
    2bf6:	00090103          	lb	sp,0(s2)
    2bfa:	0100                	addi	s0,sp,128
    2bfc:	1005                	c.nop	-31
    2bfe:	0306                	slli	t1,t1,0x1
    2c00:	0900                	addi	s0,sp,144
    2c02:	0000                	unimp
    2c04:	0501                	addi	a0,a0,0
    2c06:	0602                	c.slli64	a2
    2c08:	04090103          	lb	sp,64(s2)
    2c0c:	0100                	addi	s0,sp,128
    2c0e:	04090203          	lb	tp,64(s2)
    2c12:	0100                	addi	s0,sp,128
    2c14:	0204                	addi	s1,sp,256
    2c16:	0c05                	addi	s8,s8,1
    2c18:	0306                	slli	t1,t1,0x1
    2c1a:	00d9                	addi	ra,ra,22
    2c1c:	0009                	c.nop	2
    2c1e:	0100                	addi	s0,sp,128
    2c20:	0104                	addi	s1,sp,128
    2c22:	0505                	addi	a0,a0,1
    2c24:	0306                	slli	t1,t1,0x1
    2c26:	0961                	addi	s2,s2,24
    2c28:	0004                	0x4
    2c2a:	0401                	addi	s0,s0,0
    2c2c:	0302                	c.slli64	t1
    2c2e:	0000097b          	0x97b
    2c32:	0401                	addi	s0,s0,0
    2c34:	03020503          	lb	a0,48(tp) # 30 <_text-0x9fffd0>
    2c38:	0942                	slli	s2,s2,0x10
    2c3a:	0000                	unimp
    2c3c:	0501                	addi	a0,a0,0
    2c3e:	0003060f          	0x3060f
    2c42:	0009                	c.nop	2
    2c44:	0100                	addi	s0,sp,128
    2c46:	0205                	addi	tp,tp,1
    2c48:	0306                	slli	t1,t1,0x1
    2c4a:	0901                	addi	s2,s2,0
    2c4c:	0004                	0x4
    2c4e:	0501                	addi	a0,a0,0
    2c50:	0003060f          	0x3060f
    2c54:	0009                	c.nop	2
    2c56:	0100                	addi	s0,sp,128
    2c58:	0205                	addi	tp,tp,1
    2c5a:	0306                	slli	t1,t1,0x1
    2c5c:	0901                	addi	s2,s2,0
    2c5e:	0004                	0x4
    2c60:	0301                	addi	t1,t1,0
    2c62:	0901                	addi	s2,s2,0
    2c64:	0000                	unimp
    2c66:	0301                	addi	t1,t1,0
    2c68:	0901                	addi	s2,s2,0
    2c6a:	0000                	unimp
    2c6c:	0301                	addi	t1,t1,0
    2c6e:	0901                	addi	s2,s2,0
    2c70:	0000                	unimp
    2c72:	0301                	addi	t1,t1,0
    2c74:	0901                	addi	s2,s2,0
    2c76:	0000                	unimp
    2c78:	0501                	addi	a0,a0,0
    2c7a:	0610                	addi	a2,sp,768
    2c7c:	00090003          	lb	zero,0(s2)
    2c80:	0100                	addi	s0,sp,128
    2c82:	0205                	addi	tp,tp,1
    2c84:	0306                	slli	t1,t1,0x1
    2c86:	0901                	addi	s2,s2,0
    2c88:	0004                	0x4
    2c8a:	0301                	addi	t1,t1,0
    2c8c:	0902                	c.slli64	s2
    2c8e:	0004                	0x4
    2c90:	0401                	addi	s0,s0,0
    2c92:	0501                	addi	a0,a0,0
    2c94:	0601                	addi	a2,a2,0
    2c96:	00093c03          	ld	s8,0(s2)
    2c9a:	0100                	addi	s0,sp,128
    2c9c:	1005                	c.nop	-31
    2c9e:	10097c03          	0x10097c03
    2ca2:	0100                	addi	s0,sp,128
    2ca4:	1905                	addi	s2,s2,-31
    2ca6:	0306                	slli	t1,t1,0x1
    2ca8:	0906                	slli	s2,s2,0x1
    2caa:	0008                	0x8
    2cac:	0501                	addi	a0,a0,0
    2cae:	0305                	addi	t1,t1,1
    2cb0:	0901                	addi	s2,s2,0
    2cb2:	000c                	0xc
    2cb4:	0301                	addi	t1,t1,0
    2cb6:	0902                	c.slli64	s2
    2cb8:	0000                	unimp
    2cba:	0301                	addi	t1,t1,0
    2cbc:	0901                	addi	s2,s2,0
    2cbe:	0000                	unimp
    2cc0:	0501                	addi	a0,a0,0
    2cc2:	0316                	slli	t1,t1,0x5
    2cc4:	0900                	addi	s0,sp,144
    2cc6:	0000                	unimp
    2cc8:	0501                	addi	a0,a0,0
    2cca:	00030613          	mv	a2,t1
    2cce:	0009                	c.nop	2
    2cd0:	0100                	addi	s0,sp,128
    2cd2:	1605                	addi	a2,a2,-31
    2cd4:	04090003          	lb	zero,64(s2)
    2cd8:	0100                	addi	s0,sp,128
    2cda:	0705                	addi	a4,a4,1
    2cdc:	14097f03          	0x14097f03
    2ce0:	0100                	addi	s0,sp,128
    2ce2:	0905                	addi	s2,s2,1
    2ce4:	0306                	slli	t1,t1,0x1
    2ce6:	0902                	c.slli64	s2
    2ce8:	0004                	0x4
    2cea:	0501                	addi	a0,a0,0
    2cec:	0618                	addi	a4,sp,768
    2cee:	00090003          	lb	zero,0(s2)
    2cf2:	0100                	addi	s0,sp,128
    2cf4:	0f05                	addi	t5,t5,1
    2cf6:	04090003          	lb	zero,64(s2)
    2cfa:	0100                	addi	s0,sp,128
    2cfc:	1405                	addi	s0,s0,-31
    2cfe:	0c090003          	lb	zero,192(s2)
    2d02:	0100                	addi	s0,sp,128
    2d04:	0b05                	addi	s6,s6,1
    2d06:	04090003          	lb	zero,64(s2)
    2d0a:	0100                	addi	s0,sp,128
    2d0c:	1605                	addi	a2,a2,-31
    2d0e:	0306                	slli	t1,t1,0x1
    2d10:	097f                	0x97f
    2d12:	0004                	0x4
    2d14:	0501                	addi	a0,a0,0
    2d16:	00030613          	mv	a2,t1
    2d1a:	0009                	c.nop	2
    2d1c:	0100                	addi	s0,sp,128
    2d1e:	1605                	addi	a2,a2,-31
    2d20:	04090003          	lb	zero,64(s2)
    2d24:	0100                	addi	s0,sp,128
    2d26:	0505                	addi	a0,a0,1
    2d28:	0306                	slli	t1,t1,0x1
    2d2a:	0902                	c.slli64	s2
    2d2c:	000c                	0xc
    2d2e:	0501                	addi	a0,a0,0
    2d30:	0601                	addi	a2,a2,0
    2d32:	00090103          	lb	sp,0(s2)
    2d36:	0100                	addi	s0,sp,128
    2d38:	0705                	addi	a4,a4,1
    2d3a:	0c097c03          	0xc097c03
    2d3e:	0100                	addi	s0,sp,128
    2d40:	3405                	addiw	s0,s0,-31
    2d42:	0306                	slli	t1,t1,0x1
    2d44:	0906                	slli	s2,s2,0x1
    2d46:	0008                	0x8
    2d48:	0501                	addi	a0,a0,0
    2d4a:	0305                	addi	t1,t1,1
    2d4c:	0901                	addi	s2,s2,0
    2d4e:	000c                	0xc
    2d50:	0301                	addi	t1,t1,0
    2d52:	0901                	addi	s2,s2,0
    2d54:	0000                	unimp
    2d56:	0301                	addi	t1,t1,0
    2d58:	0902                	c.slli64	s2
    2d5a:	0000                	unimp
    2d5c:	0301                	addi	t1,t1,0
    2d5e:	0901                	addi	s2,s2,0
    2d60:	0000                	unimp
    2d62:	0301                	addi	t1,t1,0
    2d64:	0901                	addi	s2,s2,0
    2d66:	0000                	unimp
    2d68:	0501                	addi	a0,a0,0
    2d6a:	0608                	addi	a0,sp,768
    2d6c:	00090003          	lb	zero,0(s2)
    2d70:	0100                	addi	s0,sp,128
    2d72:	1405                	addi	s0,s0,-31
    2d74:	0306                	slli	t1,t1,0x1
    2d76:	0901                	addi	s2,s2,0
    2d78:	0004                	0x4
    2d7a:	0501                	addi	a0,a0,0
    2d7c:	0609                	addi	a2,a2,2
    2d7e:	10097d03          	0x10097d03
    2d82:	0100                	addi	s0,sp,128
    2d84:	0d05                	addi	s10,s10,1
    2d86:	0306                	slli	t1,t1,0x1
    2d88:	0904                	addi	s1,sp,144
    2d8a:	0004                	0x4
    2d8c:	0501                	addi	a0,a0,0
    2d8e:	061a                	slli	a2,a2,0x6
    2d90:	00090003          	lb	zero,0(s2)
    2d94:	0100                	addi	s0,sp,128
    2d96:	1105                	addi	sp,sp,-31
    2d98:	04090003          	lb	zero,64(s2)
    2d9c:	0100                	addi	s0,sp,128
    2d9e:	1605                	addi	a2,a2,-31
    2da0:	04090003          	lb	zero,64(s2)
    2da4:	0100                	addi	s0,sp,128
    2da6:	1405                	addi	s0,s0,-31
    2da8:	04090003          	lb	zero,64(s2)
    2dac:	0100                	addi	s0,sp,128
    2dae:	0306                	slli	t1,t1,0x1
    2db0:	097f                	0x97f
    2db2:	0004                	0x4
    2db4:	0501                	addi	a0,a0,0
    2db6:	0305                	addi	t1,t1,1
    2db8:	0908                	addi	a0,sp,144
    2dba:	0004                	0x4
    2dbc:	0501                	addi	a0,a0,0
    2dbe:	0601                	addi	a2,a2,0
    2dc0:	00090103          	lb	sp,0(s2)
    2dc4:	0100                	addi	s0,sp,128
    2dc6:	0905                	addi	s2,s2,1
    2dc8:	0306                	slli	t1,t1,0x1
    2dca:	097a                	slli	s2,s2,0x1e
    2dcc:	000c                	0xc
    2dce:	0501                	addi	a0,a0,0
    2dd0:	060d                	addi	a2,a2,3
    2dd2:	00090003          	lb	zero,0(s2)
    2dd6:	0100                	addi	s0,sp,128
    2dd8:	0905                	addi	s2,s2,1
    2dda:	0306                	slli	t1,t1,0x1
    2ddc:	0901                	addi	s2,s2,0
    2dde:	0004                	0x4
    2de0:	0501                	addi	a0,a0,0
    2de2:	060d                	addi	a2,a2,3
    2de4:	00090003          	lb	zero,0(s2)
    2de8:	0100                	addi	s0,sp,128
    2dea:	0905                	addi	s2,s2,1
    2dec:	0306                	slli	t1,t1,0x1
    2dee:	0901                	addi	s2,s2,0
    2df0:	0004                	0x4
    2df2:	0501                	addi	a0,a0,0
    2df4:	0314                	addi	a3,sp,384
    2df6:	0900                	addi	s0,sp,144
    2df8:	0000                	unimp
    2dfa:	0501                	addi	a0,a0,0
    2dfc:	030d                	addi	t1,t1,3
    2dfe:	0901                	addi	s2,s2,0
    2e00:	0018                	0x18
    2e02:	0501                	addi	a0,a0,0
    2e04:	0614                	addi	a3,sp,768
    2e06:	00090003          	lb	zero,0(s2)
    2e0a:	0100                	addi	s0,sp,128
    2e0c:	1605                	addi	a2,a2,-31
    2e0e:	08090003          	lb	zero,128(s2)
    2e12:	0100                	addi	s0,sp,128
    2e14:	1405                	addi	s0,s0,-31
    2e16:	04090003          	lb	zero,64(s2)
    2e1a:	0100                	addi	s0,sp,128
    2e1c:	0306                	slli	t1,t1,0x1
    2e1e:	097f                	0x97f
    2e20:	0004                	0x4
    2e22:	0501                	addi	a0,a0,0
    2e24:	0334                	addi	a3,sp,392
    2e26:	0906                	slli	s2,s2,0x1
    2e28:	0008                	0x8
    2e2a:	0501                	addi	a0,a0,0
    2e2c:	0305                	addi	t1,t1,1
    2e2e:	0901                	addi	s2,s2,0
    2e30:	000c                	0xc
    2e32:	0301                	addi	t1,t1,0
    2e34:	0901                	addi	s2,s2,0
    2e36:	0000                	unimp
    2e38:	0501                	addi	a0,a0,0
    2e3a:	0310                	addi	a2,sp,384
    2e3c:	0900                	addi	s0,sp,144
    2e3e:	0000                	unimp
    2e40:	0501                	addi	a0,a0,0
    2e42:	0309                	addi	t1,t1,2
    2e44:	0901                	addi	s2,s2,0
    2e46:	0018                	0x18
    2e48:	0501                	addi	a0,a0,0
    2e4a:	060d                	addi	a2,a2,3
    2e4c:	00090003          	lb	zero,0(s2)
    2e50:	0100                	addi	s0,sp,128
    2e52:	1405                	addi	s0,s0,-31
    2e54:	04090003          	lb	zero,64(s2)
    2e58:	0100                	addi	s0,sp,128
    2e5a:	0c05                	addi	s8,s8,1
    2e5c:	04090003          	lb	zero,64(s2)
    2e60:	0100                	addi	s0,sp,128
    2e62:	0905                	addi	s2,s2,1
    2e64:	0306                	slli	t1,t1,0x1
    2e66:	00040903          	lb	s2,0(s0) # 9000 <_text-0x9f7000>
    2e6a:	0501                	addi	a0,a0,0
    2e6c:	0003060b          	0x3060b
    2e70:	0009                	c.nop	2
    2e72:	0100                	addi	s0,sp,128
    2e74:	0905                	addi	s2,s2,1
    2e76:	0306                	slli	t1,t1,0x1
    2e78:	0901                	addi	s2,s2,0
    2e7a:	0004                	0x4
    2e7c:	0501                	addi	a0,a0,0
    2e7e:	0003060b          	0x3060b
    2e82:	0009                	c.nop	2
    2e84:	0100                	addi	s0,sp,128
    2e86:	1005                	c.nop	-31
    2e88:	0306                	slli	t1,t1,0x1
    2e8a:	0004097b          	0x4097b
    2e8e:	0501                	addi	a0,a0,0
    2e90:	060c                	addi	a1,sp,768
    2e92:	04090703          	lb	a4,64(s2)
    2e96:	0100                	addi	s0,sp,128
    2e98:	0d05                	addi	s10,s10,1
    2e9a:	0306                	slli	t1,t1,0x1
    2e9c:	0008097b          	0x8097b
    2ea0:	0501                	addi	a0,a0,0
    2ea2:	0618                	addi	a4,sp,768
    2ea4:	00090003          	lb	zero,0(s2)
    2ea8:	0100                	addi	s0,sp,128
    2eaa:	0105                	addi	sp,sp,1
    2eac:	04090603          	lb	a2,64(s2)
    2eb0:	0100                	addi	s0,sp,128
    2eb2:	0c05                	addi	s8,s8,1
    2eb4:	0c097f03          	0xc097f03
    2eb8:	0100                	addi	s0,sp,128
    2eba:	3205                	addiw	tp,tp,-31
    2ebc:	0306                	slli	t1,t1,0x1
    2ebe:	00080903          	lb	s2,0(a6)
    2ec2:	0501                	addi	a0,a0,0
    2ec4:	0305                	addi	t1,t1,1
    2ec6:	0901                	addi	s2,s2,0
    2ec8:	0010                	0x10
    2eca:	0501                	addi	a0,a0,0
    2ecc:	060c                	addi	a1,sp,768
    2ece:	00090003          	lb	zero,0(s2)
    2ed2:	0100                	addi	s0,sp,128
    2ed4:	0105                	addi	sp,sp,1
    2ed6:	08090103          	lb	sp,128(s2)
    2eda:	0100                	addi	s0,sp,128
    2edc:	1009                	c.nop	-30
    2ede:	0000                	unimp
    2ee0:	0101                	addi	sp,sp,0
    2ee2:	0472                	slli	s0,s0,0x1c
    2ee4:	0000                	unimp
    2ee6:	0005                	c.nop	1
    2ee8:	0008                	0x8
    2eea:	004a                	c.slli	zero,0x12
    2eec:	0000                	unimp
    2eee:	0101                	addi	sp,sp,0
    2ef0:	fb01                	bnez	a4,2e00 <_text-0x9fd200>
    2ef2:	0d0e                	slli	s10,s10,0x3
    2ef4:	0100                	addi	s0,sp,128
    2ef6:	0101                	addi	sp,sp,0
    2ef8:	0001                	nop
    2efa:	0000                	unimp
    2efc:	0001                	nop
    2efe:	0100                	addi	s0,sp,128
    2f00:	0101                	addi	sp,sp,0
    2f02:	041f 0000 0000      	0x41f
    2f08:	004e                	c.slli	zero,0x13
    2f0a:	0000                	unimp
    2f0c:	0034                	addi	a3,sp,8
    2f0e:	0000                	unimp
    2f10:	0040                	addi	s0,sp,4
    2f12:	0000                	unimp
    2f14:	0102                	c.slli64	sp
    2f16:	021f 060f 00aa      	0xaa060f021f
    2f1c:	0000                	unimp
    2f1e:	aa00                	fsd	fs0,16(a2)
    2f20:	0000                	unimp
    2f22:	0000                	unimp
    2f24:	0058                	addi	a4,sp,4
    2f26:	0000                	unimp
    2f28:	6501                	0x6501
    2f2a:	0000                	unimp
    2f2c:	0200                	addi	s0,sp,256
    2f2e:	0078                	addi	a4,sp,12
    2f30:	0000                	unimp
    2f32:	00006f03          	lwu	t5,0(zero) # 0 <_text-0xa00000>
    2f36:	0100                	addi	s0,sp,128
    2f38:	1505                	addi	a0,a0,-31
    2f3a:	0900                	addi	s0,sp,144
    2f3c:	7c02                	ld	s8,32(sp)
    2f3e:	0000a013          	slti	zero,ra,0
    2f42:	0000                	unimp
    2f44:	0300                	addi	s0,sp,384
    2f46:	0119                	addi	sp,sp,6
    2f48:	0505                	addi	a0,a0,1
    2f4a:	0c090103          	lb	sp,192(s2)
    2f4e:	0100                	addi	s0,sp,128
    2f50:	00090203          	lb	tp,0(s2)
    2f54:	0100                	addi	s0,sp,128
    2f56:	0805                	addi	a6,a6,1
    2f58:	0306                	slli	t1,t1,0x1
    2f5a:	0900                	addi	s0,sp,144
    2f5c:	0000                	unimp
    2f5e:	0501                	addi	a0,a0,0
    2f60:	0605                	addi	a2,a2,1
    2f62:	04090103          	lb	sp,64(s2)
    2f66:	0100                	addi	s0,sp,128
    2f68:	0c05                	addi	s8,s8,1
    2f6a:	0306                	slli	t1,t1,0x1
    2f6c:	0900                	addi	s0,sp,144
    2f6e:	0000                	unimp
    2f70:	0501                	addi	a0,a0,0
    2f72:	0305                	addi	t1,t1,1
    2f74:	0900                	addi	s0,sp,144
    2f76:	0008                	0x8
    2f78:	0501                	addi	a0,a0,0
    2f7a:	0609                	addi	a2,a2,2
    2f7c:	04090403          	lb	s0,64(s2)
    2f80:	0100                	addi	s0,sp,128
    2f82:	1405                	addi	s0,s0,-31
    2f84:	0306                	slli	t1,t1,0x1
    2f86:	0900                	addi	s0,sp,144
    2f88:	0000                	unimp
    2f8a:	0501                	addi	a0,a0,0
    2f8c:	0609                	addi	a2,a2,2
    2f8e:	0c090103          	lb	sp,192(s2)
    2f92:	0100                	addi	s0,sp,128
    2f94:	2005                	0x2005
    2f96:	0306                	slli	t1,t1,0x1
    2f98:	0900                	addi	s0,sp,144
    2f9a:	0000                	unimp
    2f9c:	0501                	addi	a0,a0,0
    2f9e:	0609                	addi	a2,a2,2
    2fa0:	0c090403          	lb	s0,192(s2)
    2fa4:	0100                	addi	s0,sp,128
    2fa6:	1305                	addi	t1,t1,-31
    2fa8:	0306                	slli	t1,t1,0x1
    2faa:	0900                	addi	s0,sp,144
    2fac:	0000                	unimp
    2fae:	0501                	addi	a0,a0,0
    2fb0:	0609                	addi	a2,a2,2
    2fb2:	0c090103          	lb	sp,192(s2)
    2fb6:	0100                	addi	s0,sp,128
    2fb8:	1905                	addi	s2,s2,-31
    2fba:	0306                	slli	t1,t1,0x1
    2fbc:	0900                	addi	s0,sp,144
    2fbe:	0000                	unimp
    2fc0:	0501                	addi	a0,a0,0
    2fc2:	0609                	addi	a2,a2,2
    2fc4:	08097703          	0x8097703
    2fc8:	0100                	addi	s0,sp,128
    2fca:	1605                	addi	a2,a2,-31
    2fcc:	0306                	slli	t1,t1,0x1
    2fce:	0900                	addi	s0,sp,144
    2fd0:	0000                	unimp
    2fd2:	0501                	addi	a0,a0,0
    2fd4:	030c                	addi	a1,sp,384
    2fd6:	0900                	addi	s0,sp,144
    2fd8:	0004                	0x4
    2fda:	0501                	addi	a0,a0,0
    2fdc:	0026                	c.slli	zero,0x9
    2fde:	0402                	c.slli64	s0
    2fe0:	0302                	c.slli64	t1
    2fe2:	0900                	addi	s0,sp,144
    2fe4:	0004                	0x4
    2fe6:	0501                	addi	a0,a0,0
    2fe8:	0015                	c.nop	5
    2fea:	0402                	c.slli64	s0
    2fec:	0301                	addi	t1,t1,0
    2fee:	0004097b          	0x4097b
    2ff2:	0001                	nop
    2ff4:	0402                	c.slli64	s0
    2ff6:	0601                	addi	a2,a2,0
    2ff8:	04090403          	lb	s0,64(s2)
    2ffc:	0100                	addi	s0,sp,128
    2ffe:	2a05                	addiw	s4,s4,1
    3000:	0200                	addi	s0,sp,256
    3002:	0304                	addi	s1,sp,384
    3004:	0306                	slli	t1,t1,0x1
    3006:	0900                	addi	s0,sp,144
    3008:	0004                	0x4
    300a:	0501                	addi	a0,a0,0
    300c:	0015                	c.nop	5
    300e:	0402                	c.slli64	s0
    3010:	09000303          	lb	t1,144(zero) # 90 <_text-0x9fff70>
    3014:	0004                	0x4
    3016:	0501                	addi	a0,a0,0
    3018:	0609                	addi	a2,a2,2
    301a:	04090103          	lb	sp,64(s2)
    301e:	0100                	addi	s0,sp,128
    3020:	0c05                	addi	s8,s8,1
    3022:	0306                	slli	t1,t1,0x1
    3024:	0900                	addi	s0,sp,144
    3026:	0000                	unimp
    3028:	0501                	addi	a0,a0,0
    302a:	0605                	addi	a2,a2,1
    302c:	04090203          	lb	tp,64(s2)
    3030:	0100                	addi	s0,sp,128
    3032:	1305                	addi	t1,t1,-31
    3034:	0306                	slli	t1,t1,0x1
    3036:	0900                	addi	s0,sp,144
    3038:	0000                	unimp
    303a:	0501                	addi	a0,a0,0
    303c:	0320                	addi	s0,sp,392
    303e:	0900                	addi	s0,sp,144
    3040:	0004                	0x4
    3042:	0501                	addi	a0,a0,0
    3044:	030c                	addi	a1,sp,384
    3046:	0900                	addi	s0,sp,144
    3048:	0004                	0x4
    304a:	0501                	addi	a0,a0,0
    304c:	0308                	addi	a0,sp,384
    304e:	0900                	addi	s0,sp,144
    3050:	000c                	0xc
    3052:	0501                	addi	a0,a0,0
    3054:	09020313          	addi	t1,tp,144 # 90 <_text-0x9fff70>
    3058:	0004                	0x4
    305a:	0501                	addi	a0,a0,0
    305c:	0605                	addi	a2,a2,1
    305e:	04090303          	lb	t1,64(s2)
    3062:	0100                	addi	s0,sp,128
    3064:	1105                	addi	sp,sp,-31
    3066:	0306                	slli	t1,t1,0x1
    3068:	0900                	addi	s0,sp,144
    306a:	0000                	unimp
    306c:	0501                	addi	a0,a0,0
    306e:	0900030b          	0x900030b
    3072:	0004                	0x4
    3074:	0501                	addi	a0,a0,0
    3076:	0308                	addi	a0,sp,384
    3078:	0900                	addi	s0,sp,144
    307a:	000c                	0xc
    307c:	0501                	addi	a0,a0,0
    307e:	0312                	slli	t1,t1,0x4
    3080:	0902                	c.slli64	s2
    3082:	0004                	0x4
    3084:	0501                	addi	a0,a0,0
    3086:	0605                	addi	a2,a2,1
    3088:	04090303          	lb	t1,64(s2)
    308c:	0100                	addi	s0,sp,128
    308e:	0b05                	addi	s6,s6,1
    3090:	0306                	slli	t1,t1,0x1
    3092:	0900                	addi	s0,sp,144
    3094:	0000                	unimp
    3096:	0501                	addi	a0,a0,0
    3098:	0301                	addi	t1,t1,0
    309a:	0901                	addi	s2,s2,0
    309c:	0008                	0x8
    309e:	0501                	addi	a0,a0,0
    30a0:	1103061b          	addiw	a2,t1,272
    30a4:	0c09                	addi	s8,s8,2
    30a6:	0100                	addi	s0,sp,128
    30a8:	0505                	addi	a0,a0,1
    30aa:	28090103          	lb	sp,640(s2)
    30ae:	0100                	addi	s0,sp,128
    30b0:	00090103          	lb	sp,0(s2)
    30b4:	0100                	addi	s0,sp,128
    30b6:	00090203          	lb	tp,0(s2)
    30ba:	0100                	addi	s0,sp,128
    30bc:	2705                	addiw	a4,a4,1
    30be:	0306                	slli	t1,t1,0x1
    30c0:	0900                	addi	s0,sp,144
    30c2:	0000                	unimp
    30c4:	0501                	addi	a0,a0,0
    30c6:	032c                	addi	a1,sp,392
    30c8:	0900                	addi	s0,sp,144
    30ca:	000c                	0xc
    30cc:	0501                	addi	a0,a0,0
    30ce:	030c                	addi	a1,sp,384
    30d0:	0900                	addi	s0,sp,144
    30d2:	0004                	0x4
    30d4:	0501                	addi	a0,a0,0
    30d6:	0605                	addi	a2,a2,1
    30d8:	08090103          	lb	sp,128(s2)
    30dc:	0100                	addi	s0,sp,128
    30de:	1005                	c.nop	-31
    30e0:	0306                	slli	t1,t1,0x1
    30e2:	0900                	addi	s0,sp,144
    30e4:	0000                	unimp
    30e6:	0501                	addi	a0,a0,0
    30e8:	0308                	addi	a0,sp,384
    30ea:	0900                	addi	s0,sp,144
    30ec:	0008                	0x8
    30ee:	0501                	addi	a0,a0,0
    30f0:	0605                	addi	a2,a2,1
    30f2:	04090403          	lb	s0,64(s2)
    30f6:	0100                	addi	s0,sp,128
    30f8:	0c05                	addi	s8,s8,1
    30fa:	0306                	slli	t1,t1,0x1
    30fc:	0900                	addi	s0,sp,144
    30fe:	0000                	unimp
    3100:	0501                	addi	a0,a0,0
    3102:	0609                	addi	a2,a2,2
    3104:	04090103          	lb	sp,64(s2)
    3108:	0100                	addi	s0,sp,128
    310a:	1105                	addi	sp,sp,-31
    310c:	0306                	slli	t1,t1,0x1
    310e:	0900                	addi	s0,sp,144
    3110:	0000                	unimp
    3112:	0501                	addi	a0,a0,0
    3114:	030c                	addi	a1,sp,384
    3116:	0900                	addi	s0,sp,144
    3118:	0004                	0x4
    311a:	0401                	addi	s0,s0,0
    311c:	0302                	c.slli64	t1
    311e:	0928                	addi	a0,sp,152
    3120:	001c                	0x1c
    3122:	0401                	addi	s0,s0,0
    3124:	0501                	addi	a0,a0,0
    3126:	0963030f          	0x963030f
    312a:	0004                	0x4
    312c:	0501                	addi	a0,a0,0
    312e:	0308                	addi	a0,sp,384
    3130:	00080963          	beqz	a6,3142 <_text-0x9fcebe>
    3134:	0501                	addi	a0,a0,0
    3136:	0609                	addi	a2,a2,2
    3138:	08090e03          	lb	t3,128(s2)
    313c:	0100                	addi	s0,sp,128
    313e:	1c05                	addi	s8,s8,-31
    3140:	0306                	slli	t1,t1,0x1
    3142:	0900                	addi	s0,sp,144
    3144:	0000                	unimp
    3146:	0501                	addi	a0,a0,0
    3148:	0314                	addi	a3,sp,384
    314a:	0900                	addi	s0,sp,144
    314c:	0010                	0x10
    314e:	0501                	addi	a0,a0,0
    3150:	0609                	addi	a2,a2,2
    3152:	04090103          	lb	sp,64(s2)
    3156:	0100                	addi	s0,sp,128
    3158:	1505                	addi	a0,a0,-31
    315a:	0306                	slli	t1,t1,0x1
    315c:	0900                	addi	s0,sp,144
    315e:	0000                	unimp
    3160:	0501                	addi	a0,a0,0
    3162:	0605                	addi	a2,a2,1
    3164:	04090203          	lb	tp,64(s2)
    3168:	0100                	addi	s0,sp,128
    316a:	0905                	addi	s2,s2,1
    316c:	00090103          	lb	sp,0(s2)
    3170:	0100                	addi	s0,sp,128
    3172:	0d05                	addi	s10,s10,1
    3174:	04090103          	lb	sp,64(s2)
    3178:	0100                	addi	s0,sp,128
    317a:	1005                	c.nop	-31
    317c:	0306                	slli	t1,t1,0x1
    317e:	0900                	addi	s0,sp,144
    3180:	0000                	unimp
    3182:	0501                	addi	a0,a0,0
    3184:	0611                	addi	a2,a2,4
    3186:	04090303          	lb	t1,64(s2)
    318a:	0100                	addi	s0,sp,128
    318c:	1b05                	addi	s6,s6,-31
    318e:	0306                	slli	t1,t1,0x1
    3190:	0900                	addi	s0,sp,144
    3192:	0000                	unimp
    3194:	0501                	addi	a0,a0,0
    3196:	0611                	addi	a2,a2,4
    3198:	08090103          	lb	sp,128(s2)
    319c:	0100                	addi	s0,sp,128
    319e:	1305                	addi	t1,t1,-31
    31a0:	0306                	slli	t1,t1,0x1
    31a2:	0900                	addi	s0,sp,144
    31a4:	0000                	unimp
    31a6:	0501                	addi	a0,a0,0
    31a8:	0611                	addi	a2,a2,4
    31aa:	0c090103          	lb	sp,192(s2)
    31ae:	0100                	addi	s0,sp,128
    31b0:	1b05                	addi	s6,s6,-31
    31b2:	0306                	slli	t1,t1,0x1
    31b4:	0900                	addi	s0,sp,144
    31b6:	0000                	unimp
    31b8:	0501                	addi	a0,a0,0
    31ba:	060d                	addi	a2,a2,3
    31bc:	04090203          	lb	tp,64(s2)
    31c0:	0100                	addi	s0,sp,128
    31c2:	1305                	addi	t1,t1,-31
    31c4:	0306                	slli	t1,t1,0x1
    31c6:	0900                	addi	s0,sp,144
    31c8:	0000                	unimp
    31ca:	0501                	addi	a0,a0,0
    31cc:	060d                	addi	a2,a2,3
    31ce:	08090103          	lb	sp,128(s2)
    31d2:	0100                	addi	s0,sp,128
    31d4:	1405                	addi	s0,s0,-31
    31d6:	0306                	slli	t1,t1,0x1
    31d8:	0900                	addi	s0,sp,144
    31da:	0000                	unimp
    31dc:	0501                	addi	a0,a0,0
    31de:	0301                	addi	t1,t1,0
    31e0:	0906                	slli	s2,s2,0x1
    31e2:	0004                	0x4
    31e4:	0501                	addi	a0,a0,0
    31e6:	0611                	addi	a2,a2,4
    31e8:	28097303          	0x28097303
    31ec:	0100                	addi	s0,sp,128
    31ee:	2405                	addiw	s0,s0,1
    31f0:	0306                	slli	t1,t1,0x1
    31f2:	0900                	addi	s0,sp,144
    31f4:	0000                	unimp
    31f6:	0501                	addi	a0,a0,0
    31f8:	031e                	slli	t1,t1,0x7
    31fa:	0900                	addi	s0,sp,144
    31fc:	0004                	0x4
    31fe:	0501                	addi	a0,a0,0
    3200:	0605                	addi	a2,a2,1
    3202:	08096e03          	lwu	t3,128(s2)
    3206:	0100                	addi	s0,sp,128
    3208:	00090103          	lb	sp,0(s2)
    320c:	0100                	addi	s0,sp,128
    320e:	1005                	c.nop	-31
    3210:	0306                	slli	t1,t1,0x1
    3212:	0900                	addi	s0,sp,144
    3214:	0000                	unimp
    3216:	0501                	addi	a0,a0,0
    3218:	0605                	addi	a2,a2,1
    321a:	04090103          	lb	sp,64(s2)
    321e:	0100                	addi	s0,sp,128
    3220:	0c090103          	lb	sp,192(s2)
    3224:	0100                	addi	s0,sp,128
    3226:	0c05                	addi	s8,s8,1
    3228:	0306                	slli	t1,t1,0x1
    322a:	0900                	addi	s0,sp,144
    322c:	0000                	unimp
    322e:	0501                	addi	a0,a0,0
    3230:	0310                	addi	a2,sp,384
    3232:	0919                	addi	s2,s2,6
    3234:	0004                	0x4
    3236:	0501                	addi	a0,a0,0
    3238:	0626                	slli	a2,a2,0x9
    323a:	04097303          	0x4097303
    323e:	0100                	addi	s0,sp,128
    3240:	2a05                	addiw	s4,s4,1
    3242:	0306                	slli	t1,t1,0x1
    3244:	0900                	addi	s0,sp,144
    3246:	0000                	unimp
    3248:	0501                	addi	a0,a0,0
    324a:	0605                	addi	a2,a2,1
    324c:	04090003          	lb	zero,64(s2)
    3250:	0100                	addi	s0,sp,128
    3252:	0905                	addi	s2,s2,1
    3254:	00090103          	lb	sp,0(s2)
    3258:	0100                	addi	s0,sp,128
    325a:	1105                	addi	sp,sp,-31
    325c:	0306                	slli	t1,t1,0x1
    325e:	0900                	addi	s0,sp,144
    3260:	0000                	unimp
    3262:	0501                	addi	a0,a0,0
    3264:	030c                	addi	a1,sp,384
    3266:	0900                	addi	s0,sp,144
    3268:	0004                	0x4
    326a:	0501                	addi	a0,a0,0
    326c:	0609                	addi	a2,a2,2
    326e:	04090b03          	lb	s6,64(s2)
    3272:	0100                	addi	s0,sp,128
    3274:	0c05                	addi	s8,s8,1
    3276:	0306                	slli	t1,t1,0x1
    3278:	0900                	addi	s0,sp,144
    327a:	0000                	unimp
    327c:	0501                	addi	a0,a0,0
    327e:	060d                	addi	a2,a2,3
    3280:	0c090103          	lb	sp,192(s2)
    3284:	0100                	addi	s0,sp,128
    3286:	0505                	addi	a0,a0,1
    3288:	00095c03          	lhu	s8,0(s2)
    328c:	0100                	addi	s0,sp,128
    328e:	00090103          	lb	sp,0(s2)
    3292:	0100                	addi	s0,sp,128
    3294:	00090203          	lb	tp,0(s2)
    3298:	0100                	addi	s0,sp,128
    329a:	00090203          	lb	tp,0(s2)
    329e:	0100                	addi	s0,sp,128
    32a0:	0204                	addi	s1,sp,256
    32a2:	00093b03          	ld	s6,0(s2)
    32a6:	0100                	addi	s0,sp,128
    32a8:	0304                	addi	s1,sp,384
    32aa:	0205                	addi	tp,tp,1
    32ac:	097f9903          	lh	s2,151(t6)
    32b0:	0000                	unimp
    32b2:	0501                	addi	a0,a0,0
    32b4:	0003060f          	0x3060f
    32b8:	0009                	c.nop	2
    32ba:	0100                	addi	s0,sp,128
    32bc:	0205                	addi	tp,tp,1
    32be:	0306                	slli	t1,t1,0x1
    32c0:	0901                	addi	s2,s2,0
    32c2:	0004                	0x4
    32c4:	0501                	addi	a0,a0,0
    32c6:	0003060f          	0x3060f
    32ca:	0009                	c.nop	2
    32cc:	0100                	addi	s0,sp,128
    32ce:	0205                	addi	tp,tp,1
    32d0:	0306                	slli	t1,t1,0x1
    32d2:	0901                	addi	s2,s2,0
    32d4:	0004                	0x4
    32d6:	0501                	addi	a0,a0,0
    32d8:	0003060f          	0x3060f
    32dc:	0009                	c.nop	2
    32de:	0100                	addi	s0,sp,128
    32e0:	0205                	addi	tp,tp,1
    32e2:	0306                	slli	t1,t1,0x1
    32e4:	0901                	addi	s2,s2,0
    32e6:	0004                	0x4
    32e8:	0501                	addi	a0,a0,0
    32ea:	0003060f          	0x3060f
    32ee:	0009                	c.nop	2
    32f0:	0100                	addi	s0,sp,128
    32f2:	0205                	addi	tp,tp,1
    32f4:	0306                	slli	t1,t1,0x1
    32f6:	0901                	addi	s2,s2,0
    32f8:	0004                	0x4
    32fa:	0501                	addi	a0,a0,0
    32fc:	0003060f          	0x3060f
    3300:	0009                	c.nop	2
    3302:	0100                	addi	s0,sp,128
    3304:	0205                	addi	tp,tp,1
    3306:	0306                	slli	t1,t1,0x1
    3308:	0901                	addi	s2,s2,0
    330a:	0004                	0x4
    330c:	0501                	addi	a0,a0,0
    330e:	0003060f          	0x3060f
    3312:	0009                	c.nop	2
    3314:	0100                	addi	s0,sp,128
    3316:	0205                	addi	tp,tp,1
    3318:	0306                	slli	t1,t1,0x1
    331a:	0901                	addi	s2,s2,0
    331c:	0004                	0x4
    331e:	0501                	addi	a0,a0,0
    3320:	0610                	addi	a2,sp,768
    3322:	00090003          	lb	zero,0(s2)
    3326:	0100                	addi	s0,sp,128
    3328:	0205                	addi	tp,tp,1
    332a:	0306                	slli	t1,t1,0x1
    332c:	0901                	addi	s2,s2,0
    332e:	0004                	0x4
    3330:	0301                	addi	t1,t1,0
    3332:	0902                	c.slli64	s2
    3334:	0004                	0x4
    3336:	0401                	addi	s0,s0,0
    3338:	0501                	addi	a0,a0,0
    333a:	0305                	addi	t1,t1,1
    333c:	0924                	addi	s1,sp,152
    333e:	0000                	unimp
    3340:	0501                	addi	a0,a0,0
    3342:	0608                	addi	a0,sp,768
    3344:	00090003          	lb	zero,0(s2)
    3348:	0100                	addi	s0,sp,128
    334a:	1805                	addi	a6,a6,-31
    334c:	04091f03          	lh	t5,64(s2)
    3350:	0100                	addi	s0,sp,128
    3352:	0809                	addi	a6,a6,2
    3354:	0000                	unimp
    3356:	0101                	addi	sp,sp,0

Disassembly of section .debug_line_str:

0000000000000000 <.debug_line_str>:
   0:	6d6f682f          	0x6d6f682f
   4:	2f65                	addiw	t5,t5,25
   6:	6e656863          	bltu	a0,t1,6f6 <_text-0x9ff90a>
   a:	696a                	ld	s2,152(sp)
   c:	7579                	lui	a0,0xffffe
   e:	6e61                	lui	t3,0x18
  10:	7365442f          	0x7365442f
  14:	706f746b          	0x706f746b
  18:	2d534f2f          	0x2d534f2f
  1c:	4952                	lw	s2,20(sp)
  1e:	2f564353          	0x2f564353
  22:	7375                	lui	t1,0xffffd
  24:	7265                	lui	tp,0xffff9
  26:	4500                	lw	s0,8(a0)
  28:	746e                	ld	s0,248(sp)
  2a:	7972                	ld	s2,312(sp)
  2c:	532e                	lw	t1,232(sp)
  2e:	7200                	ld	s0,32(a2)
  30:	2e6d                	addiw	t3,t3,27
  32:	2f2e0063          	beq	t3,s2,312 <_text-0x9ffcee>
  36:	2f2e                	fld	ft10,200(sp)
  38:	6e69                	lui	t3,0x1a
  3a:	64756c63          	bltu	a0,t2,692 <_text-0x9ff96e>
  3e:	0065                	c.nop	25
  40:	2f2e                	fld	ft10,200(sp)
  42:	6e69                	lui	t3,0x1a
  44:	64756c63          	bltu	a0,t2,69c <_text-0x9ff964>
  48:	2f65                	addiw	t5,t5,25
  4a:	2e2e                	fld	ft8,200(sp)
  4c:	2f2e2e2f          	0x2f2e2e2f
  50:	6e69                	lui	t3,0x1a
  52:	64756c63          	bltu	a0,t2,6aa <_text-0x9ff956>
  56:	0065                	c.nop	25
  58:	63737953          	0x63737953
  5c:	6c61                	lui	s8,0x18
  5e:	4c6c                	lw	a1,92(s0)
  60:	6269                	lui	tp,0x1a
  62:	682e                	ld	a6,200(sp)
  64:	5300                	lw	s0,32(a4)
  66:	7379                	lui	t1,0xffffe
  68:	6c6c6163          	bltu	s8,t1,72a <_text-0x9ff8d6>
  6c:	682e                	ld	a6,200(sp)
  6e:	5000                	lw	s0,32(s0)
  70:	6972                	ld	s2,280(sp)
  72:	746e                	ld	s0,248(sp)
  74:	2e66                	fld	ft8,88(sp)
  76:	0068                	addi	a0,sp,12
  78:	7954                	ld	a3,176(a0)
  7a:	6570                	ld	a2,200(a0)
  7c:	682e                	ld	a6,200(sp)
  7e:	4c00                	lw	s0,24(s0)
  80:	6269                	lui	tp,0x1a
  82:	614d                	addi	sp,sp,176
  84:	6e69                	lui	t3,0x1a
  86:	632e                	ld	t1,200(sp)
  88:	4c00                	lw	s0,24(s0)
  8a:	6269                	lui	tp,0x1a
  8c:	614d                	addi	sp,sp,176
  8e:	6e69                	lui	t3,0x1a
  90:	682e                	ld	a6,200(sp)
  92:	5000                	lw	s0,32(s0)
  94:	6972                	ld	s2,280(sp)
  96:	746e                	ld	s0,248(sp)
  98:	2e66                	fld	ft8,88(sp)
  9a:	4c750063          	beq	a0,t2,55a <_text-0x9ffaa6>
  9e:	6269                	lui	tp,0x1a
  a0:	632e                	ld	t1,200(sp)
  a2:	7300                	ld	s0,32(a4)
  a4:	6174                	ld	a3,192(a0)
  a6:	2e74                	fld	fa3,216(a2)
  a8:	0068                	addi	a0,sp,12
  aa:	7375                	lui	t1,0xffffd
  ac:	7265                	lui	tp,0xffff9
  ae:	6548                	ld	a0,136(a0)
  b0:	7061                	c.lui	zero,0xffff8
  b2:	632e                	ld	t1,200(sp)
	...

Disassembly of section .debug_info:

0000000000000000 <.debug_info>:
       0:	0024                	addi	s1,sp,8
       2:	0000                	unimp
       4:	0005                	c.nop	1
       6:	0801                	addi	a6,a6,0
       8:	0000                	unimp
       a:	0000                	unimp
       c:	0001                	nop
       e:	0000                	unimp
      10:	0000                	unimp
      12:	a000                	fsd	fs0,0(s0)
      14:	0000                	unimp
      16:	0000                	unimp
      18:	2800                	fld	fs0,16(s0)
      1a:	0000                	unimp
      1c:	0000                	unimp
      1e:	0008                	0x8
      20:	0000                	unimp
      22:	0000002f          	0x2f
      26:	8001                	c.srli64	s0
      28:	0384                	addi	s1,sp,448
      2a:	0000                	unimp
      2c:	0005                	c.nop	1
      2e:	0801                	addi	a6,a6,0
      30:	0014                	0x14
      32:	0000                	unimp
      34:	0000d00b          	0xd00b
      38:	1d00                	addi	s0,sp,688
      3a:	0000002f          	0x2f
      3e:	0000                	unimp
      40:	0000                	unimp
      42:	0020                	addi	s0,sp,8
      44:	00a0                	addi	s0,sp,72
      46:	0000                	unimp
      48:	0000                	unimp
      4a:	00b8                	addi	a4,sp,72
      4c:	0000                	unimp
      4e:	0000                	unimp
      50:	0000                	unimp
      52:	0072                	c.slli	zero,0x1c
      54:	0000                	unimp
      56:	0104                	addi	s1,sp,128
      58:	8e08                	0x8e08
      5a:	0000                	unimp
      5c:	0400                	addi	s0,sp,512
      5e:	0702                	c.slli64	a4
      60:	00a6                	slli	ra,ra,0x9
      62:	0000                	unimp
      64:	0404                	addi	s1,sp,512
      66:	0000be07          	fld	ft8,0(ra)
      6a:	0c00                	addi	s0,sp,528
      6c:	3675                	addiw	a2,a2,-3
      6e:	0034                	addi	a3,sp,8
      70:	0705                	addi	a4,a4,1
      72:	4f30                	lw	a2,88(a4)
      74:	0000                	unimp
      76:	0400                	addi	s0,sp,512
      78:	0708                	addi	a0,sp,896
      7a:	00b9                	addi	ra,ra,14
      7c:	0000                	unimp
      7e:	0104                	addi	s1,sp,128
      80:	9006                	c.add	zero,ra
      82:	0000                	unimp
      84:	0400                	addi	s0,sp,512
      86:	0502                	c.slli64	a0
      88:	0041                	c.nop	16
      8a:	0000                	unimp
      8c:	040d                	addi	s0,s0,3
      8e:	6905                	lui	s2,0x1
      90:	746e                	ld	s0,248(sp)
      92:	0400                	addi	s0,sp,512
      94:	0508                	addi	a0,sp,640
      96:	0066                	c.slli	zero,0x19
      98:	0000                	unimp
      9a:	7706                	ld	a4,96(sp)
      9c:	0000                	unimp
      9e:	0400                	addi	s0,sp,512
      a0:	0801                	addi	a6,a6,0
      a2:	00000097          	auipc	ra,0x0
      a6:	770e                	ld	a4,224(sp)
      a8:	0000                	unimp
      aa:	0f00                	addi	s0,sp,912
      ac:	00000077          	0x77
      b0:	00000093          	li	ra,0
      b4:	4f10                	lw	a2,24(a4)
      b6:	0000                	unimp
      b8:	1000                	addi	s0,sp,32
      ba:	1100                	addi	s0,sp,160
      bc:	00000087          	0x87
      c0:	2104                	fld	fs1,0(a0)
      c2:	830d                	srli	a4,a4,0x3
      c4:	0000                	unimp
      c6:	7600                	ld	s0,40(a2)
      c8:	0000                	unimp
      ca:	1200                	addi	s0,sp,288
      cc:	0000006f          	j	cc <_text-0x9fff34>
      d0:	4004                	lw	s1,0(s0)
      d2:	b606                	fsd	ft1,296(sp)
      d4:	0000                	unimp
      d6:	1300                	addi	s0,sp,416
      d8:	00b6                	slli	ra,ra,0xd
      da:	0000                	unimp
      dc:	0014                	0x14
      de:	7e06                	ld	t3,96(sp)
      e0:	0000                	unimp
      e2:	1500                	addi	s0,sp,672
      e4:	005d                	c.nop	23
      e6:	0000                	unimp
      e8:	0601                	addi	a2,a2,0
      ea:	6405                	lui	s0,0x1
      ec:	0000                	unimp
      ee:	2000                	fld	fs0,0(s0)
      f0:	a000                	fsd	fs0,0(s0)
      f2:	0000                	unimp
      f4:	0000                	unimp
      f6:	b800                	fsd	fs0,48(s0)
      f8:	0000                	unimp
      fa:	0000                	unimp
      fc:	0000                	unimp
      fe:	0100                	addi	s0,sp,128
     100:	8d9c                	0x8d9c
     102:	0002                	c.slli64	zero
     104:	0700                	addi	s0,sp,896
     106:	009c                	addi	a5,sp,64
     108:	0000                	unimp
     10a:	6412                	ld	s0,256(sp)
     10c:	0000                	unimp
     10e:	0c00                	addi	s0,sp,528
     110:	0000                	unimp
     112:	0700                	addi	s0,sp,896
     114:	00a1                	addi	ra,ra,8
     116:	0000                	unimp
     118:	8d1f 0002 5f00      	0x5f0000028d1f
     11e:	0000                	unimp
     120:	1600                	addi	s0,sp,800
     122:	0069                	c.nop	26
     124:	0701                	addi	a4,a4,0
     126:	6409                	lui	s0,0x2
     128:	0000                	unimp
     12a:	c700                	sw	s0,8(a4)
     12c:	0000                	unimp
     12e:	0800                	addi	s0,sp,16
     130:	0292                	slli	t0,t0,0x4
     132:	0000                	unimp
     134:	0040                	addi	s0,sp,4
     136:	00a0                	addi	s0,sp,72
     138:	0000                	unimp
     13a:	0000                	unimp
     13c:	0020                	addi	s0,sp,8
     13e:	0000                	unimp
     140:	0000                	unimp
     142:	0000                	unimp
     144:	01b30d0f          	0x1b30d0f
     148:	0000                	unimp
     14a:	a001                	j	14a <_text-0x9ffeb6>
     14c:	0002                	c.slli64	zero
     14e:	4400                	lw	s0,8(s0)
     150:	0001                	nop
     152:	0900                	addi	s0,sp,144
     154:	02e5                	addi	t0,t0,25
     156:	0000                	unimp
     158:	0040                	addi	s0,sp,4
     15a:	00a0                	addi	s0,sp,72
     15c:	0000                	unimp
     15e:	0000                	unimp
     160:	0020                	addi	s0,sp,8
     162:	0000                	unimp
     164:	0000                	unimp
     166:	0000                	unimp
     168:	0166                	slli	sp,sp,0x19
     16a:	0338                	addi	a4,sp,392
     16c:	0000                	unimp
     16e:	0159                	addi	sp,sp,22
     170:	0000                	unimp
     172:	2c01                	sext.w	s8,s8
     174:	59000003          	lb	zero,1424(zero) # 590 <_text-0x9ffa70>
     178:	0001                	nop
     17a:	0100                	addi	s0,sp,128
     17c:	0320                	addi	s0,sp,392
     17e:	0000                	unimp
     180:	0159                	addi	sp,sp,22
     182:	0000                	unimp
     184:	1401                	addi	s0,s0,-32
     186:	59000003          	lb	zero,1424(zero) # 590 <_text-0x9ffa70>
     18a:	0001                	nop
     18c:	0100                	addi	s0,sp,128
     18e:	0308                	addi	a0,sp,384
     190:	0000                	unimp
     192:	0144                	addi	s1,sp,132
     194:	0000                	unimp
     196:	fc01                	bnez	s0,ae <_text-0x9fff52>
     198:	0002                	c.slli64	zero
     19a:	6e00                	ld	s0,24(a2)
     19c:	0001                	nop
     19e:	0100                	addi	s0,sp,128
     1a0:	02f2                	slli	t0,t0,0x1c
     1a2:	0000                	unimp
     1a4:	0184                	addi	s1,sp,192
     1a6:	0000                	unimp
     1a8:	4402                	lw	s0,0(sp)
     1aa:	01000003          	lb	zero,16(zero) # 10 <_text-0x9ffff0>
     1ae:	025a                	slli	tp,tp,0x16
     1b0:	034d                	addi	t1,t1,19
     1b2:	0000                	unimp
     1b4:	5b01                	li	s6,-32
     1b6:	5602                	lw	a2,32(sp)
     1b8:	01000003          	lb	zero,16(zero) # 10 <_text-0x9ffff0>
     1bc:	025c                	addi	a5,sp,260
     1be:	035f 0000 5d01      	0x5d010000035f
     1c4:	6802                	ld	a6,0(sp)
     1c6:	01000003          	lb	zero,16(zero) # 10 <_text-0x9ffff0>
     1ca:	025e                	slli	tp,tp,0x17
     1cc:	0371                	addi	t1,t1,28
     1ce:	0000                	unimp
     1d0:	5f01                	li	t5,-32
     1d2:	7a02                	ld	s4,32(sp)
     1d4:	01000003          	lb	zero,16(zero) # 10 <_text-0x9ffff0>
     1d8:	0061                	c.nop	24
     1da:	0800                	addi	s0,sp,16
     1dc:	02ad                	addi	t0,t0,11
     1de:	0000                	unimp
     1e0:	0078                	addi	a4,sp,12
     1e2:	00a0                	addi	s0,sp,72
     1e4:	0000                	unimp
     1e6:	0000                	unimp
     1e8:	0024                	addi	s1,sp,8
     1ea:	0000                	unimp
     1ec:	0000                	unimp
     1ee:	0000                	unimp
     1f0:	090a                	slli	s2,s2,0x2
     1f2:	0271                	addi	tp,tp,28
     1f4:	0000                	unimp
     1f6:	d201                	beqz	a2,f6 <_text-0x9fff0a>
     1f8:	0002                	c.slli64	zero
     1fa:	9a00                	0x9a00
     1fc:	0001                	nop
     1fe:	0100                	addi	s0,sp,128
     200:	02c6                	slli	t0,t0,0x11
     202:	0000                	unimp
     204:	000001af          	0x1af
     208:	bb01                	j	ffffffffffffff18 <end+0xfffffffffeffdf18>
     20a:	0002                	c.slli64	zero
     20c:	cc00                	sw	s0,24(s0)
     20e:	0001                	nop
     210:	0900                	addi	s0,sp,144
     212:	02e5                	addi	t0,t0,25
     214:	0000                	unimp
     216:	0078                	addi	a4,sp,12
     218:	00a0                	addi	s0,sp,72
     21a:	0000                	unimp
     21c:	0000                	unimp
     21e:	0024                	addi	s1,sp,8
     220:	0000                	unimp
     222:	0000                	unimp
     224:	0000                	unimp
     226:	0136                	slli	sp,sp,0xd
     228:	0338                	addi	a4,sp,392
     22a:	0000                	unimp
     22c:	01e1                	addi	gp,gp,24
     22e:	0000                	unimp
     230:	2c01                	sext.w	s8,s8
     232:	e1000003          	lb	zero,-496(zero) # fffffffffffffe10 <end+0xfffffffffeffde10>
     236:	0001                	nop
     238:	0100                	addi	s0,sp,128
     23a:	0320                	addi	s0,sp,392
     23c:	0000                	unimp
     23e:	01e1                	addi	gp,gp,24
     240:	0000                	unimp
     242:	1401                	addi	s0,s0,-32
     244:	9a000003          	lb	zero,-1632(zero) # fffffffffffff9a0 <end+0xfffffffffeffd9a0>
     248:	0001                	nop
     24a:	0100                	addi	s0,sp,128
     24c:	0308                	addi	a0,sp,384
     24e:	0000                	unimp
     250:	000001af          	0x1af
     254:	fc01                	bnez	s0,16c <_text-0x9ffe94>
     256:	0002                	c.slli64	zero
     258:	cc00                	sw	s0,24(s0)
     25a:	0001                	nop
     25c:	0100                	addi	s0,sp,128
     25e:	02f2                	slli	t0,t0,0x1c
     260:	0000                	unimp
     262:	01f6                	slli	gp,gp,0x1d
     264:	0000                	unimp
     266:	4402                	lw	s0,0(sp)
     268:	01000003          	lb	zero,16(zero) # 10 <_text-0x9ffff0>
     26c:	025a                	slli	tp,tp,0x16
     26e:	034d                	addi	t1,t1,19
     270:	0000                	unimp
     272:	5b01                	li	s6,-32
     274:	5602                	lw	a2,32(sp)
     276:	01000003          	lb	zero,16(zero) # 10 <_text-0x9ffff0>
     27a:	025c                	addi	a5,sp,260
     27c:	035f 0000 5d01      	0x5d010000035f
     282:	6802                	ld	a6,0(sp)
     284:	01000003          	lb	zero,16(zero) # 10 <_text-0x9ffff0>
     288:	025e                	slli	tp,tp,0x17
     28a:	0371                	addi	t1,t1,28
     28c:	0000                	unimp
     28e:	5f01                	li	t5,-32
     290:	7a02                	ld	s4,32(sp)
     292:	01000003          	lb	zero,16(zero) # 10 <_text-0x9ffff0>
     296:	0061                	c.nop	24
     298:	1700                	addi	s0,sp,928
     29a:	00c4                	addi	s1,sp,68
     29c:	00a0                	addi	s0,sp,72
     29e:	0000                	unimp
     2a0:	0000                	unimp
     2a2:	000000a3          	sb	zero,1(zero) # 1 <_text-0x9fffff>
     2a6:	0118                	addi	a4,sp,128
     2a8:	095a                	slli	s2,s2,0x16
     2aa:	a021c003          	lbu	zero,-1534(gp)
     2ae:	0000                	unimp
     2b0:	0000                	unimp
     2b2:	0000                	unimp
     2b4:	0600                	addi	s0,sp,768
     2b6:	0072                	c.slli	zero,0x1c
     2b8:	0000                	unimp
     2ba:	560a                	lw	a2,160(sp)
     2bc:	0000                	unimp
     2be:	6500                	ld	s0,8(a0)
     2c0:	0064                	addi	s1,sp,12
     2c2:	0000                	unimp
     2c4:	02ad                	addi	t0,t0,11
     2c6:	0000                	unimp
     2c8:	cb19                	beqz	a4,2de <_text-0x9ffd22>
     2ca:	0000                	unimp
     2cc:	0200                	addi	s0,sp,256
     2ce:	2665                	addiw	a2,a2,25
     2d0:	00b6                	slli	ra,ra,0xd
     2d2:	0000                	unimp
     2d4:	0a00                	addi	s0,sp,272
     2d6:	0000003b          	addw	zero,zero,zero
     2da:	6435                	lui	s0,0xd
     2dc:	0000                	unimp
     2de:	df00                	sw	s0,56(a4)
     2e0:	0002                	c.slli64	zero
     2e2:	0300                	addi	s0,sp,384
     2e4:	6466                	ld	s0,88(sp)
     2e6:	0200                	addi	s0,sp,256
     2e8:	1d35                	addi	s10,s10,-19
     2ea:	0064                	addi	s1,sp,12
     2ec:	0000                	unimp
     2ee:	63727303          	0x63727303
     2f2:	0200                	addi	s0,sp,256
     2f4:	2d35                	addiw	s10,s10,13
     2f6:	02df 0000 6c03      	0x6c03000002df
     2fc:	6e65                	lui	t3,0x19
     2fe:	0200                	addi	s0,sp,256
     300:	3635                	addiw	a2,a2,-19
     302:	0064                	addi	s1,sp,12
     304:	0000                	unimp
     306:	0600                	addi	s0,sp,768
     308:	02e4                	addi	s1,sp,332
     30a:	0000                	unimp
     30c:	1b1a                	slli	s6,s6,0x26
     30e:	0186                	slli	gp,gp,0x1
     310:	0000                	unimp
     312:	43130603          	lb	a2,1073(t1) # ffffffffffffd431 <end+0xfffffffffeffb431>
     316:	0000                	unimp
     318:	0300                	addi	s0,sp,384
     31a:	03006e03          	lwu	t3,48(zero) # 30 <_text-0x9fffd0>
     31e:	2106                	fld	ft2,64(sp)
     320:	0000006b          	0x6b
     324:	30615f03          	lhu	t5,774(sp)
     328:	0300                	addi	s0,sp,384
     32a:	2806                	fld	fa6,64(sp)
     32c:	00000043          	fmadd.s	ft0,ft0,ft0,ft0,rne
     330:	31615f03          	lhu	t5,790(sp)
     334:	0300                	addi	s0,sp,384
     336:	3106                	fld	ft2,96(sp)
     338:	00000043          	fmadd.s	ft0,ft0,ft0,ft0,rne
     33c:	32615f03          	lhu	t5,806(sp)
     340:	0300                	addi	s0,sp,384
     342:	3a06                	fld	fs4,96(sp)
     344:	00000043          	fmadd.s	ft0,ft0,ft0,ft0,rne
     348:	33615f03          	lhu	t5,822(sp)
     34c:	0300                	addi	s0,sp,384
     34e:	00430307          	0x430307
     352:	0000                	unimp
     354:	34615f03          	lhu	t5,838(sp)
     358:	0300                	addi	s0,sp,384
     35a:	00430c07          	0x430c07
     35e:	0000                	unimp
     360:	35615f03          	lhu	t5,854(sp)
     364:	0300                	addi	s0,sp,384
     366:	00431507          	0x431507
     36a:	0000                	unimp
     36c:	6105                	addi	sp,sp,32
     36e:	0030                	addi	a2,sp,8
     370:	4308                	lw	a0,0(a4)
     372:	0000                	unimp
     374:	0500                	addi	s0,sp,640
     376:	3161                	addiw	sp,sp,-8
     378:	0900                	addi	s0,sp,144
     37a:	00000043          	fmadd.s	ft0,ft0,ft0,ft0,rne
     37e:	6105                	addi	sp,sp,32
     380:	0032                	c.slli	zero,0xc
     382:	430a                	lw	t1,128(sp)
     384:	0000                	unimp
     386:	0500                	addi	s0,sp,640
     388:	3361                	addiw	t1,t1,-8
     38a:	0b00                	addi	s0,sp,400
     38c:	00000043          	fmadd.s	ft0,ft0,ft0,ft0,rne
     390:	6105                	addi	sp,sp,32
     392:	0034                	addi	a3,sp,8
     394:	430c                	lw	a1,0(a4)
     396:	0000                	unimp
     398:	0500                	addi	s0,sp,640
     39a:	3561                	addiw	a0,a0,-8
     39c:	0d00                	addi	s0,sp,656
     39e:	00000043          	fmadd.s	ft0,ft0,ft0,ft0,rne
     3a2:	4b1c                	lw	a5,16(a4)
     3a4:	0000                	unimp
     3a6:	0300                	addi	s0,sp,384
     3a8:	100e                	c.slli	zero,0x23
     3aa:	0000006b          	0x6b
     3ae:	0000                	unimp
     3b0:	00000297          	auipc	t0,0x0
     3b4:	0005                	c.nop	1
     3b6:	0801                	addi	a6,a6,0
     3b8:	019e                	slli	gp,gp,0x7
     3ba:	0000                	unimp
     3bc:	d009                	beqz	s0,2be <_text-0x9ffd42>
     3be:	0000                	unimp
     3c0:	1d00                	addi	s0,sp,688
     3c2:	007f                	0x7f
     3c4:	0000                	unimp
     3c6:	0000                	unimp
     3c8:	0000                	unimp
     3ca:	00d8                	addi	a4,sp,68
     3cc:	00a0                	addi	s0,sp,72
     3ce:	0000                	unimp
     3d0:	0000                	unimp
     3d2:	0044                	addi	s1,sp,4
     3d4:	0000                	unimp
     3d6:	0000                	unimp
     3d8:	0000                	unimp
     3da:	000002a7          	0x2a7
     3de:	0101                	addi	sp,sp,0
     3e0:	8e08                	0x8e08
     3e2:	0000                	unimp
     3e4:	0100                	addi	s0,sp,128
     3e6:	0702                	c.slli64	a4
     3e8:	00a6                	slli	ra,ra,0x9
     3ea:	0000                	unimp
     3ec:	0401                	addi	s0,s0,0
     3ee:	0000be07          	fld	ft8,0(ra) # a2 <_text-0x9fff5e>
     3f2:	0a00                	addi	s0,sp,272
     3f4:	3675                	addiw	a2,a2,-3
     3f6:	0034                	addi	a3,sp,8
     3f8:	0704                	addi	s1,sp,896
     3fa:	4f30                	lw	a2,88(a4)
     3fc:	0000                	unimp
     3fe:	0100                	addi	s0,sp,128
     400:	0708                	addi	a0,sp,896
     402:	00b9                	addi	ra,ra,14
     404:	0000                	unimp
     406:	0101                	addi	sp,sp,0
     408:	9006                	c.add	zero,ra
     40a:	0000                	unimp
     40c:	0100                	addi	s0,sp,128
     40e:	0502                	c.slli64	a0
     410:	0041                	c.nop	16
     412:	0000                	unimp
     414:	6905040b          	0x6905040b
     418:	746e                	ld	s0,248(sp)
     41a:	0100                	addi	s0,sp,128
     41c:	0508                	addi	a0,sp,640
     41e:	0066                	c.slli	zero,0x19
     420:	0000                	unimp
     422:	00007707          	0x7707
     426:	0100                	addi	s0,sp,128
     428:	0801                	addi	a6,a6,0
     42a:	00000097          	auipc	ra,0x0
     42e:	770c                	ld	a1,40(a4)
     430:	0000                	unimp
     432:	8e00                	0x8e00
     434:	0000                	unimp
     436:	0d00                	addi	s0,sp,656
     438:	0000004f          	fnmadd.s	ft0,ft0,ft0,ft0,rne
     43c:	0010                	0x10
     43e:	870e                	mv	a4,gp
     440:	0000                	unimp
     442:	0500                	addi	s0,sp,640
     444:	0d21                	addi	s10,s10,8
     446:	007e                	c.slli	zero,0x1f
     448:	0000                	unimp
     44a:	0076                	c.slli	zero,0x1d
     44c:	0000                	unimp
     44e:	00005d0f          	0x5d0f
     452:	0600                	addi	s0,sp,768
     454:	0504                	addi	s1,sp,640
     456:	0064                	addi	s1,sp,12
     458:	0000                	unimp
     45a:	00b9                	addi	ra,ra,14
     45c:	0000                	unimp
     45e:	6408                	ld	a0,8(s0)
     460:	0000                	unimp
     462:	0800                	addi	s0,sp,16
     464:	00b9                	addi	ra,ra,14
     466:	0000                	unimp
     468:	0700                	addi	s0,sp,896
     46a:	0072                	c.slli	zero,0x1c
     46c:	0000                	unimp
     46e:	9910                	0x9910
     470:	0001                	nop
     472:	0100                	addi	s0,sp,128
     474:	0606                	slli	a2,a2,0x1
     476:	00d8                	addi	a4,sp,68
     478:	00a0                	addi	s0,sp,72
     47a:	0000                	unimp
     47c:	0000                	unimp
     47e:	0044                	addi	s1,sp,4
     480:	0000                	unimp
     482:	0000                	unimp
     484:	0000                	unimp
     486:	9c01                	subw	s0,s0,s0
     488:	000001db          	0x1db
     48c:	9c06                	add	s8,s8,ra
     48e:	0000                	unimp
     490:	1200                	addi	s0,sp,288
     492:	0064                	addi	s1,sp,12
     494:	0000                	unimp
     496:	0218                	addi	a4,sp,256
     498:	0000                	unimp
     49a:	a106                	fsd	ft1,128(sp)
     49c:	0000                	unimp
     49e:	1f00                	addi	s0,sp,944
     4a0:	00b9                	addi	ra,ra,14
     4a2:	0000                	unimp
     4a4:	0242                	slli	tp,tp,0x10
     4a6:	0000                	unimp
     4a8:	8f06                	mv	t5,ra
     4aa:	0001                	nop
     4ac:	2c00                	fld	fs0,24(s0)
     4ae:	00b9                	addi	ra,ra,14
     4b0:	0000                	unimp
     4b2:	026c                	addi	a1,sp,268
     4b4:	0000                	unimp
     4b6:	7211                	lui	tp,0xfffe4
     4b8:	7465                	lui	s0,0xffff9
     4ba:	0100                	addi	s0,sp,128
     4bc:	00640907          	0x640907
     4c0:	0000                	unimp
     4c2:	0296                	slli	t0,t0,0x5
     4c4:	0000                	unimp
     4c6:	db12                	sw	tp,180(sp)
     4c8:	0001                	nop
     4ca:	f000                	sd	s0,32(s0)
     4cc:	a000                	fsd	fs0,0(s0)
     4ce:	0000                	unimp
     4d0:	0000                	unimp
     4d2:	1c00                	addi	s0,sp,560
     4d4:	0000                	unimp
     4d6:	0000                	unimp
     4d8:	0000                	unimp
     4da:	0100                	addi	s0,sp,128
     4dc:	0508                	addi	a0,sp,640
     4de:	01c5                	addi	gp,gp,17
     4e0:	0000                	unimp
     4e2:	ec02                	sd	zero,24(sp)
     4e4:	0001                	nop
     4e6:	9600                	0x9600
     4e8:	0002                	c.slli64	zero
     4ea:	1300                	addi	s0,sp,416
     4ec:	01f8                	addi	a4,sp,204
     4ee:	0000                	unimp
     4f0:	00f0                	addi	a2,sp,76
     4f2:	00a0                	addi	s0,sp,72
     4f4:	0000                	unimp
     4f6:	0000                	unimp
     4f8:	001c                	0x1c
     4fa:	0000                	unimp
     4fc:	0000                	unimp
     4fe:	0000                	unimp
     500:	3e02                	fld	ft8,32(sp)
     502:	020c                	addi	a1,sp,256
     504:	0000024b          	fnmsub.s	ft4,ft0,ft0,ft0,rne
     508:	02aa                	slli	t0,t0,0xa
     50a:	0000                	unimp
     50c:	3f02                	fld	ft10,32(sp)
     50e:	0002                	c.slli64	zero
     510:	aa00                	fsd	fs0,16(a2)
     512:	0002                	c.slli64	zero
     514:	0200                	addi	s0,sp,256
     516:	00000233          	add	tp,zero,zero
     51a:	02aa                	slli	t0,t0,0xa
     51c:	0000                	unimp
     51e:	2702                	fld	fa4,0(sp)
     520:	0002                	c.slli64	zero
     522:	aa00                	fsd	fs0,16(a2)
     524:	0002                	c.slli64	zero
     526:	0200                	addi	s0,sp,256
     528:	0000021b          	sext.w	tp,zero
     52c:	02aa                	slli	t0,t0,0xa
     52e:	0000                	unimp
     530:	0f02                	c.slli64	t5
     532:	0002                	c.slli64	zero
     534:	bf00                	fsd	fs0,56(a4)
     536:	0002                	c.slli64	zero
     538:	0200                	addi	s0,sp,256
     53a:	0205                	addi	tp,tp,1
     53c:	0000                	unimp
     53e:	000002db          	0x2db
     542:	5704                	lw	s1,40(a4)
     544:	0002                	c.slli64	zero
     546:	0100                	addi	s0,sp,128
     548:	045a                	slli	s0,s0,0x16
     54a:	0260                	addi	s0,sp,268
     54c:	0000                	unimp
     54e:	5b01                	li	s6,-32
     550:	6904                	ld	s1,16(a0)
     552:	0002                	c.slli64	zero
     554:	0100                	addi	s0,sp,128
     556:	045c                	addi	a5,sp,516
     558:	0272                	slli	tp,tp,0x1c
     55a:	0000                	unimp
     55c:	5d01                	li	s10,-32
     55e:	7b04                	ld	s1,48(a4)
     560:	0002                	c.slli64	zero
     562:	0100                	addi	s0,sp,128
     564:	045e                	slli	s0,s0,0x17
     566:	0284                	addi	s1,sp,320
     568:	0000                	unimp
     56a:	5f01                	li	t5,-32
     56c:	8d04                	0x8d04
     56e:	0002                	c.slli64	zero
     570:	0100                	addi	s0,sp,128
     572:	0061                	c.nop	24
     574:	1400                	addi	s0,sp,544
     576:	00f0                	addi	a2,sp,76
     578:	00a0                	addi	s0,sp,72
     57a:	0000                	unimp
     57c:	0000                	unimp
     57e:	009e                	slli	ra,ra,0x7
     580:	0000                	unimp
     582:	0115                	addi	sp,sp,5
     584:	01a3035b          	0x1a3035b
     588:	1600005b          	0x1600005b
     58c:	0194                	addi	a3,sp,192
     58e:	0000                	unimp
     590:	3d02                	fld	fs10,32(sp)
     592:	00006413          	ori	s0,zero,0
     596:	0300                	addi	s0,sp,384
     598:	01f8                	addi	a4,sp,204
     59a:	0000                	unimp
     59c:	00636503          	lwu	a0,6(t1)
     5a0:	3d02                	fld	fs10,32(sp)
     5a2:	641c                	ld	a5,8(s0)
     5a4:	0000                	unimp
     5a6:	0000                	unimp
     5a8:	00018617          	auipc	a2,0x18
     5ac:	0300                	addi	s0,sp,384
     5ae:	1306                	slli	t1,t1,0x21
     5b0:	00000043          	fmadd.s	ft0,ft0,ft0,ft0,rne
     5b4:	006e0303          	lb	t1,6(t3) # 19006 <_text-0x9e6ffa>
     5b8:	6b210603          	lb	a2,1714(sp)
     5bc:	0000                	unimp
     5be:	0300                	addi	s0,sp,384
     5c0:	615f 0030 0603      	0x6030030615f
     5c6:	4328                	lw	a0,64(a4)
     5c8:	0000                	unimp
     5ca:	0300                	addi	s0,sp,384
     5cc:	615f 0031 0603      	0x6030031615f
     5d2:	4331                	li	t1,12
     5d4:	0000                	unimp
     5d6:	0300                	addi	s0,sp,384
     5d8:	615f 0032 0603      	0x6030032615f
     5de:	433a                	lw	t1,140(sp)
     5e0:	0000                	unimp
     5e2:	0300                	addi	s0,sp,384
     5e4:	615f 0033 0703      	0x7030033615f
     5ea:	00004303          	lbu	t1,0(zero) # 0 <_text-0xa00000>
     5ee:	0300                	addi	s0,sp,384
     5f0:	615f 0034 0703      	0x7030034615f
     5f6:	430c                	lw	a1,0(a4)
     5f8:	0000                	unimp
     5fa:	0300                	addi	s0,sp,384
     5fc:	615f 0035 0703      	0x7030035615f
     602:	4315                	li	t1,5
     604:	0000                	unimp
     606:	0500                	addi	s0,sp,640
     608:	3061                	0x3061
     60a:	0800                	addi	s0,sp,16
     60c:	00000043          	fmadd.s	ft0,ft0,ft0,ft0,rne
     610:	6105                	addi	sp,sp,32
     612:	0031                	c.nop	12
     614:	4309                	li	t1,2
     616:	0000                	unimp
     618:	0500                	addi	s0,sp,640
     61a:	3261                	addiw	tp,tp,-8
     61c:	0a00                	addi	s0,sp,272
     61e:	00000043          	fmadd.s	ft0,ft0,ft0,ft0,rne
     622:	6105                	addi	sp,sp,32
     624:	430b0033          	0x430b0033
     628:	0000                	unimp
     62a:	0500                	addi	s0,sp,640
     62c:	3461                	addiw	s0,s0,-8
     62e:	0c00                	addi	s0,sp,528
     630:	00000043          	fmadd.s	ft0,ft0,ft0,ft0,rne
     634:	6105                	addi	sp,sp,32
     636:	0035                	c.nop	13
     638:	430d                	li	t1,3
     63a:	0000                	unimp
     63c:	1800                	addi	s0,sp,48
     63e:	0000004b          	fnmsub.s	ft0,ft0,ft0,ft0,rne
     642:	6b100e03          	lb	t3,1713(zero) # 6b1 <_text-0x9ff94f>
     646:	0000                	unimp
     648:	0000                	unimp
     64a:	6a00                	ld	s0,16(a2)
     64c:	05000017          	auipc	zero,0x5000
     650:	0100                	addi	s0,sp,128
     652:	0208                	addi	a0,sp,256
     654:	1e000003          	lb	zero,480(zero) # 1e0 <_text-0x9ffe20>
     658:	00d0                	addi	a2,sp,68
     65a:	0000                	unimp
     65c:	931d                	srli	a4,a4,0x27
     65e:	0000                	unimp
     660:	0000                	unimp
     662:	0000                	unimp
     664:	1c00                	addi	s0,sp,560
     666:	a001                	j	666 <_text-0x9ff99a>
     668:	0000                	unimp
     66a:	0000                	unimp
     66c:	5000                	lw	s0,32(s0)
     66e:	000e                	c.slli	zero,0x3
     670:	0000                	unimp
     672:	0000                	unimp
     674:	c500                	sw	s0,8(a0)
     676:	0b000003          	lb	zero,176(zero) # b0 <_text-0x9fff50>
     67a:	0801                	addi	a6,a6,0
     67c:	008e                	slli	ra,ra,0x3
     67e:	0000                	unimp
     680:	a607020b          	0xa607020b
     684:	0000                	unimp
     686:	0b00                	addi	s0,sp,400
     688:	0704                	addi	s1,sp,896
     68a:	00be                	slli	ra,ra,0xf
     68c:	0000                	unimp
     68e:	751f 3436 0500      	0x5003436751f
     694:	004f3007          	fld	ft0,4(t5)
     698:	0000                	unimp
     69a:	b907080b          	0xb907080b
     69e:	0000                	unimp
     6a0:	0b00                	addi	s0,sp,400
     6a2:	0601                	addi	a2,a2,0
     6a4:	0090                	addi	a2,sp,64
     6a6:	0000                	unimp
     6a8:	4105020b          	0x4105020b
     6ac:	0000                	unimp
     6ae:	2000                	fld	fs0,0(s0)
     6b0:	0504                	addi	s1,sp,640
     6b2:	6e69                	lui	t3,0x1a
     6b4:	0074                	addi	a3,sp,12
     6b6:	6605080b          	0x6605080b
     6ba:	0000                	unimp
     6bc:	2100                	fld	fs0,0(a0)
     6be:	0271                	addi	tp,tp,28
     6c0:	0000                	unimp
     6c2:	1205                	addi	tp,tp,-31
     6c4:	00007e1b          	0x7e1b
     6c8:	2200                	fld	fs0,0(a2)
     6ca:	6708                	ld	a0,8(a4)
     6cc:	0002                	c.slli64	zero
     6ce:	1700                	addi	s0,sp,928
     6d0:	0089                	addi	ra,ra,2
     6d2:	0000                	unimp
     6d4:	9708010b          	0x9708010b
     6d8:	0000                	unimp
     6da:	2300                	fld	fs0,0(a4)
     6dc:	0089                	addi	ra,ra,2
     6de:	0000                	unimp
     6e0:	8915                	andi	a0,a0,5
     6e2:	0000                	unimp
     6e4:	a000                	fsd	fs0,0(s0)
     6e6:	0000                	unimp
     6e8:	2400                	fld	fs0,8(s0)
     6ea:	1800                	addi	s0,sp,48
     6ec:	01ae                	slli	gp,gp,0xb
     6ee:	0000                	unimp
     6f0:	0d09                	addi	s10,s10,2
     6f2:	0095                	addi	ra,ra,5
     6f4:	0000                	unimp
     6f6:	4018                	lw	a4,0(s0)
     6f8:	0002                	c.slli64	zero
     6fa:	0a00                	addi	s0,sp,272
     6fc:	640c                	ld	a1,8(s0)
     6fe:	0000                	unimp
     700:	1500                	addi	s0,sp,672
     702:	0089                	addi	ra,ra,2
     704:	0000                	unimp
     706:	00c6                	slli	ra,ra,0x11
     708:	0000                	unimp
     70a:	4f19                	li	t5,6
     70c:	0000                	unimp
     70e:	7f00                	ld	s0,56(a4)
     710:	1500                	addi	s0,sp,672
     712:	0089                	addi	ra,ra,2
     714:	0000                	unimp
     716:	00d6                	slli	ra,ra,0x15
     718:	0000                	unimp
     71a:	4f19                	li	t5,6
     71c:	0000                	unimp
     71e:	1000                	addi	s0,sp,32
     720:	2500                	fld	fs0,8(a0)
     722:	00000087          	0x87
     726:	2102                	fld	ft2,0(sp)
     728:	c60d                	beqz	a2,752 <_text-0x9ff8ae>
     72a:	0000                	unimp
     72c:	7600                	ld	s0,40(a2)
     72e:	0000                	unimp
     730:	0d00                	addi	s0,sp,656
     732:	024a                	slli	tp,tp,0x12
     734:	0000                	unimp
     736:	ece5                	bnez	s1,82e <_text-0x9ff7d2>
     738:	a002                	fsd	ft0,0(sp)
     73a:	0000                	unimp
     73c:	0000                	unimp
     73e:	9c00                	0x9c00
     740:	0001                	nop
     742:	0000                	unimp
     744:	0000                	unimp
     746:	0100                	addi	s0,sp,128
     748:	029c                	addi	a5,sp,320
     74a:	0002                	c.slli64	zero
     74c:	1100                	addi	s0,sp,160
     74e:	7562                	ld	a0,56(sp)
     750:	0066                	c.slli	zero,0x19
     752:	16e5                	addi	a3,a3,-7
     754:	0084                	addi	s1,sp,64
     756:	0000                	unimp
     758:	5a01                	li	s4,-32
     75a:	750e                	ld	a0,224(sp)
     75c:	e500                	sd	s0,8(a0)
     75e:	4f29                	li	t5,10
     760:	0000                	unimp
     762:	fd00                	sd	s0,56(a0)
     764:	0002                	c.slli64	zero
     766:	0600                	addi	s0,sp,768
     768:	02a2                	slli	t0,t0,0x8
     76a:	0000                	unimp
     76c:	30e5                	addiw	ra,ra,-7
     76e:	0064                	addi	s1,sp,12
     770:	0000                	unimp
     772:	034a                	slli	t1,t1,0x12
     774:	0000                	unimp
     776:	2d06                	fld	fs10,64(sp)
     778:	0002                	c.slli64	zero
     77a:	e500                	sd	s0,8(a0)
     77c:	643a                	ld	s0,392(sp)
     77e:	0000                	unimp
     780:	9d00                	0x9d00
     782:	06000003          	lb	zero,96(zero) # 60 <_text-0x9fffa0>
     786:	01fd                	addi	gp,gp,31
     788:	0000                	unimp
     78a:	07e6                	slli	a5,a5,0x19
     78c:	0064                	addi	s1,sp,12
     78e:	0000                	unimp
     790:	03f0                	addi	a2,sp,460
     792:	0000                	unimp
     794:	c506                	sw	ra,136(sp)
     796:	0001                	nop
     798:	e600                	sd	s0,8(a2)
     79a:	00006413          	ori	s0,zero,0
     79e:	3d00                	fld	fs0,56(a0)
     7a0:	0004                	0x4
     7a2:	0600                	addi	s0,sp,768
     7a4:	0204                	addi	s1,sp,256
     7a6:	0000                	unimp
     7a8:	21e6                	fld	ft3,88(sp)
     7aa:	0089                	addi	ra,ra,2
     7ac:	0000                	unimp
     7ae:	0490                	addi	a2,sp,576
     7b0:	0000                	unimp
     7b2:	8a06                	mv	s4,ra
     7b4:	0002                	c.slli64	zero
     7b6:	e600                	sd	s0,8(a2)
     7b8:	0000642b          	0x642b
     7bc:	cc00                	sw	s0,24(s0)
     7be:	0004                	0x4
     7c0:	0f00                	addi	s0,sp,912
     7c2:	01a1                	addi	gp,gp,8
     7c4:	0000                	unimp
     7c6:	09e8                	addi	a0,sp,220
     7c8:	0064                	addi	s1,sp,12
     7ca:	0000                	unimp
     7cc:	051f 0000 7009      	0x70090000051f
     7d2:	e900                	sd	s0,16(a0)
     7d4:	0000840b          	0x840b
     7d8:	8100                	0x8100
     7da:	0005                	c.nop	1
     7dc:	0900                	addi	s0,sp,144
     7de:	0069                	c.nop	26
     7e0:	09ea                	slli	s3,s3,0x1a
     7e2:	0064                	addi	s1,sp,12
     7e4:	0000                	unimp
     7e6:	0696                	slli	a3,a3,0x5
     7e8:	0000                	unimp
     7ea:	0c26                	slli	s8,s8,0x9
     7ec:	0000                	unimp
     7ee:	b800                	fsd	fs0,48(s0)
     7f0:	0001                	nop
     7f2:	0900                	addi	s0,sp,144
     7f4:	6d74                	ld	a3,216(a0)
     7f6:	0070                	addi	a2,sp,12
     7f8:	0dee                	slli	s11,s11,0x1b
     7fa:	0064                	addi	s1,sp,12
     7fc:	0000                	unimp
     7fe:	074c                	addi	a1,sp,900
     800:	0000                	unimp
     802:	1a00                	addi	s0,sp,304
     804:	0040                	addi	s0,sp,4
     806:	0000                	unimp
     808:	0001d527          	0x1d527
     80c:	0100                	addi	s0,sp,128
     80e:	640d011b          	addiw	sp,s10,1600
     812:	0000                	unimp
     814:	3e00                	fld	fs0,56(a2)
     816:	0008                	0x8
     818:	1b00                	addi	s0,sp,432
     81a:	6e65                	lui	t3,0x19
     81c:	0064                	addi	s1,sp,12
     81e:	011c                	addi	a5,sp,128
     820:	640d                	lui	s0,0x3
     822:	0000                	unimp
     824:	a000                	fsd	fs0,0(s0)
     826:	0008                	0x8
     828:	2800                	fld	fs0,16(s0)
     82a:	03f4                	addi	a3,sp,460
     82c:	00a0                	addi	s0,sp,72
     82e:	0000                	unimp
     830:	0000                	unimp
     832:	0018                	0x18
     834:	0000                	unimp
     836:	0000                	unimp
     838:	0000                	unimp
     83a:	706d741b          	0x706d741b
     83e:	2800                	fld	fs0,16(s0)
     840:	1201                	addi	tp,tp,-32
     842:	0089                	addi	ra,ra,2
     844:	0000                	unimp
     846:	0911                	addi	s2,s2,4
     848:	0000                	unimp
     84a:	0000                	unimp
     84c:	0d00                	addi	s0,sp,656
     84e:	0221                	addi	tp,tp,8
     850:	0000                	unimp
     852:	a001b4cb          	fnmsub.s	fs1,ft3,ft0,fs4,rup
     856:	0000                	unimp
     858:	0000                	unimp
     85a:	3800                	fld	fs0,48(s0)
     85c:	0001                	nop
     85e:	0000                	unimp
     860:	0000                	unimp
     862:	0100                	addi	s0,sp,128
     864:	7f9c                	ld	a5,56(a5)
     866:	0002                	c.slli64	zero
     868:	1100                	addi	s0,sp,160
     86a:	7562                	ld	a0,56(sp)
     86c:	0066                	c.slli	zero,0x19
     86e:	008419cb          	fnmsub.s	fs3,fs0,fs0,ft0,rtz
     872:	0000                	unimp
     874:	5a01                	li	s4,-32
     876:	7311                	lui	t1,0xfffe4
     878:	cb00                	sw	s0,16(a4)
     87a:	8424                	0x8424
     87c:	0000                	unimp
     87e:	0100                	addi	s0,sp,128
     880:	01fd065b          	0x1fd065b
     884:	0000                	unimp
     886:	00642bcb          	fnmsub.s	fs7,fs0,ft6,ft0,rdn
     88a:	0000                	unimp
     88c:	0939                	addi	s2,s2,14
     88e:	0000                	unimp
     890:	c506                	sw	ra,136(sp)
     892:	0001                	nop
     894:	cb00                	sw	s0,16(a4)
     896:	00006437          	lui	s0,0x6
     89a:	ac00                	fsd	fs0,24(s0)
     89c:	0009                	c.nop	2
     89e:	0900                	addi	s0,sp,144
     8a0:	0069                	c.nop	26
     8a2:	09cc                	addi	a1,sp,212
     8a4:	0064                	addi	s1,sp,12
     8a6:	0000                	unimp
     8a8:	0a12                	slli	s4,s4,0x4
     8aa:	0000                	unimp
     8ac:	6c09                	lui	s8,0x2
     8ae:	6e65                	lui	t3,0x19
     8b0:	cd00                	sw	s0,24(a0)
     8b2:	6409                	lui	s0,0x2
     8b4:	0000                	unimp
     8b6:	db00                	sw	s0,48(a4)
     8b8:	000a                	c.slli	zero,0x2
     8ba:	0900                	addi	s0,sp,144
     8bc:	ce003173          	csrrc	sp,0xce0,zero
     8c0:	0000840b          	0x840b
     8c4:	3f00                	fld	fs0,56(a4)
     8c6:	0000000b          	0xb
     8ca:	170d                	addi	a4,a4,-29
     8cc:	0002                	c.slli64	zero
     8ce:	b700                	fsd	fs0,40(a4)
     8d0:	011c                	addi	a5,sp,128
     8d2:	00a0                	addi	s0,sp,72
     8d4:	0000                	unimp
     8d6:	0000                	unimp
     8d8:	0098                	addi	a4,sp,64
     8da:	0000                	unimp
     8dc:	0000                	unimp
     8de:	0000                	unimp
     8e0:	9c01                	subw	s0,s0,s0
     8e2:	02e1                	addi	t0,t0,24
     8e4:	0000                	unimp
     8e6:	620e                	ld	tp,192(sp)
     8e8:	6675                	lui	a2,0x1d
     8ea:	b700                	fsd	fs0,40(a4)
     8ec:	8416                	mv	s0,t0
     8ee:	0000                	unimp
     8f0:	a500                	fsd	fs0,8(a0)
     8f2:	1100000b          	0x1100000b
     8f6:	20b70063          	beq	a4,a1,af6 <_text-0x9ff50a>
     8fa:	0089                	addi	ra,ra,2
     8fc:	0000                	unimp
     8fe:	5b01                	li	s6,-32
     900:	fd06                	sd	ra,184(sp)
     902:	0001                	nop
     904:	b700                	fsd	fs0,40(a4)
     906:	00006427          	0x6427
     90a:	e200                	sd	s0,0(a2)
     90c:	0600000b          	0x600000b
     910:	01c5                	addi	gp,gp,17
     912:	0000                	unimp
     914:	006433b7          	lui	t2,0x643
     918:	0000                	unimp
     91a:	0c09                	addi	s8,s8,2
     91c:	0000                	unimp
     91e:	6909                	lui	s2,0x2
     920:	b800                	fsd	fs0,48(s0)
     922:	6409                	lui	s0,0x2
     924:	0000                	unimp
     926:	5c00                	lw	s0,56(s0)
     928:	000c                	0xc
     92a:	0000                	unimp
     92c:	810d                	srli	a0,a0,0x3
     92e:	0002                	c.slli64	zero
     930:	b100                	fsd	fs0,32(a0)
     932:	0f44                	addi	s1,sp,916
     934:	00a0                	addi	s0,sp,72
     936:	0000                	unimp
     938:	0000                	unimp
     93a:	0028                	addi	a0,sp,8
     93c:	0000                	unimp
     93e:	0000                	unimp
     940:	0000                	unimp
     942:	9c01                	subw	s0,s0,s0
     944:	0355                	addi	t1,t1,21
     946:	0000                	unimp
     948:	3506                	fld	fa0,96(sp)
     94a:	0002                	c.slli64	zero
     94c:	b100                	fsd	fs0,32(a0)
     94e:	0003551b          	srliw	a0,t1,0x0
     952:	df00                	sw	s0,56(a4)
     954:	000c                	0xc
     956:	0600                	addi	s0,sp,768
     958:	01f2                	slli	gp,gp,0x1c
     95a:	0000                	unimp
     95c:	25b1                	addiw	a1,a1,12
     95e:	0064                	addi	s1,sp,12
     960:	0000                	unimp
     962:	0d09                	addi	s10,s10,2
     964:	0000                	unimp
     966:	0906                	slli	s2,s2,0x1
     968:	0002                	c.slli64	zero
     96a:	b100                	fsd	fs0,32(a0)
     96c:	00035537          	lui	a0,0x35
     970:	3300                	fld	fs0,32(a4)
     972:	000d                	c.nop	3
     974:	0600                	addi	s0,sp,768
     976:	01e8                	addi	a0,sp,204
     978:	0000                	unimp
     97a:	41b1                	li	gp,12
     97c:	00000043          	fmadd.s	ft0,ft0,ft0,ft0,rne
     980:	0d5d                	addi	s10,s10,23
     982:	0000                	unimp
     984:	6c12                	ld	s8,256(sp)
     986:	0000a00f          	0xa00f
     98a:	0000                	unimp
     98c:	5a00                	lw	s0,48(a2)
     98e:	05000003          	lb	zero,80(zero) # 50 <_text-0x9fffb0>
     992:	5d01                	li	s10,-32
     994:	0309                	addi	t1,t1,2
     996:	2200                	fld	fs0,0(a2)
     998:	00a0                	addi	s0,sp,72
     99a:	0000                	unimp
     99c:	0000                	unimp
     99e:	0000                	unimp
     9a0:	00009017          	auipc	zero,0x9
     9a4:	0d00                	addi	s0,sp,656
     9a6:	0279                	addi	tp,tp,30
     9a8:	0000                	unimp
     9aa:	a00ec8a7          	fsq	ft0,-1519(t4)
     9ae:	0000                	unimp
     9b0:	0000                	unimp
     9b2:	7c00                	ld	s0,56(s0)
     9b4:	0000                	unimp
     9b6:	0000                	unimp
     9b8:	0000                	unimp
     9ba:	0100                	addi	s0,sp,128
     9bc:	a19c                	fsd	fa5,0(a1)
     9be:	0004                	0x4
     9c0:	0600                	addi	s0,sp,768
     9c2:	0235                	addi	tp,tp,13
     9c4:	0000                	unimp
     9c6:	03551aa7          	0x3551aa7
     9ca:	0000                	unimp
     9cc:	00000d87          	0xd87
     9d0:	f206                	sd	ra,288(sp)
     9d2:	0001                	nop
     9d4:	a700                	fsd	fs0,8(a4)
     9d6:	6424                	ld	s1,72(s0)
     9d8:	0000                	unimp
     9da:	c400                	sw	s0,8(s0)
     9dc:	000d                	c.nop	3
     9de:	0e00                	addi	s0,sp,784
     9e0:	6d66                	ld	s10,88(sp)
     9e2:	0074                	addi	a3,sp,12
     9e4:	035536a7          	fsd	fs5,45(a0) # 3502d <_text-0x9cafd3>
     9e8:	0000                	unimp
     9ea:	0dee                	slli	s11,s11,0x1b
     9ec:	0000                	unimp
     9ee:	161c                	addi	a5,sp,800
     9f0:	7061                	c.lui	zero,0xffff8
     9f2:	a900                	fsd	fs0,16(a0)
     9f4:	720d                	lui	tp,0xfffe3
     9f6:	0000                	unimp
     9f8:	0300                	addi	s0,sp,384
     9fa:	a891                	j	a4e <_text-0x9ff5b2>
     9fc:	137f                	0x137f
     9fe:	16b6                	slli	a3,a3,0x2d
     a00:	0000                	unimp
     a02:	0f20                	addi	s0,sp,920
     a04:	00a0                	addi	s0,sp,72
     a06:	0000                	unimp
     a08:	0000                	unimp
     a0a:	0020                	addi	s0,sp,8
     a0c:	0000                	unimp
     a0e:	0000                	unimp
     a10:	0000                	unimp
     a12:	05ad                	addi	a1,a1,11
     a14:	0460                	addi	s0,sp,524
     a16:	0000                	unimp
     a18:	c101                	beqz	a0,a18 <_text-0x9ff5e8>
     a1a:	0016                	c.slli	zero,0x5
     a1c:	1500                	addi	s0,sp,672
     a1e:	000e                	c.slli	zero,0x3
     a20:	0300                	addi	s0,sp,384
     a22:	16cc                	addi	a1,sp,868
     a24:	0000                	unimp
     a26:	0f20                	addi	s0,sp,920
     a28:	00a0                	addi	s0,sp,72
     a2a:	0000                	unimp
     a2c:	0000                	unimp
     a2e:	0020                	addi	s0,sp,8
     a30:	0000                	unimp
     a32:	0000                	unimp
     a34:	0000                	unimp
     a36:	01050d03          	lb	s10,16(a0)
     a3a:	171f 0000 0e2a      	0xe2a0000171f
     a40:	0000                	unimp
     a42:	1301                	addi	t1,t1,-32
     a44:	2a000017          	auipc	zero,0x2a000
     a48:	000e                	c.slli	zero,0x3
     a4a:	0100                	addi	s0,sp,128
     a4c:	00001707          	0x1707
     a50:	0e2a                	slli	t3,t3,0xa
     a52:	0000                	unimp
     a54:	fb01                	bnez	a4,964 <_text-0x9ff69c>
     a56:	0016                	c.slli	zero,0x5
     a58:	2a00                	fld	fs0,16(a2)
     a5a:	000e                	c.slli	zero,0x3
     a5c:	0100                	addi	s0,sp,128
     a5e:	000016ef          	jal	a3,1a5e <_text-0x9fe5a2>
     a62:	0e2a                	slli	t3,t3,0xa
     a64:	0000                	unimp
     a66:	e301                	bnez	a4,a66 <_text-0x9ff59a>
     a68:	0016                	c.slli	zero,0x5
     a6a:	1500                	addi	s0,sp,672
     a6c:	000e                	c.slli	zero,0x3
     a6e:	0100                	addi	s0,sp,128
     a70:	16d9                	addi	a3,a3,-10
     a72:	0000                	unimp
     a74:	00000e3f 00172b02 	0x172b0200000e3f
     a7c:	0100                	addi	s0,sp,128
     a7e:	025a                	slli	tp,tp,0x16
     a80:	1734                	addi	a3,sp,936
     a82:	0000                	unimp
     a84:	5b01                	li	s6,-32
     a86:	3d02                	fld	fs10,32(sp)
     a88:	01000017          	auipc	zero,0x1000
     a8c:	025c                	addi	a5,sp,260
     a8e:	1746                	slli	a4,a4,0x31
     a90:	0000                	unimp
     a92:	5d01                	li	s10,-32
     a94:	4f02                	lw	t5,0(sp)
     a96:	01000017          	auipc	zero,0x1000
     a9a:	025e                	slli	tp,tp,0x17
     a9c:	1758                	addi	a4,sp,932
     a9e:	0000                	unimp
     aa0:	5f01                	li	t5,-32
     aa2:	6102                	ld	sp,0(sp)
     aa4:	01000017          	auipc	zero,0x1000
     aa8:	0061                	c.nop	24
     aaa:	0c00                	addi	s0,sp,528
     aac:	0f0c                	addi	a1,sp,912
     aae:	00a0                	addi	s0,sp,72
     ab0:	0000                	unimp
     ab2:	0000                	unimp
     ab4:	04a1                	addi	s1,s1,8
     ab6:	0000                	unimp
     ab8:	0486                	slli	s1,s1,0x1
     aba:	0000                	unimp
     abc:	0105                	addi	sp,sp,1
     abe:	095a                	slli	s2,s2,0x16
     ac0:	a021e803          	lwu	a6,-1534(gp)
     ac4:	0000                	unimp
     ac6:	0000                	unimp
     ac8:	0500                	addi	s0,sp,640
     aca:	5b01                	li	s6,-32
     acc:	5a01a303          	lw	t1,1440(gp)
     ad0:	1200                	addi	s0,sp,288
     ad2:	0f20                	addi	s0,sp,920
     ad4:	00a0                	addi	s0,sp,72
     ad6:	0000                	unimp
     ad8:	0000                	unimp
     ada:	000005bf 025a0105 	0x25a0105000005bf
     ae2:	0079                	c.nop	30
     ae4:	0105                	addi	sp,sp,1
     ae6:	5891025b          	0x5891025b
     aea:	0000                	unimp
     aec:	6f0d                	lui	t5,0x3
     aee:	0000                	unimp
     af0:	9f00                	0x9f00
     af2:	0e48                	addi	a0,sp,788
     af4:	00a0                	addi	s0,sp,72
     af6:	0000                	unimp
     af8:	0000                	unimp
     afa:	0080                	addi	s0,sp,64
     afc:	0000                	unimp
     afe:	0000                	unimp
     b00:	0000                	unimp
     b02:	9c01                	subw	s0,s0,s0
     b04:	000005bf 746d660e 	0x746d660e000005bf
     b0c:	9f00                	0x9f00
     b0e:	5519                	li	a0,-26
     b10:	54000003          	lb	zero,1344(zero) # 540 <_text-0x9ffac0>
     b14:	000e                	c.slli	zero,0x3
     b16:	1c00                	addi	s0,sp,560
     b18:	6116                	ld	sp,320(sp)
     b1a:	0070                	addi	a2,sp,12
     b1c:	0da0                	addi	s0,sp,728
     b1e:	0072                	c.slli	zero,0x1c
     b20:	0000                	unimp
     b22:	7fa89103          	lh	sp,2042(a7)
     b26:	00168913          	addi	s2,a3,1 # 1001 <_text-0x9fefff>
     b2a:	8400                	0x8400
     b2c:	a00e                	fsd	ft3,0(sp)
     b2e:	0000                	unimp
     b30:	0000                	unimp
     b32:	3400                	fld	fs0,40(s0)
     b34:	0000                	unimp
     b36:	0000                	unimp
     b38:	0000                	unimp
     b3a:	a400                	fsd	fs0,8(s0)
     b3c:	a305                	j	105c <_text-0x9fefa4>
     b3e:	0005                	c.nop	1
     b40:	0300                	addi	s0,sp,384
     b42:	1692                	slli	a3,a3,0x24
     b44:	0000                	unimp
     b46:	0e90                	addi	a2,sp,848
     b48:	00a0                	addi	s0,sp,72
     b4a:	0000                	unimp
     b4c:	0000                	unimp
     b4e:	0020                	addi	s0,sp,8
     b50:	0000                	unimp
     b52:	0000                	unimp
     b54:	0000                	unimp
     b56:	0d02                	c.slli64	s10
     b58:	0109                	addi	sp,sp,2
     b5a:	16a9                	addi	a3,a3,-22
     b5c:	0000                	unimp
     b5e:	0e7e                	slli	t3,t3,0x1f
     b60:	0000                	unimp
     b62:	9d04                	0x9d04
     b64:	0016                	c.slli	zero,0x5
     b66:	0300                	addi	s0,sp,384
     b68:	16cc                	addi	a1,sp,868
     b6a:	0000                	unimp
     b6c:	0e90                	addi	a2,sp,848
     b6e:	00a0                	addi	s0,sp,72
     b70:	0000                	unimp
     b72:	0000                	unimp
     b74:	0020                	addi	s0,sp,8
     b76:	0000                	unimp
     b78:	0000                	unimp
     b7a:	0000                	unimp
     b7c:	01051103          	lh	sp,16(a0)
     b80:	171f 0000 0e92      	0xe920000171f
     b86:	0000                	unimp
     b88:	1301                	addi	t1,t1,-32
     b8a:	92000017          	auipc	zero,0x92000
     b8e:	000e                	c.slli	zero,0x3
     b90:	0100                	addi	s0,sp,128
     b92:	00001707          	0x1707
     b96:	0e92                	slli	t4,t4,0x4
     b98:	0000                	unimp
     b9a:	fb01                	bnez	a4,aaa <_text-0x9ff556>
     b9c:	0016                	c.slli	zero,0x5
     b9e:	9200                	0x9200
     ba0:	000e                	c.slli	zero,0x3
     ba2:	0100                	addi	s0,sp,128
     ba4:	000016ef          	jal	a3,1ba4 <_text-0x9fe45c>
     ba8:	0e7e                	slli	t3,t3,0x1f
     baa:	0000                	unimp
     bac:	e304                	sd	s1,0(a4)
     bae:	0016                	c.slli	zero,0x5
     bb0:	0100                	addi	s0,sp,128
     bb2:	16d9                	addi	a3,a3,-10
     bb4:	0000                	unimp
     bb6:	00000ea7          	0xea7
     bba:	2b02                	fld	fs6,0(sp)
     bbc:	01000017          	auipc	zero,0x1000
     bc0:	025a                	slli	tp,tp,0x16
     bc2:	1734                	addi	a3,sp,936
     bc4:	0000                	unimp
     bc6:	5b01                	li	s6,-32
     bc8:	3d02                	fld	fs10,32(sp)
     bca:	01000017          	auipc	zero,0x1000
     bce:	025c                	addi	a5,sp,260
     bd0:	1746                	slli	a4,a4,0x31
     bd2:	0000                	unimp
     bd4:	5d01                	li	s10,-32
     bd6:	4f02                	lw	t5,0(sp)
     bd8:	01000017          	auipc	zero,0x1000
     bdc:	025e                	slli	tp,tp,0x17
     bde:	1758                	addi	a4,sp,932
     be0:	0000                	unimp
     be2:	5f01                	li	t5,-32
     be4:	6102                	ld	sp,0(sp)
     be6:	01000017          	auipc	zero,0x1000
     bea:	0061                	c.nop	24
     bec:	0000                	unimp
     bee:	8412                	mv	s0,tp
     bf0:	a00e                	fsd	ft3,0(sp)
     bf2:	0000                	unimp
     bf4:	0000                	unimp
     bf6:	bf00                	fsd	fs0,56(a4)
     bf8:	0005                	c.nop	1
     bfa:	0500                	addi	s0,sp,640
     bfc:	5a01                	li	s4,-32
     bfe:	5a01a303          	lw	t1,1440(gp)
     c02:	0105                	addi	sp,sp,1
     c04:	4891025b          	0x4891025b
     c08:	0000                	unimp
     c0a:	3a29                	addiw	s4,s4,-22
     c0c:	0002                	c.slli64	zero
     c0e:	0100                	addi	s0,sp,128
     c10:	04880d07          	0x4880d07
     c14:	00a0                	addi	s0,sp,72
     c16:	0000                	unimp
     c18:	0000                	unimp
     c1a:	09c0                	addi	s0,sp,212
     c1c:	0000                	unimp
     c1e:	0000                	unimp
     c20:	0000                	unimp
     c22:	9c01                	subw	s0,s0,s0
     c24:	165d                	addi	a2,a2,-9
     c26:	0000                	unimp
     c28:	660e                	ld	a2,192(sp)
     c2a:	746d                	lui	s0,0xffffb
     c2c:	0700                	addi	s0,sp,896
     c2e:	551f 0003 bc00      	0xbc000003551f
     c34:	000e                	c.slli	zero,0x3
     c36:	0e00                	addi	s0,sp,784
     c38:	7061                	c.lui	zero,0xffff8
     c3a:	0700                	addi	s0,sp,896
     c3c:	722c                	ld	a1,96(a2)
     c3e:	0000                	unimp
     c40:	0c00                	addi	s0,sp,528
     c42:	1600000f          	0x1600000f
     c46:	7562                	ld	a0,56(sp)
     c48:	0066                	c.slli	zero,0x19
     c4a:	0a08                	addi	a0,sp,272
     c4c:	00b6                	slli	ra,ra,0xd
     c4e:	0000                	unimp
     c50:	7eb09103          	lh	sp,2027(ra) # c15 <_text-0x9ff3eb>
     c54:	6909                	lui	s2,0x2
     c56:	0a00                	addi	s0,sp,272
     c58:	6409                	lui	s0,0x2
     c5a:	0000                	unimp
     c5c:	3500                	fld	fs0,40(a0)
     c5e:	0011                	c.nop	4
     c60:	0900                	addi	s0,sp,144
     c62:	0c0a0063          	beqz	s4,d22 <_text-0x9ff2de>
     c66:	0064                	addi	s1,sp,12
     c68:	0000                	unimp
     c6a:	000012fb          	0x12fb
     c6e:	7309                	lui	t1,0xfffe2
     c70:	0b00                	addi	s0,sp,400
     c72:	0000840b          	0x840b
     c76:	c100                	sw	s0,0(a0)
     c78:	0015                	c.nop	5
     c7a:	0900                	addi	s0,sp,144
     c7c:	756e                	ld	a0,248(sp)
     c7e:	006d                	c.nop	27
     c80:	0e0c                	addi	a1,sp,784
     c82:	0000006b          	0x6b
     c86:	15d5                	addi	a1,a1,-11
     c88:	0000                	unimp
     c8a:	00020e0f          	0x20e0f
     c8e:	0e00                	addi	s0,sp,784
     c90:	6409                	lui	s0,0x2
     c92:	0000                	unimp
     c94:	9400                	0x9400
     c96:	0016                	c.slli	zero,0x5
     c98:	0f00                	addi	s0,sp,912
     c9a:	022d                	addi	tp,tp,11
     c9c:	0000                	unimp
     c9e:	130e                	slli	t1,t1,0x23
     ca0:	0064                	addi	s1,sp,12
     ca2:	0000                	unimp
     ca4:	17d5                	addi	a5,a5,-11
     ca6:	0000                	unimp
     ca8:	0001f70f          	0x1f70f
     cac:	0e00                	addi	s0,sp,784
     cae:	641c                	ld	a5,8(s0)
     cb0:	0000                	unimp
     cb2:	4d00                	lw	s0,24(a0)
     cb4:	0018                	0x18
     cb6:	1d00                	addi	s0,sp,688
     cb8:	0291                	addi	t0,t0,4
     cba:	0000                	unimp
     cbc:	2301                	sext.w	t1,t1
     cbe:	0064                	addi	s1,sp,12
     cc0:	0000                	unimp
     cc2:	0001c50f          	0x1c50f
     cc6:	0e00                	addi	s0,sp,784
     cc8:	6429                	lui	s0,0xa
     cca:	0000                	unimp
     ccc:	9e00                	0x9e00
     cce:	0018                	0x18
     cd0:	0f00                	addi	s0,sp,912
     cd2:	0204                	addi	s1,sp,256
     cd4:	0000                	unimp
     cd6:	00890a0f          	0x890a0f
     cda:	0000                	unimp
     cdc:	19d0                	addi	a2,sp,244
     cde:	0000                	unimp
     ce0:	5d08                	lw	a0,56(a0)
     ce2:	0016                	c.slli	zero,0x5
     ce4:	d800                	sw	s0,48(s0)
     ce6:	a004                	fsd	fs1,0(s0)
     ce8:	0000                	unimp
     cea:	0000                	unimp
     cec:	6300                	ld	s0,0(a4)
     cee:	0000                	unimp
     cf0:	0100                	addi	s0,sp,128
     cf2:	087d118f          	0x87d118f
     cf6:	0000                	unimp
     cf8:	6801                	0x6801
     cfa:	0016                	c.slli	zero,0x5
     cfc:	0300                	addi	s0,sp,384
     cfe:	0800001b          	addiw	zero,zero,128
     d02:	00001673          	csrrw	a2,ustatus,zero
     d06:	04d8                	addi	a4,sp,580
     d08:	00a0                	addi	s0,sp,72
     d0a:	0000                	unimp
     d0c:	0000                	unimp
     d0e:	00000097          	auipc	ra,0x0
     d12:	1d02                	slli	s10,s10,0x20
     d14:	9909                	andi	a0,a0,-30
     d16:	01000007          	0x1000007
     d1a:	167e                	slli	a2,a2,0x3f
     d1c:	0000                	unimp
     d1e:	00001b93          	slli	s7,zero,0x0
     d22:	00168907          	0x168907
     d26:	e800                	sd	s0,16(s0)
     d28:	a004                	fsd	fs1,0(s0)
     d2a:	0000                	unimp
     d2c:	0000                	unimp
     d2e:	dc00                	sw	s0,56(s0)
     d30:	0000                	unimp
     d32:	0200                	addi	s0,sp,256
     d34:	0915                	addi	s2,s2,5
     d36:	00169203          	lh	tp,1(a3)
     d3a:	a800                	fsd	fs0,16(s0)
     d3c:	a00d                	j	d5e <_text-0x9ff2a2>
     d3e:	0000                	unimp
     d40:	0000                	unimp
     d42:	2000                	fld	fs0,0(s0)
     d44:	0000                	unimp
     d46:	0000                	unimp
     d48:	0000                	unimp
     d4a:	0200                	addi	s0,sp,256
     d4c:	090d                	addi	s2,s2,3
     d4e:	a901                	j	115e <_text-0x9feea2>
     d50:	0016                	c.slli	zero,0x5
     d52:	d000                	sw	s0,32(s0)
     d54:	0400001b          	addiw	zero,zero,64
     d58:	169d                	addi	a3,a3,-25
     d5a:	0000                	unimp
     d5c:	0016cc03          	lbu	s8,1(a3)
     d60:	a800                	fsd	fs0,16(s0)
     d62:	a00d                	j	d84 <_text-0x9ff27c>
     d64:	0000                	unimp
     d66:	0000                	unimp
     d68:	2000                	fld	fs0,0(s0)
     d6a:	0000                	unimp
     d6c:	0000                	unimp
     d6e:	0000                	unimp
     d70:	0300                	addi	s0,sp,384
     d72:	0511                	addi	a0,a0,4
     d74:	1f01                	addi	t5,t5,-32
     d76:	e6000017          	auipc	zero,0xe6000
     d7a:	0100001b          	addiw	zero,zero,16
     d7e:	00001713          	slli	a4,zero,0x0
     d82:	1be6                	slli	s7,s7,0x39
     d84:	0000                	unimp
     d86:	0701                	addi	a4,a4,0
     d88:	e6000017          	auipc	zero,0xe6000
     d8c:	0100001b          	addiw	zero,zero,16
     d90:	000016fb          	0x16fb
     d94:	1be6                	slli	s7,s7,0x39
     d96:	0000                	unimp
     d98:	ef01                	bnez	a4,db0 <_text-0x9ff250>
     d9a:	0016                	c.slli	zero,0x5
     d9c:	d000                	sw	s0,32(s0)
     d9e:	0400001b          	addiw	zero,zero,64
     da2:	000016e3          	bnez	zero,15ae <_text-0x9fea52>
     da6:	d901                	beqz	a0,cb6 <_text-0x9ff34a>
     da8:	0016                	c.slli	zero,0x5
     daa:	fb00                	sd	s0,48(a4)
     dac:	0200001b          	addiw	zero,zero,32
     db0:	0000172b          	0x172b
     db4:	5a01                	li	s4,-32
     db6:	3402                	fld	fs0,32(sp)
     db8:	01000017          	auipc	zero,0x1000
     dbc:	173d025b          	0x173d025b
     dc0:	0000                	unimp
     dc2:	5c01                	li	s8,-32
     dc4:	4602                	lw	a2,0(sp)
     dc6:	01000017          	auipc	zero,0x1000
     dca:	025d                	addi	tp,tp,23
     dcc:	0000174f          	fnmadd.s	fa4,ft0,ft0,ft0,rtz
     dd0:	5e01                	li	t3,-32
     dd2:	5802                	lw	a6,32(sp)
     dd4:	01000017          	auipc	zero,0x1000
     dd8:	025f 1761 0000      	0x1761025f
     dde:	6101                	addi	sp,sp,0
     de0:	0000                	unimp
     de2:	0000                	unimp
     de4:	00167307          	0x167307
     de8:	0c00                	addi	s0,sp,528
     dea:	a00d                	j	e0c <_text-0x9ff1f4>
     dec:	0000                	unimp
     dee:	0000                	unimp
     df0:	1000                	addi	s0,sp,32
     df2:	0001                	nop
     df4:	0200                	addi	s0,sp,256
     df6:	0d1c                	addi	a5,sp,656
     df8:	7e01                	lui	t3,0xfffe0
     dfa:	0016                	c.slli	zero,0x5
     dfc:	1000                	addi	s0,sp,32
     dfe:	001c                	0x1c
     e00:	0300                	addi	s0,sp,384
     e02:	1689                	addi	a3,a3,-30
     e04:	0000                	unimp
     e06:	0d70                	addi	a2,sp,668
     e08:	00a0                	addi	s0,sp,72
     e0a:	0000                	unimp
     e0c:	0000                	unimp
     e0e:	0024                	addi	s1,sp,8
     e10:	0000                	unimp
     e12:	0000                	unimp
     e14:	0000                	unimp
     e16:	1502                	slli	a0,a0,0x20
     e18:	0309                	addi	t1,t1,2
     e1a:	1692                	slli	a3,a3,0x24
     e1c:	0000                	unimp
     e1e:	0d74                	addi	a3,sp,668
     e20:	00a0                	addi	s0,sp,72
     e22:	0000                	unimp
     e24:	0000                	unimp
     e26:	0020                	addi	s0,sp,8
     e28:	0000                	unimp
     e2a:	0000                	unimp
     e2c:	0000                	unimp
     e2e:	0d02                	c.slli64	s10
     e30:	0109                	addi	sp,sp,2
     e32:	16a9                	addi	a3,a3,-22
     e34:	0000                	unimp
     e36:	1c25                	addi	s8,s8,-23
     e38:	0000                	unimp
     e3a:	9d04                	0x9d04
     e3c:	0016                	c.slli	zero,0x5
     e3e:	0300                	addi	s0,sp,384
     e40:	16cc                	addi	a1,sp,868
     e42:	0000                	unimp
     e44:	0d74                	addi	a3,sp,668
     e46:	00a0                	addi	s0,sp,72
     e48:	0000                	unimp
     e4a:	0000                	unimp
     e4c:	0020                	addi	s0,sp,8
     e4e:	0000                	unimp
     e50:	0000                	unimp
     e52:	0000                	unimp
     e54:	01051103          	lh	sp,16(a0)
     e58:	171f 0000 1c3b      	0x1c3b0000171f
     e5e:	0000                	unimp
     e60:	1301                	addi	t1,t1,-32
     e62:	3b000017          	auipc	zero,0x3b000
     e66:	001c                	0x1c
     e68:	0100                	addi	s0,sp,128
     e6a:	00001707          	0x1707
     e6e:	00001c3b          	sllw	s8,zero,zero
     e72:	fb01                	bnez	a4,d82 <_text-0x9ff27e>
     e74:	0016                	c.slli	zero,0x5
     e76:	3b00                	fld	fs0,48(a4)
     e78:	001c                	0x1c
     e7a:	0100                	addi	s0,sp,128
     e7c:	000016ef          	jal	a3,1e7c <_text-0x9fe184>
     e80:	1c25                	addi	s8,s8,-23
     e82:	0000                	unimp
     e84:	e304                	sd	s1,0(a4)
     e86:	0016                	c.slli	zero,0x5
     e88:	0100                	addi	s0,sp,128
     e8a:	16d9                	addi	a3,a3,-10
     e8c:	0000                	unimp
     e8e:	1c50                	addi	a2,sp,564
     e90:	0000                	unimp
     e92:	2b02                	fld	fs6,0(sp)
     e94:	01000017          	auipc	zero,0x1000
     e98:	025a                	slli	tp,tp,0x16
     e9a:	1734                	addi	a3,sp,936
     e9c:	0000                	unimp
     e9e:	5b01                	li	s6,-32
     ea0:	3d02                	fld	fs10,32(sp)
     ea2:	01000017          	auipc	zero,0x1000
     ea6:	025c                	addi	a5,sp,260
     ea8:	1746                	slli	a4,a4,0x31
     eaa:	0000                	unimp
     eac:	5d01                	li	s10,-32
     eae:	4f02                	lw	t5,0(sp)
     eb0:	01000017          	auipc	zero,0x1000
     eb4:	025e                	slli	tp,tp,0x17
     eb6:	1758                	addi	a4,sp,932
     eb8:	0000                	unimp
     eba:	5f01                	li	t5,-32
     ebc:	6102                	ld	sp,0(sp)
     ebe:	01000017          	auipc	zero,0x1000
     ec2:	0061                	c.nop	24
     ec4:	0000                	unimp
     ec6:	0000                	unimp
     ec8:	7308                	ld	a0,32(a4)
     eca:	0016                	c.slli	zero,0x5
     ecc:	f400                	sd	s0,40(s0)
     ece:	a004                	fsd	fs1,0(s0)
     ed0:	0000                	unimp
     ed2:	0000                	unimp
     ed4:	3300                	fld	fs0,32(a4)
     ed6:	0001                	nop
     ed8:	0100                	addi	s0,sp,128
     eda:	0d16                	slli	s10,s10,0x5
     edc:	0960                	addi	s0,sp,156
     ede:	0000                	unimp
     ee0:	7e01                	lui	t3,0xfffe0
     ee2:	0016                	c.slli	zero,0x5
     ee4:	6500                	ld	s0,8(a0)
     ee6:	001c                	0x1c
     ee8:	0700                	addi	s0,sp,896
     eea:	1689                	addi	a3,a3,-30
     eec:	0000                	unimp
     eee:	050c                	addi	a1,sp,640
     ef0:	00a0                	addi	s0,sp,72
     ef2:	0000                	unimp
     ef4:	0000                	unimp
     ef6:	0156                	slli	sp,sp,0x15
     ef8:	0000                	unimp
     efa:	1502                	slli	a0,a0,0x20
     efc:	0309                	addi	t1,t1,2
     efe:	1692                	slli	a3,a3,0x24
     f00:	0000                	unimp
     f02:	0588                	addi	a0,sp,704
     f04:	00a0                	addi	s0,sp,72
     f06:	0000                	unimp
     f08:	0000                	unimp
     f0a:	0020                	addi	s0,sp,8
     f0c:	0000                	unimp
     f0e:	0000                	unimp
     f10:	0000                	unimp
     f12:	0d02                	c.slli64	s10
     f14:	0109                	addi	sp,sp,2
     f16:	16a9                	addi	a3,a3,-22
     f18:	0000                	unimp
     f1a:	1c8e                	slli	s9,s9,0x23
     f1c:	0000                	unimp
     f1e:	9d04                	0x9d04
     f20:	0016                	c.slli	zero,0x5
     f22:	0300                	addi	s0,sp,384
     f24:	16cc                	addi	a1,sp,868
     f26:	0000                	unimp
     f28:	0588                	addi	a0,sp,704
     f2a:	00a0                	addi	s0,sp,72
     f2c:	0000                	unimp
     f2e:	0000                	unimp
     f30:	0020                	addi	s0,sp,8
     f32:	0000                	unimp
     f34:	0000                	unimp
     f36:	0000                	unimp
     f38:	01051103          	lh	sp,16(a0)
     f3c:	171f 0000 1ca4      	0x1ca40000171f
     f42:	0000                	unimp
     f44:	1301                	addi	t1,t1,-32
     f46:	a4000017          	auipc	zero,0xa4000
     f4a:	001c                	0x1c
     f4c:	0100                	addi	s0,sp,128
     f4e:	00001707          	0x1707
     f52:	1ca4                	addi	s1,sp,632
     f54:	0000                	unimp
     f56:	fb01                	bnez	a4,e66 <_text-0x9ff19a>
     f58:	0016                	c.slli	zero,0x5
     f5a:	a400                	fsd	fs0,8(s0)
     f5c:	001c                	0x1c
     f5e:	0100                	addi	s0,sp,128
     f60:	000016ef          	jal	a3,1f60 <_text-0x9fe0a0>
     f64:	1c8e                	slli	s9,s9,0x23
     f66:	0000                	unimp
     f68:	e304                	sd	s1,0(a4)
     f6a:	0016                	c.slli	zero,0x5
     f6c:	0100                	addi	s0,sp,128
     f6e:	16d9                	addi	a3,a3,-10
     f70:	0000                	unimp
     f72:	1cb9                	addi	s9,s9,-18
     f74:	0000                	unimp
     f76:	2b02                	fld	fs6,0(sp)
     f78:	01000017          	auipc	zero,0x1000
     f7c:	025a                	slli	tp,tp,0x16
     f7e:	1734                	addi	a3,sp,936
     f80:	0000                	unimp
     f82:	5b01                	li	s6,-32
     f84:	3d02                	fld	fs10,32(sp)
     f86:	01000017          	auipc	zero,0x1000
     f8a:	025c                	addi	a5,sp,260
     f8c:	1746                	slli	a4,a4,0x31
     f8e:	0000                	unimp
     f90:	5d01                	li	s10,-32
     f92:	4f02                	lw	t5,0(sp)
     f94:	01000017          	auipc	zero,0x1000
     f98:	025e                	slli	tp,tp,0x17
     f9a:	1758                	addi	a4,sp,932
     f9c:	0000                	unimp
     f9e:	5f01                	li	t5,-32
     fa0:	6102                	ld	sp,0(sp)
     fa2:	01000017          	auipc	zero,0x1000
     fa6:	0061                	c.nop	24
     fa8:	0000                	unimp
     faa:	1300                	addi	s0,sp,416
     fac:	00001673          	csrrw	a2,ustatus,zero
     fb0:	0530                	addi	a2,sp,648
     fb2:	00a0                	addi	s0,sp,72
     fb4:	0000                	unimp
     fb6:	0000                	unimp
     fb8:	0044                	addi	s1,sp,4
     fba:	0000                	unimp
     fbc:	0000                	unimp
     fbe:	0000                	unimp
     fc0:	1114                	addi	a3,sp,160
     fc2:	0a4a                	slli	s4,s4,0x12
     fc4:	0000                	unimp
     fc6:	7e01                	lui	t3,0xfffe0
     fc8:	0016                	c.slli	zero,0x5
     fca:	ce00                	sw	s0,24(a2)
     fcc:	001c                	0x1c
     fce:	0300                	addi	s0,sp,384
     fd0:	1689                	addi	a3,a3,-30
     fd2:	0000                	unimp
     fd4:	054c                	addi	a1,sp,644
     fd6:	00a0                	addi	s0,sp,72
     fd8:	0000                	unimp
     fda:	0000                	unimp
     fdc:	0028                	addi	a0,sp,8
     fde:	0000                	unimp
     fe0:	0000                	unimp
     fe2:	0000                	unimp
     fe4:	1502                	slli	a0,a0,0x20
     fe6:	0309                	addi	t1,t1,2
     fe8:	1692                	slli	a3,a3,0x24
     fea:	0000                	unimp
     fec:	0550                	addi	a2,sp,644
     fee:	00a0                	addi	s0,sp,72
     ff0:	0000                	unimp
     ff2:	0000                	unimp
     ff4:	0020                	addi	s0,sp,8
     ff6:	0000                	unimp
     ff8:	0000                	unimp
     ffa:	0000                	unimp
     ffc:	0d02                	c.slli64	s10
     ffe:	0109                	addi	sp,sp,2
    1000:	16a9                	addi	a3,a3,-22
    1002:	0000                	unimp
    1004:	00001ce3          	bnez	zero,181c <_text-0x9fe7e4>
    1008:	9d04                	0x9d04
    100a:	0016                	c.slli	zero,0x5
    100c:	0300                	addi	s0,sp,384
    100e:	16cc                	addi	a1,sp,868
    1010:	0000                	unimp
    1012:	0550                	addi	a2,sp,644
    1014:	00a0                	addi	s0,sp,72
    1016:	0000                	unimp
    1018:	0000                	unimp
    101a:	0020                	addi	s0,sp,8
    101c:	0000                	unimp
    101e:	0000                	unimp
    1020:	0000                	unimp
    1022:	01051103          	lh	sp,16(a0)
    1026:	171f 0000 1cf9      	0x1cf90000171f
    102c:	0000                	unimp
    102e:	1301                	addi	t1,t1,-32
    1030:	f9000017          	auipc	zero,0xf9000
    1034:	001c                	0x1c
    1036:	0100                	addi	s0,sp,128
    1038:	00001707          	0x1707
    103c:	1cf9                	addi	s9,s9,-2
    103e:	0000                	unimp
    1040:	fb01                	bnez	a4,f50 <_text-0x9ff0b0>
    1042:	0016                	c.slli	zero,0x5
    1044:	f900                	sd	s0,48(a0)
    1046:	001c                	0x1c
    1048:	0100                	addi	s0,sp,128
    104a:	000016ef          	jal	a3,204a <_text-0x9fdfb6>
    104e:	00001ce3          	bnez	zero,1866 <_text-0x9fe79a>
    1052:	e304                	sd	s1,0(a4)
    1054:	0016                	c.slli	zero,0x5
    1056:	0100                	addi	s0,sp,128
    1058:	16d9                	addi	a3,a3,-10
    105a:	0000                	unimp
    105c:	1d0e                	slli	s10,s10,0x23
    105e:	0000                	unimp
    1060:	2b02                	fld	fs6,0(sp)
    1062:	01000017          	auipc	zero,0x1000
    1066:	025a                	slli	tp,tp,0x16
    1068:	1734                	addi	a3,sp,936
    106a:	0000                	unimp
    106c:	5b01                	li	s6,-32
    106e:	3d02                	fld	fs10,32(sp)
    1070:	01000017          	auipc	zero,0x1000
    1074:	025c                	addi	a5,sp,260
    1076:	1746                	slli	a4,a4,0x31
    1078:	0000                	unimp
    107a:	5d01                	li	s10,-32
    107c:	4f02                	lw	t5,0(sp)
    107e:	01000017          	auipc	zero,0x1000
    1082:	025e                	slli	tp,tp,0x17
    1084:	1758                	addi	a4,sp,932
    1086:	0000                	unimp
    1088:	5f01                	li	t5,-32
    108a:	6102                	ld	sp,0(sp)
    108c:	01000017          	auipc	zero,0x1000
    1090:	0061                	c.nop	24
    1092:	0000                	unimp
    1094:	0800                	addi	s0,sp,16
    1096:	00001673          	csrrw	a2,ustatus,zero
    109a:	074c                	addi	a1,sp,900
    109c:	00a0                	addi	s0,sp,72
    109e:	0000                	unimp
    10a0:	0000                	unimp
    10a2:	0179                	addi	sp,sp,30
    10a4:	0000                	unimp
    10a6:	4701                	li	a4,0
    10a8:	2d11                	addiw	s10,s10,4
    10aa:	0100000b          	0x100000b
    10ae:	167e                	slli	a2,a2,0x3f
    10b0:	0000                	unimp
    10b2:	00001d23          	sh	zero,26(zero) # 1a <_text-0x9fffe6>
    10b6:	00168907          	0x168907
    10ba:	6400                	ld	s0,8(s0)
    10bc:	0000a007          	flw	ft0,0(ra) # d0e <_text-0x9ff2f2>
    10c0:	0000                	unimp
    10c2:	9c00                	0x9c00
    10c4:	0001                	nop
    10c6:	0200                	addi	s0,sp,256
    10c8:	0915                	addi	s2,s2,5
    10ca:	00169203          	lh	tp,1(a3)
    10ce:	6c00                	ld	s0,24(s0)
    10d0:	0000a007          	flw	ft0,0(ra)
    10d4:	0000                	unimp
    10d6:	2000                	fld	fs0,0(s0)
    10d8:	0000                	unimp
    10da:	0000                	unimp
    10dc:	0000                	unimp
    10de:	0200                	addi	s0,sp,256
    10e0:	090d                	addi	s2,s2,3
    10e2:	a901                	j	14f2 <_text-0x9feb0e>
    10e4:	0016                	c.slli	zero,0x5
    10e6:	4b00                	lw	s0,16(a4)
    10e8:	001d                	c.nop	7
    10ea:	0400                	addi	s0,sp,512
    10ec:	169d                	addi	a3,a3,-25
    10ee:	0000                	unimp
    10f0:	0016cc03          	lbu	s8,1(a3)
    10f4:	6c00                	ld	s0,24(s0)
    10f6:	0000a007          	flw	ft0,0(ra)
    10fa:	0000                	unimp
    10fc:	2000                	fld	fs0,0(s0)
    10fe:	0000                	unimp
    1100:	0000                	unimp
    1102:	0000                	unimp
    1104:	0300                	addi	s0,sp,384
    1106:	0511                	addi	a0,a0,4
    1108:	1f01                	addi	t5,t5,-32
    110a:	61000017          	auipc	zero,0x61000
    110e:	001d                	c.nop	7
    1110:	0100                	addi	s0,sp,128
    1112:	00001713          	slli	a4,zero,0x0
    1116:	1d61                	addi	s10,s10,-8
    1118:	0000                	unimp
    111a:	0701                	addi	a4,a4,0
    111c:	61000017          	auipc	zero,0x61000
    1120:	001d                	c.nop	7
    1122:	0100                	addi	s0,sp,128
    1124:	000016fb          	0x16fb
    1128:	1d61                	addi	s10,s10,-8
    112a:	0000                	unimp
    112c:	ef01                	bnez	a4,1144 <_text-0x9feebc>
    112e:	0016                	c.slli	zero,0x5
    1130:	4b00                	lw	s0,16(a4)
    1132:	001d                	c.nop	7
    1134:	0400                	addi	s0,sp,512
    1136:	000016e3          	bnez	zero,1942 <_text-0x9fe6be>
    113a:	d901                	beqz	a0,104a <_text-0x9fefb6>
    113c:	0016                	c.slli	zero,0x5
    113e:	7600                	ld	s0,40(a2)
    1140:	001d                	c.nop	7
    1142:	0200                	addi	s0,sp,256
    1144:	0000172b          	0x172b
    1148:	5a01                	li	s4,-32
    114a:	3402                	fld	fs0,32(sp)
    114c:	01000017          	auipc	zero,0x1000
    1150:	173d025b          	0x173d025b
    1154:	0000                	unimp
    1156:	5c01                	li	s8,-32
    1158:	4602                	lw	a2,0(sp)
    115a:	01000017          	auipc	zero,0x1000
    115e:	025d                	addi	tp,tp,23
    1160:	0000174f          	fnmadd.s	fa4,ft0,ft0,ft0,rtz
    1164:	5e01                	li	t3,-32
    1166:	5802                	lw	a6,32(sp)
    1168:	01000017          	auipc	zero,0x1000
    116c:	025f 1761 0000      	0x1761025f
    1172:	6101                	addi	sp,sp,0
    1174:	0000                	unimp
    1176:	0000                	unimp
    1178:	5d08                	lw	a0,56(a0)
    117a:	0016                	c.slli	zero,0x5
    117c:	bc00                	fsd	fs0,56(s0)
    117e:	0000a007          	flw	ft0,0(ra)
    1182:	0000                	unimp
    1184:	bf00                	fsd	fs0,56(a4)
    1186:	0001                	nop
    1188:	0100                	addi	s0,sp,128
    118a:	1158                	addi	a4,sp,164
    118c:	0d15                	addi	s10,s10,5
    118e:	0000                	unimp
    1190:	6801                	0x6801
    1192:	0016                	c.slli	zero,0x5
    1194:	8b00                	0x8b00
    1196:	001d                	c.nop	7
    1198:	0800                	addi	s0,sp,16
    119a:	00001673          	csrrw	a2,ustatus,zero
    119e:	07cc                	addi	a1,sp,964
    11a0:	00a0                	addi	s0,sp,72
    11a2:	0000                	unimp
    11a4:	0000                	unimp
    11a6:	01e2                	slli	gp,gp,0x18
    11a8:	0000                	unimp
    11aa:	1c02                	slli	s8,s8,0x20
    11ac:	350d                	addiw	a0,a0,-29
    11ae:	000c                	0xc
    11b0:	0100                	addi	s0,sp,128
    11b2:	167e                	slli	a2,a2,0x3f
    11b4:	0000                	unimp
    11b6:	1e05                	addi	t3,t3,-31
    11b8:	0000                	unimp
    11ba:	00168903          	lb	s2,1(a3)
    11be:	4000                	lw	s0,0(s0)
    11c0:	a008                	fsd	fa0,0(s0)
    11c2:	0000                	unimp
    11c4:	0000                	unimp
    11c6:	2400                	fld	fs0,8(s0)
    11c8:	0000                	unimp
    11ca:	0000                	unimp
    11cc:	0000                	unimp
    11ce:	0200                	addi	s0,sp,256
    11d0:	0915                	addi	s2,s2,5
    11d2:	00169203          	lh	tp,1(a3)
    11d6:	4400                	lw	s0,8(s0)
    11d8:	a008                	fsd	fa0,0(s0)
    11da:	0000                	unimp
    11dc:	0000                	unimp
    11de:	2000                	fld	fs0,0(s0)
    11e0:	0000                	unimp
    11e2:	0000                	unimp
    11e4:	0000                	unimp
    11e6:	0200                	addi	s0,sp,256
    11e8:	090d                	addi	s2,s2,3
    11ea:	a901                	j	15fa <_text-0x9fea06>
    11ec:	0016                	c.slli	zero,0x5
    11ee:	1a00                	addi	s0,sp,304
    11f0:	001e                	c.slli	zero,0x7
    11f2:	0400                	addi	s0,sp,512
    11f4:	169d                	addi	a3,a3,-25
    11f6:	0000                	unimp
    11f8:	0016cc03          	lbu	s8,1(a3)
    11fc:	4400                	lw	s0,8(s0)
    11fe:	a008                	fsd	fa0,0(s0)
    1200:	0000                	unimp
    1202:	0000                	unimp
    1204:	2000                	fld	fs0,0(s0)
    1206:	0000                	unimp
    1208:	0000                	unimp
    120a:	0000                	unimp
    120c:	0300                	addi	s0,sp,384
    120e:	0511                	addi	a0,a0,4
    1210:	1f01                	addi	t5,t5,-32
    1212:	30000017          	auipc	zero,0x30000
    1216:	001e                	c.slli	zero,0x7
    1218:	0100                	addi	s0,sp,128
    121a:	00001713          	slli	a4,zero,0x0
    121e:	1e30                	addi	a2,sp,824
    1220:	0000                	unimp
    1222:	0701                	addi	a4,a4,0
    1224:	30000017          	auipc	zero,0x30000
    1228:	001e                	c.slli	zero,0x7
    122a:	0100                	addi	s0,sp,128
    122c:	000016fb          	0x16fb
    1230:	1e30                	addi	a2,sp,824
    1232:	0000                	unimp
    1234:	ef01                	bnez	a4,124c <_text-0x9fedb4>
    1236:	0016                	c.slli	zero,0x5
    1238:	1a00                	addi	s0,sp,304
    123a:	001e                	c.slli	zero,0x7
    123c:	0400                	addi	s0,sp,512
    123e:	000016e3          	bnez	zero,1a4a <_text-0x9fe5b6>
    1242:	d901                	beqz	a0,1152 <_text-0x9feeae>
    1244:	0016                	c.slli	zero,0x5
    1246:	4500                	lw	s0,8(a0)
    1248:	001e                	c.slli	zero,0x7
    124a:	0200                	addi	s0,sp,256
    124c:	0000172b          	0x172b
    1250:	5a01                	li	s4,-32
    1252:	3402                	fld	fs0,32(sp)
    1254:	01000017          	auipc	zero,0x1000
    1258:	173d025b          	0x173d025b
    125c:	0000                	unimp
    125e:	5c01                	li	s8,-32
    1260:	4602                	lw	a2,0(sp)
    1262:	01000017          	auipc	zero,0x1000
    1266:	025d                	addi	tp,tp,23
    1268:	0000174f          	fnmadd.s	fa4,ft0,ft0,ft0,rtz
    126c:	5e01                	li	t3,-32
    126e:	5802                	lw	a6,32(sp)
    1270:	01000017          	auipc	zero,0x1000
    1274:	025f 1761 0000      	0x1761025f
    127a:	6101                	addi	sp,sp,0
    127c:	0000                	unimp
    127e:	0000                	unimp
    1280:	00167307          	0x167307
    1284:	d000                	sw	s0,32(s0)
    1286:	0000a007          	flw	ft0,0(ra)
    128a:	0000                	unimp
    128c:	0500                	addi	s0,sp,640
    128e:	0002                	c.slli64	zero
    1290:	0200                	addi	s0,sp,256
    1292:	091d                	addi	s2,s2,7
    1294:	7e01                	lui	t3,0xfffe0
    1296:	0016                	c.slli	zero,0x5
    1298:	5a00                	lw	s0,48(a2)
    129a:	001e                	c.slli	zero,0x7
    129c:	0700                	addi	s0,sp,896
    129e:	1689                	addi	a3,a3,-30
    12a0:	0000                	unimp
    12a2:	0814                	addi	a3,sp,16
    12a4:	00a0                	addi	s0,sp,72
    12a6:	0000                	unimp
    12a8:	0000                	unimp
    12aa:	0239                	addi	tp,tp,14
    12ac:	0000                	unimp
    12ae:	1502                	slli	a0,a0,0x20
    12b0:	0309                	addi	t1,t1,2
    12b2:	1692                	slli	a3,a3,0x24
    12b4:	0000                	unimp
    12b6:	0878                	addi	a4,sp,28
    12b8:	00a0                	addi	s0,sp,72
    12ba:	0000                	unimp
    12bc:	0000                	unimp
    12be:	0020                	addi	s0,sp,8
    12c0:	0000                	unimp
    12c2:	0000                	unimp
    12c4:	0000                	unimp
    12c6:	0d02                	c.slli64	s10
    12c8:	0109                	addi	sp,sp,2
    12ca:	16a9                	addi	a3,a3,-22
    12cc:	0000                	unimp
    12ce:	00001e97          	auipc	t4,0x1
    12d2:	9d04                	0x9d04
    12d4:	0016                	c.slli	zero,0x5
    12d6:	0300                	addi	s0,sp,384
    12d8:	16cc                	addi	a1,sp,868
    12da:	0000                	unimp
    12dc:	0878                	addi	a4,sp,28
    12de:	00a0                	addi	s0,sp,72
    12e0:	0000                	unimp
    12e2:	0000                	unimp
    12e4:	0020                	addi	s0,sp,8
    12e6:	0000                	unimp
    12e8:	0000                	unimp
    12ea:	0000                	unimp
    12ec:	01051103          	lh	sp,16(a0)
    12f0:	171f 0000 1ead      	0x1ead0000171f
    12f6:	0000                	unimp
    12f8:	1301                	addi	t1,t1,-32
    12fa:	ad000017          	auipc	zero,0xad000
    12fe:	001e                	c.slli	zero,0x7
    1300:	0100                	addi	s0,sp,128
    1302:	00001707          	0x1707
    1306:	1ead                	addi	t4,t4,-21
    1308:	0000                	unimp
    130a:	fb01                	bnez	a4,121a <_text-0x9fede6>
    130c:	0016                	c.slli	zero,0x5
    130e:	ad00                	fsd	fs0,24(a0)
    1310:	001e                	c.slli	zero,0x7
    1312:	0100                	addi	s0,sp,128
    1314:	000016ef          	jal	a3,2314 <_text-0x9fdcec>
    1318:	00001e97          	auipc	t4,0x1
    131c:	e304                	sd	s1,0(a4)
    131e:	0016                	c.slli	zero,0x5
    1320:	0100                	addi	s0,sp,128
    1322:	16d9                	addi	a3,a3,-10
    1324:	0000                	unimp
    1326:	1ec2                	slli	t4,t4,0x30
    1328:	0000                	unimp
    132a:	2b02                	fld	fs6,0(sp)
    132c:	01000017          	auipc	zero,0x1000
    1330:	025a                	slli	tp,tp,0x16
    1332:	1734                	addi	a3,sp,936
    1334:	0000                	unimp
    1336:	5b01                	li	s6,-32
    1338:	3d02                	fld	fs10,32(sp)
    133a:	01000017          	auipc	zero,0x1000
    133e:	025c                	addi	a5,sp,260
    1340:	1746                	slli	a4,a4,0x31
    1342:	0000                	unimp
    1344:	5d01                	li	s10,-32
    1346:	4f02                	lw	t5,0(sp)
    1348:	01000017          	auipc	zero,0x1000
    134c:	025e                	slli	tp,tp,0x17
    134e:	1758                	addi	a4,sp,932
    1350:	0000                	unimp
    1352:	5f01                	li	t5,-32
    1354:	6102                	ld	sp,0(sp)
    1356:	01000017          	auipc	zero,0x1000
    135a:	0061                	c.nop	24
    135c:	0000                	unimp
    135e:	0000                	unimp
    1360:	5d08                	lw	a0,56(a0)
    1362:	0016                	c.slli	zero,0x5
    1364:	d800                	sw	s0,48(s0)
    1366:	a008                	fsd	fa0,0(s0)
    1368:	0000                	unimp
    136a:	0000                	unimp
    136c:	5c00                	lw	s0,56(s0)
    136e:	0002                	c.slli64	zero
    1370:	0100                	addi	s0,sp,128
    1372:	1164                	addi	s1,sp,172
    1374:	0efd                	addi	t4,t4,31
    1376:	0000                	unimp
    1378:	6801                	0x6801
    137a:	0016                	c.slli	zero,0x5
    137c:	d700                	sw	s0,40(a4)
    137e:	001e                	c.slli	zero,0x7
    1380:	0800                	addi	s0,sp,16
    1382:	00001673          	csrrw	a2,ustatus,zero
    1386:	08e8                	addi	a0,sp,92
    1388:	00a0                	addi	s0,sp,72
    138a:	0000                	unimp
    138c:	0000                	unimp
    138e:	027f                	0x27f
    1390:	0000                	unimp
    1392:	1c02                	slli	s8,s8,0x20
    1394:	1d0d                	addi	s10,s10,-29
    1396:	000e                	c.slli	zero,0x3
    1398:	0100                	addi	s0,sp,128
    139a:	167e                	slli	a2,a2,0x3f
    139c:	0000                	unimp
    139e:	1f51                	addi	t5,t5,-12
    13a0:	0000                	unimp
    13a2:	00168903          	lb	s2,1(a3)
    13a6:	4c00                	lw	s0,24(s0)
    13a8:	a009                	j	13aa <_text-0x9fec56>
    13aa:	0000                	unimp
    13ac:	0000                	unimp
    13ae:	2400                	fld	fs0,8(s0)
    13b0:	0000                	unimp
    13b2:	0000                	unimp
    13b4:	0000                	unimp
    13b6:	0200                	addi	s0,sp,256
    13b8:	0915                	addi	s2,s2,5
    13ba:	00169203          	lh	tp,1(a3)
    13be:	5000                	lw	s0,32(s0)
    13c0:	a009                	j	13c2 <_text-0x9fec3e>
    13c2:	0000                	unimp
    13c4:	0000                	unimp
    13c6:	2000                	fld	fs0,0(s0)
    13c8:	0000                	unimp
    13ca:	0000                	unimp
    13cc:	0000                	unimp
    13ce:	0200                	addi	s0,sp,256
    13d0:	090d                	addi	s2,s2,3
    13d2:	a901                	j	17e2 <_text-0x9fe81e>
    13d4:	0016                	c.slli	zero,0x5
    13d6:	6600                	ld	s0,8(a2)
    13d8:	001f 0400 169d      	0x169d0400001f
    13de:	0000                	unimp
    13e0:	0016cc03          	lbu	s8,1(a3)
    13e4:	5000                	lw	s0,32(s0)
    13e6:	a009                	j	13e8 <_text-0x9fec18>
    13e8:	0000                	unimp
    13ea:	0000                	unimp
    13ec:	2000                	fld	fs0,0(s0)
    13ee:	0000                	unimp
    13f0:	0000                	unimp
    13f2:	0000                	unimp
    13f4:	0300                	addi	s0,sp,384
    13f6:	0511                	addi	a0,a0,4
    13f8:	1f01                	addi	t5,t5,-32
    13fa:	7c000017          	auipc	zero,0x7c000
    13fe:	001f 0100 1713      	0x17130100001f
    1404:	0000                	unimp
    1406:	1f7c                	addi	a5,sp,956
    1408:	0000                	unimp
    140a:	0701                	addi	a4,a4,0
    140c:	7c000017          	auipc	zero,0x7c000
    1410:	001f 0100 16fb      	0x16fb0100001f
    1416:	0000                	unimp
    1418:	1f7c                	addi	a5,sp,956
    141a:	0000                	unimp
    141c:	ef01                	bnez	a4,1434 <_text-0x9febcc>
    141e:	0016                	c.slli	zero,0x5
    1420:	6600                	ld	s0,8(a2)
    1422:	001f 0400 16e3      	0x16e30400001f
    1428:	0000                	unimp
    142a:	d901                	beqz	a0,133a <_text-0x9fecc6>
    142c:	0016                	c.slli	zero,0x5
    142e:	9100                	0x9100
    1430:	001f 0200 172b      	0x172b0200001f
    1436:	0000                	unimp
    1438:	5a01                	li	s4,-32
    143a:	3402                	fld	fs0,32(sp)
    143c:	01000017          	auipc	zero,0x1000
    1440:	173d025b          	0x173d025b
    1444:	0000                	unimp
    1446:	5c01                	li	s8,-32
    1448:	4602                	lw	a2,0(sp)
    144a:	01000017          	auipc	zero,0x1000
    144e:	025d                	addi	tp,tp,23
    1450:	0000174f          	fnmadd.s	fa4,ft0,ft0,ft0,rtz
    1454:	5e01                	li	t3,-32
    1456:	5802                	lw	a6,32(sp)
    1458:	01000017          	auipc	zero,0x1000
    145c:	025f 1761 0000      	0x1761025f
    1462:	6101                	addi	sp,sp,0
    1464:	0000                	unimp
    1466:	0000                	unimp
    1468:	00167307          	0x167307
    146c:	ec00                	sd	s0,24(s0)
    146e:	a008                	fsd	fa0,0(s0)
    1470:	0000                	unimp
    1472:	0000                	unimp
    1474:	a200                	fsd	fs0,0(a2)
    1476:	0002                	c.slli64	zero
    1478:	0200                	addi	s0,sp,256
    147a:	091d                	addi	s2,s2,7
    147c:	7e01                	lui	t3,0xfffe0
    147e:	0016                	c.slli	zero,0x5
    1480:	a600                	fsd	fs0,8(a2)
    1482:	001f 0700 1689      	0x16890700001f
    1488:	0000                	unimp
    148a:	0920                	addi	s0,sp,152
    148c:	00a0                	addi	s0,sp,72
    148e:	0000                	unimp
    1490:	0000                	unimp
    1492:	02d6                	slli	t0,t0,0x15
    1494:	0000                	unimp
    1496:	1502                	slli	a0,a0,0x20
    1498:	0309                	addi	t1,t1,2
    149a:	1692                	slli	a3,a3,0x24
    149c:	0000                	unimp
    149e:	0984                	addi	s1,sp,208
    14a0:	00a0                	addi	s0,sp,72
    14a2:	0000                	unimp
    14a4:	0000                	unimp
    14a6:	0020                	addi	s0,sp,8
    14a8:	0000                	unimp
    14aa:	0000                	unimp
    14ac:	0000                	unimp
    14ae:	0d02                	c.slli64	s10
    14b0:	0109                	addi	sp,sp,2
    14b2:	16a9                	addi	a3,a3,-22
    14b4:	0000                	unimp
    14b6:	00001fe3          	bnez	zero,1cd4 <_text-0x9fe32c>
    14ba:	9d04                	0x9d04
    14bc:	0016                	c.slli	zero,0x5
    14be:	0300                	addi	s0,sp,384
    14c0:	16cc                	addi	a1,sp,868
    14c2:	0000                	unimp
    14c4:	0984                	addi	s1,sp,208
    14c6:	00a0                	addi	s0,sp,72
    14c8:	0000                	unimp
    14ca:	0000                	unimp
    14cc:	0020                	addi	s0,sp,8
    14ce:	0000                	unimp
    14d0:	0000                	unimp
    14d2:	0000                	unimp
    14d4:	01051103          	lh	sp,16(a0)
    14d8:	171f 0000 1ff9      	0x1ff90000171f
    14de:	0000                	unimp
    14e0:	1301                	addi	t1,t1,-32
    14e2:	f9000017          	auipc	zero,0xf9000
    14e6:	001f 0100 1707      	0x17070100001f
    14ec:	0000                	unimp
    14ee:	1ff9                	addi	t6,t6,-2
    14f0:	0000                	unimp
    14f2:	fb01                	bnez	a4,1402 <_text-0x9febfe>
    14f4:	0016                	c.slli	zero,0x5
    14f6:	f900                	sd	s0,48(a0)
    14f8:	001f 0100 16ef      	0x16ef0100001f
    14fe:	0000                	unimp
    1500:	00001fe3          	bnez	zero,1d1e <_text-0x9fe2e2>
    1504:	e304                	sd	s1,0(a4)
    1506:	0016                	c.slli	zero,0x5
    1508:	0100                	addi	s0,sp,128
    150a:	16d9                	addi	a3,a3,-10
    150c:	0000                	unimp
    150e:	200e                	fld	ft0,192(sp)
    1510:	0000                	unimp
    1512:	2b02                	fld	fs6,0(sp)
    1514:	01000017          	auipc	zero,0x1000
    1518:	025a                	slli	tp,tp,0x16
    151a:	1734                	addi	a3,sp,936
    151c:	0000                	unimp
    151e:	5b01                	li	s6,-32
    1520:	3d02                	fld	fs10,32(sp)
    1522:	01000017          	auipc	zero,0x1000
    1526:	025c                	addi	a5,sp,260
    1528:	1746                	slli	a4,a4,0x31
    152a:	0000                	unimp
    152c:	5d01                	li	s10,-32
    152e:	4f02                	lw	t5,0(sp)
    1530:	01000017          	auipc	zero,0x1000
    1534:	025e                	slli	tp,tp,0x17
    1536:	1758                	addi	a4,sp,932
    1538:	0000                	unimp
    153a:	5f01                	li	t5,-32
    153c:	6102                	ld	sp,0(sp)
    153e:	01000017          	auipc	zero,0x1000
    1542:	0061                	c.nop	24
    1544:	0000                	unimp
    1546:	0000                	unimp
    1548:	5d08                	lw	a0,56(a0)
    154a:	0016                	c.slli	zero,0x5
    154c:	e400                	sd	s0,8(s0)
    154e:	a009                	j	1550 <_text-0x9feab0>
    1550:	0000                	unimp
    1552:	0000                	unimp
    1554:	f900                	sd	s0,48(a0)
    1556:	0002                	c.slli64	zero
    1558:	0100                	addi	s0,sp,128
    155a:	1170                	addi	a2,sp,172
    155c:	10e5                	addi	ra,ra,-7
    155e:	0000                	unimp
    1560:	6801                	0x6801
    1562:	0016                	c.slli	zero,0x5
    1564:	2300                	fld	fs0,0(a4)
    1566:	0020                	addi	s0,sp,8
    1568:	0800                	addi	s0,sp,16
    156a:	00001673          	csrrw	a2,ustatus,zero
    156e:	09f4                	addi	a3,sp,220
    1570:	00a0                	addi	s0,sp,72
    1572:	0000                	unimp
    1574:	0000                	unimp
    1576:	031c                	addi	a5,sp,384
    1578:	0000                	unimp
    157a:	1c02                	slli	s8,s8,0x20
    157c:	050d                	addi	a0,a0,3
    157e:	0010                	0x10
    1580:	0100                	addi	s0,sp,128
    1582:	167e                	slli	a2,a2,0x3f
    1584:	0000                	unimp
    1586:	209d                	addiw	ra,ra,7
    1588:	0000                	unimp
    158a:	00168903          	lb	s2,1(a3)
    158e:	5800                	lw	s0,48(s0)
    1590:	a00a                	fsd	ft2,0(sp)
    1592:	0000                	unimp
    1594:	0000                	unimp
    1596:	2400                	fld	fs0,8(s0)
    1598:	0000                	unimp
    159a:	0000                	unimp
    159c:	0000                	unimp
    159e:	0200                	addi	s0,sp,256
    15a0:	0915                	addi	s2,s2,5
    15a2:	00169203          	lh	tp,1(a3)
    15a6:	5c00                	lw	s0,56(s0)
    15a8:	a00a                	fsd	ft2,0(sp)
    15aa:	0000                	unimp
    15ac:	0000                	unimp
    15ae:	2000                	fld	fs0,0(s0)
    15b0:	0000                	unimp
    15b2:	0000                	unimp
    15b4:	0000                	unimp
    15b6:	0200                	addi	s0,sp,256
    15b8:	090d                	addi	s2,s2,3
    15ba:	a901                	j	19ca <_text-0x9fe636>
    15bc:	0016                	c.slli	zero,0x5
    15be:	b200                	fsd	fs0,32(a2)
    15c0:	0020                	addi	s0,sp,8
    15c2:	0400                	addi	s0,sp,512
    15c4:	169d                	addi	a3,a3,-25
    15c6:	0000                	unimp
    15c8:	0016cc03          	lbu	s8,1(a3)
    15cc:	5c00                	lw	s0,56(s0)
    15ce:	a00a                	fsd	ft2,0(sp)
    15d0:	0000                	unimp
    15d2:	0000                	unimp
    15d4:	2000                	fld	fs0,0(s0)
    15d6:	0000                	unimp
    15d8:	0000                	unimp
    15da:	0000                	unimp
    15dc:	0300                	addi	s0,sp,384
    15de:	0511                	addi	a0,a0,4
    15e0:	1f01                	addi	t5,t5,-32
    15e2:	c8000017          	auipc	zero,0xc8000
    15e6:	0020                	addi	s0,sp,8
    15e8:	0100                	addi	s0,sp,128
    15ea:	00001713          	slli	a4,zero,0x0
    15ee:	20c8                	fld	fa0,128(s1)
    15f0:	0000                	unimp
    15f2:	0701                	addi	a4,a4,0
    15f4:	c8000017          	auipc	zero,0xc8000
    15f8:	0020                	addi	s0,sp,8
    15fa:	0100                	addi	s0,sp,128
    15fc:	000016fb          	0x16fb
    1600:	20c8                	fld	fa0,128(s1)
    1602:	0000                	unimp
    1604:	ef01                	bnez	a4,161c <_text-0x9fe9e4>
    1606:	0016                	c.slli	zero,0x5
    1608:	b200                	fsd	fs0,32(a2)
    160a:	0020                	addi	s0,sp,8
    160c:	0400                	addi	s0,sp,512
    160e:	000016e3          	bnez	zero,1e1a <_text-0x9fe1e6>
    1612:	d901                	beqz	a0,1522 <_text-0x9feade>
    1614:	0016                	c.slli	zero,0x5
    1616:	dd00                	sw	s0,56(a0)
    1618:	0020                	addi	s0,sp,8
    161a:	0200                	addi	s0,sp,256
    161c:	0000172b          	0x172b
    1620:	5a01                	li	s4,-32
    1622:	3402                	fld	fs0,32(sp)
    1624:	01000017          	auipc	zero,0x1000
    1628:	173d025b          	0x173d025b
    162c:	0000                	unimp
    162e:	5c01                	li	s8,-32
    1630:	4602                	lw	a2,0(sp)
    1632:	01000017          	auipc	zero,0x1000
    1636:	025d                	addi	tp,tp,23
    1638:	0000174f          	fnmadd.s	fa4,ft0,ft0,ft0,rtz
    163c:	5e01                	li	t3,-32
    163e:	5802                	lw	a6,32(sp)
    1640:	01000017          	auipc	zero,0x1000
    1644:	025f 1761 0000      	0x1761025f
    164a:	6101                	addi	sp,sp,0
    164c:	0000                	unimp
    164e:	0000                	unimp
    1650:	00167307          	0x167307
    1654:	f800                	sd	s0,48(s0)
    1656:	a009                	j	1658 <_text-0x9fe9a8>
    1658:	0000                	unimp
    165a:	0000                	unimp
    165c:	3f00                	fld	fs0,56(a4)
    165e:	02000003          	lb	zero,32(zero) # 20 <_text-0x9fffe0>
    1662:	091d                	addi	s2,s2,7
    1664:	7e01                	lui	t3,0xfffe0
    1666:	0016                	c.slli	zero,0x5
    1668:	f200                	sd	s0,32(a2)
    166a:	0020                	addi	s0,sp,8
    166c:	0700                	addi	s0,sp,896
    166e:	1689                	addi	a3,a3,-30
    1670:	0000                	unimp
    1672:	0a2c                	addi	a1,sp,280
    1674:	00a0                	addi	s0,sp,72
    1676:	0000                	unimp
    1678:	0000                	unimp
    167a:	00000373          	0x373
    167e:	1502                	slli	a0,a0,0x20
    1680:	0309                	addi	t1,t1,2
    1682:	1692                	slli	a3,a3,0x24
    1684:	0000                	unimp
    1686:	0a90                	addi	a2,sp,336
    1688:	00a0                	addi	s0,sp,72
    168a:	0000                	unimp
    168c:	0000                	unimp
    168e:	0020                	addi	s0,sp,8
    1690:	0000                	unimp
    1692:	0000                	unimp
    1694:	0000                	unimp
    1696:	0d02                	c.slli64	s10
    1698:	0109                	addi	sp,sp,2
    169a:	16a9                	addi	a3,a3,-22
    169c:	0000                	unimp
    169e:	0000212f          	amoadd.w	sp,zero,(zero)
    16a2:	9d04                	0x9d04
    16a4:	0016                	c.slli	zero,0x5
    16a6:	0300                	addi	s0,sp,384
    16a8:	16cc                	addi	a1,sp,868
    16aa:	0000                	unimp
    16ac:	0a90                	addi	a2,sp,336
    16ae:	00a0                	addi	s0,sp,72
    16b0:	0000                	unimp
    16b2:	0000                	unimp
    16b4:	0020                	addi	s0,sp,8
    16b6:	0000                	unimp
    16b8:	0000                	unimp
    16ba:	0000                	unimp
    16bc:	01051103          	lh	sp,16(a0)
    16c0:	171f 0000 2145      	0x21450000171f
    16c6:	0000                	unimp
    16c8:	1301                	addi	t1,t1,-32
    16ca:	45000017          	auipc	zero,0x45000
    16ce:	0021                	c.nop	8
    16d0:	0100                	addi	s0,sp,128
    16d2:	00001707          	0x1707
    16d6:	2145                	addiw	sp,sp,17
    16d8:	0000                	unimp
    16da:	fb01                	bnez	a4,15ea <_text-0x9fea16>
    16dc:	0016                	c.slli	zero,0x5
    16de:	4500                	lw	s0,8(a0)
    16e0:	0021                	c.nop	8
    16e2:	0100                	addi	s0,sp,128
    16e4:	000016ef          	jal	a3,26e4 <_text-0x9fd91c>
    16e8:	0000212f          	amoadd.w	sp,zero,(zero)
    16ec:	e304                	sd	s1,0(a4)
    16ee:	0016                	c.slli	zero,0x5
    16f0:	0100                	addi	s0,sp,128
    16f2:	16d9                	addi	a3,a3,-10
    16f4:	0000                	unimp
    16f6:	215a                	fld	ft2,400(sp)
    16f8:	0000                	unimp
    16fa:	2b02                	fld	fs6,0(sp)
    16fc:	01000017          	auipc	zero,0x1000
    1700:	025a                	slli	tp,tp,0x16
    1702:	1734                	addi	a3,sp,936
    1704:	0000                	unimp
    1706:	5b01                	li	s6,-32
    1708:	3d02                	fld	fs10,32(sp)
    170a:	01000017          	auipc	zero,0x1000
    170e:	025c                	addi	a5,sp,260
    1710:	1746                	slli	a4,a4,0x31
    1712:	0000                	unimp
    1714:	5d01                	li	s10,-32
    1716:	4f02                	lw	t5,0(sp)
    1718:	01000017          	auipc	zero,0x1000
    171c:	025e                	slli	tp,tp,0x17
    171e:	1758                	addi	a4,sp,932
    1720:	0000                	unimp
    1722:	5f01                	li	t5,-32
    1724:	6102                	ld	sp,0(sp)
    1726:	01000017          	auipc	zero,0x1000
    172a:	0061                	c.nop	24
    172c:	0000                	unimp
    172e:	0000                	unimp
    1730:	5d08                	lw	a0,56(a0)
    1732:	0016                	c.slli	zero,0x5
    1734:	f000                	sd	s0,32(s0)
    1736:	a00a                	fsd	ft2,0(sp)
    1738:	0000                	unimp
    173a:	0000                	unimp
    173c:	9600                	0x9600
    173e:	01000003          	lb	zero,16(zero) # 10 <_text-0x9ffff0>
    1742:	12cd117b          	0x12cd117b
    1746:	0000                	unimp
    1748:	6801                	0x6801
    174a:	0016                	c.slli	zero,0x5
    174c:	6f00                	ld	s0,24(a4)
    174e:	0021                	c.nop	8
    1750:	0800                	addi	s0,sp,16
    1752:	00001673          	csrrw	a2,ustatus,zero
    1756:	0b00                	addi	s0,sp,400
    1758:	00a0                	addi	s0,sp,72
    175a:	0000                	unimp
    175c:	0000                	unimp
    175e:	03b9                	addi	t2,t2,14
    1760:	0000                	unimp
    1762:	1c02                	slli	s8,s8,0x20
    1764:	ed0d                	bnez	a0,179e <_text-0x9fe862>
    1766:	0011                	c.nop	4
    1768:	0100                	addi	s0,sp,128
    176a:	167e                	slli	a2,a2,0x3f
    176c:	0000                	unimp
    176e:	21e9                	addiw	gp,gp,26
    1770:	0000                	unimp
    1772:	00168903          	lb	s2,1(a3)
    1776:	6400                	ld	s0,8(s0)
    1778:	0000a00b          	0xa00b
    177c:	0000                	unimp
    177e:	2400                	fld	fs0,8(s0)
    1780:	0000                	unimp
    1782:	0000                	unimp
    1784:	0000                	unimp
    1786:	0200                	addi	s0,sp,256
    1788:	0915                	addi	s2,s2,5
    178a:	00169203          	lh	tp,1(a3)
    178e:	6800                	ld	s0,16(s0)
    1790:	0000a00b          	0xa00b
    1794:	0000                	unimp
    1796:	2000                	fld	fs0,0(s0)
    1798:	0000                	unimp
    179a:	0000                	unimp
    179c:	0000                	unimp
    179e:	0200                	addi	s0,sp,256
    17a0:	090d                	addi	s2,s2,3
    17a2:	a901                	j	1bb2 <_text-0x9fe44e>
    17a4:	0016                	c.slli	zero,0x5
    17a6:	fe00                	sd	s0,56(a2)
    17a8:	0021                	c.nop	8
    17aa:	0400                	addi	s0,sp,512
    17ac:	169d                	addi	a3,a3,-25
    17ae:	0000                	unimp
    17b0:	0016cc03          	lbu	s8,1(a3)
    17b4:	6800                	ld	s0,16(s0)
    17b6:	0000a00b          	0xa00b
    17ba:	0000                	unimp
    17bc:	2000                	fld	fs0,0(s0)
    17be:	0000                	unimp
    17c0:	0000                	unimp
    17c2:	0000                	unimp
    17c4:	0300                	addi	s0,sp,384
    17c6:	0511                	addi	a0,a0,4
    17c8:	1f01                	addi	t5,t5,-32
    17ca:	14000017          	auipc	zero,0x14000
    17ce:	0022                	c.slli	zero,0x8
    17d0:	0100                	addi	s0,sp,128
    17d2:	00001713          	slli	a4,zero,0x0
    17d6:	2214                	fld	fa3,0(a2)
    17d8:	0000                	unimp
    17da:	0701                	addi	a4,a4,0
    17dc:	14000017          	auipc	zero,0x14000
    17e0:	0022                	c.slli	zero,0x8
    17e2:	0100                	addi	s0,sp,128
    17e4:	000016fb          	0x16fb
    17e8:	2214                	fld	fa3,0(a2)
    17ea:	0000                	unimp
    17ec:	ef01                	bnez	a4,1804 <_text-0x9fe7fc>
    17ee:	0016                	c.slli	zero,0x5
    17f0:	fe00                	sd	s0,56(a2)
    17f2:	0021                	c.nop	8
    17f4:	0400                	addi	s0,sp,512
    17f6:	000016e3          	bnez	zero,2002 <_text-0x9fdffe>
    17fa:	d901                	beqz	a0,170a <_text-0x9fe8f6>
    17fc:	0016                	c.slli	zero,0x5
    17fe:	2900                	fld	fs0,16(a0)
    1800:	0022                	c.slli	zero,0x8
    1802:	0200                	addi	s0,sp,256
    1804:	0000172b          	0x172b
    1808:	5a01                	li	s4,-32
    180a:	3402                	fld	fs0,32(sp)
    180c:	01000017          	auipc	zero,0x1000
    1810:	173d025b          	0x173d025b
    1814:	0000                	unimp
    1816:	5c01                	li	s8,-32
    1818:	4602                	lw	a2,0(sp)
    181a:	01000017          	auipc	zero,0x1000
    181e:	025d                	addi	tp,tp,23
    1820:	0000174f          	fnmadd.s	fa4,ft0,ft0,ft0,rtz
    1824:	5e01                	li	t3,-32
    1826:	5802                	lw	a6,32(sp)
    1828:	01000017          	auipc	zero,0x1000
    182c:	025f 1761 0000      	0x1761025f
    1832:	6101                	addi	sp,sp,0
    1834:	0000                	unimp
    1836:	0000                	unimp
    1838:	00167307          	0x167307
    183c:	0400                	addi	s0,sp,512
    183e:	0000a00b          	0xa00b
    1842:	0000                	unimp
    1844:	dc00                	sw	s0,56(s0)
    1846:	02000003          	lb	zero,32(zero) # 20 <_text-0x9fffe0>
    184a:	091d                	addi	s2,s2,7
    184c:	7e01                	lui	t3,0xfffe0
    184e:	0016                	c.slli	zero,0x5
    1850:	3e00                	fld	fs0,56(a2)
    1852:	0022                	c.slli	zero,0x8
    1854:	0700                	addi	s0,sp,896
    1856:	1689                	addi	a3,a3,-30
    1858:	0000                	unimp
    185a:	0b38                	addi	a4,sp,408
    185c:	00a0                	addi	s0,sp,72
    185e:	0000                	unimp
    1860:	0000                	unimp
    1862:	0410                	addi	a2,sp,512
    1864:	0000                	unimp
    1866:	1502                	slli	a0,a0,0x20
    1868:	0309                	addi	t1,t1,2
    186a:	1692                	slli	a3,a3,0x24
    186c:	0000                	unimp
    186e:	0b9c                	addi	a5,sp,464
    1870:	00a0                	addi	s0,sp,72
    1872:	0000                	unimp
    1874:	0000                	unimp
    1876:	0020                	addi	s0,sp,8
    1878:	0000                	unimp
    187a:	0000                	unimp
    187c:	0000                	unimp
    187e:	0d02                	c.slli64	s10
    1880:	0109                	addi	sp,sp,2
    1882:	16a9                	addi	a3,a3,-22
    1884:	0000                	unimp
    1886:	0000227b          	0x227b
    188a:	9d04                	0x9d04
    188c:	0016                	c.slli	zero,0x5
    188e:	0300                	addi	s0,sp,384
    1890:	16cc                	addi	a1,sp,868
    1892:	0000                	unimp
    1894:	0b9c                	addi	a5,sp,464
    1896:	00a0                	addi	s0,sp,72
    1898:	0000                	unimp
    189a:	0000                	unimp
    189c:	0020                	addi	s0,sp,8
    189e:	0000                	unimp
    18a0:	0000                	unimp
    18a2:	0000                	unimp
    18a4:	01051103          	lh	sp,16(a0)
    18a8:	171f 0000 2291      	0x22910000171f
    18ae:	0000                	unimp
    18b0:	1301                	addi	t1,t1,-32
    18b2:	91000017          	auipc	zero,0x91000
    18b6:	0022                	c.slli	zero,0x8
    18b8:	0100                	addi	s0,sp,128
    18ba:	00001707          	0x1707
    18be:	2291                	addiw	t0,t0,4
    18c0:	0000                	unimp
    18c2:	fb01                	bnez	a4,17d2 <_text-0x9fe82e>
    18c4:	0016                	c.slli	zero,0x5
    18c6:	9100                	0x9100
    18c8:	0022                	c.slli	zero,0x8
    18ca:	0100                	addi	s0,sp,128
    18cc:	000016ef          	jal	a3,28cc <_text-0x9fd734>
    18d0:	0000227b          	0x227b
    18d4:	e304                	sd	s1,0(a4)
    18d6:	0016                	c.slli	zero,0x5
    18d8:	0100                	addi	s0,sp,128
    18da:	16d9                	addi	a3,a3,-10
    18dc:	0000                	unimp
    18de:	22a6                	fld	ft5,72(sp)
    18e0:	0000                	unimp
    18e2:	2b02                	fld	fs6,0(sp)
    18e4:	01000017          	auipc	zero,0x1000
    18e8:	025a                	slli	tp,tp,0x16
    18ea:	1734                	addi	a3,sp,936
    18ec:	0000                	unimp
    18ee:	5b01                	li	s6,-32
    18f0:	3d02                	fld	fs10,32(sp)
    18f2:	01000017          	auipc	zero,0x1000
    18f6:	025c                	addi	a5,sp,260
    18f8:	1746                	slli	a4,a4,0x31
    18fa:	0000                	unimp
    18fc:	5d01                	li	s10,-32
    18fe:	4f02                	lw	t5,0(sp)
    1900:	01000017          	auipc	zero,0x1000
    1904:	025e                	slli	tp,tp,0x17
    1906:	1758                	addi	a4,sp,932
    1908:	0000                	unimp
    190a:	5f01                	li	t5,-32
    190c:	6102                	ld	sp,0(sp)
    190e:	01000017          	auipc	zero,0x1000
    1912:	0061                	c.nop	24
    1914:	0000                	unimp
    1916:	0000                	unimp
    1918:	5d08                	lw	a0,56(a0)
    191a:	0016                	c.slli	zero,0x5
    191c:	fc00                	sd	s0,56(s0)
    191e:	0000a00b          	0xa00b
    1922:	0000                	unimp
    1924:	3300                	fld	fs0,32(a4)
    1926:	0004                	0x4
    1928:	0100                	addi	s0,sp,128
    192a:	1186                	slli	gp,gp,0x21
    192c:	14b5                	addi	s1,s1,-19
    192e:	0000                	unimp
    1930:	6801                	0x6801
    1932:	0016                	c.slli	zero,0x5
    1934:	bb00                	fsd	fs0,48(a4)
    1936:	0022                	c.slli	zero,0x8
    1938:	0800                	addi	s0,sp,16
    193a:	00001673          	csrrw	a2,ustatus,zero
    193e:	0c0c                	addi	a1,sp,528
    1940:	00a0                	addi	s0,sp,72
    1942:	0000                	unimp
    1944:	0000                	unimp
    1946:	0456                	slli	s0,s0,0x15
    1948:	0000                	unimp
    194a:	1c02                	slli	s8,s8,0x20
    194c:	d50d                	beqz	a0,1876 <_text-0x9fe78a>
    194e:	01000013          	li	zero,16
    1952:	167e                	slli	a2,a2,0x3f
    1954:	0000                	unimp
    1956:	2335                	addiw	t1,t1,13
    1958:	0000                	unimp
    195a:	00168903          	lb	s2,1(a3)
    195e:	7000                	ld	s0,32(s0)
    1960:	a00c                	fsd	fa1,0(s0)
    1962:	0000                	unimp
    1964:	0000                	unimp
    1966:	2400                	fld	fs0,8(s0)
    1968:	0000                	unimp
    196a:	0000                	unimp
    196c:	0000                	unimp
    196e:	0200                	addi	s0,sp,256
    1970:	0915                	addi	s2,s2,5
    1972:	00169203          	lh	tp,1(a3)
    1976:	7400                	ld	s0,40(s0)
    1978:	a00c                	fsd	fa1,0(s0)
    197a:	0000                	unimp
    197c:	0000                	unimp
    197e:	2000                	fld	fs0,0(s0)
    1980:	0000                	unimp
    1982:	0000                	unimp
    1984:	0000                	unimp
    1986:	0200                	addi	s0,sp,256
    1988:	090d                	addi	s2,s2,3
    198a:	a901                	j	1d9a <_text-0x9fe266>
    198c:	0016                	c.slli	zero,0x5
    198e:	4a00                	lw	s0,16(a2)
    1990:	04000023          	sb	zero,64(zero) # 40 <_text-0x9fffc0>
    1994:	169d                	addi	a3,a3,-25
    1996:	0000                	unimp
    1998:	0016cc03          	lbu	s8,1(a3)
    199c:	7400                	ld	s0,40(s0)
    199e:	a00c                	fsd	fa1,0(s0)
    19a0:	0000                	unimp
    19a2:	0000                	unimp
    19a4:	2000                	fld	fs0,0(s0)
    19a6:	0000                	unimp
    19a8:	0000                	unimp
    19aa:	0000                	unimp
    19ac:	0300                	addi	s0,sp,384
    19ae:	0511                	addi	a0,a0,4
    19b0:	1f01                	addi	t5,t5,-32
    19b2:	60000017          	auipc	zero,0x60000
    19b6:	01000023          	sb	a6,0(zero) # 0 <_text-0xa00000>
    19ba:	00001713          	slli	a4,zero,0x0
    19be:	2360                	fld	fs0,192(a4)
    19c0:	0000                	unimp
    19c2:	0701                	addi	a4,a4,0
    19c4:	60000017          	auipc	zero,0x60000
    19c8:	01000023          	sb	a6,0(zero) # 0 <_text-0xa00000>
    19cc:	000016fb          	0x16fb
    19d0:	2360                	fld	fs0,192(a4)
    19d2:	0000                	unimp
    19d4:	ef01                	bnez	a4,19ec <_text-0x9fe614>
    19d6:	0016                	c.slli	zero,0x5
    19d8:	4a00                	lw	s0,16(a2)
    19da:	04000023          	sb	zero,64(zero) # 40 <_text-0x9fffc0>
    19de:	000016e3          	bnez	zero,21ea <_text-0x9fde16>
    19e2:	d901                	beqz	a0,18f2 <_text-0x9fe70e>
    19e4:	0016                	c.slli	zero,0x5
    19e6:	7500                	ld	s0,40(a0)
    19e8:	02000023          	sb	zero,32(zero) # 20 <_text-0x9fffe0>
    19ec:	0000172b          	0x172b
    19f0:	5a01                	li	s4,-32
    19f2:	3402                	fld	fs0,32(sp)
    19f4:	01000017          	auipc	zero,0x1000
    19f8:	173d025b          	0x173d025b
    19fc:	0000                	unimp
    19fe:	5c01                	li	s8,-32
    1a00:	4602                	lw	a2,0(sp)
    1a02:	01000017          	auipc	zero,0x1000
    1a06:	025d                	addi	tp,tp,23
    1a08:	0000174f          	fnmadd.s	fa4,ft0,ft0,ft0,rtz
    1a0c:	5e01                	li	t3,-32
    1a0e:	5802                	lw	a6,32(sp)
    1a10:	01000017          	auipc	zero,0x1000
    1a14:	025f 1761 0000      	0x1761025f
    1a1a:	6101                	addi	sp,sp,0
    1a1c:	0000                	unimp
    1a1e:	0000                	unimp
    1a20:	00167307          	0x167307
    1a24:	1000                	addi	s0,sp,32
    1a26:	a00c                	fsd	fa1,0(s0)
    1a28:	0000                	unimp
    1a2a:	0000                	unimp
    1a2c:	7900                	ld	s0,48(a0)
    1a2e:	0004                	0x4
    1a30:	0200                	addi	s0,sp,256
    1a32:	091d                	addi	s2,s2,7
    1a34:	7e01                	lui	t3,0xfffe0
    1a36:	0016                	c.slli	zero,0x5
    1a38:	8a00                	0x8a00
    1a3a:	07000023          	sb	a6,96(zero) # 60 <_text-0x9fffa0>
    1a3e:	1689                	addi	a3,a3,-30
    1a40:	0000                	unimp
    1a42:	0c44                	addi	s1,sp,532
    1a44:	00a0                	addi	s0,sp,72
    1a46:	0000                	unimp
    1a48:	0000                	unimp
    1a4a:	04ad                	addi	s1,s1,11
    1a4c:	0000                	unimp
    1a4e:	1502                	slli	a0,a0,0x20
    1a50:	0309                	addi	t1,t1,2
    1a52:	1692                	slli	a3,a3,0x24
    1a54:	0000                	unimp
    1a56:	0ca8                	addi	a0,sp,600
    1a58:	00a0                	addi	s0,sp,72
    1a5a:	0000                	unimp
    1a5c:	0000                	unimp
    1a5e:	0020                	addi	s0,sp,8
    1a60:	0000                	unimp
    1a62:	0000                	unimp
    1a64:	0000                	unimp
    1a66:	0d02                	c.slli64	s10
    1a68:	0109                	addi	sp,sp,2
    1a6a:	16a9                	addi	a3,a3,-22
    1a6c:	0000                	unimp
    1a6e:	000023c7          	fmsub.s	ft7,ft0,ft0,ft0,rdn
    1a72:	9d04                	0x9d04
    1a74:	0016                	c.slli	zero,0x5
    1a76:	0300                	addi	s0,sp,384
    1a78:	16cc                	addi	a1,sp,868
    1a7a:	0000                	unimp
    1a7c:	0ca8                	addi	a0,sp,600
    1a7e:	00a0                	addi	s0,sp,72
    1a80:	0000                	unimp
    1a82:	0000                	unimp
    1a84:	0020                	addi	s0,sp,8
    1a86:	0000                	unimp
    1a88:	0000                	unimp
    1a8a:	0000                	unimp
    1a8c:	01051103          	lh	sp,16(a0)
    1a90:	171f 0000 23dd      	0x23dd0000171f
    1a96:	0000                	unimp
    1a98:	1301                	addi	t1,t1,-32
    1a9a:	dd000017          	auipc	zero,0xdd000
    1a9e:	01000023          	sb	a6,0(zero) # 0 <_text-0xa00000>
    1aa2:	00001707          	0x1707
    1aa6:	23dd                	addiw	t2,t2,23
    1aa8:	0000                	unimp
    1aaa:	fb01                	bnez	a4,19ba <_text-0x9fe646>
    1aac:	0016                	c.slli	zero,0x5
    1aae:	dd00                	sw	s0,56(a0)
    1ab0:	01000023          	sb	a6,0(zero) # 0 <_text-0xa00000>
    1ab4:	000016ef          	jal	a3,2ab4 <_text-0x9fd54c>
    1ab8:	000023c7          	fmsub.s	ft7,ft0,ft0,ft0,rdn
    1abc:	e304                	sd	s1,0(a4)
    1abe:	0016                	c.slli	zero,0x5
    1ac0:	0100                	addi	s0,sp,128
    1ac2:	16d9                	addi	a3,a3,-10
    1ac4:	0000                	unimp
    1ac6:	23f2                	fld	ft7,280(sp)
    1ac8:	0000                	unimp
    1aca:	2b02                	fld	fs6,0(sp)
    1acc:	01000017          	auipc	zero,0x1000
    1ad0:	025a                	slli	tp,tp,0x16
    1ad2:	1734                	addi	a3,sp,936
    1ad4:	0000                	unimp
    1ad6:	5b01                	li	s6,-32
    1ad8:	3d02                	fld	fs10,32(sp)
    1ada:	01000017          	auipc	zero,0x1000
    1ade:	025c                	addi	a5,sp,260
    1ae0:	1746                	slli	a4,a4,0x31
    1ae2:	0000                	unimp
    1ae4:	5d01                	li	s10,-32
    1ae6:	4f02                	lw	t5,0(sp)
    1ae8:	01000017          	auipc	zero,0x1000
    1aec:	025e                	slli	tp,tp,0x17
    1aee:	1758                	addi	a4,sp,932
    1af0:	0000                	unimp
    1af2:	5f01                	li	t5,-32
    1af4:	6102                	ld	sp,0(sp)
    1af6:	01000017          	auipc	zero,0x1000
    1afa:	0061                	c.nop	24
    1afc:	0000                	unimp
    1afe:	0000                	unimp
    1b00:	0016b613          	seqz	a2,a3
    1b04:	e400                	sd	s0,8(s0)
    1b06:	a00d                	j	1b28 <_text-0x9fe4d8>
    1b08:	0000                	unimp
    1b0a:	0000                	unimp
    1b0c:	2800                	fld	fs0,16(s0)
    1b0e:	0000                	unimp
    1b10:	0000                	unimp
    1b12:	0000                	unimp
    1b14:	9700                	0x9700
    1b16:	6511                	lui	a0,0x4
    1b18:	0015                	c.nop	5
    1b1a:	0100                	addi	s0,sp,128
    1b1c:	16c1                	addi	a3,a3,-16
    1b1e:	0000                	unimp
    1b20:	00002407          	flw	fs0,0(zero) # 0 <_text-0xa00000>
    1b24:	0016cc07          	flq	fs8,1(a3)
    1b28:	e400                	sd	s0,8(s0)
    1b2a:	a00d                	j	1b4c <_text-0x9fe4b4>
    1b2c:	0000                	unimp
    1b2e:	0000                	unimp
    1b30:	d000                	sw	s0,32(s0)
    1b32:	0004                	0x4
    1b34:	0300                	addi	s0,sp,384
    1b36:	050d                	addi	a0,a0,3
    1b38:	1f01                	addi	t5,t5,-32
    1b3a:	1b000017          	auipc	zero,0x1b000
    1b3e:	0024                	addi	s1,sp,8
    1b40:	0100                	addi	s0,sp,128
    1b42:	00001713          	slli	a4,zero,0x0
    1b46:	0000241b          	0x241b
    1b4a:	0701                	addi	a4,a4,0
    1b4c:	1b000017          	auipc	zero,0x1b000
    1b50:	0024                	addi	s1,sp,8
    1b52:	0100                	addi	s0,sp,128
    1b54:	000016fb          	0x16fb
    1b58:	0000241b          	0x241b
    1b5c:	ef01                	bnez	a4,1b74 <_text-0x9fe48c>
    1b5e:	0016                	c.slli	zero,0x5
    1b60:	1b00                	addi	s0,sp,432
    1b62:	0024                	addi	s1,sp,8
    1b64:	0100                	addi	s0,sp,128
    1b66:	000016e3          	bnez	zero,2372 <_text-0x9fdc8e>
    1b6a:	2430                	fld	fa2,72(s0)
    1b6c:	0000                	unimp
    1b6e:	d901                	beqz	a0,1a7e <_text-0x9fe582>
    1b70:	0016                	c.slli	zero,0x5
    1b72:	5c00                	lw	s0,56(s0)
    1b74:	0024                	addi	s1,sp,8
    1b76:	1a00                	addi	s0,sp,304
    1b78:	04d0                	addi	a2,sp,580
    1b7a:	0000                	unimp
    1b7c:	2b02                	fld	fs6,0(sp)
    1b7e:	01000017          	auipc	zero,0x1000
    1b82:	025a                	slli	tp,tp,0x16
    1b84:	1734                	addi	a3,sp,936
    1b86:	0000                	unimp
    1b88:	5b01                	li	s6,-32
    1b8a:	3d02                	fld	fs10,32(sp)
    1b8c:	01000017          	auipc	zero,0x1000
    1b90:	025c                	addi	a5,sp,260
    1b92:	1746                	slli	a4,a4,0x31
    1b94:	0000                	unimp
    1b96:	5d01                	li	s10,-32
    1b98:	4f02                	lw	t5,0(sp)
    1b9a:	01000017          	auipc	zero,0x1000
    1b9e:	025e                	slli	tp,tp,0x17
    1ba0:	1758                	addi	a4,sp,932
    1ba2:	0000                	unimp
    1ba4:	5f01                	li	t5,-32
    1ba6:	6102                	ld	sp,0(sp)
    1ba8:	01000017          	auipc	zero,0x1000
    1bac:	0061                	c.nop	24
    1bae:	0000                	unimp
    1bb0:	4c0c                	lw	a1,24(s0)
    1bb2:	0000a007          	flw	ft0,0(ra)
    1bb6:	0000                	unimp
    1bb8:	7f00                	ld	s0,56(a4)
    1bba:	0002                	c.slli64	zero
    1bbc:	8400                	0x8400
    1bbe:	0015                	c.nop	5
    1bc0:	0500                	addi	s0,sp,640
    1bc2:	5a01                	li	s4,-32
    1bc4:	7eb07803          	0x7eb07803
    1bc8:	0105                	addi	sp,sp,1
    1bca:	0085025b          	0x85025b
    1bce:	0c00                	addi	s0,sp,528
    1bd0:	07bc                	addi	a5,sp,968
    1bd2:	00a0                	addi	s0,sp,72
    1bd4:	0000                	unimp
    1bd6:	0000                	unimp
    1bd8:	00e6                	slli	ra,ra,0x19
    1bda:	0000                	unimp
    1bdc:	000015a7          	0x15a7
    1be0:	0105                	addi	sp,sp,1
    1be2:	035a                	slli	t1,t1,0x16
    1be4:	b078                	fsd	fa4,224(s0)
    1be6:	057e                	slli	a0,a0,0x1f
    1be8:	5c01                	li	s8,-32
    1bea:	3a01                	addiw	s4,s4,-32
    1bec:	0105                	addi	sp,sp,1
    1bee:	0161                	addi	sp,sp,24
    1bf0:	0030                	addi	a2,sp,8
    1bf2:	d80c                	sw	a1,48(s0)
    1bf4:	a008                	fsd	fa0,0(s0)
    1bf6:	0000                	unimp
    1bf8:	0000                	unimp
    1bfa:	e600                	sd	s0,8(a2)
    1bfc:	0000                	unimp
    1bfe:	cf00                	sw	s0,24(a4)
    1c00:	0015                	c.nop	5
    1c02:	0500                	addi	s0,sp,640
    1c04:	5a01                	li	s4,-32
    1c06:	7eb07803          	0x7eb07803
    1c0a:	0105                	addi	sp,sp,1
    1c0c:	015c                	addi	a5,sp,132
    1c0e:	0538                	addi	a4,sp,648
    1c10:	5d01                	li	s10,-32
    1c12:	3001                	0x3001
    1c14:	0105                	addi	sp,sp,1
    1c16:	0161                	addi	sp,sp,24
    1c18:	0030                	addi	a2,sp,8
    1c1a:	e40c                	sd	a1,8(s0)
    1c1c:	a009                	j	1c1e <_text-0x9fe3e2>
    1c1e:	0000                	unimp
    1c20:	0000                	unimp
    1c22:	e600                	sd	s0,8(a2)
    1c24:	0000                	unimp
    1c26:	f700                	sd	s0,40(a4)
    1c28:	0015                	c.nop	5
    1c2a:	0500                	addi	s0,sp,640
    1c2c:	5a01                	li	s4,-32
    1c2e:	7eb07803          	0x7eb07803
    1c32:	0105                	addi	sp,sp,1
    1c34:	015c                	addi	a5,sp,132
    1c36:	053a                	slli	a0,a0,0xe
    1c38:	5d01                	li	s10,-32
    1c3a:	3001                	0x3001
    1c3c:	0105                	addi	sp,sp,1
    1c3e:	0161                	addi	sp,sp,24
    1c40:	0030                	addi	a2,sp,8
    1c42:	f00c                	sd	a1,32(s0)
    1c44:	a00a                	fsd	ft2,0(sp)
    1c46:	0000                	unimp
    1c48:	0000                	unimp
    1c4a:	e600                	sd	s0,8(a2)
    1c4c:	0000                	unimp
    1c4e:	1f00                	addi	s0,sp,944
    1c50:	0016                	c.slli	zero,0x5
    1c52:	0500                	addi	s0,sp,640
    1c54:	5a01                	li	s4,-32
    1c56:	7eb07803          	0x7eb07803
    1c5a:	0105                	addi	sp,sp,1
    1c5c:	015c                	addi	a5,sp,132
    1c5e:	0540                	addi	s0,sp,644
    1c60:	5d01                	li	s10,-32
    1c62:	3001                	0x3001
    1c64:	0105                	addi	sp,sp,1
    1c66:	0161                	addi	sp,sp,24
    1c68:	0030                	addi	a2,sp,8
    1c6a:	fc0c                	sd	a1,56(s0)
    1c6c:	0000a00b          	0xa00b
    1c70:	0000                	unimp
    1c72:	e600                	sd	s0,8(a2)
    1c74:	0000                	unimp
    1c76:	4700                	lw	s0,8(a4)
    1c78:	0016                	c.slli	zero,0x5
    1c7a:	0500                	addi	s0,sp,640
    1c7c:	5a01                	li	s4,-32
    1c7e:	7eb07803          	0x7eb07803
    1c82:	0105                	addi	sp,sp,1
    1c84:	015c                	addi	a5,sp,132
    1c86:	0540                	addi	s0,sp,644
    1c88:	5d01                	li	s10,-32
    1c8a:	3001                	0x3001
    1c8c:	0105                	addi	sp,sp,1
    1c8e:	0161                	addi	sp,sp,24
    1c90:	0031                	c.nop	12
    1c92:	fc12                	sd	tp,56(sp)
    1c94:	a00c                	fsd	fa1,0(s0)
    1c96:	0000                	unimp
    1c98:	0000                	unimp
    1c9a:	0200                	addi	s0,sp,256
    1c9c:	0002                	c.slli64	zero
    1c9e:	0500                	addi	s0,sp,640
    1ca0:	5a01                	li	s4,-32
    1ca2:	7eb07803          	0x7eb07803
    1ca6:	0000                	unimp
    1ca8:	db14                	sw	a3,48(a4)
    1caa:	0001                	nop
    1cac:	0200                	addi	s0,sp,256
    1cae:	7319                	lui	t1,0xfffe6
    1cb0:	0016                	c.slli	zero,0x5
    1cb2:	0a00                	addi	s0,sp,272
    1cb4:	19020073          	0x19020073
    1cb8:	552d                	li	a0,-21
    1cba:	00000003          	lb	zero,0(zero) # 0 <_text-0xa00000>
    1cbe:	5314                	lw	a3,32(a4)
    1cc0:	0002                	c.slli64	zero
    1cc2:	0200                	addi	s0,sp,256
    1cc4:	8912                	mv	s2,tp
    1cc6:	0016                	c.slli	zero,0x5
    1cc8:	0a00                	addi	s0,sp,272
    1cca:	12020063          	beqz	tp,1dea <_text-0x9fe216>
    1cce:	8926                	mv	s2,s1
    1cd0:	0000                	unimp
    1cd2:	0000                	unimp
    1cd4:	962a                	add	a2,a2,a0
    1cd6:	0002                	c.slli64	zero
    1cd8:	0200                	addi	s0,sp,256
    1cda:	1403140b          	0x1403140b
    1cde:	000001bb          	addw	gp,zero,zero
    1ce2:	16b61003          	lh	zero,363(a2) # 1d16b <_text-0x9e2e95>
    1ce6:	0000                	unimp
    1ce8:	0002602b          	0x2602b
    1cec:	0300                	addi	s0,sp,384
    1cee:	2410                	fld	fa2,8(s0)
    1cf0:	0084                	addi	s1,sp,64
    1cf2:	0000                	unimp
    1cf4:	6c0a                	ld	s8,128(sp)
    1cf6:	6e65                	lui	t3,0x19
    1cf8:	0300                	addi	s0,sp,384
    1cfa:	3010                	fld	fa2,32(s0)
    1cfc:	00000043          	fmadd.s	ft0,ft0,ft0,ft0,rne
    1d00:	1400                	addi	s0,sp,544
    1d02:	01cd                	addi	gp,gp,19
    1d04:	0000                	unimp
    1d06:	16cc0c03          	lb	s8,364(s8) # 216c <_text-0x9fde94>
    1d0a:	0000                	unimp
    1d0c:	630a                	ld	t1,128(sp)
    1d0e:	0300                	addi	s0,sp,384
    1d10:	210c                	fld	fa1,0(a0)
    1d12:	0089                	addi	ra,ra,2
    1d14:	0000                	unimp
    1d16:	2c00                	fld	fs0,24(s0)
    1d18:	0186                	slli	gp,gp,0x1
    1d1a:	0000                	unimp
    1d1c:	0604                	addi	s1,sp,768
    1d1e:	00004313          	xori	t1,zero,0
    1d22:	0300                	addi	s0,sp,384
    1d24:	6e0a                	ld	t3,128(sp)
    1d26:	0400                	addi	s0,sp,512
    1d28:	2106                	fld	ft2,64(sp)
    1d2a:	0000006b          	0x6b
    1d2e:	5f0a                	lw	t5,160(sp)
    1d30:	3061                	0x3061
    1d32:	0400                	addi	s0,sp,512
    1d34:	2806                	fld	fa6,64(sp)
    1d36:	00000043          	fmadd.s	ft0,ft0,ft0,ft0,rne
    1d3a:	5f0a                	lw	t5,160(sp)
    1d3c:	3161                	addiw	sp,sp,-8
    1d3e:	0400                	addi	s0,sp,512
    1d40:	3106                	fld	ft2,96(sp)
    1d42:	00000043          	fmadd.s	ft0,ft0,ft0,ft0,rne
    1d46:	5f0a                	lw	t5,160(sp)
    1d48:	3261                	addiw	tp,tp,-8
    1d4a:	0400                	addi	s0,sp,512
    1d4c:	3a06                	fld	fs4,96(sp)
    1d4e:	00000043          	fmadd.s	ft0,ft0,ft0,ft0,rne
    1d52:	5f0a                	lw	t5,160(sp)
    1d54:	3361                	addiw	t1,t1,-8
    1d56:	0400                	addi	s0,sp,512
    1d58:	00430307          	0x430307
    1d5c:	0000                	unimp
    1d5e:	5f0a                	lw	t5,160(sp)
    1d60:	3461                	addiw	s0,s0,-8
    1d62:	0400                	addi	s0,sp,512
    1d64:	00430c07          	0x430c07
    1d68:	0000                	unimp
    1d6a:	5f0a                	lw	t5,160(sp)
    1d6c:	3561                	addiw	a0,a0,-8
    1d6e:	0400                	addi	s0,sp,512
    1d70:	00431507          	0x431507
    1d74:	0000                	unimp
    1d76:	6110                	ld	a2,0(a0)
    1d78:	0030                	addi	a2,sp,8
    1d7a:	4308                	lw	a0,0(a4)
    1d7c:	0000                	unimp
    1d7e:	1000                	addi	s0,sp,32
    1d80:	3161                	addiw	sp,sp,-8
    1d82:	0900                	addi	s0,sp,144
    1d84:	00000043          	fmadd.s	ft0,ft0,ft0,ft0,rne
    1d88:	6110                	ld	a2,0(a0)
    1d8a:	0032                	c.slli	zero,0xc
    1d8c:	430a                	lw	t1,128(sp)
    1d8e:	0000                	unimp
    1d90:	1000                	addi	s0,sp,32
    1d92:	3361                	addiw	t1,t1,-8
    1d94:	0b00                	addi	s0,sp,400
    1d96:	00000043          	fmadd.s	ft0,ft0,ft0,ft0,rne
    1d9a:	6110                	ld	a2,0(a0)
    1d9c:	0034                	addi	a3,sp,8
    1d9e:	430c                	lw	a1,0(a4)
    1da0:	0000                	unimp
    1da2:	1000                	addi	s0,sp,32
    1da4:	3561                	addiw	a0,a0,-8
    1da6:	0d00                	addi	s0,sp,656
    1da8:	00000043          	fmadd.s	ft0,ft0,ft0,ft0,rne
    1dac:	4b1d                	li	s6,7
    1dae:	0000                	unimp
    1db0:	0400                	addi	s0,sp,512
    1db2:	6b10                	ld	a2,16(a4)
    1db4:	0000                	unimp
    1db6:	0000                	unimp
    1db8:	2d00                	fld	fs0,24(a0)
    1dba:	0500000b          	0x500000b
    1dbe:	0100                	addi	s0,sp,128
    1dc0:	7a08                	ld	a0,48(a2)
    1dc2:	0005                	c.nop	1
    1dc4:	1700                	addi	s0,sp,928
    1dc6:	00d0                	addi	a2,sp,68
    1dc8:	0000                	unimp
    1dca:	9c1d                	subw	s0,s0,a5
    1dcc:	0000                	unimp
    1dce:	0000                	unimp
    1dd0:	0000                	unimp
    1dd2:	6c00                	ld	s0,24(s0)
    1dd4:	0000a00f          	0xa00f
    1dd8:	0000                	unimp
    1dda:	1000                	addi	s0,sp,32
    1ddc:	0004                	0x4
    1dde:	0000                	unimp
    1de0:	0000                	unimp
    1de2:	4400                	lw	s0,8(s0)
    1de4:	0025                	c.nop	9
    1de6:	0700                	addi	s0,sp,896
    1de8:	0801                	addi	a6,a6,0
    1dea:	008e                	slli	ra,ra,0x3
    1dec:	0000                	unimp
    1dee:	a6070207          	0xa6070207
    1df2:	0000                	unimp
    1df4:	1000                	addi	s0,sp,32
    1df6:	3375                	addiw	t1,t1,-3
    1df8:	0032                	c.slli	zero,0xc
    1dfa:	4606                	lw	a2,64(sp)
    1dfc:	0000                	unimp
    1dfe:	0700                	addi	s0,sp,896
    1e00:	0704                	addi	s1,sp,896
    1e02:	00be                	slli	ra,ra,0xf
    1e04:	0000                	unimp
    1e06:	7510                	ld	a2,40(a0)
    1e08:	3436                	fld	fs0,360(sp)
    1e0a:	0700                	addi	s0,sp,896
    1e0c:	00000057          	0x57
    1e10:	b9070807          	0xb9070807
    1e14:	0000                	unimp
    1e16:	0700                	addi	s0,sp,896
    1e18:	0601                	addi	a2,a2,0
    1e1a:	0090                	addi	a2,sp,64
    1e1c:	0000                	unimp
    1e1e:	41050207          	0x41050207
    1e22:	0000                	unimp
    1e24:	1800                	addi	s0,sp,48
    1e26:	0504                	addi	s1,sp,640
    1e28:	6e69                	lui	t3,0x1a
    1e2a:	0074                	addi	a3,sp,12
    1e2c:	66050807          	0x66050807
    1e30:	0000                	unimp
    1e32:	1100                	addi	s0,sp,160
    1e34:	0328                	addi	a0,sp,392
    1e36:	0000                	unimp
    1e38:	1742                	slli	a4,a4,0x30
    1e3a:	002e                	c.slli	zero,0xb
    1e3c:	0000                	unimp
    1e3e:	bf11                	j	1d52 <_text-0x9fe2ae>
    1e40:	0002                	c.slli64	zero
    1e42:	4500                	lw	s0,8(a0)
    1e44:	4616                	lw	a2,68(sp)
    1e46:	0000                	unimp
    1e48:	1900                	addi	s0,sp,176
    1e4a:	00000363          	beqz	zero,1e50 <_text-0x9fe1b0>
    1e4e:	0580                	addi	s0,sp,704
    1e50:	0815                	addi	a6,a6,5
    1e52:	0182                	c.slli64	gp
    1e54:	0000                	unimp
    1e56:	00039503          	lh	a0,0(t2) # 643000 <_text-0x3bd000>
    1e5a:	1600                	addi	s0,sp,800
    1e5c:	4d09                	li	s10,2
    1e5e:	0000                	unimp
    1e60:	0000                	unimp
    1e62:	00034903          	lbu	s2,0(t1) # fffffffffffe6000 <end+0xfffffffffefe4000>
    1e66:	1700                	addi	s0,sp,928
    1e68:	4d09                	li	s10,2
    1e6a:	0000                	unimp
    1e6c:	0800                	addi	s0,sp,16
    1e6e:	0003cd03          	lbu	s10,0(t2)
    1e72:	1800                	addi	s0,sp,48
    1e74:	3c09                	addiw	s8,s8,-30
    1e76:	0000                	unimp
    1e78:	1000                	addi	s0,sp,32
    1e7a:	0002c403          	lbu	s0,0(t0) # 3b0 <_text-0x9ffc50>
    1e7e:	1900                	addi	s0,sp,176
    1e80:	3c09                	addiw	s8,s8,-30
    1e82:	0000                	unimp
    1e84:	1400                	addi	s0,sp,544
    1e86:	00039c03          	lh	s8,0(t2)
    1e8a:	1a00                	addi	s0,sp,304
    1e8c:	3c09                	addiw	s8,s8,-30
    1e8e:	0000                	unimp
    1e90:	1800                	addi	s0,sp,48
    1e92:	0002fe03          	0x2fe03
    1e96:	1b00                	addi	s0,sp,432
    1e98:	3c09                	addiw	s8,s8,-30
    1e9a:	0000                	unimp
    1e9c:	1c00                	addi	s0,sp,560
    1e9e:	0003b003          	ld	zero,0(t2)
    1ea2:	1c00                	addi	s0,sp,560
    1ea4:	4d09                	li	s10,2
    1ea6:	0000                	unimp
    1ea8:	2000                	fld	fs0,0(s0)
    1eaa:	0002e403          	lwu	s0,0(t0)
    1eae:	1d00                	addi	s0,sp,688
    1eb0:	00005713          	srli	a4,zero,0x0
    1eb4:	2800                	fld	fs0,16(s0)
    1eb6:	0002b003          	ld	zero,0(t0)
    1eba:	1e00                	addi	s0,sp,816
    1ebc:	730e                	ld	t1,224(sp)
    1ebe:	0000                	unimp
    1ec0:	3000                	fld	fs0,32(s0)
    1ec2:	0002d403          	lhu	s0,0(t0)
    1ec6:	1f00                	addi	s0,sp,944
    1ec8:	3c09                	addiw	s8,s8,-30
    1eca:	0000                	unimp
    1ecc:	3800                	fld	fs0,48(s0)
    1ece:	00038e03          	lb	t3,0(t2)
    1ed2:	2000                	fld	fs0,0(s0)
    1ed4:	6c09                	lui	s8,0x2
    1ed6:	0000                	unimp
    1ed8:	3c00                	fld	fs0,56(s0)
    1eda:	00037d03          	0x37d03
    1ede:	2100                	fld	fs0,0(a0)
    1ee0:	4d09                	li	s10,2
    1ee2:	0000                	unimp
    1ee4:	4000                	lw	s0,0(s0)
    1ee6:	0002f103          	0x2f103
    1eea:	2200                	fld	fs0,0(a2)
    1eec:	730a                	ld	t1,160(sp)
    1eee:	0000                	unimp
    1ef0:	4800                	lw	s0,16(s0)
    1ef2:	00036803          	lwu	a6,0(t1)
    1ef6:	2300                	fld	fs0,0(a4)
    1ef8:	730a                	ld	t1,160(sp)
    1efa:	0000                	unimp
    1efc:	5000                	lw	s0,32(s0)
    1efe:	0003a303          	lw	t1,0(t2)
    1f02:	2400                	fld	fs0,8(s0)
    1f04:	730a                	ld	t1,160(sp)
    1f06:	0000                	unimp
    1f08:	5800                	lw	s0,48(s0)
    1f0a:	0003d503          	lhu	a0,0(t2)
    1f0e:	2500                	fld	fs0,8(a0)
    1f10:	730a                	ld	t1,160(sp)
    1f12:	0000                	unimp
    1f14:	6000                	ld	s0,0(s0)
    1f16:	00031b03          	lh	s6,0(t1)
    1f1a:	2600                	fld	fs0,8(a2)
    1f1c:	730a                	ld	t1,160(sp)
    1f1e:	0000                	unimp
    1f20:	6800                	ld	s0,16(s0)
    1f22:	00032e03          	lw	t3,0(t1)
    1f26:	2700                	fld	fs0,8(a4)
    1f28:	730a                	ld	t1,160(sp)
    1f2a:	0000                	unimp
    1f2c:	7000                	ld	s0,32(s0)
    1f2e:	0002a703          	lw	a4,0(t0)
    1f32:	2800                	fld	fs0,16(s0)
    1f34:	820e                	mv	tp,gp
    1f36:	0001                	nop
    1f38:	7800                	ld	s0,48(s0)
    1f3a:	1200                	addi	s0,sp,288
    1f3c:	0046                	c.slli	zero,0x11
    1f3e:	0000                	unimp
    1f40:	0192                	slli	gp,gp,0x4
    1f42:	0000                	unimp
    1f44:	00005713          	srli	a4,zero,0x0
    1f48:	0100                	addi	s0,sp,128
    1f4a:	0d00                	addi	s0,sp,656
    1f4c:	00000197          	auipc	gp,0x0
    1f50:	97080107          	0x97080107
    1f54:	0000                	unimp
    1f56:	1a00                	addi	s0,sp,304
    1f58:	00000197          	auipc	gp,0x0
    1f5c:	9712                	add	a4,a4,tp
    1f5e:	0001                	nop
    1f60:	b300                	fsd	fs0,32(a4)
    1f62:	0001                	nop
    1f64:	1300                	addi	s0,sp,416
    1f66:	00000057          	0x57
    1f6a:	0010                	0x10
    1f6c:	0000871b          	sext.w	a4,ra
    1f70:	0600                	addi	s0,sp,768
    1f72:	0d21                	addi	s10,s10,8
    1f74:	000001a3          	sb	zero,3(zero) # 3 <_text-0x9ffffd>
    1f78:	0076                	c.slli	zero,0x1d
    1f7a:	0000                	unimp
    1f7c:	b806                	fsd	ft1,48(sp)
    1f7e:	0002                	c.slli64	zero
    1f80:	7600                	ld	s0,40(a2)
    1f82:	00022c07          	flw	fs8,0(tp) # fffffffffffe3000 <end+0xfffffffffefe1000>
    1f86:	5400                	lw	s0,40(s0)
    1f88:	0000a013          	slti	zero,ra,0
    1f8c:	0000                	unimp
    1f8e:	2800                	fld	fs0,16(s0)
    1f90:	0000                	unimp
    1f92:	0000                	unimp
    1f94:	0000                	unimp
    1f96:	0100                	addi	s0,sp,128
    1f98:	2c9c                	fld	fa5,24(s1)
    1f9a:	0002                	c.slli64	zero
    1f9c:	0400                	addi	s0,sp,512
    1f9e:	7364                	ld	s1,224(a4)
    1fa0:	0074                	addi	a3,sp,12
    1fa2:	1476                	slli	s0,s0,0x3d
    1fa4:	022c                	addi	a1,sp,264
    1fa6:	0000                	unimp
    1fa8:	247d                	addiw	s0,s0,31
    1faa:	0000                	unimp
    1fac:	7304                	ld	s1,32(a4)
    1fae:	6372                	ld	t1,280(sp)
    1fb0:	7600                	ld	s0,40(a2)
    1fb2:	2e25                	addiw	t3,t3,9
    1fb4:	0002                	c.slli64	zero
    1fb6:	a700                	fsd	fs0,8(a4)
    1fb8:	0024                	addi	s1,sp,8
    1fba:	0400                	addi	s0,sp,512
    1fbc:	006e                	c.slli	zero,0x1b
    1fbe:	2f76                	fld	ft10,344(sp)
    1fc0:	0085                	addi	ra,ra,1
    1fc2:	0000                	unimp
    1fc4:	24d1                	addiw	s1,s1,20
    1fc6:	0000                	unimp
    1fc8:	6c1c                	ld	a5,24(s0)
    1fca:	0000a013          	slti	zero,ra,0
    1fce:	0000                	unimp
    1fd0:	9e00                	0x9e00
    1fd2:	0002                	c.slli64	zero
    1fd4:	1400                	addi	s0,sp,544
    1fd6:	5a01                	li	s4,-32
    1fd8:	5a01a303          	lw	t1,1440(gp) # 24f8 <_text-0x9fdb08>
    1fdc:	0114                	addi	a3,sp,128
    1fde:	01a3035b          	0x1a3035b
    1fe2:	1d00005b          	0x1d00005b
    1fe6:	0d08                	addi	a0,sp,656
    1fe8:	00000233          	add	tp,zero,zero
    1fec:	061e                	slli	a2,a2,0x7
    1fee:	02ea                	slli	t0,t0,0x1a
    1ff0:	0000                	unimp
    1ff2:	056a                	slli	a0,a0,0x1a
    1ff4:	006c                	addi	a1,sp,12
    1ff6:	0000                	unimp
    1ff8:	12f8                	addi	a4,sp,364
    1ffa:	00a0                	addi	s0,sp,72
    1ffc:	0000                	unimp
    1ffe:	0000                	unimp
    2000:	005c                	addi	a5,sp,4
    2002:	0000                	unimp
    2004:	0000                	unimp
    2006:	0000                	unimp
    2008:	9c01                	subw	s0,s0,s0
    200a:	0299                	addi	t0,t0,6
    200c:	0000                	unimp
    200e:	7304                	ld	s1,32(a4)
    2010:	0031                	c.nop	12
    2012:	186a                	slli	a6,a6,0x3a
    2014:	022e                	slli	tp,tp,0xb
    2016:	0000                	unimp
    2018:	000024fb          	0x24fb
    201c:	7304                	ld	s1,32(a4)
    201e:	0032                	c.slli	zero,0xc
    2020:	286a                	fld	fa6,152(sp)
    2022:	022e                	slli	tp,tp,0xb
    2024:	0000                	unimp
    2026:	254e                	fld	fa0,208(sp)
    2028:	0000                	unimp
    202a:	6e04                	ld	s1,24(a2)
    202c:	6a00                	ld	s0,16(a2)
    202e:	8531                	srai	a0,a0,0xc
    2030:	0000                	unimp
    2032:	8b00                	0x8b00
    2034:	0025                	c.nop	9
    2036:	0800                	addi	s0,sp,16
    2038:	3170                	fld	fa2,224(a0)
    203a:	6b00                	ld	s0,16(a4)
    203c:	9911                	andi	a0,a0,-28
    203e:	0002                	c.slli64	zero
    2040:	f100                	sd	s0,32(a0)
    2042:	0025                	c.nop	9
    2044:	0b00                	addi	s0,sp,400
    2046:	3270                	fld	fa2,224(a2)
    2048:	6b00                	ld	s0,16(a4)
    204a:	0002991b          	slliw	s2,t0,0x0
    204e:	0100                	addi	s0,sp,128
    2050:	9e0d005b          	0x9e0d005b
    2054:	0001                	nop
    2056:	0600                	addi	s0,sp,768
    2058:	0341                	addi	t1,t1,16
    205a:	0000                	unimp
    205c:	0758                	addi	a4,sp,900
    205e:	022c                	addi	a1,sp,264
    2060:	0000                	unimp
    2062:	127c                	addi	a5,sp,300
    2064:	00a0                	addi	s0,sp,72
    2066:	0000                	unimp
    2068:	0000                	unimp
    206a:	007c                	addi	a5,sp,12
    206c:	0000                	unimp
    206e:	0000                	unimp
    2070:	0000                	unimp
    2072:	9c01                	subw	s0,s0,s0
    2074:	00000307          	0x307
    2078:	051f 0003 0100      	0x1000003051f
    207e:	1558                	addi	a4,sp,676
    2080:	022c                	addi	a1,sp,264
    2082:	0000                	unimp
    2084:	5a01                	li	s4,-32
    2086:	df20                	sw	s0,120(a4)
    2088:	0002                	c.slli64	zero
    208a:	0100                	addi	s0,sp,128
    208c:	2758                	fld	fa4,136(a4)
    208e:	022e                	slli	tp,tp,0xb
    2090:	0000                	unimp
    2092:	2641                	addiw	a2,a2,16
    2094:	0000                	unimp
    2096:	6e04                	ld	s1,24(a2)
    2098:	5800                	lw	s0,48(s0)
    209a:	6c31                	lui	s8,0xc
    209c:	0000                	unimp
    209e:	9400                	0x9400
    20a0:	0026                	c.slli	zero,0x9
    20a2:	0800                	addi	s0,sp,16
    20a4:	7364                	ld	s1,224(a4)
    20a6:	0074                	addi	a3,sp,12
    20a8:	0b59                	addi	s6,s6,22
    20aa:	0192                	slli	gp,gp,0x4
    20ac:	0000                	unimp
    20ae:	26e5                	addiw	a3,a3,25
    20b0:	0000                	unimp
    20b2:	6372730b          	0x6372730b
    20b6:	5a00                	lw	s0,48(a2)
    20b8:	9911                	andi	a0,a0,-28
    20ba:	0002                	c.slli64	zero
    20bc:	0100                	addi	s0,sp,128
    20be:	3c06005b          	0x3c06005b
    20c2:	4f000003          	lb	zero,1264(zero) # 4f0 <_text-0x9ffb10>
    20c6:	6c05                	lui	s8,0x1
    20c8:	0000                	unimp
    20ca:	1800                	addi	s0,sp,48
    20cc:	a012                	fsd	ft4,0(sp)
    20ce:	0000                	unimp
    20d0:	0000                	unimp
    20d2:	6400                	ld	s0,8(s0)
    20d4:	0000                	unimp
    20d6:	0000                	unimp
    20d8:	0000                	unimp
    20da:	0100                	addi	s0,sp,128
    20dc:	439c                	lw	a5,0(a5)
    20de:	04000003          	lb	zero,64(zero) # 40 <_text-0x9fffc0>
    20e2:	164f0073          	0x164f0073
    20e6:	0299                	addi	t0,t0,6
    20e8:	0000                	unimp
    20ea:	2732                	fld	fa4,264(sp)
    20ec:	0000                	unimp
    20ee:	6e08                	ld	a0,24(a2)
    20f0:	5000                	lw	s0,32(s0)
    20f2:	6c09                	lui	s8,0x2
    20f4:	0000                	unimp
    20f6:	8200                	0x8200
    20f8:	00000027          	0x27
    20fc:	6306                	ld	t1,64(sp)
    20fe:	43000003          	lb	zero,1072(zero) # 430 <_text-0x9ffbd0>
    2102:	6c05                	lui	s8,0x1
    2104:	0000                	unimp
    2106:	9c00                	0x9c00
    2108:	a011                	j	210c <_text-0x9fdef4>
    210a:	0000                	unimp
    210c:	0000                	unimp
    210e:	7c00                	ld	s0,56(s0)
    2110:	0000                	unimp
    2112:	0000                	unimp
    2114:	0000                	unimp
    2116:	0100                	addi	s0,sp,128
    2118:	b29c                	fsd	fa5,32(a3)
    211a:	0005                	c.nop	1
    211c:	0400                	addi	s0,sp,512
    211e:	006e                	c.slli	zero,0x1b
    2120:	02991643          	fmadd.d	fa2,fs2,fs1,ft0,rtz
    2124:	0000                	unimp
    2126:	000027d3          	fadd.s	fa5,ft0,ft0,rdn
    212a:	7304                	ld	s1,32(a4)
    212c:	0074                	addi	a3,sp,12
    212e:	05b22643          	0x5b22643
    2132:	0000                	unimp
    2134:	2836                	fld	fa6,328(sp)
    2136:	0000                	unimp
    2138:	0064660b          	0x64660b
    213c:	0944                	addi	s1,sp,148
    213e:	006c                	addi	a1,sp,12
    2140:	0000                	unimp
    2142:	6001                	0x6001
    2144:	7208                	ld	a0,32(a2)
    2146:	4500                	lw	s0,8(a0)
    2148:	6c09                	lui	s8,0x2
    214a:	0000                	unimp
    214c:	af00                	fsd	fs0,24(a4)
    214e:	0028                	addi	a0,sp,8
    2150:	0e00                	addi	s0,sp,784
    2152:	0a1d                	addi	s4,s4,7
    2154:	0000                	unimp
    2156:	11b0                	addi	a2,sp,232
    2158:	00a0                	addi	s0,sp,72
    215a:	0000                	unimp
    215c:	0000                	unimp
    215e:	0024                	addi	s1,sp,8
    2160:	0000                	unimp
    2162:	0000                	unimp
    2164:	0000                	unimp
    2166:	044f0a47          	0x44f0a47
    216a:	0000                	unimp
    216c:	3601                	addiw	a2,a2,-32
    216e:	000a                	c.slli	zero,0x2
    2170:	c300                	sw	s0,0(a4)
    2172:	0028                	addi	a0,sp,8
    2174:	0100                	addi	s0,sp,128
    2176:	00000a2b          	0xa2b
    217a:	28d8                	fld	fa4,144(s1)
    217c:	0000                	unimp
    217e:	8e09                	sub	a2,a2,a0
    2180:	000a                	c.slli	zero,0x2
    2182:	b000                	fsd	fs0,32(s0)
    2184:	a011                	j	2188 <_text-0x9fde78>
    2186:	0000                	unimp
    2188:	0000                	unimp
    218a:	2000                	fld	fs0,0(s0)
    218c:	0000                	unimp
    218e:	0000                	unimp
    2190:	0000                	unimp
    2192:	0200                	addi	s0,sp,256
    2194:	0c4a                	slli	s8,s8,0x12
    2196:	e101                	bnez	a0,2196 <_text-0x9fde6a>
    2198:	000a                	c.slli	zero,0x2
    219a:	1200                	addi	s0,sp,288
    219c:	0029                	c.nop	10
    219e:	0100                	addi	s0,sp,128
    21a0:	0ad5                	addi	s5,s5,21
    21a2:	0000                	unimp
    21a4:	2912                	fld	fs2,256(sp)
    21a6:	0000                	unimp
    21a8:	c901                	beqz	a0,21b8 <_text-0x9fde48>
    21aa:	000a                	c.slli	zero,0x2
    21ac:	2700                	fld	fs0,8(a4)
    21ae:	0029                	c.nop	10
    21b0:	0100                	addi	s0,sp,128
    21b2:	0abd                	addi	s5,s5,15
    21b4:	0000                	unimp
    21b6:	2912                	fld	fs2,256(sp)
    21b8:	0000                	unimp
    21ba:	b101                	j	1dba <_text-0x9fe246>
    21bc:	000a                	c.slli	zero,0x2
    21be:	3c00                	fld	fs0,56(s0)
    21c0:	0029                	c.nop	10
    21c2:	0100                	addi	s0,sp,128
    21c4:	0aa5                	addi	s5,s5,9
    21c6:	0000                	unimp
    21c8:	2976                	fld	fs2,344(sp)
    21ca:	0000                	unimp
    21cc:	9b01                	andi	a4,a4,-32
    21ce:	000a                	c.slli	zero,0x2
    21d0:	8c00                	0x8c00
    21d2:	0029                	c.nop	10
    21d4:	0200                	addi	s0,sp,256
    21d6:	0aed                	addi	s5,s5,27
    21d8:	0000                	unimp
    21da:	5a01                	li	s4,-32
    21dc:	f602                	sd	zero,296(sp)
    21de:	000a                	c.slli	zero,0x2
    21e0:	0100                	addi	s0,sp,128
    21e2:	0aff025b          	0xaff025b
    21e6:	0000                	unimp
    21e8:	5c01                	li	s8,-32
    21ea:	0802                	c.slli64	a6
    21ec:	0100000b          	0x100000b
    21f0:	025d                	addi	tp,tp,23
    21f2:	0b11                	addi	s6,s6,4
    21f4:	0000                	unimp
    21f6:	5e01                	li	t3,-32
    21f8:	1a02                	slli	s4,s4,0x20
    21fa:	0100000b          	0x100000b
    21fe:	025f 0b23 0000      	0xb23025f
    2204:	6101                	addi	sp,sp,0
    2206:	0000                	unimp
    2208:	c80e                	sw	gp,16(sp)
    220a:	0009                	c.nop	2
    220c:	d800                	sw	s0,48(s0)
    220e:	a011                	j	2212 <_text-0x9fddee>
    2210:	0000                	unimp
    2212:	0000                	unimp
    2214:	1800                	addi	s0,sp,48
    2216:	0000                	unimp
    2218:	0000                	unimp
    221a:	0000                	unimp
    221c:	4a00                	lw	s0,16(a2)
    221e:	0609                	addi	a2,a2,2
    2220:	0005                	c.nop	1
    2222:	0100                	addi	s0,sp,128
    2224:	09e1                	addi	s3,s3,24
    2226:	0000                	unimp
    2228:	29a2                	fld	fs3,8(sp)
    222a:	0000                	unimp
    222c:	d601                	beqz	a2,2134 <_text-0x9fdecc>
    222e:	0009                	c.nop	2
    2230:	b600                	fsd	fs0,40(a2)
    2232:	0029                	c.nop	10
    2234:	0900                	addi	s0,sp,144
    2236:	0a8e                	slli	s5,s5,0x3
    2238:	0000                	unimp
    223a:	11d8                	addi	a4,sp,228
    223c:	00a0                	addi	s0,sp,72
    223e:	0000                	unimp
    2240:	0000                	unimp
    2242:	0014                	0x14
    2244:	0000                	unimp
    2246:	0000                	unimp
    2248:	0000                	unimp
    224a:	6a02                	ld	s4,0(sp)
    224c:	010c                	addi	a1,sp,128
    224e:	0ae1                	addi	s5,s5,24
    2250:	0000                	unimp
    2252:	29ca                	fld	fs3,144(sp)
    2254:	0000                	unimp
    2256:	d501                	beqz	a0,215e <_text-0x9fdea2>
    2258:	000a                	c.slli	zero,0x2
    225a:	ca00                	sw	s0,16(a2)
    225c:	0029                	c.nop	10
    225e:	0100                	addi	s0,sp,128
    2260:	0ac9                	addi	s5,s5,18
    2262:	0000                	unimp
    2264:	29ca                	fld	fs3,144(sp)
    2266:	0000                	unimp
    2268:	bd01                	j	2078 <_text-0x9fdf88>
    226a:	000a                	c.slli	zero,0x2
    226c:	ca00                	sw	s0,16(a2)
    226e:	0029                	c.nop	10
    2270:	0100                	addi	s0,sp,128
    2272:	0ab1                	addi	s5,s5,12
    2274:	0000                	unimp
    2276:	29df 0000 a501      	0xa501000029df
    227c:	000a                	c.slli	zero,0x2
    227e:	f300                	sd	s0,32(a4)
    2280:	0029                	c.nop	10
    2282:	0100                	addi	s0,sp,128
    2284:	00000a9b          	sext.w	s5,zero
    2288:	00002a07          	flw	fs4,0(zero) # 0 <_text-0xa00000>
    228c:	ed02                	sd	zero,152(sp)
    228e:	000a                	c.slli	zero,0x2
    2290:	0100                	addi	s0,sp,128
    2292:	025a                	slli	tp,tp,0x16
    2294:	0af6                	slli	s5,s5,0x1d
    2296:	0000                	unimp
    2298:	5b01                	li	s6,-32
    229a:	ff02                	sd	zero,440(sp)
    229c:	000a                	c.slli	zero,0x2
    229e:	0100                	addi	s0,sp,128
    22a0:	025c                	addi	a5,sp,260
    22a2:	0b08                	addi	a0,sp,400
    22a4:	0000                	unimp
    22a6:	5d01                	li	s10,-32
    22a8:	1102                	slli	sp,sp,0x20
    22aa:	0100000b          	0x100000b
    22ae:	025e                	slli	tp,tp,0x17
    22b0:	0b1a                	slli	s6,s6,0x6
    22b2:	0000                	unimp
    22b4:	5f01                	li	t5,-32
    22b6:	2302                	fld	ft6,0(sp)
    22b8:	0100000b          	0x100000b
    22bc:	0061                	c.nop	24
    22be:	0900                	addi	s0,sp,144
    22c0:	0a42                	slli	s4,s4,0x10
    22c2:	0000                	unimp
    22c4:	11f0                	addi	a2,sp,236
    22c6:	00a0                	addi	s0,sp,72
    22c8:	0000                	unimp
    22ca:	0000                	unimp
    22cc:	0010                	0x10
    22ce:	0000                	unimp
    22d0:	0000                	unimp
    22d2:	0000                	unimp
    22d4:	4b01                	li	s6,0
    22d6:	0105                	addi	sp,sp,1
    22d8:	0a50                	addi	a2,sp,276
    22da:	0000                	unimp
    22dc:	2a1d                	addiw	s4,s4,7
    22de:	0000                	unimp
    22e0:	8e09                	sub	a2,a2,a0
    22e2:	000a                	c.slli	zero,0x2
    22e4:	f000                	sd	s0,32(s0)
    22e6:	a011                	j	22ea <_text-0x9fdd16>
    22e8:	0000                	unimp
    22ea:	0000                	unimp
    22ec:	1000                	addi	s0,sp,32
    22ee:	0000                	unimp
    22f0:	0000                	unimp
    22f2:	0000                	unimp
    22f4:	0200                	addi	s0,sp,256
    22f6:	0c46                	slli	s8,s8,0x11
    22f8:	e101                	bnez	a0,22f8 <_text-0x9fdd08>
    22fa:	000a                	c.slli	zero,0x2
    22fc:	3100                	fld	fs0,32(a0)
    22fe:	002a                	c.slli	zero,0xa
    2300:	0100                	addi	s0,sp,128
    2302:	0ad5                	addi	s5,s5,21
    2304:	0000                	unimp
    2306:	2a31                	addiw	s4,s4,12
    2308:	0000                	unimp
    230a:	c901                	beqz	a0,231a <_text-0x9fdce6>
    230c:	000a                	c.slli	zero,0x2
    230e:	3100                	fld	fs0,32(a0)
    2310:	002a                	c.slli	zero,0xa
    2312:	0100                	addi	s0,sp,128
    2314:	0abd                	addi	s5,s5,15
    2316:	0000                	unimp
    2318:	2a31                	addiw	s4,s4,12
    231a:	0000                	unimp
    231c:	b101                	j	1f1c <_text-0x9fe0e4>
    231e:	000a                	c.slli	zero,0x2
    2320:	3100                	fld	fs0,32(a0)
    2322:	002a                	c.slli	zero,0xa
    2324:	0100                	addi	s0,sp,128
    2326:	0aa5                	addi	s5,s5,9
    2328:	0000                	unimp
    232a:	2a1d                	addiw	s4,s4,7
    232c:	0000                	unimp
    232e:	9b01                	andi	a4,a4,-32
    2330:	000a                	c.slli	zero,0x2
    2332:	4600                	lw	s0,8(a2)
    2334:	002a                	c.slli	zero,0xa
    2336:	0200                	addi	s0,sp,256
    2338:	0aed                	addi	s5,s5,27
    233a:	0000                	unimp
    233c:	5a01                	li	s4,-32
    233e:	f602                	sd	zero,296(sp)
    2340:	000a                	c.slli	zero,0x2
    2342:	0100                	addi	s0,sp,128
    2344:	0aff025b          	0xaff025b
    2348:	0000                	unimp
    234a:	5c01                	li	s8,-32
    234c:	0802                	c.slli64	a6
    234e:	0100000b          	0x100000b
    2352:	025d                	addi	tp,tp,23
    2354:	0b11                	addi	s6,s6,4
    2356:	0000                	unimp
    2358:	5e01                	li	t3,-32
    235a:	1a02                	slli	s4,s4,0x20
    235c:	0100000b          	0x100000b
    2360:	025f 0b23 0000      	0xb23025f
    2366:	6101                	addi	sp,sp,0
    2368:	0000                	unimp
    236a:	0d00                	addi	s0,sp,656
    236c:	0090                	addi	a2,sp,64
    236e:	0000                	unimp
    2370:	1606                	slli	a2,a2,0x21
    2372:	2b000003          	lb	zero,688(zero) # 2b0 <_text-0x9ffd50>
    2376:	00019207          	0x19207
    237a:	9800                	0x9800
    237c:	a010                	fsd	fa2,0(s0)
    237e:	0000                	unimp
    2380:	0000                	unimp
    2382:	0400                	addi	s0,sp,512
    2384:	0001                	nop
    2386:	0000                	unimp
    2388:	0000                	unimp
    238a:	0100                	addi	s0,sp,128
    238c:	6d9c                	ld	a5,24(a1)
    238e:	0008                	0x8
    2390:	0400                	addi	s0,sp,512
    2392:	7562                	ld	a0,56(sp)
    2394:	0066                	c.slli	zero,0x19
    2396:	0192122b          	0x192122b
    239a:	0000                	unimp
    239c:	2a5c                	fld	fa5,144(a2)
    239e:	0000                	unimp
    23a0:	6d04                	ld	s1,24(a0)
    23a2:	7861                	lui	a6,0xffff8
    23a4:	2b00                	fld	fs0,16(a4)
    23a6:	00006c1b          	0x6c1b
    23aa:	a900                	fsd	fs0,16(a0)
    23ac:	002a                	c.slli	zero,0xa
    23ae:	0800                	addi	s0,sp,16
    23b0:	0069                	c.nop	26
    23b2:	092c                	addi	a1,sp,152
    23b4:	006c                	addi	a1,sp,12
    23b6:	0000                	unimp
    23b8:	2afc                	fld	fa5,208(a3)
    23ba:	0000                	unimp
    23bc:	6308                	ld	a0,0(a4)
    23be:	0c2c0063          	beq	s8,sp,247e <_text-0x9fdb82>
    23c2:	006c                	addi	a1,sp,12
    23c4:	0000                	unimp
    23c6:	2bbe                	fld	fs7,456(sp)
    23c8:	0000                	unimp
    23ca:	2d00630b          	0x2d00630b
    23ce:	970a                	add	a4,a4,sp
    23d0:	0001                	nop
    23d2:	0200                	addi	s0,sp,256
    23d4:	6f91                	lui	t6,0x4
    23d6:	b815                	j	1c0a <_text-0x9fe3f6>
    23d8:	2e000003          	lb	zero,736(zero) # 2e0 <_text-0x9ffd20>
    23dc:	6c10                	ld	a2,24(s0)
    23de:	0000                	unimp
    23e0:	0900                	addi	s0,sp,144
    23e2:	a0221003          	lh	zero,-1534(tp) # fffffffffffffa02 <end+0xfffffffffeffda02>
    23e6:	0000                	unimp
    23e8:	0000                	unimp
    23ea:	2100                	fld	fs0,0(a0)
    23ec:	0a5c                	addi	a5,sp,276
    23ee:	0000                	unimp
    23f0:	10c8                	addi	a0,sp,100
    23f2:	00a0                	addi	s0,sp,72
    23f4:	0000                	unimp
    23f6:	0000                	unimp
    23f8:	04ff                	0x4ff
    23fa:	0000                	unimp
    23fc:	3601                	addiw	a2,a2,-32
    23fe:	ef11                	bnez	a4,241a <_text-0x9fdbe6>
    2400:	0006                	c.slli	zero,0x1
    2402:	0100                	addi	s0,sp,128
    2404:	0a81                	addi	s5,s5,0
    2406:	0000                	unimp
    2408:	2bf8                	fld	fa4,208(a5)
    240a:	0000                	unimp
    240c:	7501                	lui	a0,0xfffe0
    240e:	000a                	c.slli	zero,0x2
    2410:	0d00                	addi	s0,sp,656
    2412:	002c                	addi	a1,sp,8
    2414:	0100                	addi	s0,sp,128
    2416:	0a6a                	slli	s4,s4,0x1a
    2418:	0000                	unimp
    241a:	2c2a                	fld	fs8,136(sp)
    241c:	0000                	unimp
    241e:	8e09                	sub	a2,a2,a0
    2420:	000a                	c.slli	zero,0x2
    2422:	dc00                	sw	s0,56(s0)
    2424:	a010                	fsd	fa2,0(s0)
    2426:	0000                	unimp
    2428:	0000                	unimp
    242a:	1800                	addi	s0,sp,48
    242c:	0000                	unimp
    242e:	0000                	unimp
    2430:	0000                	unimp
    2432:	0200                	addi	s0,sp,256
    2434:	0c36                	slli	s8,s8,0xd
    2436:	e101                	bnez	a0,2436 <_text-0x9fdbca>
    2438:	000a                	c.slli	zero,0x2
    243a:	3f00                	fld	fs0,56(a4)
    243c:	002c                	addi	a1,sp,8
    243e:	0100                	addi	s0,sp,128
    2440:	0ad5                	addi	s5,s5,21
    2442:	0000                	unimp
    2444:	00002c3f 000ac901 	0xac90100002c3f
    244c:	3f00                	fld	fs0,56(a4)
    244e:	002c                	addi	a1,sp,8
    2450:	0100                	addi	s0,sp,128
    2452:	0abd                	addi	s5,s5,15
    2454:	0000                	unimp
    2456:	2bf8                	fld	fa4,208(a5)
    2458:	0000                	unimp
    245a:	b101                	j	205a <_text-0x9fdfa6>
    245c:	000a                	c.slli	zero,0x2
    245e:	0d00                	addi	s0,sp,656
    2460:	002c                	addi	a1,sp,8
    2462:	0100                	addi	s0,sp,128
    2464:	0aa5                	addi	s5,s5,9
    2466:	0000                	unimp
    2468:	2c2a                	fld	fs8,136(sp)
    246a:	0000                	unimp
    246c:	9b01                	andi	a4,a4,-32
    246e:	000a                	c.slli	zero,0x2
    2470:	5400                	lw	s0,40(s0)
    2472:	002c                	addi	a1,sp,8
    2474:	0200                	addi	s0,sp,256
    2476:	0aed                	addi	s5,s5,27
    2478:	0000                	unimp
    247a:	5a01                	li	s4,-32
    247c:	f602                	sd	zero,296(sp)
    247e:	000a                	c.slli	zero,0x2
    2480:	0100                	addi	s0,sp,128
    2482:	0aff025b          	0xaff025b
    2486:	0000                	unimp
    2488:	5c01                	li	s8,-32
    248a:	0802                	c.slli64	a6
    248c:	0100000b          	0x100000b
    2490:	025d                	addi	tp,tp,23
    2492:	0b11                	addi	s6,s6,4
    2494:	0000                	unimp
    2496:	5e01                	li	t3,-32
    2498:	1a02                	slli	s4,s4,0x20
    249a:	0100000b          	0x100000b
    249e:	025f 0b23 0000      	0xb23025f
    24a4:	6101                	addi	sp,sp,0
    24a6:	0000                	unimp
    24a8:	ed0e                	sd	gp,152(sp)
    24aa:	0009                	c.nop	2
    24ac:	fc00                	sd	s0,56(s0)
    24ae:	a010                	fsd	fa2,0(s0)
    24b0:	0000                	unimp
    24b2:	0000                	unimp
    24b4:	2000                	fld	fs0,0(s0)
    24b6:	0000                	unimp
    24b8:	0000                	unimp
    24ba:	0000                	unimp
    24bc:	3000                	fld	fs0,32(s0)
    24be:	af0e                	fsd	ft3,408(sp)
    24c0:	01000007          	0x1000007
    24c4:	0a12                	slli	s4,s4,0x4
    24c6:	0000                	unimp
    24c8:	2c6a                	fld	fs8,152(sp)
    24ca:	0000                	unimp
    24cc:	0601                	addi	a2,a2,0
    24ce:	000a                	c.slli	zero,0x2
    24d0:	7f00                	ld	s0,56(a4)
    24d2:	002c                	addi	a1,sp,8
    24d4:	0100                	addi	s0,sp,128
    24d6:	000009fb          	0x9fb
    24da:	2ca8                	fld	fa0,88(s1)
    24dc:	0000                	unimp
    24de:	8e09                	sub	a2,a2,a0
    24e0:	000a                	c.slli	zero,0x2
    24e2:	fc00                	sd	s0,56(s0)
    24e4:	a010                	fsd	fa2,0(s0)
    24e6:	0000                	unimp
    24e8:	0000                	unimp
    24ea:	2000                	fld	fs0,0(s0)
    24ec:	0000                	unimp
    24ee:	0000                	unimp
    24f0:	0000                	unimp
    24f2:	0200                	addi	s0,sp,256
    24f4:	0c5e                	slli	s8,s8,0x17
    24f6:	e101                	bnez	a0,24f6 <_text-0x9fdb0a>
    24f8:	000a                	c.slli	zero,0x2
    24fa:	a800                	fsd	fs0,16(s0)
    24fc:	002c                	addi	a1,sp,8
    24fe:	0100                	addi	s0,sp,128
    2500:	0ad5                	addi	s5,s5,21
    2502:	0000                	unimp
    2504:	2ca8                	fld	fa0,88(s1)
    2506:	0000                	unimp
    2508:	c901                	beqz	a0,2518 <_text-0x9fdae8>
    250a:	000a                	c.slli	zero,0x2
    250c:	a800                	fsd	fs0,16(s0)
    250e:	002c                	addi	a1,sp,8
    2510:	0100                	addi	s0,sp,128
    2512:	0abd                	addi	s5,s5,15
    2514:	0000                	unimp
    2516:	2c6a                	fld	fs8,152(sp)
    2518:	0000                	unimp
    251a:	b101                	j	211a <_text-0x9fdee6>
    251c:	000a                	c.slli	zero,0x2
    251e:	7f00                	ld	s0,56(a4)
    2520:	002c                	addi	a1,sp,8
    2522:	0100                	addi	s0,sp,128
    2524:	0aa5                	addi	s5,s5,9
    2526:	0000                	unimp
    2528:	2ca8                	fld	fa0,88(s1)
    252a:	0000                	unimp
    252c:	9b01                	andi	a4,a4,-32
    252e:	000a                	c.slli	zero,0x2
    2530:	bd00                	fsd	fs0,56(a0)
    2532:	002c                	addi	a1,sp,8
    2534:	0200                	addi	s0,sp,256
    2536:	0aed                	addi	s5,s5,27
    2538:	0000                	unimp
    253a:	5a01                	li	s4,-32
    253c:	f602                	sd	zero,296(sp)
    253e:	000a                	c.slli	zero,0x2
    2540:	0100                	addi	s0,sp,128
    2542:	0aff025b          	0xaff025b
    2546:	0000                	unimp
    2548:	5c01                	li	s8,-32
    254a:	0802                	c.slli64	a6
    254c:	0100000b          	0x100000b
    2550:	025d                	addi	tp,tp,23
    2552:	0b11                	addi	s6,s6,4
    2554:	0000                	unimp
    2556:	5e01                	li	t3,-32
    2558:	1a02                	slli	s4,s4,0x20
    255a:	0100000b          	0x100000b
    255e:	025f 0b23 0000      	0xb23025f
    2564:	6101                	addi	sp,sp,0
    2566:	0000                	unimp
    2568:	5c09                	li	s8,-30
    256a:	000a                	c.slli	zero,0x2
    256c:	2c00                	fld	fs0,24(s0)
    256e:	a011                	j	2572 <_text-0x9fda8e>
    2570:	0000                	unimp
    2572:	0000                	unimp
    2574:	2000                	fld	fs0,0(s0)
    2576:	0000                	unimp
    2578:	0000                	unimp
    257a:	0000                	unimp
    257c:	0100                	addi	s0,sp,128
    257e:	093a                	slli	s2,s2,0xe
    2580:	8101                	c.srli64	a0
    2582:	000a                	c.slli	zero,0x2
    2584:	d300                	sw	s0,32(a4)
    2586:	002c                	addi	a1,sp,8
    2588:	0100                	addi	s0,sp,128
    258a:	0a75                	addi	s4,s4,29
    258c:	0000                	unimp
    258e:	2ce8                	fld	fa0,216(s1)
    2590:	0000                	unimp
    2592:	6a01                	0x6a01
    2594:	000a                	c.slli	zero,0x2
    2596:	d300                	sw	s0,32(a4)
    2598:	002c                	addi	a1,sp,8
    259a:	0900                	addi	s0,sp,144
    259c:	0a8e                	slli	s5,s5,0x3
    259e:	0000                	unimp
    25a0:	112c                	addi	a1,sp,168
    25a2:	00a0                	addi	s0,sp,72
    25a4:	0000                	unimp
    25a6:	0000                	unimp
    25a8:	0020                	addi	s0,sp,8
    25aa:	0000                	unimp
    25ac:	0000                	unimp
    25ae:	0000                	unimp
    25b0:	3602                	fld	fa2,32(sp)
    25b2:	010c                	addi	a1,sp,128
    25b4:	0ae1                	addi	s5,s5,24
    25b6:	0000                	unimp
    25b8:	2cfc                	fld	fa5,216(s1)
    25ba:	0000                	unimp
    25bc:	d501                	beqz	a0,24c4 <_text-0x9fdb3c>
    25be:	000a                	c.slli	zero,0x2
    25c0:	fc00                	sd	s0,56(s0)
    25c2:	002c                	addi	a1,sp,8
    25c4:	0100                	addi	s0,sp,128
    25c6:	0ac9                	addi	s5,s5,18
    25c8:	0000                	unimp
    25ca:	2cfc                	fld	fa5,216(s1)
    25cc:	0000                	unimp
    25ce:	bd01                	j	23de <_text-0x9fdc22>
    25d0:	000a                	c.slli	zero,0x2
    25d2:	d300                	sw	s0,32(a4)
    25d4:	002c                	addi	a1,sp,8
    25d6:	0100                	addi	s0,sp,128
    25d8:	0ab1                	addi	s5,s5,12
    25da:	0000                	unimp
    25dc:	2ce8                	fld	fa0,216(s1)
    25de:	0000                	unimp
    25e0:	a501                	j	2be0 <_text-0x9fd420>
    25e2:	000a                	c.slli	zero,0x2
    25e4:	d300                	sw	s0,32(a4)
    25e6:	002c                	addi	a1,sp,8
    25e8:	0100                	addi	s0,sp,128
    25ea:	00000a9b          	sext.w	s5,zero
    25ee:	2d11                	addiw	s10,s10,4
    25f0:	0000                	unimp
    25f2:	ed02                	sd	zero,152(sp)
    25f4:	000a                	c.slli	zero,0x2
    25f6:	0100                	addi	s0,sp,128
    25f8:	025a                	slli	tp,tp,0x16
    25fa:	0af6                	slli	s5,s5,0x1d
    25fc:	0000                	unimp
    25fe:	5b01                	li	s6,-32
    2600:	ff02                	sd	zero,440(sp)
    2602:	000a                	c.slli	zero,0x2
    2604:	0100                	addi	s0,sp,128
    2606:	025c                	addi	a5,sp,260
    2608:	0b08                	addi	a0,sp,400
    260a:	0000                	unimp
    260c:	5d01                	li	s10,-32
    260e:	1102                	slli	sp,sp,0x20
    2610:	0100000b          	0x100000b
    2614:	025e                	slli	tp,tp,0x17
    2616:	0b1a                	slli	s6,s6,0x6
    2618:	0000                	unimp
    261a:	5f01                	li	t5,-32
    261c:	2302                	fld	ft6,0(sp)
    261e:	0100000b          	0x100000b
    2622:	0061                	c.nop	24
    2624:	0000                	unimp
    2626:	5006                	0x5006
    2628:	24000003          	lb	zero,576(zero) # 240 <_text-0x9ffdc0>
    262c:	00019207          	0x19207
    2630:	5c00                	lw	s0,56(s0)
    2632:	a010                	fsd	fa2,0(s0)
    2634:	0000                	unimp
    2636:	0000                	unimp
    2638:	3c00                	fld	fs0,56(s0)
    263a:	0000                	unimp
    263c:	0000                	unimp
    263e:	0000                	unimp
    2640:	0100                	addi	s0,sp,128
    2642:	a79c                	fsd	fa5,8(a5)
    2644:	0008                	0x8
    2646:	0400                	addi	s0,sp,512
    2648:	1a240073          	0x1a240073
    264c:	0299                	addi	t0,t0,6
    264e:	0000                	unimp
    2650:	00002d27          	fsw	ft0,26(zero) # 1a <_text-0x9fffe6>
    2654:	2400630f          	0x2400630f
    2658:	9722                	add	a4,a4,s0
    265a:	0001                	nop
    265c:	0100                	addi	s0,sp,128
    265e:	0a06005b          	0xa06005b
    2662:	1b000003          	lb	zero,432(zero) # 1b0 <_text-0x9ffe50>
    2666:	00022c07          	flw	fs8,0(tp) # 0 <_text-0xa00000>
    266a:	2400                	fld	fs0,8(s0)
    266c:	a010                	fsd	fa2,0(s0)
    266e:	0000                	unimp
    2670:	0000                	unimp
    2672:	3800                	fld	fs0,48(s0)
    2674:	0000                	unimp
    2676:	0000                	unimp
    2678:	0000                	unimp
    267a:	0100                	addi	s0,sp,128
    267c:	089c                	addi	a5,sp,80
    267e:	0009                	c.nop	2
    2680:	0f00                	addi	s0,sp,912
    2682:	7364                	ld	s1,224(a4)
    2684:	0074                	addi	a3,sp,12
    2686:	022c141b          	0x22c141b
    268a:	0000                	unimp
    268c:	5a01                	li	s4,-32
    268e:	1b00630f          	0x1b00630f
    2692:	6c1d                	lui	s8,0x7
    2694:	0000                	unimp
    2696:	0100                	addi	s0,sp,128
    2698:	006e045b          	0x6e045b
    269c:	0085251b          	0x85251b
    26a0:	0000                	unimp
    26a2:	00002d77          	0x2d77
    26a6:	1115                	addi	sp,sp,-27
    26a8:	1c000003          	lb	zero,448(zero) # 1c0 <_text-0x9ffe40>
    26ac:	0001920b          	0x1920b
    26b0:	0100                	addi	s0,sp,128
    26b2:	085a                	slli	a6,a6,0x16
    26b4:	0069                	c.nop	26
    26b6:	091d                	addi	s2,s2,7
    26b8:	006c                	addi	a1,sp,12
    26ba:	0000                	unimp
    26bc:	2da1                	addiw	s11,s11,8
    26be:	0000                	unimp
    26c0:	0600                	addi	s0,sp,768
    26c2:	0376                	slli	t1,t1,0x1d
    26c4:	0000                	unimp
    26c6:	00850613          	addi	a2,a0,8 # fffffffffffe0008 <end+0xfffffffffefde008>
    26ca:	0000                	unimp
    26cc:	0fdc                	addi	a5,sp,980
    26ce:	00a0                	addi	s0,sp,72
    26d0:	0000                	unimp
    26d2:	0000                	unimp
    26d4:	0048                	addi	a0,sp,4
    26d6:	0000                	unimp
    26d8:	0000                	unimp
    26da:	0000                	unimp
    26dc:	9c01                	subw	s0,s0,s0
    26de:	0944                	addi	s1,sp,148
    26e0:	0000                	unimp
    26e2:	7304                	ld	s1,32(a4)
    26e4:	1300                	addi	s0,sp,416
    26e6:	9919                	andi	a0,a0,-26
    26e8:	0002                	c.slli64	zero
    26ea:	e800                	sd	s0,16(s0)
    26ec:	002d                	c.nop	11
    26ee:	0800                	addi	s0,sp,16
    26f0:	006e                	c.slli	zero,0x1b
    26f2:	0914                	addi	a3,sp,144
    26f4:	006c                	addi	a1,sp,12
    26f6:	0000                	unimp
    26f8:	2e50                	fld	fa2,152(a2)
    26fa:	0000                	unimp
    26fc:	0600                	addi	s0,sp,768
    26fe:	02cd                	addi	t0,t0,19
    2700:	0000                	unimp
    2702:	050d                	addi	a0,a0,3
    2704:	006c                	addi	a1,sp,12
    2706:	0000                	unimp
    2708:	0f9c                	addi	a5,sp,976
    270a:	00a0                	addi	s0,sp,72
    270c:	0000                	unimp
    270e:	0000                	unimp
    2710:	0040                	addi	s0,sp,4
    2712:	0000                	unimp
    2714:	0000                	unimp
    2716:	0000                	unimp
    2718:	9c01                	subw	s0,s0,s0
    271a:	0980                	addi	s0,sp,208
    271c:	0000                	unimp
    271e:	7004                	ld	s1,32(s0)
    2720:	0d00                	addi	s0,sp,656
    2722:	9918                	0x9918
    2724:	0002                	c.slli64	zero
    2726:	ac00                	fsd	fs0,24(s0)
    2728:	002e                	c.slli	zero,0xb
    272a:	0400                	addi	s0,sp,512
    272c:	0071                	c.nop	28
    272e:	270d                	addiw	a4,a4,3
    2730:	0299                	addi	t0,t0,6
    2732:	0000                	unimp
    2734:	00002ed3          	fadd.s	ft9,ft0,ft0,rdn
    2738:	0600                	addi	s0,sp,768
    273a:	00000387          	0x387
    273e:	0704                	addi	s1,sp,896
    2740:	0192                	slli	gp,gp,0x4
    2742:	0000                	unimp
    2744:	0f6c                	addi	a1,sp,924
    2746:	00a0                	addi	s0,sp,72
    2748:	0000                	unimp
    274a:	0000                	unimp
    274c:	0030                	addi	a2,sp,8
    274e:	0000                	unimp
    2750:	0000                	unimp
    2752:	0000                	unimp
    2754:	9c01                	subw	s0,s0,s0
    2756:	09c8                	addi	a0,sp,212
    2758:	0000                	unimp
    275a:	7304                	ld	s1,32(a4)
    275c:	0400                	addi	s0,sp,512
    275e:	9214                	0x9214
    2760:	0001                	nop
    2762:	fa00                	sd	s0,48(a2)
    2764:	002e                	c.slli	zero,0xb
    2766:	0400                	addi	s0,sp,512
    2768:	0074                	addi	a3,sp,12
    276a:	2304                	fld	fs1,0(a4)
    276c:	0299                	addi	t0,t0,6
    276e:	0000                	unimp
    2770:	2f21                	addiw	t5,t5,8
    2772:	0000                	unimp
    2774:	00736f0b          	0x736f0b
    2778:	0b05                	addi	s6,s6,1
    277a:	0192                	slli	gp,gp,0x4
    277c:	0000                	unimp
    277e:	5a01                	li	s4,-32
    2780:	0c00                	addi	s0,sp,528
    2782:	0362                	slli	t1,t1,0x18
    2784:	0000                	unimp
    2786:	6c69                	lui	s8,0x1a
    2788:	0000                	unimp
    278a:	ed00                	sd	s0,24(a0)
    278c:	0009                	c.nop	2
    278e:	0500                	addi	s0,sp,640
    2790:	6466                	ld	s0,88(sp)
    2792:	0200                	addi	s0,sp,256
    2794:	1d69                	addi	s10,s10,-6
    2796:	006c                	addi	a1,sp,12
    2798:	0000                	unimp
    279a:	7305                	lui	t1,0xfffe1
    279c:	0074                	addi	a3,sp,12
    279e:	6902                	ld	s2,0(sp)
    27a0:	b22e                	fsd	fa1,288(sp)
    27a2:	0005                	c.nop	1
    27a4:	0000                	unimp
    27a6:	570c                	lw	a1,40(a4)
    27a8:	5d000003          	lb	zero,1488(zero) # 5d0 <_text-0x9ffa30>
    27ac:	006c                	addi	a1,sp,12
    27ae:	0000                	unimp
    27b0:	0a1d                	addi	s4,s4,7
    27b2:	0000                	unimp
    27b4:	6605                	lui	a2,0x1
    27b6:	0064                	addi	s1,sp,12
    27b8:	5d02                	lw	s10,32(sp)
    27ba:	6c1c                	ld	a5,24(s0)
    27bc:	0000                	unimp
    27be:	0500                	addi	s0,sp,640
    27c0:	7562                	ld	a0,56(sp)
    27c2:	0066                	c.slli	zero,0x19
    27c4:	5d02                	lw	s10,32(sp)
    27c6:	992c                	0x992c
    27c8:	0002                	c.slli64	zero
    27ca:	0500                	addi	s0,sp,640
    27cc:	006e                	c.slli	zero,0x1b
    27ce:	5d02                	lw	s10,32(sp)
    27d0:	6c35                	lui	s8,0xd
    27d2:	0000                	unimp
    27d4:	0000                	unimp
    27d6:	c20c                	sw	a1,0(a2)
    27d8:	49000003          	lb	zero,1168(zero) # 490 <_text-0x9ffb70>
    27dc:	006c                	addi	a1,sp,12
    27de:	0000                	unimp
    27e0:	0a42                	slli	s4,s4,0x10
    27e2:	0000                	unimp
    27e4:	cb16                	sw	t0,148(sp)
    27e6:	0000                	unimp
    27e8:	4900                	lw	s0,16(a0)
    27ea:	9924                	0x9924
    27ec:	0002                	c.slli64	zero
    27ee:	1600                	addi	s0,sp,800
    27f0:	035c                	addi	a5,sp,388
    27f2:	0000                	unimp
    27f4:	2e49                	addiw	t3,t3,18
    27f6:	006c                	addi	a1,sp,12
    27f8:	0000                	unimp
    27fa:	0c00                	addi	s0,sp,528
    27fc:	000003c7          	fmsub.s	ft7,ft0,ft0,ft0,rne
    2800:	6c45                	lui	s8,0x11
    2802:	0000                	unimp
    2804:	5c00                	lw	s0,56(s0)
    2806:	000a                	c.slli	zero,0x2
    2808:	0500                	addi	s0,sp,640
    280a:	6466                	ld	s0,88(sp)
    280c:	0200                	addi	s0,sp,256
    280e:	1d45                	addi	s10,s10,-15
    2810:	006c                	addi	a1,sp,12
    2812:	0000                	unimp
    2814:	0c00                	addi	s0,sp,528
    2816:	0000003b          	addw	zero,zero,zero
    281a:	6c35                	lui	s8,0xd
    281c:	0000                	unimp
    281e:	8e00                	0x8e00
    2820:	000a                	c.slli	zero,0x2
    2822:	0500                	addi	s0,sp,640
    2824:	6466                	ld	s0,88(sp)
    2826:	0200                	addi	s0,sp,256
    2828:	1d35                	addi	s10,s10,-19
    282a:	006c                	addi	a1,sp,12
    282c:	0000                	unimp
    282e:	7305                	lui	t1,0xfffe1
    2830:	6372                	ld	t1,280(sp)
    2832:	0200                	addi	s0,sp,256
    2834:	2d35                	addiw	s10,s10,13
    2836:	022e                	slli	tp,tp,0xb
    2838:	0000                	unimp
    283a:	6c05                	lui	s8,0x1
    283c:	6e65                	lui	t3,0x19
    283e:	0200                	addi	s0,sp,256
    2840:	3635                	addiw	a2,a2,-19
    2842:	006c                	addi	a1,sp,12
    2844:	0000                	unimp
    2846:	2200                	fld	fs0,0(a2)
    2848:	0186                	slli	gp,gp,0x1
    284a:	0000                	unimp
    284c:	4d130603          	lb	a2,1233(t1) # fffffffffffe14d1 <end+0xfffffffffefdf4d1>
    2850:	0000                	unimp
    2852:	0300                	addi	s0,sp,384
    2854:	6e05                	lui	t3,0x1
    2856:	0300                	addi	s0,sp,384
    2858:	2106                	fld	ft2,64(sp)
    285a:	00000073          	ecall
    285e:	5f05                	li	t5,-31
    2860:	3061                	0x3061
    2862:	0300                	addi	s0,sp,384
    2864:	2806                	fld	fa6,64(sp)
    2866:	004d                	c.nop	19
    2868:	0000                	unimp
    286a:	5f05                	li	t5,-31
    286c:	3161                	addiw	sp,sp,-8
    286e:	0300                	addi	s0,sp,384
    2870:	3106                	fld	ft2,96(sp)
    2872:	004d                	c.nop	19
    2874:	0000                	unimp
    2876:	5f05                	li	t5,-31
    2878:	3261                	addiw	tp,tp,-8
    287a:	0300                	addi	s0,sp,384
    287c:	3a06                	fld	fs4,96(sp)
    287e:	004d                	c.nop	19
    2880:	0000                	unimp
    2882:	5f05                	li	t5,-31
    2884:	3361                	addiw	t1,t1,-8
    2886:	0300                	addi	s0,sp,384
    2888:	004d0307          	0x4d0307
    288c:	0000                	unimp
    288e:	5f05                	li	t5,-31
    2890:	3461                	addiw	s0,s0,-8
    2892:	0300                	addi	s0,sp,384
    2894:	004d0c07          	0x4d0c07
    2898:	0000                	unimp
    289a:	5f05                	li	t5,-31
    289c:	3561                	addiw	a0,a0,-8
    289e:	0300                	addi	s0,sp,384
    28a0:	004d1507          	0x4d1507
    28a4:	0000                	unimp
    28a6:	610a                	ld	sp,128(sp)
    28a8:	0030                	addi	a2,sp,8
    28aa:	4d08                	lw	a0,24(a0)
    28ac:	0000                	unimp
    28ae:	0a00                	addi	s0,sp,272
    28b0:	3161                	addiw	sp,sp,-8
    28b2:	0900                	addi	s0,sp,144
    28b4:	004d                	c.nop	19
    28b6:	0000                	unimp
    28b8:	610a                	ld	sp,128(sp)
    28ba:	0032                	c.slli	zero,0xc
    28bc:	4d0a                	lw	s10,128(sp)
    28be:	0000                	unimp
    28c0:	0a00                	addi	s0,sp,272
    28c2:	3361                	addiw	t1,t1,-8
    28c4:	0b00                	addi	s0,sp,400
    28c6:	004d                	c.nop	19
    28c8:	0000                	unimp
    28ca:	610a                	ld	sp,128(sp)
    28cc:	0034                	addi	a3,sp,8
    28ce:	4d0c                	lw	a1,24(a0)
    28d0:	0000                	unimp
    28d2:	0a00                	addi	s0,sp,272
    28d4:	3561                	addiw	a0,a0,-8
    28d6:	0d00                	addi	s0,sp,656
    28d8:	004d                	c.nop	19
    28da:	0000                	unimp
    28dc:	00004b23          	0x4b23
    28e0:	0300                	addi	s0,sp,384
    28e2:	100e                	c.slli	zero,0x23
    28e4:	00000073          	ecall
    28e8:	0000                	unimp
    28ea:	000003c7          	fmsub.s	ft7,ft0,ft0,ft0,rne
    28ee:	0005                	c.nop	1
    28f0:	0801                	addi	a6,a6,0
    28f2:	078a                	slli	a5,a5,0x2
    28f4:	0000                	unimp
    28f6:	d00e                	sw	gp,32(sp)
    28f8:	0000                	unimp
    28fa:	1d00                	addi	s0,sp,688
    28fc:	00aa                	slli	ra,ra,0xa
    28fe:	0000                	unimp
    2900:	0000                	unimp
    2902:	0000                	unimp
    2904:	137c                	addi	a5,sp,428
    2906:	00a0                	addi	s0,sp,72
    2908:	0000                	unimp
    290a:	0000                	unimp
    290c:	0208                	addi	a0,sp,256
    290e:	0000                	unimp
    2910:	0000                	unimp
    2912:	0000                	unimp
    2914:	2ee2                	fld	ft9,24(sp)
    2916:	0000                	unimp
    2918:	0102                	c.slli64	sp
    291a:	8e08                	0x8e08
    291c:	0000                	unimp
    291e:	0200                	addi	s0,sp,256
    2920:	0702                	c.slli64	a4
    2922:	00a6                	slli	ra,ra,0x9
    2924:	0000                	unimp
    2926:	0402                	c.slli64	s0
    2928:	0000be07          	fld	ft8,0(ra)
    292c:	0f00                	addi	s0,sp,912
    292e:	3675                	addiw	a2,a2,-3
    2930:	0034                	addi	a3,sp,8
    2932:	0704                	addi	s1,sp,896
    2934:	4f30                	lw	a2,88(a4)
    2936:	0000                	unimp
    2938:	0200                	addi	s0,sp,256
    293a:	0708                	addi	a0,sp,896
    293c:	00b9                	addi	ra,ra,14
    293e:	0000                	unimp
    2940:	0102                	c.slli64	sp
    2942:	9006                	c.add	zero,ra
    2944:	0000                	unimp
    2946:	0200                	addi	s0,sp,256
    2948:	0502                	c.slli64	a0
    294a:	0041                	c.nop	16
    294c:	0000                	unimp
    294e:	0410                	addi	a2,sp,512
    2950:	6905                	lui	s2,0x1
    2952:	746e                	ld	s0,248(sp)
    2954:	0200                	addi	s0,sp,256
    2956:	0508                	addi	a0,sp,640
    2958:	0066                	c.slli	zero,0x19
    295a:	0000                	unimp
    295c:	bf06                	fsd	ft1,440(sp)
    295e:	0002                	c.slli64	zero
    2960:	0400                	addi	s0,sp,512
    2962:	1645                	addi	a2,a2,-15
    2964:	003c                	addi	a5,sp,8
    2966:	0000                	unimp
    2968:	00008307          	0x8307
    296c:	0200                	addi	s0,sp,256
    296e:	0801                	addi	a6,a6,0
    2970:	00000097          	auipc	ra,0x0
    2974:	8311                	srli	a4,a4,0x4
    2976:	0000                	unimp
    2978:	9a00                	0x9a00
    297a:	0000                	unimp
    297c:	1200                	addi	s0,sp,288
    297e:	0000004f          	fnmadd.s	ft0,ft0,ft0,ft0,rne
    2982:	0010                	0x10
    2984:	00008713          	mv	a4,ra
    2988:	0500                	addi	s0,sp,640
    298a:	0d21                	addi	s10,s10,8
    298c:	008a                	slli	ra,ra,0x2
    298e:	0000                	unimp
    2990:	0076                	c.slli	zero,0x1d
    2992:	0000                	unimp
    2994:	1906                	slli	s2,s2,0x21
    2996:	0004                	0x4
    2998:	0100                	addi	s0,sp,128
    299a:	006b0e0b          	0x6b0e0b
    299e:	0000                	unimp
    29a0:	1014                	addi	a3,sp,32
    29a2:	0e01                	addi	t3,t3,0
    29a4:	da05                	beqz	a2,28d4 <_text-0x9fd72c>
    29a6:	0000                	unimp
    29a8:	1500                	addi	s0,sp,672
    29aa:	7470                	ld	a2,232(s0)
    29ac:	0072                	c.slli	zero,0x1c
    29ae:	0f01                	addi	t5,t5,0
    29b0:	0000fa17          	auipc	s4,0xf
    29b4:	0000                	unimp
    29b6:	b316                	fsd	ft5,416(sp)
    29b8:	0002                	c.slli64	zero
    29ba:	0100                	addi	s0,sp,128
    29bc:	0e10                	addi	a2,sp,784
    29be:	0072                	c.slli	zero,0x1c
    29c0:	0000                	unimp
    29c2:	0008                	0x8
    29c4:	0003e317          	auipc	t1,0x3e
    29c8:	1000                	addi	s0,sp,32
    29ca:	0d01                	addi	s10,s10,0
    29cc:	0000fa07          	0xfa07
    29d0:	0800                	addi	s0,sp,16
    29d2:	07110073          	0x7110073
    29d6:	00b6                	slli	ra,ra,0xd
    29d8:	0000                	unimp
    29da:	7808                	ld	a0,48(s0)
    29dc:	1200                	addi	s0,sp,288
    29de:	0000aa0b          	0xaa0b
    29e2:	0000                	unimp
    29e4:	0000da07          	0xda07
    29e8:	0600                	addi	s0,sp,768
    29ea:	0406                	slli	s0,s0,0x1
    29ec:	0000                	unimp
    29ee:	1501                	addi	a0,a0,-32
    29f0:	da16                	sw	t0,52(sp)
    29f2:	0000                	unimp
    29f4:	0900                	addi	s0,sp,144
    29f6:	02a2                	slli	t0,t0,0x8
    29f8:	0000                	unimp
    29fa:	00ff0f17          	auipc	t5,0xff0
    29fe:	0000                	unimp
    2a00:	0309                	addi	t1,t1,2
    2a02:	3000                	fld	fs0,32(s0)
    2a04:	00a0                	addi	s0,sp,72
    2a06:	0000                	unimp
    2a08:	0000                	unimp
    2a0a:	ea09                	bnez	a2,2a1c <_text-0x9fd5e4>
    2a0c:	18000003          	lb	zero,384(zero) # 180 <_text-0x9ffe80>
    2a10:	3510                	fld	fa2,40(a0)
    2a12:	0001                	nop
    2a14:	0900                	addi	s0,sp,144
    2a16:	00000003          	lb	zero,0(zero) # 0 <_text-0xa00000>
    2a1a:	0001                	nop
    2a1c:	0000                	unimp
    2a1e:	0700                	addi	s0,sp,896
    2a20:	00ff                	0xff
    2a22:	0000                	unimp
    2a24:	f018                	sd	a4,32(s0)
    2a26:	01000003          	lb	zero,16(zero) # 10 <_text-0x9ffff0>
    2a2a:	073d                	addi	a4,a4,15
    2a2c:	0285                	addi	t0,t0,1
    2a2e:	0000                	unimp
    2a30:	142c                	addi	a1,sp,552
    2a32:	00a0                	addi	s0,sp,72
    2a34:	0000                	unimp
    2a36:	0000                	unimp
    2a38:	0158                	addi	a4,sp,132
    2a3a:	0000                	unimp
    2a3c:	0000                	unimp
    2a3e:	0000                	unimp
    2a40:	9c01                	subw	s0,s0,s0
    2a42:	0285                	addi	t0,t0,1
    2a44:	0000                	unimp
    2a46:	2419                	addiw	s0,s0,6
    2a48:	0004                	0x4
    2a4a:	0100                	addi	s0,sp,128
    2a4c:	133d                	addi	t1,t1,-17
    2a4e:	0072                	c.slli	zero,0x1c
    2a50:	0000                	unimp
    2a52:	2f54                	fld	fa3,152(a4)
    2a54:	0000                	unimp
    2a56:	700a                	0x700a
    2a58:	3e00                	fld	fs0,56(a2)
    2a5a:	0135                	addi	sp,sp,13
    2a5c:	0000                	unimp
    2a5e:	2f7e                	fld	ft10,472(sp)
    2a60:	0000                	unimp
    2a62:	0003f70b          	0x3f70b
    2a66:	3e00                	fld	fs0,56(a2)
    2a68:	3511                	addiw	a0,a0,-28
    2a6a:	0001                	nop
    2a6c:	fa00                	sd	s0,48(a2)
    2a6e:	0b00002f          	0xb00002f
    2a72:	0412                	slli	s0,s0,0x4
    2a74:	0000                	unimp
    2a76:	00720a3f 30630000 	0x3063000000720a3f
    2a7e:	0000                	unimp
    2a80:	871a                	mv	a4,t1
    2a82:	0002                	c.slli64	zero
    2a84:	9c00                	0x9c00
    2a86:	a014                	fsd	fa3,0(s0)
    2a88:	0000                	unimp
    2a8a:	0000                	unimp
    2a8c:	2e00                	fld	fs0,24(a2)
    2a8e:	0005                	c.nop	1
    2a90:	0100                	addi	s0,sp,128
    2a92:	98011653          	0x98011653
    2a96:	0002                	c.slli64	zero
    2a98:	8a00                	0x8a00
    2a9a:	0030                	addi	a2,sp,8
    2a9c:	1b00                	addi	s0,sp,432
    2a9e:	052e                	slli	a0,a0,0xb
    2aa0:	0000                	unimp
    2aa2:	a30c                	fsd	fa1,0(a4)
    2aa4:	0002                	c.slli64	zero
    2aa6:	e500                	sd	s0,8(a0)
    2aa8:	0030                	addi	a2,sp,8
    2aaa:	0c00                	addi	s0,sp,528
    2aac:	02ad                	addi	t0,t0,11
    2aae:	0000                	unimp
    2ab0:	3121                	addiw	sp,sp,-24
    2ab2:	0000                	unimp
    2ab4:	fe1c                	sd	a5,56(a2)
    2ab6:	0002                	c.slli64	zero
    2ab8:	9c00                	0x9c00
    2aba:	a014                	fsd	fa3,0(s0)
    2abc:	0000                	unimp
    2abe:	0000                	unimp
    2ac0:	7300                	ld	s0,32(a4)
    2ac2:	0005                	c.nop	1
    2ac4:	0100                	addi	s0,sp,128
    2ac6:	1134                	addi	a3,sp,168
    2ac8:	0275                	addi	tp,tp,29
    2aca:	0000                	unimp
    2acc:	0f01                	addi	t5,t5,0
    2ace:	4a000003          	lb	zero,1184(zero) # 4a0 <_text-0x9ffb60>
    2ad2:	0031                	c.nop	12
    2ad4:	1d00                	addi	s0,sp,688
    2ad6:	031c                	addi	a5,sp,384
    2ad8:	0000                	unimp
    2ada:	1558                	addi	a4,sp,676
    2adc:	00a0                	addi	s0,sp,72
    2ade:	0000                	unimp
    2ae0:	0000                	unimp
    2ae2:	0020                	addi	s0,sp,8
    2ae4:	0000                	unimp
    2ae6:	0000                	unimp
    2ae8:	0000                	unimp
    2aea:	6f02                	ld	t5,0(sp)
    2aec:	010c                	addi	a1,sp,128
    2aee:	0000036f          	jal	t1,2aee <_text-0x9fd512>
    2af2:	3162                	fld	ft2,56(sp)
    2af4:	0000                	unimp
    2af6:	6301                	0x6301
    2af8:	62000003          	lb	zero,1568(zero) # 620 <_text-0x9ff9e0>
    2afc:	0031                	c.nop	12
    2afe:	0100                	addi	s0,sp,128
    2b00:	00000357          	0x357
    2b04:	3162                	fld	ft2,56(sp)
    2b06:	0000                	unimp
    2b08:	4b01                	li	s6,0
    2b0a:	62000003          	lb	zero,1568(zero) # 620 <_text-0x9ff9e0>
    2b0e:	0031                	c.nop	12
    2b10:	0100                	addi	s0,sp,128
    2b12:	0000033f 00003162 	0x31620000033f
    2b1a:	3301                	addiw	t1,t1,-32
    2b1c:	77000003          	lb	zero,1904(zero) # 770 <_text-0x9ff890>
    2b20:	0031                	c.nop	12
    2b22:	0100                	addi	s0,sp,128
    2b24:	0329                	addi	t1,t1,10
    2b26:	0000                	unimp
    2b28:	3195                	addiw	gp,gp,-27
    2b2a:	0000                	unimp
    2b2c:	7b05                	lui	s6,0xfffe1
    2b2e:	01000003          	lb	zero,16(zero) # 10 <_text-0x9ffff0>
    2b32:	055a                	slli	a0,a0,0x16
    2b34:	0386                	slli	t2,t2,0x1
    2b36:	0000                	unimp
    2b38:	5b01                	li	s6,-32
    2b3a:	9105                	srli	a0,a0,0x21
    2b3c:	01000003          	lb	zero,16(zero) # 10 <_text-0x9ffff0>
    2b40:	055c                	addi	a5,sp,644
    2b42:	039c                	addi	a5,sp,448
    2b44:	0000                	unimp
    2b46:	5d01                	li	s10,-32
    2b48:	a705                	j	3268 <_text-0x9fcd98>
    2b4a:	01000003          	lb	zero,16(zero) # 10 <_text-0x9ffff0>
    2b4e:	055e                	slli	a0,a0,0x17
    2b50:	03b2                	slli	t2,t2,0xc
    2b52:	0000                	unimp
    2b54:	5f01                	li	t5,-32
    2b56:	bd05                	j	2986 <_text-0x9fd67a>
    2b58:	01000003          	lb	zero,16(zero) # 10 <_text-0x9ffff0>
    2b5c:	0061                	c.nop	24
    2b5e:	1e00                	addi	s0,sp,816
    2b60:	1538                	addi	a4,sp,680
    2b62:	00a0                	addi	s0,sp,72
    2b64:	0000                	unimp
    2b66:	0000                	unimp
    2b68:	02b9                	addi	t0,t0,14
    2b6a:	0000                	unimp
    2b6c:	0000                	unimp
    2b6e:	1f00                	addi	s0,sp,944
    2b70:	0d08                	addi	a0,sp,656
    2b72:	03fd                	addi	t2,t2,31
    2b74:	0000                	unimp
    2b76:	2e01                	sext.w	t3,t3
    2b78:	3510                	fld	fa2,40(a0)
    2b7a:	0001                	nop
    2b7c:	0100                	addi	s0,sp,128
    2b7e:	02b9                	addi	t0,t0,14
    2b80:	0000                	unimp
    2b82:	00756e03          	lwu	t3,7(a0)
    2b86:	2e01                	sext.w	t3,t3
    2b88:	721e                	ld	tp,480(sp)
    2b8a:	0000                	unimp
    2b8c:	0400                	addi	s0,sp,512
    2b8e:	0070                	addi	a2,sp,12
    2b90:	2f01                	sext.w	t5,t5
    2b92:	00007e0b          	0x7e0b
    2b96:	0400                	addi	s0,sp,512
    2b98:	7068                	ld	a0,224(s0)
    2b9a:	0100                	addi	s0,sp,128
    2b9c:	0d30                	addi	a2,sp,664
    2b9e:	0135                	addi	sp,sp,13
    2ba0:	0000                	unimp
    2ba2:	2000                	fld	fs0,0(s0)
    2ba4:	040d                	addi	s0,s0,3
    2ba6:	0000                	unimp
    2ba8:	1a01                	addi	s4,s4,-32
    2baa:	7c06                	ld	s8,96(sp)
    2bac:	0000a013          	slti	zero,ra,0
    2bb0:	0000                	unimp
    2bb2:	b000                	fsd	fs0,32(s0)
    2bb4:	0000                	unimp
    2bb6:	0000                	unimp
    2bb8:	0000                	unimp
    2bba:	0100                	addi	s0,sp,128
    2bbc:	fe9c                	sd	a5,56(a3)
    2bbe:	0002                	c.slli64	zero
    2bc0:	2100                	fld	fs0,0(a0)
    2bc2:	7061                	c.lui	zero,0xffff8
    2bc4:	0100                	addi	s0,sp,128
    2bc6:	111a                	slli	sp,sp,0x26
    2bc8:	0285                	addi	t0,t0,1
    2bca:	0000                	unimp
    2bcc:	5a01                	li	s4,-32
    2bce:	620a                	ld	tp,128(sp)
    2bd0:	0070                	addi	a2,sp,12
    2bd2:	0001351b          	0x1351b
    2bd6:	aa00                	fsd	fs0,16(a2)
    2bd8:	0031                	c.nop	12
    2bda:	2200                	fld	fs0,0(a2)
    2bdc:	0070                	addi	a2,sp,12
    2bde:	1b01                	addi	s6,s6,-32
    2be0:	3512                	fld	fa0,288(sp)
    2be2:	0001                	nop
    2be4:	0100                	addi	s0,sp,128
    2be6:	005f 1f0d 0004      	0x41f0d005f
    2bec:	0200                	addi	s0,sp,256
    2bee:	136d                	addi	t1,t1,-5
    2bf0:	00000043          	fmadd.s	ft0,ft0,ft0,ft0,rne
    2bf4:	00031c03          	lh	s8,0(t1) # 409c4 <_text-0x9bf63c>
    2bf8:	2300                	fld	fs0,0(a4)
    2bfa:	000002b3          	add	t0,zero,zero
    2bfe:	6d02                	ld	s10,0(sp)
    2c00:	641c                	ld	a5,8(s0)
    2c02:	0000                	unimp
    2c04:	0000                	unimp
    2c06:	8624                	0x8624
    2c08:	0001                	nop
    2c0a:	0300                	addi	s0,sp,384
    2c0c:	1306                	slli	t1,t1,0x21
    2c0e:	00000043          	fmadd.s	ft0,ft0,ft0,ft0,rne
    2c12:	006e0303          	lb	t1,6(t3) # 1006 <_text-0x9feffa>
    2c16:	6b210603          	lb	a2,1714(sp)
    2c1a:	0000                	unimp
    2c1c:	0300                	addi	s0,sp,384
    2c1e:	615f 0030 0603      	0x6030030615f
    2c24:	4328                	lw	a0,64(a4)
    2c26:	0000                	unimp
    2c28:	0300                	addi	s0,sp,384
    2c2a:	615f 0031 0603      	0x6030031615f
    2c30:	4331                	li	t1,12
    2c32:	0000                	unimp
    2c34:	0300                	addi	s0,sp,384
    2c36:	615f 0032 0603      	0x6030032615f
    2c3c:	433a                	lw	t1,140(sp)
    2c3e:	0000                	unimp
    2c40:	0300                	addi	s0,sp,384
    2c42:	615f 0033 0703      	0x7030033615f
    2c48:	00004303          	lbu	t1,0(zero) # 0 <_text-0xa00000>
    2c4c:	0300                	addi	s0,sp,384
    2c4e:	615f 0034 0703      	0x7030034615f
    2c54:	430c                	lw	a1,0(a4)
    2c56:	0000                	unimp
    2c58:	0300                	addi	s0,sp,384
    2c5a:	615f 0035 0703      	0x7030035615f
    2c60:	4315                	li	t1,5
    2c62:	0000                	unimp
    2c64:	0400                	addi	s0,sp,512
    2c66:	3061                	0x3061
    2c68:	0300                	addi	s0,sp,384
    2c6a:	0f08                	addi	a0,sp,912
    2c6c:	00000043          	fmadd.s	ft0,ft0,ft0,ft0,rne
    2c70:	6104                	ld	s1,0(a0)
    2c72:	0031                	c.nop	12
    2c74:	430f0903          	lb	s2,1072(t5) # ff2e2a <base+0x5efe2a>
    2c78:	0000                	unimp
    2c7a:	0400                	addi	s0,sp,512
    2c7c:	3261                	addiw	tp,tp,-8
    2c7e:	0300                	addi	s0,sp,384
    2c80:	0f0a                	slli	t5,t5,0x2
    2c82:	00000043          	fmadd.s	ft0,ft0,ft0,ft0,rne
    2c86:	6104                	ld	s1,0(a0)
    2c88:	0b030033          	0xb030033
    2c8c:	0000430f          	0x430f
    2c90:	0400                	addi	s0,sp,512
    2c92:	3461                	addiw	s0,s0,-8
    2c94:	0300                	addi	s0,sp,384
    2c96:	0f0c                	addi	a1,sp,912
    2c98:	00000043          	fmadd.s	ft0,ft0,ft0,ft0,rne
    2c9c:	6104                	ld	s1,0(a0)
    2c9e:	0035                	c.nop	13
    2ca0:	430f0d03          	lb	s10,1072(t5)
    2ca4:	0000                	unimp
    2ca6:	2500                	fld	fs0,8(a0)
    2ca8:	0000004b          	fnmsub.s	ft0,ft0,ft0,ft0,rne
    2cac:	6b100e03          	lb	t3,1713(zero) # 6b1 <_text-0x9ff94f>
    2cb0:	0000                	unimp
    2cb2:	0000                	unimp
	...

Disassembly of section .debug_abbrev:

0000000000000000 <.debug_abbrev>:
   0:	1101                	addi	sp,sp,-32
   2:	1000                	addi	s0,sp,32
   4:	12011117          	auipc	sp,0x12011
   8:	1b0e030f          	0x1b0e030f
   c:	250e                	fld	fa0,192(sp)
   e:	130e                	slli	t1,t1,0x23
  10:	0005                	c.nop	1
  12:	0000                	unimp
  14:	0501                	addi	a0,a0,0
  16:	3100                	fld	fs0,32(a0)
  18:	00170213          	addi	tp,a4,1 # 18001 <_text-0x9e7fff>
  1c:	0200                	addi	s0,sp,256
  1e:	0034                	addi	a3,sp,8
  20:	1331                	addi	t1,t1,-20
  22:	1802                	slli	a6,a6,0x20
  24:	0000                	unimp
  26:	03000503          	lb	a0,48(zero) # 30 <_text-0x9fffd0>
  2a:	3a08                	fld	fa0,48(a2)
  2c:	390b3b0b          	0x390b3b0b
  30:	0013490b          	0x13490b
  34:	0400                	addi	s0,sp,512
  36:	0024                	addi	s1,sp,8
  38:	0b3e0b0b          	0xb3e0b0b
  3c:	00000e03          	lb	t3,0(zero) # 0 <_text-0xa00000>
  40:	3405                	addiw	s0,s0,-31
  42:	0300                	addi	s0,sp,384
  44:	3a08                	fld	fa0,48(a2)
  46:	0321                	addi	t1,t1,8
  48:	21390b3b          	0x21390b3b
  4c:	0013490f          	0x13490f
  50:	0600                	addi	s0,sp,768
  52:	210b000f          	0x210b000f
  56:	4908                	lw	a0,16(a0)
  58:	07000013          	li	zero,112
  5c:	0005                	c.nop	1
  5e:	213a0e03          	lb	t3,531(s4) # 11bc3 <_text-0x9ee43d>
  62:	3b01                	addiw	s6,s6,-32
  64:	0621                	addi	a2,a2,8
  66:	0b39                	addi	s6,s6,14
  68:	1349                	addi	t1,t1,-14
  6a:	1702                	slli	a4,a4,0x20
  6c:	0000                	unimp
  6e:	1d08                	addi	a0,sp,688
  70:	3101                	addiw	sp,sp,-32
  72:	12011113          	0x12011113
  76:	01215807          	0x1215807
  7a:	0b59                	addi	s6,s6,22
  7c:	13010b57          	0x13010b57
  80:	0000                	unimp
  82:	1d09                	addi	s10,s10,-30
  84:	3101                	addiw	sp,sp,-32
  86:	12011113          	0x12011113
  8a:	02215807          	0x2215807
  8e:	0b59                	addi	s6,s6,22
  90:	000c2157          	0xc2157
  94:	0a00                	addi	s0,sp,272
  96:	012e                	slli	sp,sp,0xb
  98:	213a0e03          	lb	t3,531(s4)
  9c:	3b02                	fld	fs6,32(sp)
  9e:	1321390b          	0x1321390b
  a2:	13491927          	0x13491927
  a6:	2120                	fld	fs0,64(a0)
  a8:	00130103          	lb	sp,1(t1)
  ac:	0b00                	addi	s0,sp,400
  ae:	0111                	addi	sp,sp,4
  b0:	0e25                	addi	t3,t3,9
  b2:	1f030b13          	addi	s6,t1,496
  b6:	01111f1b          	slliw	t5,sp,0x11
  ba:	0712                	slli	a4,a4,0x4
  bc:	1710                	addi	a2,sp,928
  be:	0000                	unimp
  c0:	160c                	addi	a1,sp,800
  c2:	0300                	addi	s0,sp,384
  c4:	3a08                	fld	fa0,48(a2)
  c6:	390b3b0b          	0x390b3b0b
  ca:	0013490b          	0x13490b
  ce:	0d00                	addi	s0,sp,656
  d0:	0024                	addi	s1,sp,8
  d2:	0b3e0b0b          	0xb3e0b0b
  d6:	00000803          	lb	a6,0(zero) # 0 <_text-0xa00000>
  da:	260e                	fld	fa2,192(sp)
  dc:	4900                	lw	s0,16(a0)
  de:	0f000013          	li	zero,240
  e2:	0101                	addi	sp,sp,0
  e4:	1349                	addi	t1,t1,-14
  e6:	1301                	addi	t1,t1,-32
  e8:	0000                	unimp
  ea:	2110                	fld	fa2,0(a0)
  ec:	4900                	lw	s0,16(a0)
  ee:	000b2f13          	slti	t5,s6,0
  f2:	1100                	addi	s0,sp,160
  f4:	0034                	addi	a3,sp,8
  f6:	0b3a0e03          	lb	t3,179(s4)
  fa:	0b390b3b          	0xb390b3b
  fe:	1349                	addi	t1,t1,-14
 100:	0e1c                	addi	a5,sp,784
 102:	0000                	unimp
 104:	2e12                	fld	ft8,256(sp)
 106:	3f01                	addiw	t5,t5,-32
 108:	0319                	addi	t1,t1,6
 10a:	3a0e                	fld	fs4,224(sp)
 10c:	390b3b0b          	0x390b3b0b
 110:	3c19270b          	0x3c19270b
 114:	0119                	addi	sp,sp,6
 116:	13000013          	li	zero,304
 11a:	0005                	c.nop	1
 11c:	1349                	addi	t1,t1,-14
 11e:	0000                	unimp
 120:	1814                	addi	a3,sp,48
 122:	0000                	unimp
 124:	1500                	addi	s0,sp,672
 126:	012e                	slli	sp,sp,0xb
 128:	0e03193f 0b3b0b3a 	0xb3b0b3a0e03193f
 130:	0b39                	addi	s6,s6,14
 132:	13491927          	0x13491927
 136:	0111                	addi	sp,sp,4
 138:	0712                	slli	a4,a4,0x4
 13a:	1840                	addi	s0,sp,52
 13c:	197a                	slli	s2,s2,0x3e
 13e:	1301                	addi	t1,t1,-32
 140:	0000                	unimp
 142:	3416                	fld	fs0,352(sp)
 144:	0300                	addi	s0,sp,384
 146:	3a08                	fld	fa0,48(a2)
 148:	390b3b0b          	0x390b3b0b
 14c:	0213490b          	0x213490b
 150:	17000017          	auipc	zero,0x17000
 154:	0148                	addi	a0,sp,132
 156:	017d                	addi	sp,sp,31
 158:	137f                	0x137f
 15a:	0000                	unimp
 15c:	4918                	lw	a4,16(a0)
 15e:	0200                	addi	s0,sp,256
 160:	7e18                	ld	a4,56(a2)
 162:	0018                	0x18
 164:	1900                	addi	s0,sp,176
 166:	0005                	c.nop	1
 168:	0b3a0e03          	lb	t3,179(s4)
 16c:	0b390b3b          	0xb390b3b
 170:	1349                	addi	t1,t1,-14
 172:	0000                	unimp
 174:	261a                	fld	fa2,384(sp)
 176:	0000                	unimp
 178:	1b00                	addi	s0,sp,432
 17a:	012e                	slli	sp,sp,0xb
 17c:	0e03193f 0b3b0b3a 	0xb3b0b3a0e03193f
 184:	0b39                	addi	s6,s6,14
 186:	13491927          	0x13491927
 18a:	0b20                	addi	s0,sp,408
 18c:	0000                	unimp
 18e:	341c                	fld	fa5,40(s0)
 190:	0300                	addi	s0,sp,384
 192:	3a0e                	fld	fs4,224(sp)
 194:	390b3b0b          	0x390b3b0b
 198:	0013490b          	0x13490b
 19c:	0000                	unimp
 19e:	2401                	sext.w	s0,s0
 1a0:	0b00                	addi	s0,sp,400
 1a2:	030b3e0b          	0x30b3e0b
 1a6:	000e                	c.slli	zero,0x3
 1a8:	0200                	addi	s0,sp,256
 1aa:	0005                	c.nop	1
 1ac:	1331                	addi	t1,t1,-20
 1ae:	1702                	slli	a4,a4,0x20
 1b0:	0000                	unimp
 1b2:	03000503          	lb	a0,48(zero) # 30 <_text-0x9fffd0>
 1b6:	3a08                	fld	fa0,48(a2)
 1b8:	390b3b0b          	0x390b3b0b
 1bc:	0013490b          	0x13490b
 1c0:	0400                	addi	s0,sp,512
 1c2:	0034                	addi	a3,sp,8
 1c4:	1331                	addi	t1,t1,-20
 1c6:	1802                	slli	a6,a6,0x20
 1c8:	0000                	unimp
 1ca:	3405                	addiw	s0,s0,-31
 1cc:	0300                	addi	s0,sp,384
 1ce:	3a08                	fld	fa0,48(a2)
 1d0:	0321                	addi	t1,t1,8
 1d2:	21390b3b          	0x21390b3b
 1d6:	0013490f          	0x13490f
 1da:	0600                	addi	s0,sp,768
 1dc:	0005                	c.nop	1
 1de:	213a0e03          	lb	t3,531(s4)
 1e2:	3b01                	addiw	s6,s6,-32
 1e4:	0621                	addi	a2,a2,8
 1e6:	0b39                	addi	s6,s6,14
 1e8:	1349                	addi	t1,t1,-14
 1ea:	1702                	slli	a4,a4,0x20
 1ec:	0000                	unimp
 1ee:	0b000f07          	0xb000f07
 1f2:	0821                	addi	a6,a6,8
 1f4:	1349                	addi	t1,t1,-14
 1f6:	0000                	unimp
 1f8:	0508                	addi	a0,sp,640
 1fa:	4900                	lw	s0,16(a0)
 1fc:	09000013          	li	zero,144
 200:	0111                	addi	sp,sp,4
 202:	0e25                	addi	t3,t3,9
 204:	1f030b13          	addi	s6,t1,496
 208:	01111f1b          	slliw	t5,sp,0x11
 20c:	0712                	slli	a4,a4,0x4
 20e:	1710                	addi	a2,sp,928
 210:	0000                	unimp
 212:	160a                	slli	a2,a2,0x22
 214:	0300                	addi	s0,sp,384
 216:	3a08                	fld	fa0,48(a2)
 218:	390b3b0b          	0x390b3b0b
 21c:	0013490b          	0x13490b
 220:	0b00                	addi	s0,sp,400
 222:	0024                	addi	s1,sp,8
 224:	0b3e0b0b          	0xb3e0b0b
 228:	00000803          	lb	a6,0(zero) # 0 <_text-0xa00000>
 22c:	010c                	addi	a1,sp,128
 22e:	4901                	li	s2,0
 230:	00130113          	addi	sp,t1,1
 234:	0d00                	addi	s0,sp,656
 236:	0021                	c.nop	8
 238:	1349                	addi	t1,t1,-14
 23a:	00000b2f          	0xb2f
 23e:	340e                	fld	fs0,224(sp)
 240:	0300                	addi	s0,sp,384
 242:	3a0e                	fld	fs4,224(sp)
 244:	390b3b0b          	0x390b3b0b
 248:	1c13490b          	0x1c13490b
 24c:	000e                	c.slli	zero,0x3
 24e:	0f00                	addi	s0,sp,912
 250:	012e                	slli	sp,sp,0xb
 252:	0e03193f 0b3b0b3a 	0xb3b0b3a0e03193f
 25a:	0b39                	addi	s6,s6,14
 25c:	13491927          	0x13491927
 260:	193c                	addi	a5,sp,184
 262:	1301                	addi	t1,t1,-32
 264:	0000                	unimp
 266:	2e10                	fld	fa2,24(a2)
 268:	3f01                	addiw	t5,t5,-32
 26a:	0319                	addi	t1,t1,6
 26c:	3a0e                	fld	fs4,224(sp)
 26e:	390b3b0b          	0x390b3b0b
 272:	1119270b          	0x1119270b
 276:	1201                	addi	tp,tp,-32
 278:	7a184007          	flq	ft0,1953(a6) # ffffffffffff87a1 <end+0xfffffffffeff67a1>
 27c:	0119                	addi	sp,sp,6
 27e:	11000013          	li	zero,272
 282:	0034                	addi	a3,sp,8
 284:	0b3a0803          	lb	a6,179(s4)
 288:	0b390b3b          	0xb390b3b
 28c:	1349                	addi	t1,t1,-14
 28e:	1702                	slli	a4,a4,0x20
 290:	0000                	unimp
 292:	1d12                	slli	s10,s10,0x24
 294:	3101                	addiw	sp,sp,-32
 296:	12011113          	0x12011113
 29a:	590b5807          	0x590b5807
 29e:	010b570b          	0x10b570b
 2a2:	13000013          	li	zero,304
 2a6:	011d                	addi	sp,sp,7
 2a8:	1331                	addi	t1,t1,-20
 2aa:	0111                	addi	sp,sp,4
 2ac:	0712                	slli	a4,a4,0x4
 2ae:	0b58                	addi	a4,sp,404
 2b0:	0b59                	addi	s6,s6,22
 2b2:	00000b57          	0xb57
 2b6:	4814                	lw	a3,16(s0)
 2b8:	7d01                	lui	s10,0xfffe0
 2ba:	7f01                	lui	t5,0xfffe0
 2bc:	15000013          	li	zero,336
 2c0:	0049                	c.nop	18
 2c2:	1802                	slli	a6,a6,0x20
 2c4:	187e                	slli	a6,a6,0x3f
 2c6:	0000                	unimp
 2c8:	2e16                	fld	ft8,320(sp)
 2ca:	0301                	addi	t1,t1,0
 2cc:	3a0e                	fld	fs4,224(sp)
 2ce:	390b3b0b          	0x390b3b0b
 2d2:	4919270b          	0x4919270b
 2d6:	010b2013          	slti	zero,s6,16
 2da:	17000013          	li	zero,368
 2de:	012e                	slli	sp,sp,0xb
 2e0:	0e03193f 0b3b0b3a 	0xb3b0b3a0e03193f
 2e8:	0b39                	addi	s6,s6,14
 2ea:	13491927          	0x13491927
 2ee:	0b20                	addi	s0,sp,408
 2f0:	0000                	unimp
 2f2:	3418                	fld	fa4,40(s0)
 2f4:	0300                	addi	s0,sp,384
 2f6:	3a0e                	fld	fs4,224(sp)
 2f8:	390b3b0b          	0x390b3b0b
 2fc:	0013490b          	0x13490b
 300:	0000                	unimp
 302:	0501                	addi	a0,a0,0
 304:	3100                	fld	fs0,32(a0)
 306:	00170213          	addi	tp,a4,1
 30a:	0200                	addi	s0,sp,256
 30c:	0034                	addi	a3,sp,8
 30e:	1331                	addi	t1,t1,-20
 310:	1802                	slli	a6,a6,0x20
 312:	0000                	unimp
 314:	31011d03          	lh	s10,784(sp) # 12011314 <end+0x1100f314>
 318:	12011113          	0x12011113
 31c:	590b5807          	0x590b5807
 320:	000b570b          	0xb570b
 324:	0400                	addi	s0,sp,512
 326:	0005                	c.nop	1
 328:	1331                	addi	t1,t1,-20
 32a:	0000                	unimp
 32c:	4905                	li	s2,1
 32e:	0200                	addi	s0,sp,256
 330:	7e18                	ld	a4,56(a2)
 332:	0018                	0x18
 334:	0600                	addi	s0,sp,768
 336:	0005                	c.nop	1
 338:	213a0e03          	lb	t3,531(s4)
 33c:	3b01                	addiw	s6,s6,-32
 33e:	490b390b          	0x490b390b
 342:	00170213          	addi	tp,a4,1
 346:	0700                	addi	s0,sp,896
 348:	011d                	addi	sp,sp,7
 34a:	1331                	addi	t1,t1,-20
 34c:	0152                	slli	sp,sp,0x14
 34e:	1755                	addi	a4,a4,-11
 350:	0b58                	addi	a4,sp,404
 352:	0b59                	addi	s6,s6,22
 354:	00000b57          	0xb57
 358:	1d08                	addi	a0,sp,688
 35a:	3101                	addiw	sp,sp,-32
 35c:	55015213          	0x55015213
 360:	590b5817          	auipc	a6,0x590b5
 364:	010b570b          	0x10b570b
 368:	09000013          	li	zero,144
 36c:	0034                	addi	a3,sp,8
 36e:	213a0803          	lb	a6,531(s4)
 372:	3b01                	addiw	s6,s6,-32
 374:	490b390b          	0x490b390b
 378:	00170213          	addi	tp,a4,1
 37c:	0a00                	addi	s0,sp,272
 37e:	0005                	c.nop	1
 380:	0b3a0803          	lb	a6,179(s4)
 384:	0b390b3b          	0xb390b3b
 388:	1349                	addi	t1,t1,-14
 38a:	0000                	unimp
 38c:	0b00240b          	0xb00240b
 390:	030b3e0b          	0x30b3e0b
 394:	000e                	c.slli	zero,0x3
 396:	0c00                	addi	s0,sp,528
 398:	0148                	addi	a0,sp,132
 39a:	017d                	addi	sp,sp,31
 39c:	137f                	0x137f
 39e:	1301                	addi	t1,t1,-32
 3a0:	0000                	unimp
 3a2:	2e0d                	addiw	t3,t3,3
 3a4:	3f01                	addiw	t5,t5,-32
 3a6:	0319                	addi	t1,t1,6
 3a8:	3a0e                	fld	fs4,224(sp)
 3aa:	0121                	addi	sp,sp,8
 3ac:	21390b3b          	0x21390b3b
 3b0:	2706                	fld	fa4,64(sp)
 3b2:	1119                	addi	sp,sp,-26
 3b4:	1201                	addi	tp,tp,-32
 3b6:	7a184007          	flq	ft0,1953(a6) # 590b5b01 <end+0x580b3b01>
 3ba:	0119                	addi	sp,sp,6
 3bc:	0e000013          	li	zero,224
 3c0:	0005                	c.nop	1
 3c2:	213a0803          	lb	a6,531(s4)
 3c6:	3b01                	addiw	s6,s6,-32
 3c8:	490b390b          	0x490b390b
 3cc:	00170213          	addi	tp,a4,1
 3d0:	0f00                	addi	s0,sp,912
 3d2:	0034                	addi	a3,sp,8
 3d4:	213a0e03          	lb	t3,531(s4)
 3d8:	3b01                	addiw	s6,s6,-32
 3da:	490b390b          	0x490b390b
 3de:	00170213          	addi	tp,a4,1
 3e2:	1000                	addi	s0,sp,32
 3e4:	0034                	addi	a3,sp,8
 3e6:	213a0803          	lb	a6,531(s4)
 3ea:	3b04                	fld	fs1,48(a4)
 3ec:	0f21390b          	0xf21390b
 3f0:	1349                	addi	t1,t1,-14
 3f2:	0000                	unimp
 3f4:	0511                	addi	a0,a0,4
 3f6:	0300                	addi	s0,sp,384
 3f8:	3a08                	fld	fa0,48(a2)
 3fa:	0121                	addi	sp,sp,8
 3fc:	0b390b3b          	0xb390b3b
 400:	1349                	addi	t1,t1,-14
 402:	1802                	slli	a6,a6,0x20
 404:	0000                	unimp
 406:	4812                	lw	a6,4(sp)
 408:	7d01                	lui	s10,0xfffe0
 40a:	7f01                	lui	t5,0xfffe0
 40c:	13000013          	li	zero,304
 410:	011d                	addi	sp,sp,7
 412:	1331                	addi	t1,t1,-20
 414:	0111                	addi	sp,sp,4
 416:	0712                	slli	a4,a4,0x4
 418:	2158                	fld	fa4,128(a0)
 41a:	5901                	li	s2,-32
 41c:	010b570b          	0x10b570b
 420:	14000013          	li	zero,320
 424:	012e                	slli	sp,sp,0xb
 426:	0b3a0e03          	lb	t3,179(s4)
 42a:	21390b3b          	0x21390b3b
 42e:	2714                	fld	fa3,8(a4)
 430:	2019                	0x2019
 432:	0321                	addi	t1,t1,8
 434:	1301                	addi	t1,t1,-32
 436:	0000                	unimp
 438:	0115                	addi	sp,sp,5
 43a:	4901                	li	s2,0
 43c:	00130113          	addi	sp,t1,1
 440:	1600                	addi	s0,sp,800
 442:	0034                	addi	a3,sp,8
 444:	213a0803          	lb	a6,531(s4)
 448:	3b01                	addiw	s6,s6,-32
 44a:	490b390b          	0x490b390b
 44e:	00180213          	addi	tp,a6,1
 452:	1700                	addi	s0,sp,928
 454:	210b000f          	0x210b000f
 458:	4908                	lw	a0,16(a0)
 45a:	18000013          	li	zero,384
 45e:	0034                	addi	a3,sp,8
 460:	213a0e03          	lb	t3,531(s4)
 464:	390b3b03          	ld	s6,912(s6) # fffffffffffe1390 <end+0xfffffffffefdf390>
 468:	3f13490b          	0x3f13490b
 46c:	3c19                	addiw	s8,s8,-26
 46e:	0019                	c.nop	6
 470:	1900                	addi	s0,sp,176
 472:	0021                	c.nop	8
 474:	1349                	addi	t1,t1,-14
 476:	00000b2f          	0xb2f
 47a:	0b1a                	slli	s6,s6,0x6
 47c:	5501                	li	a0,-32
 47e:	1b000017          	auipc	zero,0x1b000
 482:	0034                	addi	a3,sp,8
 484:	213a0803          	lb	a6,531(s4)
 488:	3b01                	addiw	s6,s6,-32
 48a:	3905                	addiw	s2,s2,-31
 48c:	0213490b          	0x213490b
 490:	1c000017          	auipc	zero,0x1c000
 494:	0018                	0x18
 496:	0000                	unimp
 498:	341d                	addiw	s0,s0,-25
 49a:	0300                	addi	s0,sp,384
 49c:	3a0e                	fld	fs4,224(sp)
 49e:	0e213b0b          	0xe213b0b
 4a2:	0b39                	addi	s6,s6,14
 4a4:	1349                	addi	t1,t1,-14
 4a6:	0000                	unimp
 4a8:	111e                	slli	sp,sp,0x27
 4aa:	2501                	sext.w	a0,a0
 4ac:	130e                	slli	t1,t1,0x23
 4ae:	1b1f030b          	0x1b1f030b
 4b2:	111f 1201 1007      	0x10071201111f
 4b8:	1f000017          	auipc	zero,0x1f000
 4bc:	0016                	c.slli	zero,0x5
 4be:	0b3a0803          	lb	a6,179(s4)
 4c2:	0b390b3b          	0xb390b3b
 4c6:	1349                	addi	t1,t1,-14
 4c8:	0000                	unimp
 4ca:	2420                	fld	fs0,72(s0)
 4cc:	0b00                	addi	s0,sp,400
 4ce:	030b3e0b          	0x30b3e0b
 4d2:	0008                	0x8
 4d4:	2100                	fld	fs0,0(a0)
 4d6:	0016                	c.slli	zero,0x5
 4d8:	0b3a0e03          	lb	t3,179(s4)
 4dc:	0b390b3b          	0xb390b3b
 4e0:	1349                	addi	t1,t1,-14
 4e2:	0000                	unimp
 4e4:	0f22                	slli	t5,t5,0x8
 4e6:	0b00                	addi	s0,sp,400
 4e8:	000e030b          	0xe030b
 4ec:	2300                	fld	fs0,0(a4)
 4ee:	0026                	c.slli	zero,0x9
 4f0:	1349                	addi	t1,t1,-14
 4f2:	0000                	unimp
 4f4:	2124                	fld	fs1,64(a0)
 4f6:	0000                	unimp
 4f8:	2500                	fld	fs0,8(a0)
 4fa:	0034                	addi	a3,sp,8
 4fc:	0b3a0e03          	lb	t3,179(s4)
 500:	0b390b3b          	0xb390b3b
 504:	1349                	addi	t1,t1,-14
 506:	0e1c                	addi	a5,sp,784
 508:	0000                	unimp
 50a:	0b26                	slli	s6,s6,0x9
 50c:	5501                	li	a0,-32
 50e:	00130117          	auipc	sp,0x130
 512:	2700                	fld	fs0,8(a4)
 514:	0034                	addi	a3,sp,8
 516:	0b3a0e03          	lb	t3,179(s4)
 51a:	0b39053b          	0xb39053b
 51e:	1349                	addi	t1,t1,-14
 520:	1702                	slli	a4,a4,0x20
 522:	0000                	unimp
 524:	0b28                	addi	a0,sp,408
 526:	1101                	addi	sp,sp,-32
 528:	1201                	addi	tp,tp,-32
 52a:	29000007          	0x29000007
 52e:	012e                	slli	sp,sp,0xb
 530:	0b3a0e03          	lb	t3,179(s4)
 534:	0b390b3b          	0xb390b3b
 538:	01111927          	0x1111927
 53c:	0712                	slli	a4,a4,0x4
 53e:	1840                	addi	s0,sp,52
 540:	197a                	slli	s2,s2,0x3e
 542:	1301                	addi	t1,t1,-32
 544:	0000                	unimp
 546:	2e2a                	fld	ft8,136(sp)
 548:	0300                	addi	s0,sp,384
 54a:	3a0e                	fld	fs4,224(sp)
 54c:	390b3b0b          	0x390b3b0b
 550:	000b200b          	0xb200b
 554:	2b00                	fld	fs0,16(a4)
 556:	0005                	c.nop	1
 558:	0b3a0e03          	lb	t3,179(s4)
 55c:	0b390b3b          	0xb390b3b
 560:	1349                	addi	t1,t1,-14
 562:	0000                	unimp
 564:	2e2c                	fld	fa1,88(a2)
 566:	3f01                	addiw	t5,t5,-32
 568:	0319                	addi	t1,t1,6
 56a:	3a0e                	fld	fs4,224(sp)
 56c:	390b3b0b          	0x390b3b0b
 570:	4919270b          	0x4919270b
 574:	000b2013          	slti	zero,s6,0
 578:	0000                	unimp
 57a:	0501                	addi	a0,a0,0
 57c:	3100                	fld	fs0,32(a0)
 57e:	00170213          	addi	tp,a4,1
 582:	0200                	addi	s0,sp,256
 584:	0034                	addi	a3,sp,8
 586:	1331                	addi	t1,t1,-20
 588:	1802                	slli	a6,a6,0x20
 58a:	0000                	unimp
 58c:	03000d03          	lb	s10,48(zero) # 30 <_text-0x9fffd0>
 590:	3a0e                	fld	fs4,224(sp)
 592:	0521                	addi	a0,a0,8
 594:	0b390b3b          	0xb390b3b
 598:	1349                	addi	t1,t1,-14
 59a:	0b38                	addi	a4,sp,408
 59c:	0000                	unimp
 59e:	0504                	addi	s1,sp,640
 5a0:	0300                	addi	s0,sp,384
 5a2:	3a08                	fld	fa0,48(a2)
 5a4:	0121                	addi	sp,sp,8
 5a6:	0b390b3b          	0xb390b3b
 5aa:	1349                	addi	t1,t1,-14
 5ac:	1702                	slli	a4,a4,0x20
 5ae:	0000                	unimp
 5b0:	0505                	addi	a0,a0,1
 5b2:	0300                	addi	s0,sp,384
 5b4:	3a08                	fld	fa0,48(a2)
 5b6:	390b3b0b          	0x390b3b0b
 5ba:	0013490b          	0x13490b
 5be:	0600                	addi	s0,sp,768
 5c0:	012e                	slli	sp,sp,0xb
 5c2:	0e03193f 3b01213a 	0x3b01213a0e03193f
 5ca:	270b390b          	0x270b390b
 5ce:	4919                	li	s2,6
 5d0:	12011113          	0x12011113
 5d4:	7a184007          	flq	ft0,1953(a6)
 5d8:	0119                	addi	sp,sp,6
 5da:	07000013          	li	zero,112
 5de:	0024                	addi	s1,sp,8
 5e0:	0b3e0b0b          	0xb3e0b0b
 5e4:	00000e03          	lb	t3,0(zero) # 0 <_text-0xa00000>
 5e8:	3408                	fld	fa0,40(s0)
 5ea:	0300                	addi	s0,sp,384
 5ec:	3a08                	fld	fa0,48(a2)
 5ee:	0121                	addi	sp,sp,8
 5f0:	0b390b3b          	0xb390b3b
 5f4:	1349                	addi	t1,t1,-14
 5f6:	1702                	slli	a4,a4,0x20
 5f8:	0000                	unimp
 5fa:	1d09                	addi	s10,s10,-30
 5fc:	3101                	addiw	sp,sp,-32
 5fe:	12011113          	0x12011113
 602:	590b5807          	0x590b5807
 606:	000b570b          	0xb570b
 60a:	0a00                	addi	s0,sp,272
 60c:	0034                	addi	a3,sp,8
 60e:	213a0803          	lb	a6,531(s4)
 612:	390b3b03          	ld	s6,912(s6)
 616:	0f21                	addi	t5,t5,8
 618:	1349                	addi	t1,t1,-14
 61a:	0000                	unimp
 61c:	0300340b          	0x300340b
 620:	3a08                	fld	fa0,48(a2)
 622:	0121                	addi	sp,sp,8
 624:	0b390b3b          	0xb390b3b
 628:	1349                	addi	t1,t1,-14
 62a:	1802                	slli	a6,a6,0x20
 62c:	0000                	unimp
 62e:	2e0c                	fld	fa1,24(a2)
 630:	0301                	addi	t1,t1,0
 632:	3a0e                	fld	fs4,224(sp)
 634:	0221                	addi	tp,tp,8
 636:	21390b3b          	0x21390b3b
 63a:	49192713          	slti	a4,s2,1169
 63e:	03212013          	slti	zero,sp,50
 642:	1301                	addi	t1,t1,-32
 644:	0000                	unimp
 646:	0f0d                	addi	t5,t5,3
 648:	0b00                	addi	s0,sp,400
 64a:	0821                	addi	a6,a6,8
 64c:	1349                	addi	t1,t1,-14
 64e:	0000                	unimp
 650:	1d0e                	slli	s10,s10,0x23
 652:	3101                	addiw	sp,sp,-32
 654:	12011113          	0x12011113
 658:	01215807          	0x1215807
 65c:	0b59                	addi	s6,s6,22
 65e:	13010b57          	0x13010b57
 662:	0000                	unimp
 664:	0300050f          	0x300050f
 668:	3a08                	fld	fa0,48(a2)
 66a:	0121                	addi	sp,sp,8
 66c:	0b390b3b          	0xb390b3b
 670:	1349                	addi	t1,t1,-14
 672:	1802                	slli	a6,a6,0x20
 674:	0000                	unimp
 676:	1610                	addi	a2,sp,800
 678:	0300                	addi	s0,sp,384
 67a:	3a08                	fld	fa0,48(a2)
 67c:	0421                	addi	s0,s0,8
 67e:	21390b3b          	0x21390b3b
 682:	4930                	lw	a2,80(a0)
 684:	11000013          	li	zero,272
 688:	0016                	c.slli	zero,0x5
 68a:	213a0e03          	lb	t3,531(s4)
 68e:	3b04                	fld	fs1,48(a4)
 690:	490b390b          	0x490b390b
 694:	12000013          	li	zero,288
 698:	0101                	addi	sp,sp,0
 69a:	1349                	addi	t1,t1,-14
 69c:	1301                	addi	t1,t1,-32
 69e:	0000                	unimp
 6a0:	49002113          	slti	sp,zero,1168
 6a4:	000b2f13          	slti	t5,s6,0
 6a8:	1400                	addi	s0,sp,544
 6aa:	0049                	c.nop	18
 6ac:	1802                	slli	a6,a6,0x20
 6ae:	187e                	slli	a6,a6,0x3f
 6b0:	0000                	unimp
 6b2:	3415                	addiw	s0,s0,-27
 6b4:	0300                	addi	s0,sp,384
 6b6:	3a0e                	fld	fs4,224(sp)
 6b8:	0121                	addi	sp,sp,8
 6ba:	0b390b3b          	0xb390b3b
 6be:	1349                	addi	t1,t1,-14
 6c0:	1802                	slli	a6,a6,0x20
 6c2:	0000                	unimp
 6c4:	0516                	slli	a0,a0,0x5
 6c6:	0300                	addi	s0,sp,384
 6c8:	3a0e                	fld	fs4,224(sp)
 6ca:	0221                	addi	tp,tp,8
 6cc:	0b390b3b          	0xb390b3b
 6d0:	1349                	addi	t1,t1,-14
 6d2:	0000                	unimp
 6d4:	25011117          	auipc	sp,0x25011
 6d8:	130e                	slli	t1,t1,0x23
 6da:	1b1f030b          	0x1b1f030b
 6de:	111f 1201 1007      	0x10071201111f
 6e4:	18000017          	auipc	zero,0x18000
 6e8:	0024                	addi	s1,sp,8
 6ea:	0b3e0b0b          	0xb3e0b0b
 6ee:	00000803          	lb	a6,0(zero) # 0 <_text-0xa00000>
 6f2:	1319                	addi	t1,t1,-26
 6f4:	0301                	addi	t1,t1,0
 6f6:	0b0e                	slli	s6,s6,0x3
 6f8:	3b0b3a0b          	0x3b0b3a0b
 6fc:	010b390b          	0x10b390b
 700:	1a000013          	li	zero,416
 704:	0026                	c.slli	zero,0x9
 706:	1349                	addi	t1,t1,-14
 708:	0000                	unimp
 70a:	0300341b          	0x300341b
 70e:	3a0e                	fld	fs4,224(sp)
 710:	390b3b0b          	0x390b3b0b
 714:	1c13490b          	0x1c13490b
 718:	000e                	c.slli	zero,0x3
 71a:	1c00                	addi	s0,sp,560
 71c:	0148                	addi	a0,sp,132
 71e:	017d                	addi	sp,sp,31
 720:	137f                	0x137f
 722:	0000                	unimp
 724:	0f1d                	addi	t5,t5,7
 726:	0b00                	addi	s0,sp,400
 728:	1e00000b          	0x1e00000b
 72c:	0026                	c.slli	zero,0x9
 72e:	0000                	unimp
 730:	051f 0300 3a0e      	0x3a0e0300051f
 736:	390b3b0b          	0x390b3b0b
 73a:	0213490b          	0x213490b
 73e:	0018                	0x18
 740:	2000                	fld	fs0,0(s0)
 742:	0005                	c.nop	1
 744:	0b3a0e03          	lb	t3,179(s4)
 748:	0b390b3b          	0xb390b3b
 74c:	1349                	addi	t1,t1,-14
 74e:	1702                	slli	a4,a4,0x20
 750:	0000                	unimp
 752:	1d21                	addi	s10,s10,-24
 754:	3101                	addiw	sp,sp,-32
 756:	55015213          	0x55015213
 75a:	590b5817          	auipc	a6,0x590b5
 75e:	010b570b          	0x10b570b
 762:	22000013          	li	zero,544
 766:	012e                	slli	sp,sp,0xb
 768:	0e03193f 0b3b0b3a 	0xb3b0b3a0e03193f
 770:	0b39                	addi	s6,s6,14
 772:	13491927          	0x13491927
 776:	0b20                	addi	s0,sp,408
 778:	0000                	unimp
 77a:	03003423          	sd	a6,40(zero) # 28 <_text-0x9fffd8>
 77e:	3a0e                	fld	fs4,224(sp)
 780:	390b3b0b          	0x390b3b0b
 784:	0013490b          	0x13490b
 788:	0000                	unimp
 78a:	0501                	addi	a0,a0,0
 78c:	3100                	fld	fs0,32(a0)
 78e:	00170213          	addi	tp,a4,1
 792:	0200                	addi	s0,sp,256
 794:	0024                	addi	s1,sp,8
 796:	0b3e0b0b          	0xb3e0b0b
 79a:	00000e03          	lb	t3,0(zero) # 0 <_text-0xa00000>
 79e:	03000503          	lb	a0,48(zero) # 30 <_text-0x9fffd0>
 7a2:	3a08                	fld	fa0,48(a2)
 7a4:	390b3b0b          	0x390b3b0b
 7a8:	0013490b          	0x13490b
 7ac:	0400                	addi	s0,sp,512
 7ae:	0034                	addi	a3,sp,8
 7b0:	0b3a0803          	lb	a6,179(s4)
 7b4:	0b390b3b          	0xb390b3b
 7b8:	1349                	addi	t1,t1,-14
 7ba:	0000                	unimp
 7bc:	3405                	addiw	s0,s0,-31
 7be:	3100                	fld	fs0,32(a0)
 7c0:	00180213          	addi	tp,a6,1 # 590b575b <end+0x580b375b>
 7c4:	0600                	addi	s0,sp,768
 7c6:	0016                	c.slli	zero,0x5
 7c8:	0b3a0e03          	lb	t3,179(s4)
 7cc:	0b390b3b          	0xb390b3b
 7d0:	1349                	addi	t1,t1,-14
 7d2:	0000                	unimp
 7d4:	0b000f07          	0xb000f07
 7d8:	0821                	addi	a6,a6,8
 7da:	1349                	addi	t1,t1,-14
 7dc:	0000                	unimp
 7de:	0d08                	addi	a0,sp,656
 7e0:	0300                	addi	s0,sp,384
 7e2:	3a08                	fld	fa0,48(a2)
 7e4:	0121                	addi	sp,sp,8
 7e6:	0b390b3b          	0xb390b3b
 7ea:	1349                	addi	t1,t1,-14
 7ec:	0000                	unimp
 7ee:	3409                	addiw	s0,s0,-30
 7f0:	0300                	addi	s0,sp,384
 7f2:	3a0e                	fld	fs4,224(sp)
 7f4:	0121                	addi	sp,sp,8
 7f6:	0b390b3b          	0xb390b3b
 7fa:	1349                	addi	t1,t1,-14
 7fc:	1802                	slli	a6,a6,0x20
 7fe:	0000                	unimp
 800:	340a                	fld	fs0,160(sp)
 802:	0300                	addi	s0,sp,384
 804:	3a08                	fld	fa0,48(a2)
 806:	0121                	addi	sp,sp,8
 808:	21390b3b          	0x21390b3b
 80c:	490d                	li	s2,3
 80e:	00170213          	addi	tp,a4,1
 812:	0b00                	addi	s0,sp,400
 814:	0034                	addi	a3,sp,8
 816:	213a0e03          	lb	t3,531(s4)
 81a:	3b01                	addiw	s6,s6,-32
 81c:	490b390b          	0x490b390b
 820:	00170213          	addi	tp,a4,1
 824:	0c00                	addi	s0,sp,528
 826:	0034                	addi	a3,sp,8
 828:	1331                	addi	t1,t1,-20
 82a:	1702                	slli	a4,a4,0x20
 82c:	0000                	unimp
 82e:	2e0d                	addiw	t3,t3,3
 830:	0301                	addi	t1,t1,0
 832:	3a0e                	fld	fs4,224(sp)
 834:	390b3b0b          	0x390b3b0b
 838:	4919270b          	0x4919270b
 83c:	010b2013          	slti	zero,s6,16
 840:	0e000013          	li	zero,224
 844:	0111                	addi	sp,sp,4
 846:	0e25                	addi	t3,t3,9
 848:	1f030b13          	addi	s6,t1,496
 84c:	01111f1b          	slliw	t5,sp,0x11
 850:	0712                	slli	a4,a4,0x4
 852:	1710                	addi	a2,sp,928
 854:	0000                	unimp
 856:	0300160f          	0x300160f
 85a:	3a08                	fld	fa0,48(a2)
 85c:	390b3b0b          	0x390b3b0b
 860:	0013490b          	0x13490b
 864:	1000                	addi	s0,sp,32
 866:	0024                	addi	s1,sp,8
 868:	0b3e0b0b          	0xb3e0b0b
 86c:	00000803          	lb	a6,0(zero) # 0 <_text-0xa00000>
 870:	0111                	addi	sp,sp,4
 872:	4901                	li	s2,0
 874:	00130113          	addi	sp,t1,1
 878:	1200                	addi	s0,sp,288
 87a:	0021                	c.nop	8
 87c:	1349                	addi	t1,t1,-14
 87e:	00000b2f          	0xb2f
 882:	03003413          	sltiu	s0,zero,48
 886:	3a0e                	fld	fs4,224(sp)
 888:	390b3b0b          	0x390b3b0b
 88c:	1c13490b          	0x1c13490b
 890:	000e                	c.slli	zero,0x3
 892:	1400                	addi	s0,sp,544
 894:	0b0b0113          	addi	sp,s6,176
 898:	0b3a                	slli	s6,s6,0xe
 89a:	0b390b3b          	0xb390b3b
 89e:	1301                	addi	t1,t1,-32
 8a0:	0000                	unimp
 8a2:	0d15                	addi	s10,s10,5
 8a4:	0300                	addi	s0,sp,384
 8a6:	3a08                	fld	fa0,48(a2)
 8a8:	390b3b0b          	0x390b3b0b
 8ac:	3813490b          	0x3813490b
 8b0:	1600000b          	0x1600000b
 8b4:	000d                	c.nop	3
 8b6:	0b3a0e03          	lb	t3,179(s4)
 8ba:	0b390b3b          	0xb390b3b
 8be:	1349                	addi	t1,t1,-14
 8c0:	0b38                	addi	a4,sp,408
 8c2:	0000                	unimp
 8c4:	03011717          	auipc	a4,0x3011
 8c8:	0b0e                	slli	s6,s6,0x3
 8ca:	3b0b3a0b          	0x3b0b3a0b
 8ce:	010b390b          	0x10b390b
 8d2:	18000013          	li	zero,384
 8d6:	012e                	slli	sp,sp,0xb
 8d8:	0e03193f 0b3b0b3a 	0xb3b0b3a0e03193f
 8e0:	0b39                	addi	s6,s6,14
 8e2:	13491927          	0x13491927
 8e6:	0111                	addi	sp,sp,4
 8e8:	0712                	slli	a4,a4,0x4
 8ea:	1840                	addi	s0,sp,52
 8ec:	197a                	slli	s2,s2,0x3e
 8ee:	1301                	addi	t1,t1,-32
 8f0:	0000                	unimp
 8f2:	0519                	addi	a0,a0,6
 8f4:	0300                	addi	s0,sp,384
 8f6:	3a0e                	fld	fs4,224(sp)
 8f8:	390b3b0b          	0x390b3b0b
 8fc:	0213490b          	0x213490b
 900:	1a000017          	auipc	zero,0x1a000
 904:	011d                	addi	sp,sp,7
 906:	1331                	addi	t1,t1,-20
 908:	0152                	slli	sp,sp,0x14
 90a:	1755                	addi	a4,a4,-11
 90c:	0b58                	addi	a4,sp,404
 90e:	0b59                	addi	s6,s6,22
 910:	00000b57          	0xb57
 914:	55010b1b          	addiw	s6,sp,1360
 918:	1c000017          	auipc	zero,0x1c000
 91c:	011d                	addi	sp,sp,7
 91e:	1331                	addi	t1,t1,-20
 920:	0152                	slli	sp,sp,0x14
 922:	1755                	addi	a4,a4,-11
 924:	0b58                	addi	a4,sp,404
 926:	0b59                	addi	s6,s6,22
 928:	13010b57          	0x13010b57
 92c:	0000                	unimp
 92e:	1d1d                	addi	s10,s10,-25
 930:	3101                	addiw	sp,sp,-32
 932:	12011113          	0x12011113
 936:	590b5807          	0x590b5807
 93a:	000b570b          	0xb570b
 93e:	1e00                	addi	s0,sp,816
 940:	0048                	addi	a0,sp,4
 942:	017d                	addi	sp,sp,31
 944:	137f                	0x137f
 946:	0000                	unimp
 948:	0f1f 0b00 000b      	0xb0b000f1f
 94e:	2000                	fld	fs0,0(s0)
 950:	012e                	slli	sp,sp,0xb
 952:	0e03193f 0b3b0b3a 	0xb3b0b3a0e03193f
 95a:	0b39                	addi	s6,s6,14
 95c:	01111927          	0x1111927
 960:	0712                	slli	a4,a4,0x4
 962:	1840                	addi	s0,sp,52
 964:	197a                	slli	s2,s2,0x3e
 966:	1301                	addi	t1,t1,-32
 968:	0000                	unimp
 96a:	0521                	addi	a0,a0,8
 96c:	0300                	addi	s0,sp,384
 96e:	3a08                	fld	fa0,48(a2)
 970:	390b3b0b          	0x390b3b0b
 974:	0213490b          	0x213490b
 978:	0018                	0x18
 97a:	2200                	fld	fs0,0(a2)
 97c:	0034                	addi	a3,sp,8
 97e:	0b3a0803          	lb	a6,179(s4)
 982:	0b390b3b          	0xb390b3b
 986:	1349                	addi	t1,t1,-14
 988:	1802                	slli	a6,a6,0x20
 98a:	0000                	unimp
 98c:	03000523          	sb	a6,42(zero) # 2a <_text-0x9fffd6>
 990:	3a0e                	fld	fs4,224(sp)
 992:	390b3b0b          	0x390b3b0b
 996:	0013490b          	0x13490b
 99a:	2400                	fld	fs0,8(s0)
 99c:	012e                	slli	sp,sp,0xb
 99e:	0e03193f 0b3b0b3a 	0xb3b0b3a0e03193f
 9a6:	0b39                	addi	s6,s6,14
 9a8:	13491927          	0x13491927
 9ac:	0b20                	addi	s0,sp,408
 9ae:	0000                	unimp
 9b0:	3425                	addiw	s0,s0,-23
 9b2:	0300                	addi	s0,sp,384
 9b4:	3a0e                	fld	fs4,224(sp)
 9b6:	390b3b0b          	0x390b3b0b
 9ba:	0013490b          	0x13490b
	...

Disassembly of section .debug_aranges:

0000000000000000 <.debug_aranges>:
   0:	002c                	addi	a1,sp,8
   2:	0000                	unimp
   4:	0002                	c.slli64	zero
   6:	0000                	unimp
   8:	0000                	unimp
   a:	0008                	0x8
   c:	0000                	unimp
   e:	0000                	unimp
  10:	0000                	unimp
  12:	00a0                	addi	s0,sp,72
  14:	0000                	unimp
  16:	0000                	unimp
  18:	0020                	addi	s0,sp,8
	...
  2e:	0000                	unimp
  30:	002c                	addi	a1,sp,8
  32:	0000                	unimp
  34:	0002                	c.slli64	zero
  36:	0028                	addi	a0,sp,8
  38:	0000                	unimp
  3a:	0008                	0x8
  3c:	0000                	unimp
  3e:	0000                	unimp
  40:	0020                	addi	s0,sp,8
  42:	00a0                	addi	s0,sp,72
  44:	0000                	unimp
  46:	0000                	unimp
  48:	00b8                	addi	a4,sp,72
	...
  5e:	0000                	unimp
  60:	002c                	addi	a1,sp,8
  62:	0000                	unimp
  64:	0002                	c.slli64	zero
  66:	03b0                	addi	a2,sp,456
  68:	0000                	unimp
  6a:	0008                	0x8
  6c:	0000                	unimp
  6e:	0000                	unimp
  70:	00d8                	addi	a4,sp,68
  72:	00a0                	addi	s0,sp,72
  74:	0000                	unimp
  76:	0000                	unimp
  78:	0044                	addi	s1,sp,4
	...
  8e:	0000                	unimp
  90:	002c                	addi	a1,sp,8
  92:	0000                	unimp
  94:	0002                	c.slli64	zero
  96:	0000064b          	fnmsub.s	fa2,ft0,ft0,ft0,rne
  9a:	0008                	0x8
  9c:	0000                	unimp
  9e:	0000                	unimp
  a0:	011c                	addi	a5,sp,128
  a2:	00a0                	addi	s0,sp,72
  a4:	0000                	unimp
  a6:	0000                	unimp
  a8:	0e50                	addi	a2,sp,788
	...
  be:	0000                	unimp
  c0:	002c                	addi	a1,sp,8
  c2:	0000                	unimp
  c4:	0002                	c.slli64	zero
  c6:	1db9                	addi	s11,s11,-18
  c8:	0000                	unimp
  ca:	0008                	0x8
  cc:	0000                	unimp
  ce:	0000                	unimp
  d0:	0f6c                	addi	a1,sp,924
  d2:	00a0                	addi	s0,sp,72
  d4:	0000                	unimp
  d6:	0000                	unimp
  d8:	0410                	addi	a2,sp,512
	...
  ee:	0000                	unimp
  f0:	002c                	addi	a1,sp,8
  f2:	0000                	unimp
  f4:	0002                	c.slli64	zero
  f6:	28ea                	fld	fa7,152(sp)
  f8:	0000                	unimp
  fa:	0008                	0x8
  fc:	0000                	unimp
  fe:	0000                	unimp
 100:	137c                	addi	a5,sp,428
 102:	00a0                	addi	s0,sp,72
 104:	0000                	unimp
 106:	0000                	unimp
 108:	0208                	addi	a0,sp,256
	...

Disassembly of section .debug_str:

0000000000000000 <.debug_str>:
   0:	6e45                	lui	t3,0x11
   2:	7274                	ld	a3,224(a2)
   4:	2e79                	addiw	t3,t3,30
   6:	682f0053          	0x682f0053
   a:	2f656d6f          	jal	s10,56300 <_text-0x9a9d00>
   e:	6e656863          	bltu	a0,t1,6fe <_text-0x9ff902>
  12:	696a                	ld	s2,152(sp)
  14:	7579                	lui	a0,0xffffe
  16:	6e61                	lui	t3,0x18
  18:	7365442f          	0x7365442f
  1c:	706f746b          	0x706f746b
  20:	2d534f2f          	0x2d534f2f
  24:	4952                	lw	s2,20(sp)
  26:	2f564353          	0x2f564353
  2a:	7375                	lui	t1,0xffffd
  2c:	7265                	lui	tp,0xffff9
  2e:	4700                	lw	s0,8(a4)
  30:	554e                	lw	a0,240(sp)
  32:	4120                	lw	s0,64(a0)
  34:	2e322053          	0x2e322053
  38:	77003733          	0x77003733
  3c:	6972                	ld	s2,280(sp)
  3e:	6574                	ld	a3,200(a0)
  40:	7300                	ld	s0,32(a4)
  42:	6f68                	ld	a0,216(a4)
  44:	7472                	ld	s0,312(sp)
  46:	6920                	ld	s0,80(a0)
  48:	746e                	ld	s0,248(sp)
  4a:	7300                	ld	s0,32(a4)
  4c:	7379                	lui	t1,0xffffe
  4e:	6c6c6163          	bltu	s8,t1,710 <_text-0x9ff8f0>
  52:	695f 0064 6e75      	0x6e750064695f
  58:	696c                	ld	a1,208(a0)
  5a:	6b6e                	ld	s6,216(sp)
  5c:	7500                	ld	s0,40(a0)
  5e:	4d726573          	csrrsi	a0,0x4d7,4
  62:	6961                	lui	s2,0x18
  64:	006e                	c.slli	zero,0x1b
  66:	6f6c                	ld	a1,216(a4)
  68:	676e                	ld	a4,216(sp)
  6a:	6920                	ld	s0,80(a0)
  6c:	746e                	ld	s0,248(sp)
  6e:	7000                	ld	s0,32(s0)
  70:	6972                	ld	s2,280(sp)
  72:	746e                	ld	s0,248(sp)
  74:	0066                	c.slli	zero,0x19
  76:	3130                	fld	fa2,96(a0)
  78:	3332                	fld	ft6,296(sp)
  7a:	3534                	fld	fa3,104(a0)
  7c:	3736                	fld	fa4,360(sp)
  7e:	3938                	fld	fa4,112(a0)
  80:	6261                	lui	tp,0x18
  82:	66656463          	bltu	a0,t1,6ea <_text-0x9ff916>
  86:	6400                	ld	s0,8(s0)
  88:	6769                	lui	a4,0x1a
  8a:	7469                	lui	s0,0xffffa
  8c:	6e750073          	0x6e750073
  90:	6e676973          	csrrsi	s2,0x6e6,14
  94:	6465                	lui	s0,0x19
  96:	6320                	ld	s0,64(a4)
  98:	6168                	ld	a0,192(a0)
  9a:	0072                	c.slli	zero,0x1c
  9c:	7261                	lui	tp,0xffff8
  9e:	61006367          	0x61006367
  a2:	6772                	ld	a4,280(sp)
  a4:	0076                	c.slli	zero,0x1d
  a6:	726f6873          	csrrsi	a6,0x726,30
  aa:	2074                	fld	fa3,192(s0)
  ac:	6e75                	lui	t3,0x1d
  ae:	6e676973          	csrrsi	s2,0x6e6,14
  b2:	6465                	lui	s0,0x19
  b4:	6920                	ld	s0,80(a0)
  b6:	746e                	ld	s0,248(sp)
  b8:	6c00                	ld	s0,24(s0)
  ba:	20676e6f          	jal	t3,762c0 <_text-0x989d40>
  be:	6e75                	lui	t3,0x1d
  c0:	6e676973          	csrrsi	s2,0x6e6,14
  c4:	6465                	lui	s0,0x19
  c6:	6920                	ld	s0,80(a0)
  c8:	746e                	ld	s0,248(sp)
  ca:	7000                	ld	s0,32(s0)
  cc:	7461                	lui	s0,0xffff8
  ce:	0068                	addi	a0,sp,12
  d0:	20554e47          	fmsub.s	ft8,fa0,ft5,ft4,rmm
  d4:	20373143          	fmadd.s	ft2,fa4,ft3,ft4,rup
  d8:	3131                	addiw	sp,sp,-20
  da:	312e                	fld	ft2,232(sp)
  dc:	302e                	fld	ft0,232(sp)
  de:	2d20                	fld	fs0,88(a0)
  e0:	616d                	addi	sp,sp,240
  e2:	6372                	ld	t1,280(sp)
  e4:	3d68                	fld	fa0,248(a0)
  e6:	7672                	ld	a2,312(sp)
  e8:	3436                	fld	fs0,360(sp)
  ea:	6d2d2067          	0x6d2d2067
  ee:	6261                	lui	tp,0x18
  f0:	3d69                	addiw	s10,s10,-6
  f2:	706c                	ld	a1,224(s0)
  f4:	3436                	fld	fs0,360(sp)
  f6:	2066                	fld	ft0,88(sp)
  f8:	6d2d                	lui	s10,0xb
  fa:	646f6d63          	bltu	t5,t1,754 <_text-0x9ff8ac>
  fe:	6c65                	lui	s8,0x19
 100:	6d3d                	lui	s10,0xf
 102:	6465                	lui	s0,0x19
 104:	6e61                	lui	t3,0x18
 106:	2079                	0x2079
 108:	6d2d                	lui	s10,0xb
 10a:	6f6e                	ld	t5,216(sp)
 10c:	722d                	lui	tp,0xfffeb
 10e:	6c65                	lui	s8,0x19
 110:	7861                	lui	a6,0xffff8
 112:	2d20                	fld	fs0,88(a0)
 114:	746d                	lui	s0,0xffffb
 116:	6e75                	lui	t3,0x1d
 118:	3d65                	addiw	s10,s10,-7
 11a:	6f72                	ld	t5,280(sp)
 11c:	74656b63          	bltu	a0,t1,872 <_text-0x9ff78e>
 120:	2d20                	fld	fs0,88(a0)
 122:	616d                	addi	sp,sp,240
 124:	6372                	ld	t1,280(sp)
 126:	3d68                	fld	fa0,248(a0)
 128:	7672                	ld	a2,312(sp)
 12a:	3436                	fld	fs0,360(sp)
 12c:	6d69                	lui	s10,0x1a
 12e:	6661                	lui	a2,0x18
 130:	2064                	fld	fs1,192(s0)
 132:	672d                	lui	a4,0xb
 134:	20626467          	0x20626467
 138:	672d                	lui	a4,0xb
 13a:	2d20                	fld	fs0,88(a0)
 13c:	662d204f          	fnmadd.q	ft0,fs10,ft2,fa2,rdn
 140:	6f6e                	ld	t5,216(sp)
 142:	6f2d                	lui	t5,0xb
 144:	696d                	lui	s2,0x1b
 146:	2d74                	fld	fa3,216(a0)
 148:	7266                	ld	tp,120(sp)
 14a:	6d61                	lui	s10,0x18
 14c:	2d65                	addiw	s10,s10,25
 14e:	6f70                	ld	a2,216(a4)
 150:	6e69                	lui	t3,0x1a
 152:	6574                	ld	a3,200(a0)
 154:	2072                	fld	ft0,280(sp)
 156:	662d                	lui	a2,0xb
 158:	7266                	ld	tp,120(sp)
 15a:	6565                	lui	a0,0x19
 15c:	6e617473          	csrrci	s0,0x6e6,2
 160:	6964                	ld	s1,208(a0)
 162:	676e                	ld	a4,216(sp)
 164:	2d20                	fld	fs0,88(a0)
 166:	6e66                	ld	t3,88(sp)
 168:	6f632d6f          	jal	s10,3285e <_text-0x9cd7a2>
 16c:	6d6d                	lui	s10,0x1b
 16e:	2d206e6f          	jal	t3,6440 <_text-0x9f9bc0>
 172:	6e66                	ld	t3,88(sp)
 174:	74732d6f          	jal	s10,330ba <_text-0x9ccf46>
 178:	6361                	lui	t1,0x18
 17a:	72702d6b          	0x72702d6b
 17e:	6365746f          	jal	s0,577b4 <_text-0x9a884c>
 182:	6f74                	ld	a3,216(a4)
 184:	0072                	c.slli	zero,0x1c
 186:	736d                	lui	t1,0xffffb
 188:	7379                	lui	t1,0xffffe
 18a:	6c6c6163          	bltu	s8,t1,84c <_text-0x9ff7b4>
 18e:	6500                	ld	s0,8(a0)
 190:	766e                	ld	a2,248(sp)
 192:	78650073          	0x78650073
 196:	7469                	lui	s0,0xffffa
 198:	6c00                	ld	s0,24(s0)
 19a:	6269                	lui	tp,0x1a
 19c:	614d                	addi	sp,sp,176
 19e:	6e69                	lui	t3,0x1a
 1a0:	6100                	ld	s0,0(a0)
 1a2:	61757463          	bgeu	a0,s7,7aa <_text-0x9ff856>
 1a6:	4c6c                	lw	a1,92(s0)
 1a8:	6e65                	lui	t3,0x19
 1aa:	00687467          	0x687467
 1ae:	7270                	ld	a2,224(a2)
 1b0:	6e69                	lui	t3,0x1a
 1b2:	6674                	ld	a3,200(a2)
 1b4:	7542                	ld	a0,48(sp)
 1b6:	6666                	ld	a2,88(sp)
 1b8:	7265                	lui	tp,0xffff9
 1ba:	7000                	ld	s0,32(s0)
 1bc:	7475                	lui	s0,0xffffd
 1be:	69727453          	0x69727453
 1c2:	676e                	ld	a4,216(sp)
 1c4:	6c00                	ld	s0,24(s0)
 1c6:	6461                	lui	s0,0x18
 1c8:	756a                	ld	a0,184(sp)
 1ca:	70007473          	csrrci	s0,0x700,0
 1ce:	7475                	lui	s0,0xffffd
 1d0:	72616863          	bltu	sp,t1,900 <_text-0x9ff700>
 1d4:	6200                	ld	s0,0(a2)
 1d6:	6765                	lui	a4,0x19
 1d8:	6e69                	lui	t3,0x1a
 1da:	6100                	ld	s0,0(a0)
 1dc:	7070                	ld	a2,224(s0)
 1de:	6e65                	lui	t3,0x19
 1e0:	5364                	lw	s1,100(a4)
 1e2:	7274                	ld	a3,224(a2)
 1e4:	6e69                	lui	t3,0x1a
 1e6:	74730067          	jr	1863(t1) # ffffffffffffe747 <end+0xfffffffffeffc747>
 1ea:	7461                	lui	s0,0xffff8
 1ec:	6d65                	lui	s10,0x19
 1ee:	6e65                	lui	t3,0x19
 1f0:	0074                	addi	a3,sp,12
 1f2:	696c                	ld	a1,208(a0)
 1f4:	656e                	ld	a0,216(sp)
 1f6:	7700                	ld	s0,40(a4)
 1f8:	6469                	lui	s0,0x1a
 1fa:	6874                	ld	a3,208(s0)
 1fc:	6c00                	ld	s0,24(s0)
 1fe:	6e65                	lui	t3,0x19
 200:	00687467          	0x687467
 204:	6170                	ld	a2,192(a0)
 206:	6364                	ld	s1,192(a4)
 208:	6600                	ld	s0,8(a2)
 20a:	6e75                	lui	t3,0x1d
 20c:	6f6c0063          	beq	s8,s6,8ec <_text-0x9ff714>
 210:	676e                	ld	a4,216(sp)
 212:	6c46                	ld	s8,80(sp)
 214:	6761                	lui	a4,0x18
 216:	7000                	ld	s0,32(s0)
 218:	6972                	ld	s2,280(sp)
 21a:	746e                	ld	s0,248(sp)
 21c:	72616843          	fmadd.d	fa6,ft2,ft6,fa4,unknown
 220:	7000                	ld	s0,32(s0)
 222:	6972                	ld	s2,280(sp)
 224:	746e                	ld	s0,248(sp)
 226:	69727453          	0x69727453
 22a:	676e                	ld	a4,216(sp)
 22c:	6e00                	ld	s0,24(a2)
 22e:	6765                	lui	a4,0x19
 230:	6c46                	ld	s8,80(sp)
 232:	6761                	lui	a4,0x18
 234:	6600                	ld	s0,8(a2)
 236:	6c69                	lui	s8,0x1a
 238:	0065                	c.nop	25
 23a:	7270                	ld	a2,224(a2)
 23c:	6e69                	lui	t3,0x1a
 23e:	0074                	addi	a3,sp,12
 240:	7562                	ld	a0,56(sp)
 242:	6666                	ld	a2,88(sp)
 244:	7265                	lui	tp,0xffff9
 246:	654c                	ld	a1,136(a0)
 248:	006e                	c.slli	zero,0x1b
 24a:	7270                	ld	a2,224(a2)
 24c:	6e69                	lui	t3,0x1a
 24e:	4e74                	lw	a3,92(a2)
 250:	6d75                	lui	s10,0x1d
 252:	6100                	ld	s0,0(a0)
 254:	7070                	ld	a2,224(s0)
 256:	6e65                	lui	t3,0x19
 258:	4264                	lw	s1,68(a2)
 25a:	6675                	lui	a2,0x1d
 25c:	6566                	ld	a0,88(sp)
 25e:	0072                	c.slli	zero,0x1c
 260:	7562                	ld	a0,56(sp)
 262:	6666                	ld	a2,88(sp)
 264:	7265                	lui	tp,0xffff9
 266:	5f00                	lw	s0,56(a4)
 268:	625f 6975 746c      	0x746c6975625f
 26e:	6e69                	lui	t3,0x1a
 270:	765f 5f61 696c      	0x696c5f61765f
 276:	5f007473          	csrrci	s0,0x5f0,0
 27a:	6170                	ld	a2,192(a0)
 27c:	696e                	ld	s2,216(sp)
 27e:	5f005f63          	blez	a6,87c <_text-0x9ff784>
 282:	7361                	lui	t1,0xffff8
 284:	74726573          	csrrsi	a0,0x747,4
 288:	005f 7075 6163      	0x61637075005f
 28e:	70006573          	csrrsi	a0,0x700,0
 292:	6572                	ld	a0,280(sp)
 294:	6c630063          	beq	t1,t1,954 <_text-0x9ff6ac>
 298:	6165                	addi	sp,sp,112
 29a:	4272                	lw	tp,28(sp)
 29c:	6675                	lui	a2,0x1d
 29e:	6566                	ld	a0,88(sp)
 2a0:	0072                	c.slli	zero,0x1c
 2a2:	6162                	ld	sp,24(sp)
 2a4:	5f006573          	csrrsi	a0,0x5f0,0
 2a8:	755f 756e 6573      	0x6573756e755f
 2ae:	0064                	addi	s1,sp,12
 2b0:	735f7473          	csrrci	s0,0x735,30
 2b4:	7a69                	lui	s4,0xffffa
 2b6:	0065                	c.nop	25
 2b8:	656d                	lui	a0,0x1b
 2ba:	636d                	lui	t1,0x1b
 2bc:	7970                	ld	a2,240(a0)
 2be:	7500                	ld	s0,40(a0)
 2c0:	6e69                	lui	t3,0x1a
 2c2:	0074                	addi	a3,sp,12
 2c4:	6e5f7473          	csrrci	s0,0x6e5,30
 2c8:	696c                	ld	a1,208(a0)
 2ca:	6b6e                	ld	s6,216(sp)
 2cc:	7300                	ld	s0,32(a4)
 2ce:	7274                	ld	a3,224(a2)
 2d0:	00706d63          	bltu	zero,t2,2ea <_text-0x9ffd16>
 2d4:	625f7473          	csrrci	s0,0x625,30
 2d8:	6b6c                	ld	a1,208(a4)
 2da:	657a6973          	csrrsi	s2,0x657,20
 2de:	7600                	ld	s0,40(a2)
 2e0:	00637273          	csrrci	tp,0x6,6
 2e4:	5f5f 6170 0064      	0x6461705f5f
 2ea:	656d                	lui	a0,0x1b
 2ec:	636d                	lui	t1,0x1b
 2ee:	706d                	c.lui	zero,0xffffb
 2f0:	7300                	ld	s0,32(a4)
 2f2:	5f74                	lw	a3,124(a4)
 2f4:	7461                	lui	s0,0xffff8
 2f6:	6d69                	lui	s10,0x1a
 2f8:	5f65                	li	t5,-7
 2fa:	00636573          	csrrsi	a0,0x6,6
 2fe:	675f7473          	csrrci	s0,0x675,30
 302:	6469                	lui	s0,0x1a
 304:	7600                	ld	s0,40(a2)
 306:	7364                	ld	s1,224(a4)
 308:	0074                	addi	a3,sp,12
 30a:	656d                	lui	a0,0x1b
 30c:	736d                	lui	t1,0xffffb
 30e:	7465                	lui	s0,0xffff9
 310:	6300                	ld	s0,0(a4)
 312:	7364                	ld	s1,224(a4)
 314:	0074                	addi	a3,sp,12
 316:	73746567          	0x73746567
 31a:	7300                	ld	s0,32(a4)
 31c:	5f74                	lw	a3,124(a4)
 31e:	6d697463          	bgeu	s2,s6,9e6 <_text-0x9ff61a>
 322:	5f65                	li	t5,-7
 324:	00636573          	csrrsi	a0,0x6,6
 328:	6375                	lui	t1,0x1d
 32a:	6168                	ld	a0,192(a0)
 32c:	0072                	c.slli	zero,0x1c
 32e:	635f7473          	csrrci	s0,0x635,30
 332:	6974                	ld	a3,208(a0)
 334:	656d                	lui	a0,0x1b
 336:	6e5f 6573 0063      	0x6365736e5f
 33c:	7461                	lui	s0,0xffff8
 33e:	6d00696f          	jal	s2,6a0e <_text-0x9f95f2>
 342:	6d65                	lui	s10,0x19
 344:	6f6d                	lui	t5,0x1b
 346:	6576                	ld	a0,344(sp)
 348:	7300                	ld	s0,32(a4)
 34a:	5f74                	lw	a3,124(a4)
 34c:	6e69                	lui	t3,0x1a
 34e:	7473006f          	j	31294 <_text-0x9ced6c>
 352:	6372                	ld	t1,280(sp)
 354:	7268                	ld	a0,224(a2)
 356:	7200                	ld	s0,32(a2)
 358:	6165                	addi	sp,sp,112
 35a:	0064                	addi	s1,sp,12
 35c:	6c66                	ld	s8,88(sp)
 35e:	6761                	lui	a4,0x18
 360:	73660073          	0x73660073
 364:	6174                	ld	a3,192(a0)
 366:	0074                	addi	a3,sp,12
 368:	615f7473          	csrrci	s0,0x615,30
 36c:	6974                	ld	a3,208(a0)
 36e:	656d                	lui	a0,0x1b
 370:	6e5f 6573 0063      	0x6365736e5f
 376:	6c727473          	csrrci	s0,0x6c7,4
 37a:	6e65                	lui	t3,0x19
 37c:	7300                	ld	s0,32(a4)
 37e:	5f74                	lw	a3,124(a4)
 380:	6c62                	ld	s8,24(sp)
 382:	736b636f          	jal	t1,b6ab8 <_text-0x949548>
 386:	7300                	ld	s0,32(a4)
 388:	7274                	ld	a3,224(a2)
 38a:	00797063          	bgeu	s2,t2,38a <_text-0x9ffc76>
 38e:	5f5f 6170 3264      	0x326461705f5f
 394:	7300                	ld	s0,32(a4)
 396:	5f74                	lw	a3,124(a4)
 398:	6564                	ld	s1,200(a0)
 39a:	0076                	c.slli	zero,0x1d
 39c:	755f7473          	csrrci	s0,0x755,30
 3a0:	6469                	lui	s0,0x1a
 3a2:	7300                	ld	s0,32(a4)
 3a4:	5f74                	lw	a3,124(a4)
 3a6:	746d                	lui	s0,0xffffb
 3a8:	6d69                	lui	s10,0x1a
 3aa:	5f65                	li	t5,-7
 3ac:	00636573          	csrrsi	a0,0x6,6
 3b0:	725f7473          	csrrci	s0,0x725,30
 3b4:	6564                	ld	s1,200(a0)
 3b6:	0076                	c.slli	zero,0x1d
 3b8:	6162                	ld	sp,24(sp)
 3ba:	70736b63          	bltu	t1,t2,ad0 <_text-0x9ff530>
 3be:	6361                	lui	t1,0x18
 3c0:	0065                	c.nop	25
 3c2:	6e65706f          	j	57aa8 <_text-0x9a8558>
 3c6:	6300                	ld	s0,0(a4)
 3c8:	6f6c                	ld	a1,216(a4)
 3ca:	73006573          	csrrsi	a0,0x730,0
 3ce:	5f74                	lw	a3,124(a4)
 3d0:	6f6d                	lui	t5,0x1b
 3d2:	6564                	ld	s1,200(a0)
 3d4:	7300                	ld	s0,32(a4)
 3d6:	5f74                	lw	a3,124(a4)
 3d8:	746d                	lui	s0,0xffffb
 3da:	6d69                	lui	s10,0x1a
 3dc:	5f65                	li	t5,-7
 3de:	736e                	ld	t1,248(sp)
 3e0:	6365                	lui	t1,0x19
 3e2:	6800                	ld	s0,16(s0)
 3e4:	6165                	addi	sp,sp,112
 3e6:	6564                	ld	s1,200(a0)
 3e8:	0072                	c.slli	zero,0x1c
 3ea:	7266                	ld	tp,120(sp)
 3ec:	6565                	lui	a0,0x19
 3ee:	0070                	addi	a2,sp,12
 3f0:	616d                	addi	sp,sp,240
 3f2:	6c6c                	ld	a1,216(s0)
 3f4:	7000636f          	jal	t1,6af4 <_text-0x9f950c>
 3f8:	6572                	ld	a0,280(sp)
 3fa:	7076                	0x7076
 3fc:	6d00                	ld	s0,24(a0)
 3fe:	6365726f          	jal	tp,57a34 <_text-0x9a85cc>
 402:	0065726f          	jal	tp,57408 <_text-0x9a8bf8>
 406:	6548                	ld	a0,136(a0)
 408:	6461                	lui	s0,0x18
 40a:	7265                	lui	tp,0xffff9
 40c:	6600                	ld	s0,8(a2)
 40e:	6572                	ld	a0,280(sp)
 410:	0065                	c.nop	25
 412:	756e                	ld	a0,248(sp)
 414:	696e                	ld	s2,216(sp)
 416:	7374                	ld	a3,224(a4)
 418:	4100                	lw	s0,0(a0)
 41a:	696c                	ld	a1,208(a0)
 41c:	73006e67          	0x73006e67
 420:	7262                	ld	tp,56(sp)
 422:	626e006b          	0x626e006b
 426:	7479                	lui	s0,0xffffe
 428:	7365                	lui	t1,0xffff9
	...

Disassembly of section .debug_loclists:

0000000000000000 <.debug_loclists>:
       0:	0208                	addi	a0,sp,256
       2:	0000                	unimp
       4:	0005                	c.nop	1
       6:	0008                	0x8
       8:	0000                	unimp
       a:	0000                	unimp
       c:	a0002007          	flw	ft0,-1536(zero) # fffffffffffffa00 <end+0xfffffffffeffda00>
      10:	0000                	unimp
      12:	0000                	unimp
      14:	4000                	lw	s0,0(s0)
      16:	a000                	fsd	fs0,0(s0)
      18:	0000                	unimp
      1a:	0000                	unimp
      1c:	0100                	addi	s0,sp,128
      1e:	075a                	slli	a4,a4,0x16
      20:	0040                	addi	s0,sp,4
      22:	00a0                	addi	s0,sp,72
      24:	0000                	unimp
      26:	0000                	unimp
      28:	0078                	addi	a4,sp,12
      2a:	00a0                	addi	s0,sp,72
      2c:	0000                	unimp
      2e:	0000                	unimp
      30:	a304                	fsd	fs1,0(a4)
      32:	5a01                	li	s4,-32
      34:	079f 0078 00a0      	0xa00078079f
      3a:	0000                	unimp
      3c:	0000                	unimp
      3e:	007c                	addi	a5,sp,12
      40:	00a0                	addi	s0,sp,72
      42:	0000                	unimp
      44:	0000                	unimp
      46:	5a01                	li	s4,-32
      48:	a0007c07          	0xa0007c07
      4c:	0000                	unimp
      4e:	0000                	unimp
      50:	d800                	sw	s0,48(s0)
      52:	a000                	fsd	fs0,0(s0)
      54:	0000                	unimp
      56:	0000                	unimp
      58:	0400                	addi	s0,sp,512
      5a:	9f5a01a3          	sb	s5,-1565(s4) # ffffffffffff99e3 <end+0xfffffffffeff79e3>
      5e:	0700                	addi	s0,sp,896
      60:	0020                	addi	s0,sp,8
      62:	00a0                	addi	s0,sp,72
      64:	0000                	unimp
      66:	0000                	unimp
      68:	003c                	addi	a5,sp,8
      6a:	00a0                	addi	s0,sp,72
      6c:	0000                	unimp
      6e:	0000                	unimp
      70:	5b01                	li	s6,-32
      72:	a0003c07          	fld	fs8,-1536(zero) # fffffffffffffa00 <end+0xfffffffffeffda00>
      76:	0000                	unimp
      78:	0000                	unimp
      7a:	4000                	lw	s0,0(s0)
      7c:	a000                	fsd	fs0,0(s0)
      7e:	0000                	unimp
      80:	0000                	unimp
      82:	0300                	addi	s0,sp,384
      84:	079f707b          	0x79f707b
      88:	0040                	addi	s0,sp,4
      8a:	00a0                	addi	s0,sp,72
      8c:	0000                	unimp
      8e:	0000                	unimp
      90:	0078                	addi	a4,sp,12
      92:	00a0                	addi	s0,sp,72
      94:	0000                	unimp
      96:	0000                	unimp
      98:	a304                	fsd	fs1,0(a4)
      9a:	5b01                	li	s6,-32
      9c:	079f 0078 00a0      	0xa00078079f
      a2:	0000                	unimp
      a4:	0000                	unimp
      a6:	0084                	addi	s1,sp,64
      a8:	00a0                	addi	s0,sp,72
      aa:	0000                	unimp
      ac:	0000                	unimp
      ae:	5b01                	li	s6,-32
      b0:	a0008407          	0xa0008407
      b4:	0000                	unimp
      b6:	0000                	unimp
      b8:	d800                	sw	s0,48(s0)
      ba:	a000                	fsd	fs0,0(s0)
      bc:	0000                	unimp
      be:	0000                	unimp
      c0:	0400                	addi	s0,sp,512
      c2:	9f5b01a3          	sb	s5,-1565(s6)
      c6:	0700                	addi	s0,sp,896
      c8:	0040                	addi	s0,sp,4
      ca:	00a0                	addi	s0,sp,72
      cc:	0000                	unimp
      ce:	0000                	unimp
      d0:	0068                	addi	a0,sp,12
      d2:	00a0                	addi	s0,sp,72
      d4:	0000                	unimp
      d6:	0000                	unimp
      d8:	800d                	srli	s0,s0,0x3
      da:	a300                	fsd	fs0,0(a4)
      dc:	5b01                	li	s6,-32
      de:	381c                	fld	fa5,48(s0)
      e0:	331c                	fld	fa5,32(a4)
      e2:	2325                	addiw	t1,t1,9
      e4:	9f01                	subw	a4,a4,s0
      e6:	a0006807          	0xa0006807
      ea:	0000                	unimp
      ec:	0000                	unimp
      ee:	6c00                	ld	s0,24(s0)
      f0:	a000                	fsd	fs0,0(s0)
      f2:	0000                	unimp
      f4:	0000                	unimp
      f6:	0d00                	addi	s0,sp,656
      f8:	0080                	addi	s0,sp,64
      fa:	1c5b01a3          	sb	t0,451(s6)
      fe:	1c38                	addi	a4,sp,568
     100:	02232533          	mulhsu	a0,t1,sp
     104:	079f 006c 00a0      	0xa0006c079f
     10a:	0000                	unimp
     10c:	0000                	unimp
     10e:	0078                	addi	a4,sp,12
     110:	00a0                	addi	s0,sp,72
     112:	0000                	unimp
     114:	0000                	unimp
     116:	800d                	srli	s0,s0,0x3
     118:	a300                	fsd	fs0,0(a4)
     11a:	5b01                	li	s6,-32
     11c:	401c                	lw	a5,0(s0)
     11e:	331c                	fld	fa5,32(a4)
     120:	2325                	addiw	t1,t1,9
     122:	9f02                	jalr	t5
     124:	a000a407          	flw	fs0,-1536(ra) # 2370 <_text-0x9fdc90>
     128:	0000                	unimp
     12a:	0000                	unimp
     12c:	c300                	sw	s0,0(a4)
     12e:	a000                	fsd	fs0,0(s0)
     130:	0000                	unimp
     132:	0000                	unimp
     134:	0d00                	addi	s0,sp,656
     136:	0080                	addi	s0,sp,64
     138:	1c5b01a3          	sb	t0,451(s6)
     13c:	1c38                	addi	a4,sp,568
     13e:	01232533          	slt	a0,t1,s2
     142:	009f 4007 a000      	0xa0004007009f
     148:	0000                	unimp
     14a:	0000                	unimp
     14c:	6000                	ld	s0,0(s0)
     14e:	a000                	fsd	fs0,0(s0)
     150:	0000                	unimp
     152:	0000                	unimp
     154:	0200                	addi	s0,sp,256
     156:	0080                	addi	s0,sp,64
     158:	0700                	addi	s0,sp,896
     15a:	0040                	addi	s0,sp,4
     15c:	00a0                	addi	s0,sp,72
     15e:	0000                	unimp
     160:	0000                	unimp
     162:	0060                	addi	s0,sp,12
     164:	00a0                	addi	s0,sp,72
     166:	0000                	unimp
     168:	0000                	unimp
     16a:	3002                	fld	ft0,32(sp)
     16c:	009f 4007 a000      	0xa0004007009f
     172:	0000                	unimp
     174:	0000                	unimp
     176:	6000                	ld	s0,0(s0)
     178:	a000                	fsd	fs0,0(s0)
     17a:	0000                	unimp
     17c:	0000                	unimp
     17e:	0300                	addi	s0,sp,384
     180:	9c09                	subw	s0,s0,a0
     182:	009f 4007 a000      	0xa0004007009f
     188:	0000                	unimp
     18a:	0000                	unimp
     18c:	6000                	ld	s0,0(s0)
     18e:	a000                	fsd	fs0,0(s0)
     190:	0000                	unimp
     192:	0000                	unimp
     194:	0300                	addi	s0,sp,384
     196:	2308                	fld	fa0,0(a4)
     198:	009f 7807 a000      	0xa0007807009f
     19e:	0000                	unimp
     1a0:	0000                	unimp
     1a2:	9c00                	0x9c00
     1a4:	a000                	fsd	fs0,0(s0)
     1a6:	0000                	unimp
     1a8:	0000                	unimp
     1aa:	0200                	addi	s0,sp,256
     1ac:	9f44                	0x9f44
     1ae:	0700                	addi	s0,sp,896
     1b0:	0078                	addi	a4,sp,12
     1b2:	00a0                	addi	s0,sp,72
     1b4:	0000                	unimp
     1b6:	0000                	unimp
     1b8:	009c                	addi	a5,sp,64
     1ba:	00a0                	addi	s0,sp,72
     1bc:	0000                	unimp
     1be:	0000                	unimp
     1c0:	030a                	slli	t1,t1,0x2
     1c2:	21a8                	fld	fa0,64(a1)
     1c4:	00a0                	addi	s0,sp,72
     1c6:	0000                	unimp
     1c8:	0000                	unimp
     1ca:	009f 7807 a000      	0xa0007807009f
     1d0:	0000                	unimp
     1d2:	0000                	unimp
     1d4:	9c00                	0x9c00
     1d6:	a000                	fsd	fs0,0(s0)
     1d8:	0000                	unimp
     1da:	0000                	unimp
     1dc:	0200                	addi	s0,sp,256
     1de:	9f32                	add	t5,t5,a2
     1e0:	0700                	addi	s0,sp,896
     1e2:	0078                	addi	a4,sp,12
     1e4:	00a0                	addi	s0,sp,72
     1e6:	0000                	unimp
     1e8:	0000                	unimp
     1ea:	009c                	addi	a5,sp,64
     1ec:	00a0                	addi	s0,sp,72
     1ee:	0000                	unimp
     1f0:	0000                	unimp
     1f2:	3002                	fld	ft0,32(sp)
     1f4:	009f 7807 a000      	0xa0007807009f
     1fa:	0000                	unimp
     1fc:	0000                	unimp
     1fe:	9c00                	0x9c00
     200:	a000                	fsd	fs0,0(s0)
     202:	0000                	unimp
     204:	0000                	unimp
     206:	0300                	addi	s0,sp,384
     208:	4008                	lw	a0,0(s0)
     20a:	009f 00e1 0000      	0xe1009f
     210:	0005                	c.nop	1
     212:	0008                	0x8
     214:	0000                	unimp
     216:	0000                	unimp
     218:	a000d807          	0xa000d807
     21c:	0000                	unimp
     21e:	0000                	unimp
     220:	ef00                	sd	s0,24(a4)
     222:	a000                	fsd	fs0,0(s0)
     224:	0000                	unimp
     226:	0000                	unimp
     228:	0100                	addi	s0,sp,128
     22a:	075a                	slli	a4,a4,0x16
     22c:	00a000ef          	jal	ra,236 <_text-0x9ffdca>
     230:	0000                	unimp
     232:	0000                	unimp
     234:	011c                	addi	a5,sp,128
     236:	00a0                	addi	s0,sp,72
     238:	0000                	unimp
     23a:	0000                	unimp
     23c:	a304                	fsd	fs1,0(a4)
     23e:	5a01                	li	s4,-32
     240:	009f d807 a000      	0xa000d807009f
     246:	0000                	unimp
     248:	0000                	unimp
     24a:	ef00                	sd	s0,24(a4)
     24c:	a000                	fsd	fs0,0(s0)
     24e:	0000                	unimp
     250:	0000                	unimp
     252:	0100                	addi	s0,sp,128
     254:	00ef075b          	0xef075b
     258:	00a0                	addi	s0,sp,72
     25a:	0000                	unimp
     25c:	0000                	unimp
     25e:	011c                	addi	a5,sp,128
     260:	00a0                	addi	s0,sp,72
     262:	0000                	unimp
     264:	0000                	unimp
     266:	a304                	fsd	fs1,0(a4)
     268:	5b01                	li	s6,-32
     26a:	009f d807 a000      	0xa000d807009f
     270:	0000                	unimp
     272:	0000                	unimp
     274:	ef00                	sd	s0,24(a4)
     276:	a000                	fsd	fs0,0(s0)
     278:	0000                	unimp
     27a:	0000                	unimp
     27c:	0100                	addi	s0,sp,128
     27e:	075c                	addi	a5,sp,900
     280:	00a000ef          	jal	ra,28a <_text-0x9ffd76>
     284:	0000                	unimp
     286:	0000                	unimp
     288:	011c                	addi	a5,sp,128
     28a:	00a0                	addi	s0,sp,72
     28c:	0000                	unimp
     28e:	0000                	unimp
     290:	a304                	fsd	fs1,0(a4)
     292:	5c01                	li	s8,-32
     294:	009f f007 a000      	0xa000f007009f
     29a:	0000                	unimp
     29c:	0000                	unimp
     29e:	0c00                	addi	s0,sp,528
     2a0:	a001                	j	2a0 <_text-0x9ffd60>
     2a2:	0000                	unimp
     2a4:	0000                	unimp
     2a6:	0100                	addi	s0,sp,128
     2a8:	005a                	c.slli	zero,0x16
     2aa:	a000f007          	0xa000f007
     2ae:	0000                	unimp
     2b0:	0000                	unimp
     2b2:	0c00                	addi	s0,sp,528
     2b4:	a001                	j	2b4 <_text-0x9ffd4c>
     2b6:	0000                	unimp
     2b8:	0000                	unimp
     2ba:	0200                	addi	s0,sp,256
     2bc:	9f30                	0x9f30
     2be:	0700                	addi	s0,sp,896
     2c0:	00f0                	addi	a2,sp,76
     2c2:	00a0                	addi	s0,sp,72
     2c4:	0000                	unimp
     2c6:	0000                	unimp
     2c8:	010c                	addi	a1,sp,128
     2ca:	00a0                	addi	s0,sp,72
     2cc:	0000                	unimp
     2ce:	0000                	unimp
     2d0:	7a09                	lui	s4,0xfffe2
     2d2:	0800                	addi	s0,sp,16
     2d4:	2420                	fld	fs0,72(s0)
     2d6:	2008                	fld	fa0,0(s0)
     2d8:	9f26                	add	t5,t5,s1
     2da:	0700                	addi	s0,sp,896
     2dc:	00f0                	addi	a2,sp,76
     2de:	00a0                	addi	s0,sp,72
     2e0:	0000                	unimp
     2e2:	0000                	unimp
     2e4:	010c                	addi	a1,sp,128
     2e6:	00a0                	addi	s0,sp,72
     2e8:	0000                	unimp
     2ea:	0000                	unimp
     2ec:	9f5d0803          	lb	a6,-1547(s10) # 199f5 <_text-0x9e660b>
     2f0:	7c00                	ld	s0,56(s0)
     2f2:	0021                	c.nop	8
     2f4:	0500                	addi	s0,sp,640
     2f6:	0800                	addi	s0,sp,16
     2f8:	0000                	unimp
     2fa:	0000                	unimp
     2fc:	0700                	addi	s0,sp,896
     2fe:	02ec                	addi	a1,sp,332
     300:	00a0                	addi	s0,sp,72
     302:	0000                	unimp
     304:	0000                	unimp
     306:	0320                	addi	s0,sp,392
     308:	00a0                	addi	s0,sp,72
     30a:	0000                	unimp
     30c:	0000                	unimp
     30e:	5b01                	li	s6,-32
     310:	a0032007          	flw	ft0,-1536(t1) # ffffffffffff8a00 <end+0xfffffffffeff6a00>
     314:	0000                	unimp
     316:	0000                	unimp
     318:	2c00                	fld	fs0,24(s0)
     31a:	0000a003          	lw	zero,0(ra)
     31e:	0000                	unimp
     320:	0100                	addi	s0,sp,128
     322:	0756                	slli	a4,a4,0x15
     324:	032c                	addi	a1,sp,392
     326:	00a0                	addi	s0,sp,72
     328:	0000                	unimp
     32a:	0000                	unimp
     32c:	0358                	addi	a4,sp,388
     32e:	00a0                	addi	s0,sp,72
     330:	0000                	unimp
     332:	0000                	unimp
     334:	5b01                	li	s6,-32
     336:	a0035807          	0xa0035807
     33a:	0000                	unimp
     33c:	0000                	unimp
     33e:	8800                	0x8800
     340:	a004                	fsd	fs1,0(s0)
     342:	0000                	unimp
     344:	0000                	unimp
     346:	0100                	addi	s0,sp,128
     348:	0056                	c.slli	zero,0x15
     34a:	a002ec07          	0xa002ec07
     34e:	0000                	unimp
     350:	0000                	unimp
     352:	6000                	ld	s0,0(s0)
     354:	0000a003          	lw	zero,0(ra)
     358:	0000                	unimp
     35a:	0100                	addi	s0,sp,128
     35c:	075c                	addi	a5,sp,900
     35e:	0360                	addi	s0,sp,396
     360:	00a0                	addi	s0,sp,72
     362:	0000                	unimp
     364:	0000                	unimp
     366:	0390                	addi	a2,sp,448
     368:	00a0                	addi	s0,sp,72
     36a:	0000                	unimp
     36c:	0000                	unimp
     36e:	a304                	fsd	fs1,0(a4)
     370:	5c01                	li	s8,-32
     372:	079f 0390 00a0      	0xa00390079f
     378:	0000                	unimp
     37a:	0000                	unimp
     37c:	03bc                	addi	a5,sp,456
     37e:	00a0                	addi	s0,sp,72
     380:	0000                	unimp
     382:	0000                	unimp
     384:	5c01                	li	s8,-32
     386:	a003bc07          	fld	fs8,-1536(t2)
     38a:	0000                	unimp
     38c:	0000                	unimp
     38e:	8800                	0x8800
     390:	a004                	fsd	fs1,0(s0)
     392:	0000                	unimp
     394:	0000                	unimp
     396:	0400                	addi	s0,sp,512
     398:	9f5c01a3          	sb	s5,-1565(s8) # 199e3 <_text-0x9e661d>
     39c:	0700                	addi	s0,sp,896
     39e:	02ec                	addi	a1,sp,332
     3a0:	00a0                	addi	s0,sp,72
     3a2:	0000                	unimp
     3a4:	0000                	unimp
     3a6:	03c8                	addi	a0,sp,452
     3a8:	00a0                	addi	s0,sp,72
     3aa:	0000                	unimp
     3ac:	0000                	unimp
     3ae:	5d01                	li	s10,-32
     3b0:	a003c807          	flq	fa6,-1536(t2)
     3b4:	0000                	unimp
     3b6:	0000                	unimp
     3b8:	3000                	fld	fs0,32(s0)
     3ba:	a004                	fsd	fs1,0(s0)
     3bc:	0000                	unimp
     3be:	0000                	unimp
     3c0:	0400                	addi	s0,sp,512
     3c2:	9f5d01a3          	sb	s5,-1565(s10)
     3c6:	a0043007          	fld	ft0,-1536(s0) # ffffffffffffda00 <end+0xfffffffffeffba00>
     3ca:	0000                	unimp
     3cc:	0000                	unimp
     3ce:	6800                	ld	s0,16(s0)
     3d0:	a004                	fsd	fs1,0(s0)
     3d2:	0000                	unimp
     3d4:	0000                	unimp
     3d6:	0100                	addi	s0,sp,128
     3d8:	075d                	addi	a4,a4,23
     3da:	0468                	addi	a0,sp,524
     3dc:	00a0                	addi	s0,sp,72
     3de:	0000                	unimp
     3e0:	0000                	unimp
     3e2:	0488                	addi	a0,sp,576
     3e4:	00a0                	addi	s0,sp,72
     3e6:	0000                	unimp
     3e8:	0000                	unimp
     3ea:	a304                	fsd	fs1,0(a4)
     3ec:	5d01                	li	s10,-32
     3ee:	009f ec07 a002      	0xa002ec07009f
     3f4:	0000                	unimp
     3f6:	0000                	unimp
     3f8:	8000                	0x8000
     3fa:	0000a003          	lw	zero,0(ra)
     3fe:	0000                	unimp
     400:	0100                	addi	s0,sp,128
     402:	075e                	slli	a4,a4,0x17
     404:	0380                	addi	s0,sp,448
     406:	00a0                	addi	s0,sp,72
     408:	0000                	unimp
     40a:	0000                	unimp
     40c:	0384                	addi	s1,sp,448
     40e:	00a0                	addi	s0,sp,72
     410:	0000                	unimp
     412:	0000                	unimp
     414:	6101                	addi	sp,sp,0
     416:	a0039007          	0xa0039007
     41a:	0000                	unimp
     41c:	0000                	unimp
     41e:	a800                	fsd	fs0,16(s0)
     420:	0000a003          	lw	zero,0(ra)
     424:	0000                	unimp
     426:	0100                	addi	s0,sp,128
     428:	075e                	slli	a4,a4,0x17
     42a:	03a8                	addi	a0,sp,456
     42c:	00a0                	addi	s0,sp,72
     42e:	0000                	unimp
     430:	0000                	unimp
     432:	03bc                	addi	a5,sp,456
     434:	00a0                	addi	s0,sp,72
     436:	0000                	unimp
     438:	0000                	unimp
     43a:	6101                	addi	sp,sp,0
     43c:	0700                	addi	s0,sp,896
     43e:	02ec                	addi	a1,sp,332
     440:	00a0                	addi	s0,sp,72
     442:	0000                	unimp
     444:	0000                	unimp
     446:	03e4                	addi	s1,sp,460
     448:	00a0                	addi	s0,sp,72
     44a:	0000                	unimp
     44c:	0000                	unimp
     44e:	5f01                	li	t5,-32
     450:	a003e407          	0xa003e407
     454:	0000                	unimp
     456:	0000                	unimp
     458:	3000                	fld	fs0,32(s0)
     45a:	a004                	fsd	fs1,0(s0)
     45c:	0000                	unimp
     45e:	0000                	unimp
     460:	0400                	addi	s0,sp,512
     462:	9f5f01a3          	sb	s5,-1565(t5) # 1a9e3 <_text-0x9e561d>
     466:	a0043007          	fld	ft0,-1536(s0)
     46a:	0000                	unimp
     46c:	0000                	unimp
     46e:	5000                	lw	s0,32(s0)
     470:	a004                	fsd	fs1,0(s0)
     472:	0000                	unimp
     474:	0000                	unimp
     476:	0100                	addi	s0,sp,128
     478:	075f 0450 00a0      	0xa00450075f
     47e:	0000                	unimp
     480:	0000                	unimp
     482:	0488                	addi	a0,sp,576
     484:	00a0                	addi	s0,sp,72
     486:	0000                	unimp
     488:	0000                	unimp
     48a:	a304                	fsd	fs1,0(a4)
     48c:	5f01                	li	t5,-32
     48e:	009f ec07 a002      	0xa002ec07009f
     494:	0000                	unimp
     496:	0000                	unimp
     498:	ac00                	fsd	fs0,24(s0)
     49a:	0000a003          	lw	zero,0(ra)
     49e:	0000                	unimp
     4a0:	0100                	addi	s0,sp,128
     4a2:	0760                	addi	s0,sp,908
     4a4:	03ac                	addi	a1,sp,456
     4a6:	00a0                	addi	s0,sp,72
     4a8:	0000                	unimp
     4aa:	0000                	unimp
     4ac:	03c4                	addi	s1,sp,452
     4ae:	00a0                	addi	s0,sp,72
     4b0:	0000                	unimp
     4b2:	0000                	unimp
     4b4:	9f200803          	lb	a6,-1550(zero) # fffffffffffff9f2 <end+0xfffffffffeffd9f2>
     4b8:	a0043007          	fld	ft0,-1536(s0)
     4bc:	0000                	unimp
     4be:	0000                	unimp
     4c0:	8000                	0x8000
     4c2:	a004                	fsd	fs1,0(s0)
     4c4:	0000                	unimp
     4c6:	0000                	unimp
     4c8:	0100                	addi	s0,sp,128
     4ca:	0060                	addi	s0,sp,12
     4cc:	a002ec07          	0xa002ec07
     4d0:	0000                	unimp
     4d2:	0000                	unimp
     4d4:	7400                	ld	s0,40(s0)
     4d6:	0000a003          	lw	zero,0(ra)
     4da:	0000                	unimp
     4dc:	0100                	addi	s0,sp,128
     4de:	0761                	addi	a4,a4,24
     4e0:	0374                	addi	a3,sp,396
     4e2:	00a0                	addi	s0,sp,72
     4e4:	0000                	unimp
     4e6:	0000                	unimp
     4e8:	0390                	addi	a2,sp,448
     4ea:	00a0                	addi	s0,sp,72
     4ec:	0000                	unimp
     4ee:	0000                	unimp
     4f0:	a304                	fsd	fs1,0(a4)
     4f2:	6101                	addi	sp,sp,0
     4f4:	079f 0390 00a0      	0xa00390079f
     4fa:	0000                	unimp
     4fc:	0000                	unimp
     4fe:	039c                	addi	a5,sp,448
     500:	00a0                	addi	s0,sp,72
     502:	0000                	unimp
     504:	0000                	unimp
     506:	6101                	addi	sp,sp,0
     508:	a0039c07          	0xa0039c07
     50c:	0000                	unimp
     50e:	0000                	unimp
     510:	8800                	0x8800
     512:	a004                	fsd	fs1,0(s0)
     514:	0000                	unimp
     516:	0000                	unimp
     518:	0400                	addi	s0,sp,512
     51a:	9f6101a3          	sb	s6,-1565(sp) # 250110b7 <end+0x2400f0b7>
     51e:	0700                	addi	s0,sp,896
     520:	02f8                	addi	a4,sp,332
     522:	00a0                	addi	s0,sp,72
     524:	0000                	unimp
     526:	0000                	unimp
     528:	0370                	addi	a2,sp,396
     52a:	00a0                	addi	s0,sp,72
     52c:	0000                	unimp
     52e:	0000                	unimp
     530:	3002                	fld	ft0,32(sp)
     532:	079f 0370 00a0      	0xa00370079f
     538:	0000                	unimp
     53a:	0000                	unimp
     53c:	0390                	addi	a2,sp,448
     53e:	00a0                	addi	s0,sp,72
     540:	0000                	unimp
     542:	0000                	unimp
     544:	5b01                	li	s6,-32
     546:	a0039007          	0xa0039007
     54a:	0000                	unimp
     54c:	0000                	unimp
     54e:	9800                	0x9800
     550:	0000a003          	lw	zero,0(ra)
     554:	0000                	unimp
     556:	0200                	addi	s0,sp,256
     558:	9f30                	0x9f30
     55a:	a0039807          	0xa0039807
     55e:	0000                	unimp
     560:	0000                	unimp
     562:	e400                	sd	s0,8(s0)
     564:	0000a003          	lw	zero,0(ra)
     568:	0000                	unimp
     56a:	0100                	addi	s0,sp,128
     56c:	0430075b          	0x430075b
     570:	00a0                	addi	s0,sp,72
     572:	0000                	unimp
     574:	0000                	unimp
     576:	0460                	addi	s0,sp,524
     578:	00a0                	addi	s0,sp,72
     57a:	0000                	unimp
     57c:	0000                	unimp
     57e:	5b01                	li	s6,-32
     580:	0700                	addi	s0,sp,896
     582:	02f8                	addi	a4,sp,332
     584:	00a0                	addi	s0,sp,72
     586:	0000                	unimp
     588:	0000                	unimp
     58a:	0308                	addi	a0,sp,384
     58c:	00a0                	addi	s0,sp,72
     58e:	0000                	unimp
     590:	0000                	unimp
     592:	5a01                	li	s4,-32
     594:	a0030807          	0xa0030807
     598:	0000                	unimp
     59a:	0000                	unimp
     59c:	1000                	addi	s0,sp,32
     59e:	0000a003          	lw	zero,0(ra)
     5a2:	0000                	unimp
     5a4:	0300                	addi	s0,sp,384
     5a6:	7f8c                	ld	a1,56(a5)
     5a8:	079f 0310 00a0      	0xa00310079f
     5ae:	0000                	unimp
     5b0:	0000                	unimp
     5b2:	0318                	addi	a4,sp,384
     5b4:	00a0                	addi	s0,sp,72
     5b6:	0000                	unimp
     5b8:	0000                	unimp
     5ba:	6d01                	0x6d01
     5bc:	a0031807          	0xa0031807
     5c0:	0000                	unimp
     5c2:	0000                	unimp
     5c4:	2400                	fld	fs0,8(s0)
     5c6:	0000a003          	lw	zero,0(ra)
     5ca:	0000                	unimp
     5cc:	0100                	addi	s0,sp,128
     5ce:	076c                	addi	a1,sp,908
     5d0:	0324                	addi	s1,sp,392
     5d2:	00a0                	addi	s0,sp,72
     5d4:	0000                	unimp
     5d6:	0000                	unimp
     5d8:	032c                	addi	a1,sp,392
     5da:	00a0                	addi	s0,sp,72
     5dc:	0000                	unimp
     5de:	0000                	unimp
     5e0:	6d01                	0x6d01
     5e2:	a0032c07          	flw	fs8,-1536(t1)
     5e6:	0000                	unimp
     5e8:	0000                	unimp
     5ea:	3c00                	fld	fs0,56(s0)
     5ec:	0000a003          	lw	zero,0(ra)
     5f0:	0000                	unimp
     5f2:	0300                	addi	s0,sp,384
     5f4:	7f8c                	ld	a1,56(a5)
     5f6:	079f 033c 00a0      	0xa0033c079f
     5fc:	0000                	unimp
     5fe:	0000                	unimp
     600:	0348                	addi	a0,sp,388
     602:	00a0                	addi	s0,sp,72
     604:	0000                	unimp
     606:	0000                	unimp
     608:	6c01                	0x6c01
     60a:	a0034807          	flq	fa6,-1536(t1)
     60e:	0000                	unimp
     610:	0000                	unimp
     612:	4c00                	lw	s0,24(s0)
     614:	0000a003          	lw	zero,0(ra)
     618:	0000                	unimp
     61a:	0300                	addi	s0,sp,384
     61c:	7f8c                	ld	a1,56(a5)
     61e:	079f 034c 00a0      	0xa0034c079f
     624:	0000                	unimp
     626:	0000                	unimp
     628:	035c                	addi	a5,sp,388
     62a:	00a0                	addi	s0,sp,72
     62c:	0000                	unimp
     62e:	0000                	unimp
     630:	6d01                	0x6d01
     632:	a0035c07          	0xa0035c07
     636:	0000                	unimp
     638:	0000                	unimp
     63a:	6800                	ld	s0,16(s0)
     63c:	0000a003          	lw	zero,0(ra)
     640:	0000                	unimp
     642:	0300                	addi	s0,sp,384
     644:	018d                	addi	gp,gp,3
     646:	079f 0368 00a0      	0xa00368079f
     64c:	0000                	unimp
     64e:	0000                	unimp
     650:	036c                	addi	a1,sp,396
     652:	00a0                	addi	s0,sp,72
     654:	0000                	unimp
     656:	0000                	unimp
     658:	6d01                	0x6d01
     65a:	a0036c07          	0xa0036c07
     65e:	0000                	unimp
     660:	0000                	unimp
     662:	8400                	0x8400
     664:	0000a003          	lw	zero,0(ra)
     668:	0000                	unimp
     66a:	0100                	addi	s0,sp,128
     66c:	076c                	addi	a1,sp,908
     66e:	0390                	addi	a2,sp,448
     670:	00a0                	addi	s0,sp,72
     672:	0000                	unimp
     674:	0000                	unimp
     676:	0394                	addi	a3,sp,448
     678:	00a0                	addi	s0,sp,72
     67a:	0000                	unimp
     67c:	0000                	unimp
     67e:	6d01                	0x6d01
     680:	a0039407          	0xa0039407
     684:	0000                	unimp
     686:	0000                	unimp
     688:	bc00                	fsd	fs0,56(s0)
     68a:	0000a003          	lw	zero,0(ra)
     68e:	0000                	unimp
     690:	0300                	addi	s0,sp,384
     692:	7f8c                	ld	a1,56(a5)
     694:	009f 8807 a003      	0xa0038807009f
     69a:	0000                	unimp
     69c:	0000                	unimp
     69e:	9000                	0x9000
     6a0:	0000a003          	lw	zero,0(ra)
     6a4:	0000                	unimp
     6a6:	0100                	addi	s0,sp,128
     6a8:	03b0075b          	0x3b0075b
     6ac:	00a0                	addi	s0,sp,72
     6ae:	0000                	unimp
     6b0:	0000                	unimp
     6b2:	03c8                	addi	a0,sp,452
     6b4:	00a0                	addi	s0,sp,72
     6b6:	0000                	unimp
     6b8:	0000                	unimp
     6ba:	5b01                	li	s6,-32
     6bc:	a003c807          	flq	fa6,-1536(t2)
     6c0:	0000                	unimp
     6c2:	0000                	unimp
     6c4:	d000                	sw	s0,32(s0)
     6c6:	0000a003          	lw	zero,0(ra)
     6ca:	0000                	unimp
     6cc:	0100                	addi	s0,sp,128
     6ce:	075e                	slli	a4,a4,0x17
     6d0:	03d0                	addi	a2,sp,452
     6d2:	00a0                	addi	s0,sp,72
     6d4:	0000                	unimp
     6d6:	0000                	unimp
     6d8:	03d4                	addi	a3,sp,452
     6da:	00a0                	addi	s0,sp,72
     6dc:	0000                	unimp
     6de:	0000                	unimp
     6e0:	9f017e03          	0x9f017e03
     6e4:	a0043807          	fld	fa6,-1536(s0)
     6e8:	0000                	unimp
     6ea:	0000                	unimp
     6ec:	4000                	lw	s0,0(s0)
     6ee:	a004                	fsd	fs1,0(s0)
     6f0:	0000                	unimp
     6f2:	0000                	unimp
     6f4:	0100                	addi	s0,sp,128
     6f6:	0444075b          	0x444075b
     6fa:	00a0                	addi	s0,sp,72
     6fc:	0000                	unimp
     6fe:	0000                	unimp
     700:	0460                	addi	s0,sp,524
     702:	00a0                	addi	s0,sp,72
     704:	0000                	unimp
     706:	0000                	unimp
     708:	9f7f7b03          	0x9f7f7b03
     70c:	a0046807          	0xa0046807
     710:	0000                	unimp
     712:	0000                	unimp
     714:	6c00                	ld	s0,24(s0)
     716:	a004                	fsd	fs1,0(s0)
     718:	0000                	unimp
     71a:	0000                	unimp
     71c:	1300                	addi	s0,sp,416
     71e:	7f8d                	lui	t6,0xfffe3
     720:	2008                	fld	fa0,0(s0)
     722:	0824                	addi	s1,sp,24
     724:	2620                	fld	fs0,72(a2)
     726:	007a                	c.slli	zero,0x1e
     728:	2022                	fld	ft0,8(sp)
     72a:	007e                	c.slli	zero,0x1f
     72c:	8d22                	mv	s10,s0
     72e:	2200                	fld	fs0,0(a2)
     730:	079f 046c 00a0      	0xa0046c079f
     736:	0000                	unimp
     738:	0000                	unimp
     73a:	0470                	addi	a2,sp,524
     73c:	00a0                	addi	s0,sp,72
     73e:	0000                	unimp
     740:	0000                	unimp
     742:	7e08                	ld	a0,56(a2)
     744:	7a00                	ld	s0,48(a2)
     746:	1c00                	addi	s0,sp,560
     748:	009f0123          	sb	s1,2(t5)
     74c:	a0030807          	0xa0030807
     750:	0000                	unimp
     752:	0000                	unimp
     754:	1400                	addi	s0,sp,544
     756:	0000a003          	lw	zero,0(ra)
     75a:	0000                	unimp
     75c:	0100                	addi	s0,sp,128
     75e:	0756                	slli	a4,a4,0x15
     760:	0314                	addi	a3,sp,384
     762:	00a0                	addi	s0,sp,72
     764:	0000                	unimp
     766:	0000                	unimp
     768:	0318                	addi	a4,sp,384
     76a:	00a0                	addi	s0,sp,72
     76c:	0000                	unimp
     76e:	0000                	unimp
     770:	9f497603          	0x9f497603
     774:	a0031807          	0xa0031807
     778:	0000                	unimp
     77a:	0000                	unimp
     77c:	2c00                	fld	fs0,24(s0)
     77e:	0000a003          	lw	zero,0(ra)
     782:	0000                	unimp
     784:	0600                	addi	s0,sp,768
     786:	007c007b          	0x7c007b
     78a:	9f1d                	subw	a4,a4,a5
     78c:	a0033007          	fld	ft0,-1536(t1)
     790:	0000                	unimp
     792:	0000                	unimp
     794:	4000                	lw	s0,0(s0)
     796:	0000a003          	lw	zero,0(ra)
     79a:	0000                	unimp
     79c:	0100                	addi	s0,sp,128
     79e:	0756                	slli	a4,a4,0x15
     7a0:	0340                	addi	s0,sp,388
     7a2:	00a0                	addi	s0,sp,72
     7a4:	0000                	unimp
     7a6:	0000                	unimp
     7a8:	0344                	addi	s1,sp,388
     7aa:	00a0                	addi	s0,sp,72
     7ac:	0000                	unimp
     7ae:	0000                	unimp
     7b0:	9f507603          	0x9f507603
     7b4:	a0034407          	flq	fs0,-1536(t1)
     7b8:	0000                	unimp
     7ba:	0000                	unimp
     7bc:	4800                	lw	s0,16(s0)
     7be:	0000a003          	lw	zero,0(ra)
     7c2:	0000                	unimp
     7c4:	0600                	addi	s0,sp,768
     7c6:	007c007b          	0x7c007b
     7ca:	9f1d                	subw	a4,a4,a5
     7cc:	a0034807          	flq	fa6,-1536(t1)
     7d0:	0000                	unimp
     7d2:	0000                	unimp
     7d4:	5000                	lw	s0,32(s0)
     7d6:	0000a003          	lw	zero,0(ra)
     7da:	0000                	unimp
     7dc:	0100                	addi	s0,sp,128
     7de:	0756                	slli	a4,a4,0x15
     7e0:	0350                	addi	a2,sp,388
     7e2:	00a0                	addi	s0,sp,72
     7e4:	0000                	unimp
     7e6:	0000                	unimp
     7e8:	0354                	addi	a3,sp,388
     7ea:	00a0                	addi	s0,sp,72
     7ec:	0000                	unimp
     7ee:	0000                	unimp
     7f0:	7604                	ld	s1,40(a2)
     7f2:	7fa9                	lui	t6,0xfffea
     7f4:	079f 0354 00a0      	0xa00354079f
     7fa:	0000                	unimp
     7fc:	0000                	unimp
     7fe:	0360                	addi	s0,sp,396
     800:	00a0                	addi	s0,sp,72
     802:	0000                	unimp
     804:	0000                	unimp
     806:	7b06                	ld	s6,96(sp)
     808:	7c00                	ld	s0,56(s0)
     80a:	1d00                	addi	s0,sp,688
     80c:	079f 0360 00a0      	0xa00360079f
     812:	0000                	unimp
     814:	0000                	unimp
     816:	0370                	addi	a2,sp,396
     818:	00a0                	addi	s0,sp,72
     81a:	0000                	unimp
     81c:	0000                	unimp
     81e:	7b06                	ld	s6,96(sp)
     820:	8f00                	0x8f00
     822:	1d00                	addi	s0,sp,688
     824:	079f 0390 00a0      	0xa00390079f
     82a:	0000                	unimp
     82c:	0000                	unimp
     82e:	0398                	addi	a4,sp,448
     830:	00a0                	addi	s0,sp,72
     832:	0000                	unimp
     834:	0000                	unimp
     836:	7b06                	ld	s6,96(sp)
     838:	7c00                	ld	s0,56(s0)
     83a:	1d00                	addi	s0,sp,688
     83c:	009f dc07 a003      	0xa003dc07009f
     842:	0000                	unimp
     844:	0000                	unimp
     846:	f400                	sd	s0,40(s0)
     848:	0000a003          	lw	zero,0(ra)
     84c:	0000                	unimp
     84e:	0200                	addi	s0,sp,256
     850:	9f30                	0x9f30
     852:	a003f407          	0xa003f407
     856:	0000                	unimp
     858:	0000                	unimp
     85a:	0c00                	addi	s0,sp,528
     85c:	a004                	fsd	fs1,0(s0)
     85e:	0000                	unimp
     860:	0000                	unimp
     862:	0100                	addi	s0,sp,128
     864:	075c                	addi	a5,sp,900
     866:	040c                	addi	a1,sp,512
     868:	00a0                	addi	s0,sp,72
     86a:	0000                	unimp
     86c:	0000                	unimp
     86e:	0418                	addi	a4,sp,512
     870:	00a0                	addi	s0,sp,72
     872:	0000                	unimp
     874:	0000                	unimp
     876:	5f01                	li	t5,-32
     878:	a0041807          	0xa0041807
     87c:	0000                	unimp
     87e:	0000                	unimp
     880:	1c00                	addi	s0,sp,560
     882:	a004                	fsd	fs1,0(s0)
     884:	0000                	unimp
     886:	0000                	unimp
     888:	0100                	addi	s0,sp,128
     88a:	075c                	addi	a5,sp,900
     88c:	0480                	addi	s0,sp,576
     88e:	00a0                	addi	s0,sp,72
     890:	0000                	unimp
     892:	0000                	unimp
     894:	0488                	addi	a0,sp,576
     896:	00a0                	addi	s0,sp,72
     898:	0000                	unimp
     89a:	0000                	unimp
     89c:	3002                	fld	ft0,32(sp)
     89e:	009f e407 a003      	0xa003e407009f
     8a4:	0000                	unimp
     8a6:	0000                	unimp
     8a8:	f400                	sd	s0,40(s0)
     8aa:	0000a003          	lw	zero,0(ra)
     8ae:	0000                	unimp
     8b0:	0100                	addi	s0,sp,128
     8b2:	03f4075b          	0x3f4075b
     8b6:	00a0                	addi	s0,sp,72
     8b8:	0000                	unimp
     8ba:	0000                	unimp
     8bc:	040c                	addi	a1,sp,512
     8be:	00a0                	addi	s0,sp,72
     8c0:	0000                	unimp
     8c2:	0000                	unimp
     8c4:	7b06                	ld	s6,96(sp)
     8c6:	7c00                	ld	s0,56(s0)
     8c8:	1c00                	addi	s0,sp,560
     8ca:	079f 040c 00a0      	0xa0040c079f
     8d0:	0000                	unimp
     8d2:	0000                	unimp
     8d4:	0418                	addi	a4,sp,512
     8d6:	00a0                	addi	s0,sp,72
     8d8:	0000                	unimp
     8da:	0000                	unimp
     8dc:	7b06                	ld	s6,96(sp)
     8de:	7f00                	ld	s0,56(a4)
     8e0:	1c00                	addi	s0,sp,560
     8e2:	079f 0418 00a0      	0xa00418079f
     8e8:	0000                	unimp
     8ea:	0000                	unimp
     8ec:	041c                	addi	a5,sp,512
     8ee:	00a0                	addi	s0,sp,72
     8f0:	0000                	unimp
     8f2:	0000                	unimp
     8f4:	7b06                	ld	s6,96(sp)
     8f6:	7c00                	ld	s0,56(s0)
     8f8:	1c00                	addi	s0,sp,560
     8fa:	079f 0484 00a0      	0xa00484079f
     900:	0000                	unimp
     902:	0000                	unimp
     904:	0488                	addi	a0,sp,576
     906:	00a0                	addi	s0,sp,72
     908:	0000                	unimp
     90a:	0000                	unimp
     90c:	9f7f8103          	lb	sp,-1545(t6) # fffffffffffe99f7 <end+0xfffffffffefe79f7>
     910:	0700                	addi	s0,sp,896
     912:	03f8                	addi	a4,sp,460
     914:	00a0                	addi	s0,sp,72
     916:	0000                	unimp
     918:	0000                	unimp
     91a:	0400                	addi	s0,sp,512
     91c:	00a0                	addi	s0,sp,72
     91e:	0000                	unimp
     920:	0000                	unimp
     922:	7d02                	ld	s10,32(sp)
     924:	0700                	addi	s0,sp,896
     926:	0400                	addi	s0,sp,512
     928:	00a0                	addi	s0,sp,72
     92a:	0000                	unimp
     92c:	0000                	unimp
     92e:	0408                	addi	a0,sp,512
     930:	00a0                	addi	s0,sp,72
     932:	0000                	unimp
     934:	0000                	unimp
     936:	5f01                	li	t5,-32
     938:	0700                	addi	s0,sp,896
     93a:	01b4                	addi	a3,sp,200
     93c:	00a0                	addi	s0,sp,72
     93e:	0000                	unimp
     940:	0000                	unimp
     942:	01f4                	addi	a3,sp,204
     944:	00a0                	addi	s0,sp,72
     946:	0000                	unimp
     948:	0000                	unimp
     94a:	5c01                	li	s8,-32
     94c:	a001f407          	0xa001f407
     950:	0000                	unimp
     952:	0000                	unimp
     954:	fc00                	sd	s0,56(s0)
     956:	a001                	j	956 <_text-0x9ff6aa>
     958:	0000                	unimp
     95a:	0000                	unimp
     95c:	0100                	addi	s0,sp,128
     95e:	075e                	slli	a4,a4,0x17
     960:	01fc                	addi	a5,sp,204
     962:	00a0                	addi	s0,sp,72
     964:	0000                	unimp
     966:	0000                	unimp
     968:	0200                	addi	s0,sp,256
     96a:	00a0                	addi	s0,sp,72
     96c:	0000                	unimp
     96e:	0000                	unimp
     970:	6001                	0x6001
     972:	a0025407          	0xa0025407
     976:	0000                	unimp
     978:	0000                	unimp
     97a:	6000                	ld	s0,0(s0)
     97c:	a002                	fsd	ft0,0(sp)
     97e:	0000                	unimp
     980:	0000                	unimp
     982:	0100                	addi	s0,sp,128
     984:	075e                	slli	a4,a4,0x17
     986:	0260                	addi	s0,sp,268
     988:	00a0                	addi	s0,sp,72
     98a:	0000                	unimp
     98c:	0000                	unimp
     98e:	027c                	addi	a5,sp,268
     990:	00a0                	addi	s0,sp,72
     992:	0000                	unimp
     994:	0000                	unimp
     996:	6001                	0x6001
     998:	a002c407          	flq	fs0,-1536(t0)
     99c:	0000                	unimp
     99e:	0000                	unimp
     9a0:	ec00                	sd	s0,24(s0)
     9a2:	a002                	fsd	ft0,0(sp)
     9a4:	0000                	unimp
     9a6:	0000                	unimp
     9a8:	0100                	addi	s0,sp,128
     9aa:	005c                	addi	a5,sp,4
     9ac:	a001b407          	fld	fs0,-1536(gp)
     9b0:	0000                	unimp
     9b2:	0000                	unimp
     9b4:	0400                	addi	s0,sp,512
     9b6:	a002                	fsd	ft0,0(sp)
     9b8:	0000                	unimp
     9ba:	0000                	unimp
     9bc:	0100                	addi	s0,sp,128
     9be:	075d                	addi	a4,a4,23
     9c0:	0204                	addi	s1,sp,256
     9c2:	00a0                	addi	s0,sp,72
     9c4:	0000                	unimp
     9c6:	0000                	unimp
     9c8:	0254                	addi	a3,sp,260
     9ca:	00a0                	addi	s0,sp,72
     9cc:	0000                	unimp
     9ce:	0000                	unimp
     9d0:	a304                	fsd	fs1,0(a4)
     9d2:	5d01                	li	s10,-32
     9d4:	079f 0254 00a0      	0xa00254079f
     9da:	0000                	unimp
     9dc:	0000                	unimp
     9de:	0260                	addi	s0,sp,268
     9e0:	00a0                	addi	s0,sp,72
     9e2:	0000                	unimp
     9e4:	0000                	unimp
     9e6:	5d01                	li	s10,-32
     9e8:	a0026007          	0xa0026007
     9ec:	0000                	unimp
     9ee:	0000                	unimp
     9f0:	c400                	sw	s0,8(s0)
     9f2:	a002                	fsd	ft0,0(sp)
     9f4:	0000                	unimp
     9f6:	0000                	unimp
     9f8:	0400                	addi	s0,sp,512
     9fa:	9f5d01a3          	sb	s5,-1565(s10)
     9fe:	a002c407          	flq	fs0,-1536(t0)
     a02:	0000                	unimp
     a04:	0000                	unimp
     a06:	ec00                	sd	s0,24(s0)
     a08:	a002                	fsd	ft0,0(sp)
     a0a:	0000                	unimp
     a0c:	0000                	unimp
     a0e:	0100                	addi	s0,sp,128
     a10:	005d                	c.nop	23
     a12:	a001f807          	0xa001f807
     a16:	0000                	unimp
     a18:	0000                	unimp
     a1a:	1c00                	addi	s0,sp,560
     a1c:	a002                	fsd	ft0,0(sp)
     a1e:	0000                	unimp
     a20:	0000                	unimp
     a22:	0200                	addi	s0,sp,256
     a24:	9f30                	0x9f30
     a26:	a0021c07          	0xa0021c07
     a2a:	0000                	unimp
     a2c:	0000                	unimp
     a2e:	2000                	fld	fs0,0(s0)
     a30:	a002                	fsd	ft0,0(sp)
     a32:	0000                	unimp
     a34:	0000                	unimp
     a36:	0600                	addi	s0,sp,768
     a38:	007d                	c.nop	31
     a3a:	007a                	c.slli	zero,0x1e
     a3c:	9f1c                	0x9f1c
     a3e:	a0022007          	flw	ft0,-1536(tp) # ffffffffffff8a00 <end+0xfffffffffeff6a00>
     a42:	0000                	unimp
     a44:	0000                	unimp
     a46:	2400                	fld	fs0,8(s0)
     a48:	a002                	fsd	ft0,0(sp)
     a4a:	0000                	unimp
     a4c:	0000                	unimp
     a4e:	0800                	addi	s0,sp,16
     a50:	007d                	c.nop	31
     a52:	007a                	c.slli	zero,0x1e
     a54:	231c                	fld	fa5,0(a4)
     a56:	9f01                	subw	a4,a4,s0
     a58:	a0022807          	flw	fa6,-1536(tp) # fffffffffffffa00 <end+0xfffffffffeffda00>
     a5c:	0000                	unimp
     a5e:	0000                	unimp
     a60:	4400                	lw	s0,8(s0)
     a62:	a002                	fsd	ft0,0(sp)
     a64:	0000                	unimp
     a66:	0000                	unimp
     a68:	0100                	addi	s0,sp,128
     a6a:	075e                	slli	a4,a4,0x17
     a6c:	0244                	addi	s1,sp,260
     a6e:	00a0                	addi	s0,sp,72
     a70:	0000                	unimp
     a72:	0000                	unimp
     a74:	0248                	addi	a0,sp,260
     a76:	00a0                	addi	s0,sp,72
     a78:	0000                	unimp
     a7a:	0000                	unimp
     a7c:	9f017e03          	0x9f017e03
     a80:	a0025407          	0xa0025407
     a84:	0000                	unimp
     a86:	0000                	unimp
     a88:	6000                	ld	s0,0(s0)
     a8a:	a002                	fsd	ft0,0(sp)
     a8c:	0000                	unimp
     a8e:	0000                	unimp
     a90:	0200                	addi	s0,sp,256
     a92:	9f30                	0x9f30
     a94:	a0026007          	0xa0026007
     a98:	0000                	unimp
     a9a:	0000                	unimp
     a9c:	6800                	ld	s0,16(s0)
     a9e:	a002                	fsd	ft0,0(sp)
     aa0:	0000                	unimp
     aa2:	0000                	unimp
     aa4:	0600                	addi	s0,sp,768
     aa6:	007e                	c.slli	zero,0x1f
     aa8:	9f1c007b          	0x9f1c007b
     aac:	a0026807          	0xa0026807
     ab0:	0000                	unimp
     ab2:	0000                	unimp
     ab4:	6c00                	ld	s0,24(s0)
     ab6:	a002                	fsd	ft0,0(sp)
     ab8:	0000                	unimp
     aba:	0000                	unimp
     abc:	0800                	addi	s0,sp,16
     abe:	007e                	c.slli	zero,0x1f
     ac0:	231c007b          	0x231c007b
     ac4:	9f01                	subw	a4,a4,s0
     ac6:	a002dc07          	0xa002dc07
     aca:	0000                	unimp
     acc:	0000                	unimp
     ace:	ec00                	sd	s0,24(s0)
     ad0:	a002                	fsd	ft0,0(sp)
     ad2:	0000                	unimp
     ad4:	0000                	unimp
     ad6:	0200                	addi	s0,sp,256
     ad8:	9f30                	0x9f30
     ada:	0700                	addi	s0,sp,896
     adc:	01c0                	addi	s0,sp,196
     ade:	00a0                	addi	s0,sp,72
     ae0:	0000                	unimp
     ae2:	0000                	unimp
     ae4:	01d0                	addi	a2,sp,196
     ae6:	00a0                	addi	s0,sp,72
     ae8:	0000                	unimp
     aea:	0000                	unimp
     aec:	3002                	fld	ft0,32(sp)
     aee:	079f 01d4 00a0      	0xa001d4079f
     af4:	0000                	unimp
     af6:	0000                	unimp
     af8:	01d8                	addi	a4,sp,196
     afa:	00a0                	addi	s0,sp,72
     afc:	0000                	unimp
     afe:	0000                	unimp
     b00:	9f017f03          	0x9f017f03
     b04:	a001d807          	0xa001d807
     b08:	0000                	unimp
     b0a:	0000                	unimp
     b0c:	0000                	unimp
     b0e:	a002                	fsd	ft0,0(sp)
     b10:	0000                	unimp
     b12:	0000                	unimp
     b14:	0100                	addi	s0,sp,128
     b16:	075f 0254 00a0      	0xa00254075f
     b1c:	0000                	unimp
     b1e:	0000                	unimp
     b20:	027c                	addi	a5,sp,268
     b22:	00a0                	addi	s0,sp,72
     b24:	0000                	unimp
     b26:	0000                	unimp
     b28:	5f01                	li	t5,-32
     b2a:	a002c407          	flq	fs0,-1536(t0)
     b2e:	0000                	unimp
     b30:	0000                	unimp
     b32:	ec00                	sd	s0,24(s0)
     b34:	a002                	fsd	ft0,0(sp)
     b36:	0000                	unimp
     b38:	0000                	unimp
     b3a:	0200                	addi	s0,sp,256
     b3c:	9f30                	0x9f30
     b3e:	0700                	addi	s0,sp,896
     b40:	01c0                	addi	s0,sp,196
     b42:	00a0                	addi	s0,sp,72
     b44:	0000                	unimp
     b46:	0000                	unimp
     b48:	01cc                	addi	a1,sp,196
     b4a:	00a0                	addi	s0,sp,72
     b4c:	0000                	unimp
     b4e:	0000                	unimp
     b50:	9f017b03          	0x9f017b03
     b54:	a001cc07          	flq	fs8,-1536(gp)
     b58:	0000                	unimp
     b5a:	0000                	unimp
     b5c:	d800                	sw	s0,48(s0)
     b5e:	a001                	j	b5e <_text-0x9ff4a2>
     b60:	0000                	unimp
     b62:	0000                	unimp
     b64:	0100                	addi	s0,sp,128
     b66:	075e                	slli	a4,a4,0x17
     b68:	01d8                	addi	a4,sp,196
     b6a:	00a0                	addi	s0,sp,72
     b6c:	0000                	unimp
     b6e:	0000                	unimp
     b70:	01dc                	addi	a5,sp,196
     b72:	00a0                	addi	s0,sp,72
     b74:	0000                	unimp
     b76:	0000                	unimp
     b78:	9f017e03          	0x9f017e03
     b7c:	a001dc07          	0xa001dc07
     b80:	0000                	unimp
     b82:	0000                	unimp
     b84:	e800                	sd	s0,16(s0)
     b86:	a001                	j	b86 <_text-0x9ff47a>
     b88:	0000                	unimp
     b8a:	0000                	unimp
     b8c:	0100                	addi	s0,sp,128
     b8e:	075e                	slli	a4,a4,0x17
     b90:	02c4                	addi	s1,sp,324
     b92:	00a0                	addi	s0,sp,72
     b94:	0000                	unimp
     b96:	0000                	unimp
     b98:	02ec                	addi	a1,sp,332
     b9a:	00a0                	addi	s0,sp,72
     b9c:	0000                	unimp
     b9e:	0000                	unimp
     ba0:	9f017b03          	0x9f017b03
     ba4:	0700                	addi	s0,sp,896
     ba6:	011c                	addi	a5,sp,128
     ba8:	00a0                	addi	s0,sp,72
     baa:	0000                	unimp
     bac:	0000                	unimp
     bae:	0174                	addi	a3,sp,140
     bb0:	00a0                	addi	s0,sp,72
     bb2:	0000                	unimp
     bb4:	0000                	unimp
     bb6:	5a01                	li	s4,-32
     bb8:	a0017407          	0xa0017407
     bbc:	0000                	unimp
     bbe:	0000                	unimp
     bc0:	8400                	0x8400
     bc2:	a001                	j	bc2 <_text-0x9ff43e>
     bc4:	0000                	unimp
     bc6:	0000                	unimp
     bc8:	0400                	addi	s0,sp,512
     bca:	9f5a01a3          	sb	s5,-1565(s4) # fffffffffffe19e3 <end+0xfffffffffefdf9e3>
     bce:	a0018407          	0xa0018407
     bd2:	0000                	unimp
     bd4:	0000                	unimp
     bd6:	b400                	fsd	fs0,40(s0)
     bd8:	a001                	j	bd8 <_text-0x9ff428>
     bda:	0000                	unimp
     bdc:	0000                	unimp
     bde:	0100                	addi	s0,sp,128
     be0:	005a                	c.slli	zero,0x16
     be2:	a0011c07          	0xa0011c07
     be6:	0000                	unimp
     be8:	0000                	unimp
     bea:	3400                	fld	fs0,40(s0)
     bec:	a001                	j	bec <_text-0x9ff414>
     bee:	0000                	unimp
     bf0:	0000                	unimp
     bf2:	0100                	addi	s0,sp,128
     bf4:	075c                	addi	a5,sp,900
     bf6:	0184                	addi	s1,sp,192
     bf8:	00a0                	addi	s0,sp,72
     bfa:	0000                	unimp
     bfc:	0000                	unimp
     bfe:	018c                	addi	a1,sp,192
     c00:	00a0                	addi	s0,sp,72
     c02:	0000                	unimp
     c04:	0000                	unimp
     c06:	5c01                	li	s8,-32
     c08:	0700                	addi	s0,sp,896
     c0a:	011c                	addi	a5,sp,128
     c0c:	00a0                	addi	s0,sp,72
     c0e:	0000                	unimp
     c10:	0000                	unimp
     c12:	0148                	addi	a0,sp,132
     c14:	00a0                	addi	s0,sp,72
     c16:	0000                	unimp
     c18:	0000                	unimp
     c1a:	5d01                	li	s10,-32
     c1c:	a0014807          	flq	fa6,-1536(sp)
     c20:	0000                	unimp
     c22:	0000                	unimp
     c24:	8400                	0x8400
     c26:	a001                	j	c26 <_text-0x9ff3da>
     c28:	0000                	unimp
     c2a:	0000                	unimp
     c2c:	0400                	addi	s0,sp,512
     c2e:	9f5d01a3          	sb	s5,-1565(s10)
     c32:	a0018407          	0xa0018407
     c36:	0000                	unimp
     c38:	0000                	unimp
     c3a:	9c00                	0x9c00
     c3c:	a001                	j	c3c <_text-0x9ff3c4>
     c3e:	0000                	unimp
     c40:	0000                	unimp
     c42:	0100                	addi	s0,sp,128
     c44:	075d                	addi	a4,a4,23
     c46:	019c                	addi	a5,sp,192
     c48:	00a0                	addi	s0,sp,72
     c4a:	0000                	unimp
     c4c:	0000                	unimp
     c4e:	01b4                	addi	a3,sp,200
     c50:	00a0                	addi	s0,sp,72
     c52:	0000                	unimp
     c54:	0000                	unimp
     c56:	a304                	fsd	fs1,0(a4)
     c58:	5d01                	li	s10,-32
     c5a:	009f 3807 a001      	0xa0013807009f
     c60:	0000                	unimp
     c62:	0000                	unimp
     c64:	5c00                	lw	s0,56(s0)
     c66:	a001                	j	c66 <_text-0x9ff39a>
     c68:	0000                	unimp
     c6a:	0000                	unimp
     c6c:	0200                	addi	s0,sp,256
     c6e:	9f30                	0x9f30
     c70:	a0015c07          	0xa0015c07
     c74:	0000                	unimp
     c76:	0000                	unimp
     c78:	6000                	ld	s0,0(s0)
     c7a:	a001                	j	c7a <_text-0x9ff386>
     c7c:	0000                	unimp
     c7e:	0000                	unimp
     c80:	0600                	addi	s0,sp,768
     c82:	007f                	0x7f
     c84:	007a                	c.slli	zero,0x1e
     c86:	9f1c                	0x9f1c
     c88:	a0016007          	0xa0016007
     c8c:	0000                	unimp
     c8e:	0000                	unimp
     c90:	6400                	ld	s0,8(s0)
     c92:	a001                	j	c92 <_text-0x9ff36e>
     c94:	0000                	unimp
     c96:	0000                	unimp
     c98:	0800                	addi	s0,sp,16
     c9a:	007f                	0x7f
     c9c:	007a                	c.slli	zero,0x1e
     c9e:	231c                	fld	fa5,0(a4)
     ca0:	9f01                	subw	a4,a4,s0
     ca2:	a0019007          	0xa0019007
     ca6:	0000                	unimp
     ca8:	0000                	unimp
     caa:	9c00                	0x9c00
     cac:	a001                	j	cac <_text-0x9ff354>
     cae:	0000                	unimp
     cb0:	0000                	unimp
     cb2:	0200                	addi	s0,sp,256
     cb4:	9f31                	addw	a4,a4,a2
     cb6:	a0019c07          	0xa0019c07
     cba:	0000                	unimp
     cbc:	0000                	unimp
     cbe:	a400                	fsd	fs0,8(s0)
     cc0:	a001                	j	cc0 <_text-0x9ff340>
     cc2:	0000                	unimp
     cc4:	0000                	unimp
     cc6:	0100                	addi	s0,sp,128
     cc8:	075f 01a4 00a0      	0xa001a4075f
     cce:	0000                	unimp
     cd0:	0000                	unimp
     cd2:	01a8                	addi	a0,sp,200
     cd4:	00a0                	addi	s0,sp,72
     cd6:	0000                	unimp
     cd8:	0000                	unimp
     cda:	9f017f03          	0x9f017f03
     cde:	0700                	addi	s0,sp,896
     ce0:	0f44                	addi	s1,sp,916
     ce2:	00a0                	addi	s0,sp,72
     ce4:	0000                	unimp
     ce6:	0000                	unimp
     ce8:	00a00f6b          	0xa00f6b
     cec:	0000                	unimp
     cee:	0000                	unimp
     cf0:	5a01                	li	s4,-32
     cf2:	a00f6b07          	0xa00f6b07
     cf6:	0000                	unimp
     cf8:	0000                	unimp
     cfa:	6c00                	ld	s0,24(s0)
     cfc:	0000a00f          	0xa00f
     d00:	0000                	unimp
     d02:	0400                	addi	s0,sp,512
     d04:	9f5a01a3          	sb	s5,-1565(s4)
     d08:	0700                	addi	s0,sp,896
     d0a:	0f44                	addi	s1,sp,916
     d0c:	00a0                	addi	s0,sp,72
     d0e:	0000                	unimp
     d10:	0000                	unimp
     d12:	00a00f6b          	0xa00f6b
     d16:	0000                	unimp
     d18:	0000                	unimp
     d1a:	5b01                	li	s6,-32
     d1c:	a00f6b07          	0xa00f6b07
     d20:	0000                	unimp
     d22:	0000                	unimp
     d24:	6c00                	ld	s0,24(s0)
     d26:	0000a00f          	0xa00f
     d2a:	0000                	unimp
     d2c:	0400                	addi	s0,sp,512
     d2e:	9f5b01a3          	sb	s5,-1565(s6)
     d32:	0700                	addi	s0,sp,896
     d34:	0f44                	addi	s1,sp,916
     d36:	00a0                	addi	s0,sp,72
     d38:	0000                	unimp
     d3a:	0000                	unimp
     d3c:	00a00f6b          	0xa00f6b
     d40:	0000                	unimp
     d42:	0000                	unimp
     d44:	5c01                	li	s8,-32
     d46:	a00f6b07          	0xa00f6b07
     d4a:	0000                	unimp
     d4c:	0000                	unimp
     d4e:	6c00                	ld	s0,24(s0)
     d50:	0000a00f          	0xa00f
     d54:	0000                	unimp
     d56:	0400                	addi	s0,sp,512
     d58:	9f5c01a3          	sb	s5,-1565(s8)
     d5c:	0700                	addi	s0,sp,896
     d5e:	0f44                	addi	s1,sp,916
     d60:	00a0                	addi	s0,sp,72
     d62:	0000                	unimp
     d64:	0000                	unimp
     d66:	0f64                	addi	s1,sp,924
     d68:	00a0                	addi	s0,sp,72
     d6a:	0000                	unimp
     d6c:	0000                	unimp
     d6e:	5d01                	li	s10,-32
     d70:	a00f6407          	0xa00f6407
     d74:	0000                	unimp
     d76:	0000                	unimp
     d78:	6c00                	ld	s0,24(s0)
     d7a:	0000a00f          	0xa00f
     d7e:	0000                	unimp
     d80:	0400                	addi	s0,sp,512
     d82:	9f5d01a3          	sb	s5,-1565(s10)
     d86:	0700                	addi	s0,sp,896
     d88:	0ec8                	addi	a0,sp,852
     d8a:	00a0                	addi	s0,sp,72
     d8c:	0000                	unimp
     d8e:	0000                	unimp
     d90:	0f04                	addi	s1,sp,912
     d92:	00a0                	addi	s0,sp,72
     d94:	0000                	unimp
     d96:	0000                	unimp
     d98:	5a01                	li	s4,-32
     d9a:	a00f0407          	0xa00f0407
     d9e:	0000                	unimp
     da0:	0000                	unimp
     da2:	0b00                	addi	s0,sp,400
     da4:	0000a00f          	0xa00f
     da8:	0000                	unimp
     daa:	0100                	addi	s0,sp,128
     dac:	0f0b075b          	0xf0b075b
     db0:	00a0                	addi	s0,sp,72
     db2:	0000                	unimp
     db4:	0000                	unimp
     db6:	0f44                	addi	s1,sp,916
     db8:	00a0                	addi	s0,sp,72
     dba:	0000                	unimp
     dbc:	0000                	unimp
     dbe:	a304                	fsd	fs1,0(a4)
     dc0:	5a01                	li	s4,-32
     dc2:	009f c807 a00e      	0xa00ec807009f
     dc8:	0000                	unimp
     dca:	0000                	unimp
     dcc:	fc00                	sd	s0,56(s0)
     dce:	a00e                	fsd	ft3,0(sp)
     dd0:	0000                	unimp
     dd2:	0000                	unimp
     dd4:	0100                	addi	s0,sp,128
     dd6:	0efc075b          	0xefc075b
     dda:	00a0                	addi	s0,sp,72
     ddc:	0000                	unimp
     dde:	0000                	unimp
     de0:	0f44                	addi	s1,sp,916
     de2:	00a0                	addi	s0,sp,72
     de4:	0000                	unimp
     de6:	0000                	unimp
     de8:	a304                	fsd	fs1,0(a4)
     dea:	5b01                	li	s6,-32
     dec:	009f c807 a00e      	0xa00ec807009f
     df2:	0000                	unimp
     df4:	0000                	unimp
     df6:	f800                	sd	s0,48(s0)
     df8:	a00e                	fsd	ft3,0(sp)
     dfa:	0000                	unimp
     dfc:	0000                	unimp
     dfe:	0100                	addi	s0,sp,128
     e00:	075c                	addi	a5,sp,900
     e02:	0ef8                	addi	a4,sp,860
     e04:	00a0                	addi	s0,sp,72
     e06:	0000                	unimp
     e08:	0000                	unimp
     e0a:	0f44                	addi	s1,sp,916
     e0c:	00a0                	addi	s0,sp,72
     e0e:	0000                	unimp
     e10:	0000                	unimp
     e12:	5901                	li	s2,-32
     e14:	0700                	addi	s0,sp,896
     e16:	0f20                	addi	s0,sp,920
     e18:	00a0                	addi	s0,sp,72
     e1a:	0000                	unimp
     e1c:	0000                	unimp
     e1e:	0f40                	addi	s0,sp,916
     e20:	00a0                	addi	s0,sp,72
     e22:	0000                	unimp
     e24:	0000                	unimp
     e26:	3a02                	fld	fs4,32(sp)
     e28:	009f 2007 a00f      	0xa00f2007009f
     e2e:	0000                	unimp
     e30:	0000                	unimp
     e32:	4000                	lw	s0,0(s0)
     e34:	0000a00f          	0xa00f
     e38:	0000                	unimp
     e3a:	0200                	addi	s0,sp,256
     e3c:	9f30                	0x9f30
     e3e:	0700                	addi	s0,sp,896
     e40:	0f20                	addi	s0,sp,920
     e42:	00a0                	addi	s0,sp,72
     e44:	0000                	unimp
     e46:	0000                	unimp
     e48:	0f40                	addi	s0,sp,916
     e4a:	00a0                	addi	s0,sp,72
     e4c:	0000                	unimp
     e4e:	0000                	unimp
     e50:	3402                	fld	fs0,32(sp)
     e52:	009f 4807 a00e      	0xa00e4807009f
     e58:	0000                	unimp
     e5a:	0000                	unimp
     e5c:	8300                	0x8300
     e5e:	a00e                	fsd	ft3,0(sp)
     e60:	0000                	unimp
     e62:	0000                	unimp
     e64:	0100                	addi	s0,sp,128
     e66:	075a                	slli	a4,a4,0x16
     e68:	00a00e83          	lb	t4,10(zero) # a <_text-0x9ffff6>
     e6c:	0000                	unimp
     e6e:	0000                	unimp
     e70:	0ec8                	addi	a0,sp,852
     e72:	00a0                	addi	s0,sp,72
     e74:	0000                	unimp
     e76:	0000                	unimp
     e78:	a304                	fsd	fs1,0(a4)
     e7a:	5a01                	li	s4,-32
     e7c:	009f 9007 a00e      	0xa00e9007009f
     e82:	0000                	unimp
     e84:	0000                	unimp
     e86:	b000                	fsd	fs0,32(s0)
     e88:	a00e                	fsd	ft3,0(sp)
     e8a:	0000                	unimp
     e8c:	0000                	unimp
     e8e:	0100                	addi	s0,sp,128
     e90:	9007005b          	0x9007005b
     e94:	a00e                	fsd	ft3,0(sp)
     e96:	0000                	unimp
     e98:	0000                	unimp
     e9a:	b000                	fsd	fs0,32(s0)
     e9c:	a00e                	fsd	ft3,0(sp)
     e9e:	0000                	unimp
     ea0:	0000                	unimp
     ea2:	0200                	addi	s0,sp,256
     ea4:	9f30                	0x9f30
     ea6:	0700                	addi	s0,sp,896
     ea8:	0e90                	addi	a2,sp,848
     eaa:	00a0                	addi	s0,sp,72
     eac:	0000                	unimp
     eae:	0000                	unimp
     eb0:	0eb0                	addi	a2,sp,856
     eb2:	00a0                	addi	s0,sp,72
     eb4:	0000                	unimp
     eb6:	0000                	unimp
     eb8:	3502                	fld	fa0,32(sp)
     eba:	009f 8807 a004      	0xa0048807009f
     ec0:	0000                	unimp
     ec2:	0000                	unimp
     ec4:	f000                	sd	s0,32(s0)
     ec6:	a004                	fsd	fs1,0(s0)
     ec8:	0000                	unimp
     eca:	0000                	unimp
     ecc:	0100                	addi	s0,sp,128
     ece:	075a                	slli	a4,a4,0x16
     ed0:	04f0                	addi	a2,sp,588
     ed2:	00a0                	addi	s0,sp,72
     ed4:	0000                	unimp
     ed6:	0000                	unimp
     ed8:	0e24                	addi	s1,sp,792
     eda:	00a0                	addi	s0,sp,72
     edc:	0000                	unimp
     ede:	0000                	unimp
     ee0:	6201                	0x6201
     ee2:	a00e2407          	flw	fs0,-1536(t3) # 18a00 <_text-0x9e7600>
     ee6:	0000                	unimp
     ee8:	0000                	unimp
     eea:	4400                	lw	s0,8(s0)
     eec:	a00e                	fsd	ft3,0(sp)
     eee:	0000                	unimp
     ef0:	0000                	unimp
     ef2:	0400                	addi	s0,sp,512
     ef4:	9f5a01a3          	sb	s5,-1565(s4)
     ef8:	a00e4407          	flq	fs0,-1536(t3)
     efc:	0000                	unimp
     efe:	0000                	unimp
     f00:	4800                	lw	s0,16(s0)
     f02:	a00e                	fsd	ft3,0(sp)
     f04:	0000                	unimp
     f06:	0000                	unimp
     f08:	0100                	addi	s0,sp,128
     f0a:	005a                	c.slli	zero,0x16
     f0c:	a0048807          	0xa0048807
     f10:	0000                	unimp
     f12:	0000                	unimp
     f14:	f000                	sd	s0,32(s0)
     f16:	a004                	fsd	fs1,0(s0)
     f18:	0000                	unimp
     f1a:	0000                	unimp
     f1c:	0100                	addi	s0,sp,128
     f1e:	04f0075b          	0x4f0075b
     f22:	00a0                	addi	s0,sp,72
     f24:	0000                	unimp
     f26:	0000                	unimp
     f28:	0730                	addi	a2,sp,904
     f2a:	00a0                	addi	s0,sp,72
     f2c:	0000                	unimp
     f2e:	0000                	unimp
     f30:	6501                	0x6501
     f32:	a0073007          	fld	ft0,-1536(a4) # 17a00 <_text-0x9e8600>
     f36:	0000                	unimp
     f38:	0000                	unimp
     f3a:	9400                	0x9400
     f3c:	0000a007          	flw	ft0,0(ra)
     f40:	0000                	unimp
     f42:	0100                	addi	s0,sp,128
     f44:	0768                	addi	a0,sp,908
     f46:	0794                	addi	a3,sp,960
     f48:	00a0                	addi	s0,sp,72
     f4a:	0000                	unimp
     f4c:	0000                	unimp
     f4e:	07a0                	addi	s0,sp,968
     f50:	00a0                	addi	s0,sp,72
     f52:	0000                	unimp
     f54:	0000                	unimp
     f56:	9f088503          	lb	a0,-1552(a7)
     f5a:	a007a007          	flw	ft0,-1536(a5)
     f5e:	0000                	unimp
     f60:	0000                	unimp
     f62:	d800                	sw	s0,48(s0)
     f64:	0000a007          	flw	ft0,0(ra)
     f68:	0000                	unimp
     f6a:	0100                	addi	s0,sp,128
     f6c:	0765                	addi	a4,a4,25
     f6e:	07d8                	addi	a4,sp,964
     f70:	00a0                	addi	s0,sp,72
     f72:	0000                	unimp
     f74:	0000                	unimp
     f76:	07e4                	addi	s1,sp,972
     f78:	00a0                	addi	s0,sp,72
     f7a:	0000                	unimp
     f7c:	0000                	unimp
     f7e:	9f088503          	lb	a0,-1552(a7)
     f82:	a007e407          	0xa007e407
     f86:	0000                	unimp
     f88:	0000                	unimp
     f8a:	b800                	fsd	fs0,48(s0)
     f8c:	a008                	fsd	fa0,0(s0)
     f8e:	0000                	unimp
     f90:	0000                	unimp
     f92:	0100                	addi	s0,sp,128
     f94:	0765                	addi	a4,a4,25
     f96:	08b8                	addi	a4,sp,88
     f98:	00a0                	addi	s0,sp,72
     f9a:	0000                	unimp
     f9c:	0000                	unimp
     f9e:	08c0                	addi	s0,sp,84
     fa0:	00a0                	addi	s0,sp,72
     fa2:	0000                	unimp
     fa4:	0000                	unimp
     fa6:	9f088503          	lb	a0,-1552(a7)
     faa:	a008c007          	flq	ft0,-1536(a7)
     fae:	0000                	unimp
     fb0:	0000                	unimp
     fb2:	f400                	sd	s0,40(s0)
     fb4:	a008                	fsd	fa0,0(s0)
     fb6:	0000                	unimp
     fb8:	0000                	unimp
     fba:	0100                	addi	s0,sp,128
     fbc:	0765                	addi	a4,a4,25
     fbe:	08f4                	addi	a3,sp,92
     fc0:	00a0                	addi	s0,sp,72
     fc2:	0000                	unimp
     fc4:	0000                	unimp
     fc6:	08fc                	addi	a5,sp,92
     fc8:	00a0                	addi	s0,sp,72
     fca:	0000                	unimp
     fcc:	0000                	unimp
     fce:	9f088503          	lb	a0,-1552(a7)
     fd2:	a008fc07          	0xa008fc07
     fd6:	0000                	unimp
     fd8:	0000                	unimp
     fda:	c400                	sw	s0,8(s0)
     fdc:	a009                	j	fde <_text-0x9ff022>
     fde:	0000                	unimp
     fe0:	0000                	unimp
     fe2:	0100                	addi	s0,sp,128
     fe4:	0765                	addi	a4,a4,25
     fe6:	09c4                	addi	s1,sp,212
     fe8:	00a0                	addi	s0,sp,72
     fea:	0000                	unimp
     fec:	0000                	unimp
     fee:	09cc                	addi	a1,sp,212
     ff0:	00a0                	addi	s0,sp,72
     ff2:	0000                	unimp
     ff4:	0000                	unimp
     ff6:	9f088503          	lb	a0,-1552(a7)
     ffa:	a009cc07          	flq	fs8,-1536(s3)
     ffe:	0000                	unimp
    1000:	0000                	unimp
    1002:	0000                	unimp
    1004:	a00a                	fsd	ft2,0(sp)
    1006:	0000                	unimp
    1008:	0000                	unimp
    100a:	0100                	addi	s0,sp,128
    100c:	0765                	addi	a4,a4,25
    100e:	0a00                	addi	s0,sp,272
    1010:	00a0                	addi	s0,sp,72
    1012:	0000                	unimp
    1014:	0000                	unimp
    1016:	0a08                	addi	a0,sp,272
    1018:	00a0                	addi	s0,sp,72
    101a:	0000                	unimp
    101c:	0000                	unimp
    101e:	9f088503          	lb	a0,-1552(a7)
    1022:	a00a0807          	0xa00a0807
    1026:	0000                	unimp
    1028:	0000                	unimp
    102a:	d000                	sw	s0,32(s0)
    102c:	a00a                	fsd	ft2,0(sp)
    102e:	0000                	unimp
    1030:	0000                	unimp
    1032:	0100                	addi	s0,sp,128
    1034:	0765                	addi	a4,a4,25
    1036:	0ad0                	addi	a2,sp,340
    1038:	00a0                	addi	s0,sp,72
    103a:	0000                	unimp
    103c:	0000                	unimp
    103e:	0ad8                	addi	a4,sp,340
    1040:	00a0                	addi	s0,sp,72
    1042:	0000                	unimp
    1044:	0000                	unimp
    1046:	9f088503          	lb	a0,-1552(a7)
    104a:	a00ad807          	0xa00ad807
    104e:	0000                	unimp
    1050:	0000                	unimp
    1052:	0c00                	addi	s0,sp,528
    1054:	0000a00b          	0xa00b
    1058:	0000                	unimp
    105a:	0100                	addi	s0,sp,128
    105c:	0765                	addi	a4,a4,25
    105e:	0b0c                	addi	a1,sp,400
    1060:	00a0                	addi	s0,sp,72
    1062:	0000                	unimp
    1064:	0000                	unimp
    1066:	0b14                	addi	a3,sp,400
    1068:	00a0                	addi	s0,sp,72
    106a:	0000                	unimp
    106c:	0000                	unimp
    106e:	9f088503          	lb	a0,-1552(a7)
    1072:	a00b1407          	0xa00b1407
    1076:	0000                	unimp
    1078:	0000                	unimp
    107a:	dc00                	sw	s0,56(s0)
    107c:	0000a00b          	0xa00b
    1080:	0000                	unimp
    1082:	0100                	addi	s0,sp,128
    1084:	0765                	addi	a4,a4,25
    1086:	0bdc                	addi	a5,sp,468
    1088:	00a0                	addi	s0,sp,72
    108a:	0000                	unimp
    108c:	0000                	unimp
    108e:	0be4                	addi	s1,sp,476
    1090:	00a0                	addi	s0,sp,72
    1092:	0000                	unimp
    1094:	0000                	unimp
    1096:	9f088503          	lb	a0,-1552(a7)
    109a:	a00be407          	0xa00be407
    109e:	0000                	unimp
    10a0:	0000                	unimp
    10a2:	1800                	addi	s0,sp,48
    10a4:	a00c                	fsd	fa1,0(s0)
    10a6:	0000                	unimp
    10a8:	0000                	unimp
    10aa:	0100                	addi	s0,sp,128
    10ac:	0765                	addi	a4,a4,25
    10ae:	0c18                	addi	a4,sp,528
    10b0:	00a0                	addi	s0,sp,72
    10b2:	0000                	unimp
    10b4:	0000                	unimp
    10b6:	0c20                	addi	s0,sp,536
    10b8:	00a0                	addi	s0,sp,72
    10ba:	0000                	unimp
    10bc:	0000                	unimp
    10be:	9f088503          	lb	a0,-1552(a7)
    10c2:	a00c2007          	flw	ft0,-1536(s8)
    10c6:	0000                	unimp
    10c8:	0000                	unimp
    10ca:	e000                	sd	s0,0(s0)
    10cc:	a00c                	fsd	fa1,0(s0)
    10ce:	0000                	unimp
    10d0:	0000                	unimp
    10d2:	0100                	addi	s0,sp,128
    10d4:	0765                	addi	a4,a4,25
    10d6:	0ce0                	addi	s0,sp,604
    10d8:	00a0                	addi	s0,sp,72
    10da:	0000                	unimp
    10dc:	0000                	unimp
    10de:	0dd8                	addi	a4,sp,724
    10e0:	00a0                	addi	s0,sp,72
    10e2:	0000                	unimp
    10e4:	0000                	unimp
    10e6:	6801                	0x6801
    10e8:	a00dd807          	0xa00dd807
    10ec:	0000                	unimp
    10ee:	0000                	unimp
    10f0:	0c00                	addi	s0,sp,528
    10f2:	a00e                	fsd	ft3,0(sp)
    10f4:	0000                	unimp
    10f6:	0000                	unimp
    10f8:	0100                	addi	s0,sp,128
    10fa:	0765                	addi	a4,a4,25
    10fc:	0e0c                	addi	a1,sp,784
    10fe:	00a0                	addi	s0,sp,72
    1100:	0000                	unimp
    1102:	0000                	unimp
    1104:	0e14                	addi	a3,sp,784
    1106:	00a0                	addi	s0,sp,72
    1108:	0000                	unimp
    110a:	0000                	unimp
    110c:	6801                	0x6801
    110e:	a00e1407          	0xa00e1407
    1112:	0000                	unimp
    1114:	0000                	unimp
    1116:	3000                	fld	fs0,32(s0)
    1118:	a00e                	fsd	ft3,0(sp)
    111a:	0000                	unimp
    111c:	0000                	unimp
    111e:	0100                	addi	s0,sp,128
    1120:	0765                	addi	a4,a4,25
    1122:	0e44                	addi	s1,sp,788
    1124:	00a0                	addi	s0,sp,72
    1126:	0000                	unimp
    1128:	0000                	unimp
    112a:	0e48                	addi	a0,sp,788
    112c:	00a0                	addi	s0,sp,72
    112e:	0000                	unimp
    1130:	0000                	unimp
    1132:	5b01                	li	s6,-32
    1134:	0700                	addi	s0,sp,896
    1136:	0488                	addi	a0,sp,576
    1138:	00a0                	addi	s0,sp,72
    113a:	0000                	unimp
    113c:	0000                	unimp
    113e:	04f0                	addi	a2,sp,588
    1140:	00a0                	addi	s0,sp,72
    1142:	0000                	unimp
    1144:	0000                	unimp
    1146:	3002                	fld	ft0,32(sp)
    1148:	079f 04f0 00a0      	0xa004f0079f
    114e:	0000                	unimp
    1150:	0000                	unimp
    1152:	0514                	addi	a3,sp,640
    1154:	00a0                	addi	s0,sp,72
    1156:	0000                	unimp
    1158:	0000                	unimp
    115a:	6701                	0x6701
    115c:	a0052007          	flw	ft0,-1536(a0) # 18a00 <_text-0x9e7600>
    1160:	0000                	unimp
    1162:	0000                	unimp
    1164:	b400                	fsd	fs0,40(s0)
    1166:	a005                	j	1186 <_text-0x9fee7a>
    1168:	0000                	unimp
    116a:	0000                	unimp
    116c:	0100                	addi	s0,sp,128
    116e:	05b40767          	jalr	a4,91(s0)
    1172:	00a0                	addi	s0,sp,72
    1174:	0000                	unimp
    1176:	0000                	unimp
    1178:	05c8                	addi	a0,sp,708
    117a:	00a0                	addi	s0,sp,72
    117c:	0000                	unimp
    117e:	0000                	unimp
    1180:	9f018703          	lb	a4,-1552(gp)
    1184:	a005c807          	flq	fa6,-1536(a1)
    1188:	0000                	unimp
    118a:	0000                	unimp
    118c:	ec00                	sd	s0,24(s0)
    118e:	a005                	j	11ae <_text-0x9fee52>
    1190:	0000                	unimp
    1192:	0000                	unimp
    1194:	0100                	addi	s0,sp,128
    1196:	0756                	slli	a4,a4,0x15
    1198:	05ec                	addi	a1,sp,716
    119a:	00a0                	addi	s0,sp,72
    119c:	0000                	unimp
    119e:	0000                	unimp
    11a0:	0604                	addi	s1,sp,768
    11a2:	00a0                	addi	s0,sp,72
    11a4:	0000                	unimp
    11a6:	0000                	unimp
    11a8:	9f7f7b03          	0x9f7f7b03
    11ac:	a0060407          	0xa0060407
    11b0:	0000                	unimp
    11b2:	0000                	unimp
    11b4:	6000                	ld	s0,0(s0)
    11b6:	a006                	fsd	ft1,0(sp)
    11b8:	0000                	unimp
    11ba:	0000                	unimp
    11bc:	0100                	addi	s0,sp,128
    11be:	0756                	slli	a4,a4,0x15
    11c0:	0660                	addi	s0,sp,780
    11c2:	00a0                	addi	s0,sp,72
    11c4:	0000                	unimp
    11c6:	0000                	unimp
    11c8:	0664                	addi	s1,sp,780
    11ca:	00a0                	addi	s0,sp,72
    11cc:	0000                	unimp
    11ce:	0000                	unimp
    11d0:	9f018703          	lb	a4,-1552(gp)
    11d4:	a0066407          	0xa0066407
    11d8:	0000                	unimp
    11da:	0000                	unimp
    11dc:	7400                	ld	s0,40(s0)
    11de:	a006                	fsd	ft1,0(sp)
    11e0:	0000                	unimp
    11e2:	0000                	unimp
    11e4:	0300                	addi	s0,sp,384
    11e6:	079f0287          	0x79f0287
    11ea:	0674                	addi	a3,sp,780
    11ec:	00a0                	addi	s0,sp,72
    11ee:	0000                	unimp
    11f0:	0000                	unimp
    11f2:	0678                	addi	a4,sp,780
    11f4:	00a0                	addi	s0,sp,72
    11f6:	0000                	unimp
    11f8:	0000                	unimp
    11fa:	5601                	li	a2,-32
    11fc:	a0068807          	0xa0068807
    1200:	0000                	unimp
    1202:	0000                	unimp
    1204:	9400                	0x9400
    1206:	a006                	fsd	ft1,0(sp)
    1208:	0000                	unimp
    120a:	0000                	unimp
    120c:	0100                	addi	s0,sp,128
    120e:	0756                	slli	a4,a4,0x15
    1210:	0694                	addi	a3,sp,832
    1212:	00a0                	addi	s0,sp,72
    1214:	0000                	unimp
    1216:	0000                	unimp
    1218:	06b4                	addi	a3,sp,840
    121a:	00a0                	addi	s0,sp,72
    121c:	0000                	unimp
    121e:	0000                	unimp
    1220:	9f017603          	0x9f017603
    1224:	a006b807          	fld	fa6,-1536(a3)
    1228:	0000                	unimp
    122a:	0000                	unimp
    122c:	bc00                	fsd	fs0,56(s0)
    122e:	a006                	fsd	ft1,0(sp)
    1230:	0000                	unimp
    1232:	0000                	unimp
    1234:	0300                	addi	s0,sp,384
    1236:	7f7c                	ld	a5,248(a4)
    1238:	079f 06bc 00a0      	0xa006bc079f
    123e:	0000                	unimp
    1240:	0000                	unimp
    1242:	06dc                	addi	a5,sp,836
    1244:	00a0                	addi	s0,sp,72
    1246:	0000                	unimp
    1248:	0000                	unimp
    124a:	5601                	li	a2,-32
    124c:	a0072807          	flw	fa6,-1536(a4)
    1250:	0000                	unimp
    1252:	0000                	unimp
    1254:	2c00                	fld	fs0,24(s0)
    1256:	0000a007          	flw	ft0,0(ra)
    125a:	0000                	unimp
    125c:	0100                	addi	s0,sp,128
    125e:	0756                	slli	a4,a4,0x15
    1260:	07d8                	addi	a4,sp,964
    1262:	00a0                	addi	s0,sp,72
    1264:	0000                	unimp
    1266:	0000                	unimp
    1268:	07e8                	addi	a0,sp,972
    126a:	00a0                	addi	s0,sp,72
    126c:	0000                	unimp
    126e:	0000                	unimp
    1270:	5601                	li	a2,-32
    1272:	a008ac07          	flw	fs8,-1536(a7)
    1276:	0000                	unimp
    1278:	0000                	unimp
    127a:	b400                	fsd	fs0,40(s0)
    127c:	a008                	fsd	fa0,0(s0)
    127e:	0000                	unimp
    1280:	0000                	unimp
    1282:	0100                	addi	s0,sp,128
    1284:	0756                	slli	a4,a4,0x15
    1286:	09b8                	addi	a4,sp,216
    1288:	00a0                	addi	s0,sp,72
    128a:	0000                	unimp
    128c:	0000                	unimp
    128e:	09c0                	addi	s0,sp,212
    1290:	00a0                	addi	s0,sp,72
    1292:	0000                	unimp
    1294:	0000                	unimp
    1296:	5601                	li	a2,-32
    1298:	a00ac407          	flq	fs0,-1536(s5)
    129c:	0000                	unimp
    129e:	0000                	unimp
    12a0:	cc00                	sw	s0,24(s0)
    12a2:	a00a                	fsd	ft2,0(sp)
    12a4:	0000                	unimp
    12a6:	0000                	unimp
    12a8:	0100                	addi	s0,sp,128
    12aa:	0756                	slli	a4,a4,0x15
    12ac:	0bd0                	addi	a2,sp,468
    12ae:	00a0                	addi	s0,sp,72
    12b0:	0000                	unimp
    12b2:	0000                	unimp
    12b4:	0bd8                	addi	a4,sp,468
    12b6:	00a0                	addi	s0,sp,72
    12b8:	0000                	unimp
    12ba:	0000                	unimp
    12bc:	5601                	li	a2,-32
    12be:	a00cd807          	0xa00cd807
    12c2:	0000                	unimp
    12c4:	0000                	unimp
    12c6:	dc00                	sw	s0,56(s0)
    12c8:	a00c                	fsd	fa1,0(s0)
    12ca:	0000                	unimp
    12cc:	0000                	unimp
    12ce:	0100                	addi	s0,sp,128
    12d0:	0756                	slli	a4,a4,0x15
    12d2:	0ddc                	addi	a5,sp,724
    12d4:	00a0                	addi	s0,sp,72
    12d6:	0000                	unimp
    12d8:	0000                	unimp
    12da:	0de0                	addi	s0,sp,732
    12dc:	00a0                	addi	s0,sp,72
    12de:	0000                	unimp
    12e0:	0000                	unimp
    12e2:	9f7f7603          	0x9f7f7603
    12e6:	a00e4407          	flq	fs0,-1536(t3)
    12ea:	0000                	unimp
    12ec:	0000                	unimp
    12ee:	4800                	lw	s0,16(s0)
    12f0:	a00e                	fsd	ft3,0(sp)
    12f2:	0000                	unimp
    12f4:	0000                	unimp
    12f6:	0200                	addi	s0,sp,256
    12f8:	9f30                	0x9f30
    12fa:	0700                	addi	s0,sp,896
    12fc:	05bc                	addi	a5,sp,712
    12fe:	00a0                	addi	s0,sp,72
    1300:	0000                	unimp
    1302:	0000                	unimp
    1304:	05c4                	addi	s1,sp,708
    1306:	00a0                	addi	s0,sp,72
    1308:	0000                	unimp
    130a:	0000                	unimp
    130c:	7f08                	ld	a0,56(a4)
    130e:	9400                	0x9400
    1310:	0801                	addi	a6,a6,0
    1312:	1aff                	0x1aff
    1314:	079f 05c4 00a0      	0xa005c4079f
    131a:	0000                	unimp
    131c:	0000                	unimp
    131e:	05c8                	addi	a0,sp,708
    1320:	00a0                	addi	s0,sp,72
    1322:	0000                	unimp
    1324:	0000                	unimp
    1326:	7600820b          	0x7600820b
    132a:	2200                	fld	fs0,0(a2)
    132c:	0194                	addi	a3,sp,192
    132e:	ff08                	sd	a0,56(a4)
    1330:	9f1a                	add	t5,t5,t1
    1332:	a005c807          	flq	fa6,-1536(a1)
    1336:	0000                	unimp
    1338:	0000                	unimp
    133a:	6000                	ld	s0,0(s0)
    133c:	a006                	fsd	ft1,0(sp)
    133e:	0000                	unimp
    1340:	0000                	unimp
    1342:	0100                	addi	s0,sp,128
    1344:	075a                	slli	a4,a4,0x16
    1346:	0660                	addi	s0,sp,780
    1348:	00a0                	addi	s0,sp,72
    134a:	0000                	unimp
    134c:	0000                	unimp
    134e:	0664                	addi	s1,sp,780
    1350:	00a0                	addi	s0,sp,72
    1352:	0000                	unimp
    1354:	0000                	unimp
    1356:	7600820b          	0x7600820b
    135a:	2200                	fld	fs0,0(a2)
    135c:	0194                	addi	a3,sp,192
    135e:	ff08                	sd	a0,56(a4)
    1360:	9f1a                	add	t5,t5,t1
    1362:	a0066407          	0xa0066407
    1366:	0000                	unimp
    1368:	0000                	unimp
    136a:	6c00                	ld	s0,24(s0)
    136c:	a006                	fsd	ft1,0(sp)
    136e:	0000                	unimp
    1370:	0000                	unimp
    1372:	1100                	addi	s0,sp,160
    1374:	20080187          	0x20080187
    1378:	0824                	addi	s1,sp,24
    137a:	2620                	fld	fs0,72(a2)
    137c:	0082                	c.slli64	ra
    137e:	9422                	add	s0,s0,s0
    1380:	0801                	addi	a6,a6,0
    1382:	1aff                	0x1aff
    1384:	079f 066c 00a0      	0xa0066c079f
    138a:	0000                	unimp
    138c:	0000                	unimp
    138e:	0670                	addi	a2,sp,780
    1390:	00a0                	addi	s0,sp,72
    1392:	0000                	unimp
    1394:	0000                	unimp
    1396:	7f08                	ld	a0,56(a4)
    1398:	9400                	0x9400
    139a:	0801                	addi	a6,a6,0
    139c:	1aff                	0x1aff
    139e:	079f 0670 00a0      	0xa00670079f
    13a4:	0000                	unimp
    13a6:	0000                	unimp
    13a8:	0674                	addi	a3,sp,780
    13aa:	00a0                	addi	s0,sp,72
    13ac:	0000                	unimp
    13ae:	0000                	unimp
    13b0:	7600820b          	0x7600820b
    13b4:	2200                	fld	fs0,0(a2)
    13b6:	0194                	addi	a3,sp,192
    13b8:	ff08                	sd	a0,56(a4)
    13ba:	9f1a                	add	t5,t5,t1
    13bc:	a0067407          	0xa0067407
    13c0:	0000                	unimp
    13c2:	0000                	unimp
    13c4:	8000                	0x8000
    13c6:	a006                	fsd	ft1,0(sp)
    13c8:	0000                	unimp
    13ca:	0000                	unimp
    13cc:	0100                	addi	s0,sp,128
    13ce:	075a                	slli	a4,a4,0x16
    13d0:	0680                	addi	s0,sp,832
    13d2:	00a0                	addi	s0,sp,72
    13d4:	0000                	unimp
    13d6:	0000                	unimp
    13d8:	0688                	addi	a0,sp,832
    13da:	00a0                	addi	s0,sp,72
    13dc:	0000                	unimp
    13de:	0000                	unimp
    13e0:	7e08                	ld	a0,56(a2)
    13e2:	9400                	0x9400
    13e4:	0801                	addi	a6,a6,0
    13e6:	1aff                	0x1aff
    13e8:	079f 0688 00a0      	0xa00688079f
    13ee:	0000                	unimp
    13f0:	0000                	unimp
    13f2:	069c                	addi	a5,sp,832
    13f4:	00a0                	addi	s0,sp,72
    13f6:	0000                	unimp
    13f8:	0000                	unimp
    13fa:	5a01                	li	s4,-32
    13fc:	a0069c07          	0xa0069c07
    1400:	0000                	unimp
    1402:	0000                	unimp
    1404:	b000                	fsd	fs0,32(s0)
    1406:	a006                	fsd	ft1,0(sp)
    1408:	0000                	unimp
    140a:	0000                	unimp
    140c:	0600                	addi	s0,sp,768
    140e:	007a                	c.slli	zero,0x1e
    1410:	ff08                	sd	a0,56(a4)
    1412:	9f1a                	add	t5,t5,t1
    1414:	a006b007          	fld	ft0,-1536(a3)
    1418:	0000                	unimp
    141a:	0000                	unimp
    141c:	b800                	fsd	fs0,48(s0)
    141e:	a006                	fsd	ft1,0(sp)
    1420:	0000                	unimp
    1422:	0000                	unimp
    1424:	0b00                	addi	s0,sp,400
    1426:	0082                	c.slli64	ra
    1428:	007d                	c.nop	31
    142a:	9422                	add	s0,s0,s0
    142c:	0801                	addi	a6,a6,0
    142e:	1aff                	0x1aff
    1430:	079f 06c4 00a0      	0xa006c4079f
    1436:	0000                	unimp
    1438:	0000                	unimp
    143a:	06d4                	addi	a3,sp,836
    143c:	00a0                	addi	s0,sp,72
    143e:	0000                	unimp
    1440:	0000                	unimp
    1442:	7a06                	ld	s4,96(sp)
    1444:	0800                	addi	s0,sp,16
    1446:	1aff                	0x1aff
    1448:	079f 06d4 00a0      	0xa006d4079f
    144e:	0000                	unimp
    1450:	0000                	unimp
    1452:	06d8                	addi	a4,sp,836
    1454:	00a0                	addi	s0,sp,72
    1456:	0000                	unimp
    1458:	0000                	unimp
    145a:	820d                	srli	a2,a2,0x3
    145c:	7c00                	ld	s0,56(s0)
    145e:	2200                	fld	fs0,0(a2)
    1460:	1c31                	addi	s8,s8,-20
    1462:	0194                	addi	a3,sp,192
    1464:	ff08                	sd	a0,56(a4)
    1466:	9f1a                	add	t5,t5,t1
    1468:	a006d807          	0xa006d807
    146c:	0000                	unimp
    146e:	0000                	unimp
    1470:	e400                	sd	s0,8(s0)
    1472:	a006                	fsd	ft1,0(sp)
    1474:	0000                	unimp
    1476:	0000                	unimp
    1478:	0100                	addi	s0,sp,128
    147a:	075a                	slli	a4,a4,0x16
    147c:	06e4                	addi	s1,sp,844
    147e:	00a0                	addi	s0,sp,72
    1480:	0000                	unimp
    1482:	0000                	unimp
    1484:	0728                	addi	a0,sp,904
    1486:	00a0                	addi	s0,sp,72
    1488:	0000                	unimp
    148a:	0000                	unimp
    148c:	7a06                	ld	s4,96(sp)
    148e:	0800                	addi	s0,sp,16
    1490:	1aff                	0x1aff
    1492:	079f 0728 00a0      	0xa00728079f
    1498:	0000                	unimp
    149a:	0000                	unimp
    149c:	072c                	addi	a1,sp,904
    149e:	00a0                	addi	s0,sp,72
    14a0:	0000                	unimp
    14a2:	0000                	unimp
    14a4:	5a01                	li	s4,-32
    14a6:	a0079407          	0xa0079407
    14aa:	0000                	unimp
    14ac:	0000                	unimp
    14ae:	a000                	fsd	fs0,0(s0)
    14b0:	0000a007          	flw	ft0,0(ra)
    14b4:	0000                	unimp
    14b6:	0600                	addi	s0,sp,768
    14b8:	007a                	c.slli	zero,0x1e
    14ba:	ff08                	sd	a0,56(a4)
    14bc:	9f1a                	add	t5,t5,t1
    14be:	a007d807          	0xa007d807
    14c2:	0000                	unimp
    14c4:	0000                	unimp
    14c6:	e800                	sd	s0,16(s0)
    14c8:	0000a007          	flw	ft0,0(ra)
    14cc:	0000                	unimp
    14ce:	0100                	addi	s0,sp,128
    14d0:	075a                	slli	a4,a4,0x16
    14d2:	08a0                	addi	s0,sp,88
    14d4:	00a0                	addi	s0,sp,72
    14d6:	0000                	unimp
    14d8:	0000                	unimp
    14da:	08ac                	addi	a1,sp,88
    14dc:	00a0                	addi	s0,sp,72
    14de:	0000                	unimp
    14e0:	0000                	unimp
    14e2:	7a06                	ld	s4,96(sp)
    14e4:	0800                	addi	s0,sp,16
    14e6:	1aff                	0x1aff
    14e8:	079f 08ac 00a0      	0xa008ac079f
    14ee:	0000                	unimp
    14f0:	0000                	unimp
    14f2:	08b4                	addi	a3,sp,88
    14f4:	00a0                	addi	s0,sp,72
    14f6:	0000                	unimp
    14f8:	0000                	unimp
    14fa:	5a01                	li	s4,-32
    14fc:	a009ac07          	flw	fs8,-1536(s3)
    1500:	0000                	unimp
    1502:	0000                	unimp
    1504:	b800                	fsd	fs0,48(s0)
    1506:	a009                	j	1508 <_text-0x9feaf8>
    1508:	0000                	unimp
    150a:	0000                	unimp
    150c:	0600                	addi	s0,sp,768
    150e:	007a                	c.slli	zero,0x1e
    1510:	ff08                	sd	a0,56(a4)
    1512:	9f1a                	add	t5,t5,t1
    1514:	a009b807          	fld	fa6,-1536(s3)
    1518:	0000                	unimp
    151a:	0000                	unimp
    151c:	c000                	sw	s0,0(s0)
    151e:	a009                	j	1520 <_text-0x9feae0>
    1520:	0000                	unimp
    1522:	0000                	unimp
    1524:	0100                	addi	s0,sp,128
    1526:	075a                	slli	a4,a4,0x16
    1528:	0ab8                	addi	a4,sp,344
    152a:	00a0                	addi	s0,sp,72
    152c:	0000                	unimp
    152e:	0000                	unimp
    1530:	0ac4                	addi	s1,sp,340
    1532:	00a0                	addi	s0,sp,72
    1534:	0000                	unimp
    1536:	0000                	unimp
    1538:	7a06                	ld	s4,96(sp)
    153a:	0800                	addi	s0,sp,16
    153c:	1aff                	0x1aff
    153e:	079f 0ac4 00a0      	0xa00ac4079f
    1544:	0000                	unimp
    1546:	0000                	unimp
    1548:	0acc                	addi	a1,sp,340
    154a:	00a0                	addi	s0,sp,72
    154c:	0000                	unimp
    154e:	0000                	unimp
    1550:	5a01                	li	s4,-32
    1552:	a00bc407          	flq	fs0,-1536(s7)
    1556:	0000                	unimp
    1558:	0000                	unimp
    155a:	d000                	sw	s0,32(s0)
    155c:	0000a00b          	0xa00b
    1560:	0000                	unimp
    1562:	0600                	addi	s0,sp,768
    1564:	007a                	c.slli	zero,0x1e
    1566:	ff08                	sd	a0,56(a4)
    1568:	9f1a                	add	t5,t5,t1
    156a:	a00bd007          	0xa00bd007
    156e:	0000                	unimp
    1570:	0000                	unimp
    1572:	d800                	sw	s0,48(s0)
    1574:	0000a00b          	0xa00b
    1578:	0000                	unimp
    157a:	0100                	addi	s0,sp,128
    157c:	075a                	slli	a4,a4,0x16
    157e:	0cd0                	addi	a2,sp,596
    1580:	00a0                	addi	s0,sp,72
    1582:	0000                	unimp
    1584:	0000                	unimp
    1586:	0cd8                	addi	a4,sp,596
    1588:	00a0                	addi	s0,sp,72
    158a:	0000                	unimp
    158c:	0000                	unimp
    158e:	7a06                	ld	s4,96(sp)
    1590:	0800                	addi	s0,sp,16
    1592:	1aff                	0x1aff
    1594:	079f 0cd8 00a0      	0xa00cd8079f
    159a:	0000                	unimp
    159c:	0000                	unimp
    159e:	0cdc                	addi	a5,sp,596
    15a0:	00a0                	addi	s0,sp,72
    15a2:	0000                	unimp
    15a4:	0000                	unimp
    15a6:	5a01                	li	s4,-32
    15a8:	a00de007          	0xa00de007
    15ac:	0000                	unimp
    15ae:	0000                	unimp
    15b0:	e400                	sd	s0,8(s0)
    15b2:	a00d                	j	15d4 <_text-0x9fea2c>
    15b4:	0000                	unimp
    15b6:	0000                	unimp
    15b8:	0600                	addi	s0,sp,768
    15ba:	007a                	c.slli	zero,0x1e
    15bc:	ff08                	sd	a0,56(a4)
    15be:	9f1a                	add	t5,t5,t1
    15c0:	0700                	addi	s0,sp,896
    15c2:	0ce8                	addi	a0,sp,604
    15c4:	00a0                	addi	s0,sp,72
    15c6:	0000                	unimp
    15c8:	0000                	unimp
    15ca:	00a00cfb          	0xa00cfb
    15ce:	0000                	unimp
    15d0:	0000                	unimp
    15d2:	5b01                	li	s6,-32
    15d4:	0700                	addi	s0,sp,896
    15d6:	07a0                	addi	s0,sp,968
    15d8:	00a0                	addi	s0,sp,72
    15da:	0000                	unimp
    15dc:	0000                	unimp
    15de:	00a007bb          	addw	a5,zero,a0
    15e2:	0000                	unimp
    15e4:	0000                	unimp
    15e6:	5b01                	li	s6,-32
    15e8:	a007dc07          	0xa007dc07
    15ec:	0000                	unimp
    15ee:	0000                	unimp
    15f0:	f400                	sd	s0,40(s0)
    15f2:	0000a007          	flw	ft0,0(ra)
    15f6:	0000                	unimp
    15f8:	0100                	addi	s0,sp,128
    15fa:	08c0075b          	0x8c0075b
    15fe:	00a0                	addi	s0,sp,72
    1600:	0000                	unimp
    1602:	0000                	unimp
    1604:	00a008d7          	0xa008d7
    1608:	0000                	unimp
    160a:	0000                	unimp
    160c:	5b01                	li	s6,-32
    160e:	a008f807          	0xa008f807
    1612:	0000                	unimp
    1614:	0000                	unimp
    1616:	0000                	unimp
    1618:	a009                	j	161a <_text-0x9fe9e6>
    161a:	0000                	unimp
    161c:	0000                	unimp
    161e:	0100                	addi	s0,sp,128
    1620:	09cc075b          	0x9cc075b
    1624:	00a0                	addi	s0,sp,72
    1626:	0000                	unimp
    1628:	0000                	unimp
    162a:	00a009e3          	beq	zero,a0,1e3c <_text-0x9fe1c4>
    162e:	0000                	unimp
    1630:	0000                	unimp
    1632:	5b01                	li	s6,-32
    1634:	a00a0407          	0xa00a0407
    1638:	0000                	unimp
    163a:	0000                	unimp
    163c:	0c00                	addi	s0,sp,528
    163e:	a00a                	fsd	ft2,0(sp)
    1640:	0000                	unimp
    1642:	0000                	unimp
    1644:	0100                	addi	s0,sp,128
    1646:	0ad8075b          	0xad8075b
    164a:	00a0                	addi	s0,sp,72
    164c:	0000                	unimp
    164e:	0000                	unimp
    1650:	00a00aef          	jal	s5,165a <_text-0x9fe9a6>
    1654:	0000                	unimp
    1656:	0000                	unimp
    1658:	5b01                	li	s6,-32
    165a:	a00b1007          	0xa00b1007
    165e:	0000                	unimp
    1660:	0000                	unimp
    1662:	1800                	addi	s0,sp,48
    1664:	0000a00b          	0xa00b
    1668:	0000                	unimp
    166a:	0100                	addi	s0,sp,128
    166c:	0be4075b          	0xbe4075b
    1670:	00a0                	addi	s0,sp,72
    1672:	0000                	unimp
    1674:	0000                	unimp
    1676:	00a00bfb          	0xa00bfb
    167a:	0000                	unimp
    167c:	0000                	unimp
    167e:	5b01                	li	s6,-32
    1680:	a00c1c07          	0xa00c1c07
    1684:	0000                	unimp
    1686:	0000                	unimp
    1688:	2400                	fld	fs0,8(s0)
    168a:	a00c                	fsd	fa1,0(s0)
    168c:	0000                	unimp
    168e:	0000                	unimp
    1690:	0100                	addi	s0,sp,128
    1692:	2c07005b          	0x2c07005b
    1696:	a006                	fsd	ft1,0(sp)
    1698:	0000                	unimp
    169a:	0000                	unimp
    169c:	6000                	ld	s0,0(s0)
    169e:	a006                	fsd	ft1,0(sp)
    16a0:	0000                	unimp
    16a2:	0000                	unimp
    16a4:	0200                	addi	s0,sp,256
    16a6:	9f30                	0x9f30
    16a8:	a006d807          	0xa006d807
    16ac:	0000                	unimp
    16ae:	0000                	unimp
    16b0:	2800                	fld	fs0,16(s0)
    16b2:	0000a007          	flw	ft0,0(ra)
    16b6:	0000                	unimp
    16b8:	0200                	addi	s0,sp,256
    16ba:	9f31                	addw	a4,a4,a2
    16bc:	a0072807          	flw	fa6,-1536(a4)
    16c0:	0000                	unimp
    16c2:	0000                	unimp
    16c4:	2c00                	fld	fs0,24(s0)
    16c6:	0000a007          	flw	ft0,0(ra)
    16ca:	0000                	unimp
    16cc:	0200                	addi	s0,sp,256
    16ce:	9f30                	0x9f30
    16d0:	a0079407          	0xa0079407
    16d4:	0000                	unimp
    16d6:	0000                	unimp
    16d8:	a000                	fsd	fs0,0(s0)
    16da:	0000a007          	flw	ft0,0(ra)
    16de:	0000                	unimp
    16e0:	0200                	addi	s0,sp,256
    16e2:	9f31                	addw	a4,a4,a2
    16e4:	a007d807          	0xa007d807
    16e8:	0000                	unimp
    16ea:	0000                	unimp
    16ec:	e800                	sd	s0,16(s0)
    16ee:	0000a007          	flw	ft0,0(ra)
    16f2:	0000                	unimp
    16f4:	0200                	addi	s0,sp,256
    16f6:	9f30                	0x9f30
    16f8:	a008a007          	flw	ft0,-1536(a7)
    16fc:	0000                	unimp
    16fe:	0000                	unimp
    1700:	ac00                	fsd	fs0,24(s0)
    1702:	a008                	fsd	fa0,0(s0)
    1704:	0000                	unimp
    1706:	0000                	unimp
    1708:	0200                	addi	s0,sp,256
    170a:	9f31                	addw	a4,a4,a2
    170c:	a008ac07          	flw	fs8,-1536(a7)
    1710:	0000                	unimp
    1712:	0000                	unimp
    1714:	b400                	fsd	fs0,40(s0)
    1716:	a008                	fsd	fa0,0(s0)
    1718:	0000                	unimp
    171a:	0000                	unimp
    171c:	0200                	addi	s0,sp,256
    171e:	9f30                	0x9f30
    1720:	a009ac07          	flw	fs8,-1536(s3)
    1724:	0000                	unimp
    1726:	0000                	unimp
    1728:	b800                	fsd	fs0,48(s0)
    172a:	a009                	j	172c <_text-0x9fe8d4>
    172c:	0000                	unimp
    172e:	0000                	unimp
    1730:	0200                	addi	s0,sp,256
    1732:	9f31                	addw	a4,a4,a2
    1734:	a009b807          	fld	fa6,-1536(s3)
    1738:	0000                	unimp
    173a:	0000                	unimp
    173c:	c000                	sw	s0,0(s0)
    173e:	a009                	j	1740 <_text-0x9fe8c0>
    1740:	0000                	unimp
    1742:	0000                	unimp
    1744:	0200                	addi	s0,sp,256
    1746:	9f30                	0x9f30
    1748:	a00ab807          	fld	fa6,-1536(s5)
    174c:	0000                	unimp
    174e:	0000                	unimp
    1750:	c400                	sw	s0,8(s0)
    1752:	a00a                	fsd	ft2,0(sp)
    1754:	0000                	unimp
    1756:	0000                	unimp
    1758:	0200                	addi	s0,sp,256
    175a:	9f31                	addw	a4,a4,a2
    175c:	a00ac407          	flq	fs0,-1536(s5)
    1760:	0000                	unimp
    1762:	0000                	unimp
    1764:	cc00                	sw	s0,24(s0)
    1766:	a00a                	fsd	ft2,0(sp)
    1768:	0000                	unimp
    176a:	0000                	unimp
    176c:	0200                	addi	s0,sp,256
    176e:	9f30                	0x9f30
    1770:	a00bc407          	flq	fs0,-1536(s7)
    1774:	0000                	unimp
    1776:	0000                	unimp
    1778:	d000                	sw	s0,32(s0)
    177a:	0000a00b          	0xa00b
    177e:	0000                	unimp
    1780:	0200                	addi	s0,sp,256
    1782:	9f31                	addw	a4,a4,a2
    1784:	a00bd007          	0xa00bd007
    1788:	0000                	unimp
    178a:	0000                	unimp
    178c:	d800                	sw	s0,48(s0)
    178e:	0000a00b          	0xa00b
    1792:	0000                	unimp
    1794:	0200                	addi	s0,sp,256
    1796:	9f30                	0x9f30
    1798:	a00cd007          	0xa00cd007
    179c:	0000                	unimp
    179e:	0000                	unimp
    17a0:	d800                	sw	s0,48(s0)
    17a2:	a00c                	fsd	fa1,0(s0)
    17a4:	0000                	unimp
    17a6:	0000                	unimp
    17a8:	0200                	addi	s0,sp,256
    17aa:	9f31                	addw	a4,a4,a2
    17ac:	a00cd807          	0xa00cd807
    17b0:	0000                	unimp
    17b2:	0000                	unimp
    17b4:	dc00                	sw	s0,56(s0)
    17b6:	a00c                	fsd	fa1,0(s0)
    17b8:	0000                	unimp
    17ba:	0000                	unimp
    17bc:	0200                	addi	s0,sp,256
    17be:	9f30                	0x9f30
    17c0:	a00de007          	0xa00de007
    17c4:	0000                	unimp
    17c6:	0000                	unimp
    17c8:	e400                	sd	s0,8(s0)
    17ca:	a00d                	j	17ec <_text-0x9fe814>
    17cc:	0000                	unimp
    17ce:	0000                	unimp
    17d0:	0200                	addi	s0,sp,256
    17d2:	9f31                	addw	a4,a4,a2
    17d4:	0700                	addi	s0,sp,896
    17d6:	062c                	addi	a1,sp,776
    17d8:	00a0                	addi	s0,sp,72
    17da:	0000                	unimp
    17dc:	0000                	unimp
    17de:	0660                	addi	s0,sp,780
    17e0:	00a0                	addi	s0,sp,72
    17e2:	0000                	unimp
    17e4:	0000                	unimp
    17e6:	3002                	fld	ft0,32(sp)
    17e8:	079f 06e4 00a0      	0xa006e4079f
    17ee:	0000                	unimp
    17f0:	0000                	unimp
    17f2:	07a8                	addi	a0,sp,968
    17f4:	00a0                	addi	s0,sp,72
    17f6:	0000                	unimp
    17f8:	0000                	unimp
    17fa:	3002                	fld	ft0,32(sp)
    17fc:	079f 07a8 00a0      	0xa007a8079f
    1802:	0000                	unimp
    1804:	0000                	unimp
    1806:	00a007bb          	addw	a5,zero,a0
    180a:	0000                	unimp
    180c:	0000                	unimp
    180e:	5d01                	li	s10,-32
    1810:	a007d807          	0xa007d807
    1814:	0000                	unimp
    1816:	0000                	unimp
    1818:	ec00                	sd	s0,24(s0)
    181a:	0000a007          	flw	ft0,0(ra)
    181e:	0000                	unimp
    1820:	0200                	addi	s0,sp,256
    1822:	9f30                	0x9f30
    1824:	a007ec07          	0xa007ec07
    1828:	0000                	unimp
    182a:	0000                	unimp
    182c:	f400                	sd	s0,40(s0)
    182e:	0000a007          	flw	ft0,0(ra)
    1832:	0000                	unimp
    1834:	0200                	addi	s0,sp,256
    1836:	9f31                	addw	a4,a4,a2
    1838:	a008a007          	flw	ft0,-1536(a7)
    183c:	0000                	unimp
    183e:	0000                	unimp
    1840:	1400                	addi	s0,sp,544
    1842:	a00e                	fsd	ft3,0(sp)
    1844:	0000                	unimp
    1846:	0000                	unimp
    1848:	0200                	addi	s0,sp,256
    184a:	9f30                	0x9f30
    184c:	0700                	addi	s0,sp,896
    184e:	05d4                	addi	a3,sp,708
    1850:	00a0                	addi	s0,sp,72
    1852:	0000                	unimp
    1854:	0000                	unimp
    1856:	05ec                	addi	a1,sp,716
    1858:	00a0                	addi	s0,sp,72
    185a:	0000                	unimp
    185c:	0000                	unimp
    185e:	3002                	fld	ft0,32(sp)
    1860:	079f 05ec 00a0      	0xa005ec079f
    1866:	0000                	unimp
    1868:	0000                	unimp
    186a:	0600                	addi	s0,sp,768
    186c:	00a0                	addi	s0,sp,72
    186e:	0000                	unimp
    1870:	0000                	unimp
    1872:	5e01                	li	t3,-32
    1874:	a0060007          	0xa0060007
    1878:	0000                	unimp
    187a:	0000                	unimp
    187c:	0c00                	addi	s0,sp,528
    187e:	a006                	fsd	ft1,0(sp)
    1880:	0000                	unimp
    1882:	0000                	unimp
    1884:	0300                	addi	s0,sp,384
    1886:	5081                	li	ra,-32
    1888:	079f 0688 00a0      	0xa00688079f
    188e:	0000                	unimp
    1890:	0000                	unimp
    1892:	0690                	addi	a2,sp,832
    1894:	00a0                	addi	s0,sp,72
    1896:	0000                	unimp
    1898:	0000                	unimp
    189a:	3002                	fld	ft0,32(sp)
    189c:	009f c807 a005      	0xa005c807009f
    18a2:	0000                	unimp
    18a4:	0000                	unimp
    18a6:	6000                	ld	s0,0(s0)
    18a8:	a006                	fsd	ft1,0(sp)
    18aa:	0000                	unimp
    18ac:	0000                	unimp
    18ae:	0100                	addi	s0,sp,128
    18b0:	075f 066c 00a0      	0xa0066c075f
    18b6:	0000                	unimp
    18b8:	0000                	unimp
    18ba:	0674                	addi	a3,sp,780
    18bc:	00a0                	addi	s0,sp,72
    18be:	0000                	unimp
    18c0:	0000                	unimp
    18c2:	3102                	fld	ft2,32(sp)
    18c4:	079f 0674 00a0      	0xa00674079f
    18ca:	0000                	unimp
    18cc:	0000                	unimp
    18ce:	00a0074b          	fnmsub.s	fa4,ft0,fa0,ft0,rne
    18d2:	0000                	unimp
    18d4:	0000                	unimp
    18d6:	5f01                	li	t5,-32
    18d8:	a0079407          	0xa0079407
    18dc:	0000                	unimp
    18de:	0000                	unimp
    18e0:	bb00                	fsd	fs0,48(a4)
    18e2:	0000a007          	flw	ft0,0(ra)
    18e6:	0000                	unimp
    18e8:	0100                	addi	s0,sp,128
    18ea:	075f 07d8 00a0      	0xa007d8075f
    18f0:	0000                	unimp
    18f2:	0000                	unimp
    18f4:	07f4                	addi	a3,sp,972
    18f6:	00a0                	addi	s0,sp,72
    18f8:	0000                	unimp
    18fa:	0000                	unimp
    18fc:	5f01                	li	t5,-32
    18fe:	a008a007          	flw	ft0,-1536(a7)
    1902:	0000                	unimp
    1904:	0000                	unimp
    1906:	d700                	sw	s0,40(a4)
    1908:	a008                	fsd	fa0,0(s0)
    190a:	0000                	unimp
    190c:	0000                	unimp
    190e:	0100                	addi	s0,sp,128
    1910:	075f 08f4 00a0      	0xa008f4075f
    1916:	0000                	unimp
    1918:	0000                	unimp
    191a:	0900                	addi	s0,sp,144
    191c:	00a0                	addi	s0,sp,72
    191e:	0000                	unimp
    1920:	0000                	unimp
    1922:	5f01                	li	t5,-32
    1924:	a009ac07          	flw	fs8,-1536(s3)
    1928:	0000                	unimp
    192a:	0000                	unimp
    192c:	e300                	sd	s0,0(a4)
    192e:	a009                	j	1930 <_text-0x9fe6d0>
    1930:	0000                	unimp
    1932:	0000                	unimp
    1934:	0100                	addi	s0,sp,128
    1936:	075f 0a00 00a0      	0xa00a00075f
    193c:	0000                	unimp
    193e:	0000                	unimp
    1940:	0a0c                	addi	a1,sp,272
    1942:	00a0                	addi	s0,sp,72
    1944:	0000                	unimp
    1946:	0000                	unimp
    1948:	5f01                	li	t5,-32
    194a:	a00ab807          	fld	fa6,-1536(s5)
    194e:	0000                	unimp
    1950:	0000                	unimp
    1952:	ef00                	sd	s0,24(a4)
    1954:	a00a                	fsd	ft2,0(sp)
    1956:	0000                	unimp
    1958:	0000                	unimp
    195a:	0100                	addi	s0,sp,128
    195c:	075f 0b0c 00a0      	0xa00b0c075f
    1962:	0000                	unimp
    1964:	0000                	unimp
    1966:	0b18                	addi	a4,sp,400
    1968:	00a0                	addi	s0,sp,72
    196a:	0000                	unimp
    196c:	0000                	unimp
    196e:	5f01                	li	t5,-32
    1970:	a00bc407          	flq	fs0,-1536(s7)
    1974:	0000                	unimp
    1976:	0000                	unimp
    1978:	fb00                	sd	s0,48(a4)
    197a:	0000a00b          	0xa00b
    197e:	0000                	unimp
    1980:	0100                	addi	s0,sp,128
    1982:	075f 0c18 00a0      	0xa00c18075f
    1988:	0000                	unimp
    198a:	0000                	unimp
    198c:	0c24                	addi	s1,sp,536
    198e:	00a0                	addi	s0,sp,72
    1990:	0000                	unimp
    1992:	0000                	unimp
    1994:	5f01                	li	t5,-32
    1996:	a00cd007          	0xa00cd007
    199a:	0000                	unimp
    199c:	0000                	unimp
    199e:	fb00                	sd	s0,48(a4)
    19a0:	a00c                	fsd	fa1,0(s0)
    19a2:	0000                	unimp
    19a4:	0000                	unimp
    19a6:	0100                	addi	s0,sp,128
    19a8:	075f 0d18 00a0      	0xa00d18075f
    19ae:	0000                	unimp
    19b0:	0000                	unimp
    19b2:	0d24                	addi	s1,sp,664
    19b4:	00a0                	addi	s0,sp,72
    19b6:	0000                	unimp
    19b8:	0000                	unimp
    19ba:	5f01                	li	t5,-32
    19bc:	a00dd807          	0xa00dd807
    19c0:	0000                	unimp
    19c2:	0000                	unimp
    19c4:	fc00                	sd	s0,56(s0)
    19c6:	a00d                	j	19e8 <_text-0x9fe618>
    19c8:	0000                	unimp
    19ca:	0000                	unimp
    19cc:	0100                	addi	s0,sp,128
    19ce:	005f d407 a005      	0xa005d407005f
    19d4:	0000                	unimp
    19d6:	0000                	unimp
    19d8:	6000                	ld	s0,0(s0)
    19da:	a006                	fsd	ft1,0(sp)
    19dc:	0000                	unimp
    19de:	0000                	unimp
    19e0:	0100                	addi	s0,sp,128
    19e2:	0760                	addi	s0,sp,908
    19e4:	0680                	addi	s0,sp,832
    19e6:	00a0                	addi	s0,sp,72
    19e8:	0000                	unimp
    19ea:	0000                	unimp
    19ec:	0688                	addi	a0,sp,832
    19ee:	00a0                	addi	s0,sp,72
    19f0:	0000                	unimp
    19f2:	0000                	unimp
    19f4:	9f300803          	lb	a6,-1549(zero) # fffffffffffff9f3 <end+0xfffffffffeffd9f3>
    19f8:	a0068807          	0xa0068807
    19fc:	0000                	unimp
    19fe:	0000                	unimp
    1a00:	4b00                	lw	s0,16(a4)
    1a02:	0000a007          	flw	ft0,0(ra)
    1a06:	0000                	unimp
    1a08:	0100                	addi	s0,sp,128
    1a0a:	0760                	addi	s0,sp,908
    1a0c:	0794                	addi	a3,sp,960
    1a0e:	00a0                	addi	s0,sp,72
    1a10:	0000                	unimp
    1a12:	0000                	unimp
    1a14:	00a007bb          	addw	a5,zero,a0
    1a18:	0000                	unimp
    1a1a:	0000                	unimp
    1a1c:	6001                	0x6001
    1a1e:	a007d807          	0xa007d807
    1a22:	0000                	unimp
    1a24:	0000                	unimp
    1a26:	f400                	sd	s0,40(s0)
    1a28:	0000a007          	flw	ft0,0(ra)
    1a2c:	0000                	unimp
    1a2e:	0100                	addi	s0,sp,128
    1a30:	0760                	addi	s0,sp,908
    1a32:	08a0                	addi	s0,sp,88
    1a34:	00a0                	addi	s0,sp,72
    1a36:	0000                	unimp
    1a38:	0000                	unimp
    1a3a:	00a008d7          	0xa008d7
    1a3e:	0000                	unimp
    1a40:	0000                	unimp
    1a42:	6001                	0x6001
    1a44:	a008f407          	0xa008f407
    1a48:	0000                	unimp
    1a4a:	0000                	unimp
    1a4c:	0000                	unimp
    1a4e:	a009                	j	1a50 <_text-0x9fe5b0>
    1a50:	0000                	unimp
    1a52:	0000                	unimp
    1a54:	0100                	addi	s0,sp,128
    1a56:	0760                	addi	s0,sp,908
    1a58:	09ac                	addi	a1,sp,216
    1a5a:	00a0                	addi	s0,sp,72
    1a5c:	0000                	unimp
    1a5e:	0000                	unimp
    1a60:	00a009e3          	beq	zero,a0,2272 <_text-0x9fdd8e>
    1a64:	0000                	unimp
    1a66:	0000                	unimp
    1a68:	6001                	0x6001
    1a6a:	a00a0007          	0xa00a0007
    1a6e:	0000                	unimp
    1a70:	0000                	unimp
    1a72:	0c00                	addi	s0,sp,528
    1a74:	a00a                	fsd	ft2,0(sp)
    1a76:	0000                	unimp
    1a78:	0000                	unimp
    1a7a:	0100                	addi	s0,sp,128
    1a7c:	0760                	addi	s0,sp,908
    1a7e:	0ab8                	addi	a4,sp,344
    1a80:	00a0                	addi	s0,sp,72
    1a82:	0000                	unimp
    1a84:	0000                	unimp
    1a86:	00a00aef          	jal	s5,1a90 <_text-0x9fe570>
    1a8a:	0000                	unimp
    1a8c:	0000                	unimp
    1a8e:	6001                	0x6001
    1a90:	a00b0c07          	0xa00b0c07
    1a94:	0000                	unimp
    1a96:	0000                	unimp
    1a98:	1800                	addi	s0,sp,48
    1a9a:	0000a00b          	0xa00b
    1a9e:	0000                	unimp
    1aa0:	0100                	addi	s0,sp,128
    1aa2:	0760                	addi	s0,sp,908
    1aa4:	0bc4                	addi	s1,sp,468
    1aa6:	00a0                	addi	s0,sp,72
    1aa8:	0000                	unimp
    1aaa:	0000                	unimp
    1aac:	00a00bfb          	0xa00bfb
    1ab0:	0000                	unimp
    1ab2:	0000                	unimp
    1ab4:	6001                	0x6001
    1ab6:	a00c1807          	0xa00c1807
    1aba:	0000                	unimp
    1abc:	0000                	unimp
    1abe:	2400                	fld	fs0,8(s0)
    1ac0:	a00c                	fsd	fa1,0(s0)
    1ac2:	0000                	unimp
    1ac4:	0000                	unimp
    1ac6:	0100                	addi	s0,sp,128
    1ac8:	0760                	addi	s0,sp,908
    1aca:	0cd0                	addi	a2,sp,596
    1acc:	00a0                	addi	s0,sp,72
    1ace:	0000                	unimp
    1ad0:	0000                	unimp
    1ad2:	00a00cfb          	0xa00cfb
    1ad6:	0000                	unimp
    1ad8:	0000                	unimp
    1ada:	6001                	0x6001
    1adc:	a00d1807          	0xa00d1807
    1ae0:	0000                	unimp
    1ae2:	0000                	unimp
    1ae4:	2400                	fld	fs0,8(s0)
    1ae6:	a00d                	j	1b08 <_text-0x9fe4f8>
    1ae8:	0000                	unimp
    1aea:	0000                	unimp
    1aec:	0100                	addi	s0,sp,128
    1aee:	0760                	addi	s0,sp,908
    1af0:	0dd8                	addi	a4,sp,724
    1af2:	00a0                	addi	s0,sp,72
    1af4:	0000                	unimp
    1af6:	0000                	unimp
    1af8:	0e0c                	addi	a1,sp,784
    1afa:	00a0                	addi	s0,sp,72
    1afc:	0000                	unimp
    1afe:	0000                	unimp
    1b00:	6001                	0x6001
    1b02:	0700                	addi	s0,sp,896
    1b04:	0cfc                	addi	a5,sp,604
    1b06:	00a0                	addi	s0,sp,72
    1b08:	0000                	unimp
    1b0a:	0000                	unimp
    1b0c:	0d18                	addi	a4,sp,656
    1b0e:	00a0                	addi	s0,sp,72
    1b10:	0000                	unimp
    1b12:	0000                	unimp
    1b14:	7804                	ld	s1,48(s0)
    1b16:	7eb0                	ld	a2,120(a3)
    1b18:	079f 0d24 00a0      	0xa00d24079f
    1b1e:	0000                	unimp
    1b20:	0000                	unimp
    1b22:	0d28                	addi	a0,sp,664
    1b24:	00a0                	addi	s0,sp,72
    1b26:	0000                	unimp
    1b28:	0000                	unimp
    1b2a:	9f7f8003          	lb	zero,-1545(t6)
    1b2e:	a00d2807          	flw	fa6,-1536(s10)
    1b32:	0000                	unimp
    1b34:	0000                	unimp
    1b36:	5400                	lw	s0,40(s0)
    1b38:	a00d                	j	1b5a <_text-0x9fe4a6>
    1b3a:	0000                	unimp
    1b3c:	0000                	unimp
    1b3e:	0100                	addi	s0,sp,128
    1b40:	0756                	slli	a4,a4,0x15
    1b42:	0d54                	addi	a3,sp,660
    1b44:	00a0                	addi	s0,sp,72
    1b46:	0000                	unimp
    1b48:	0000                	unimp
    1b4a:	0d98                	addi	a4,sp,720
    1b4c:	00a0                	addi	s0,sp,72
    1b4e:	0000                	unimp
    1b50:	0000                	unimp
    1b52:	9f7f8003          	lb	zero,-1545(t6)
    1b56:	a00d9807          	0xa00d9807
    1b5a:	0000                	unimp
    1b5c:	0000                	unimp
    1b5e:	a800                	fsd	fs0,16(s0)
    1b60:	a00d                	j	1b82 <_text-0x9fe47e>
    1b62:	0000                	unimp
    1b64:	0000                	unimp
    1b66:	0100                	addi	s0,sp,128
    1b68:	0760                	addi	s0,sp,908
    1b6a:	0da8                	addi	a0,sp,728
    1b6c:	00a0                	addi	s0,sp,72
    1b6e:	0000                	unimp
    1b70:	0000                	unimp
    1b72:	0dd8                	addi	a4,sp,724
    1b74:	00a0                	addi	s0,sp,72
    1b76:	0000                	unimp
    1b78:	0000                	unimp
    1b7a:	5601                	li	a2,-32
    1b7c:	a00e0c07          	0xa00e0c07
    1b80:	0000                	unimp
    1b82:	0000                	unimp
    1b84:	1400                	addi	s0,sp,544
    1b86:	a00e                	fsd	ft3,0(sp)
    1b88:	0000                	unimp
    1b8a:	0000                	unimp
    1b8c:	0400                	addi	s0,sp,512
    1b8e:	b078                	fsd	fa4,224(s0)
    1b90:	9f7e                	add	t5,t5,t6
    1b92:	0700                	addi	s0,sp,896
    1b94:	0d2c                	addi	a1,sp,664
    1b96:	00a0                	addi	s0,sp,72
    1b98:	0000                	unimp
    1b9a:	0000                	unimp
    1b9c:	0d48                	addi	a0,sp,660
    1b9e:	00a0                	addi	s0,sp,72
    1ba0:	0000                	unimp
    1ba2:	0000                	unimp
    1ba4:	7602                	ld	a2,32(sp)
    1ba6:	077f                	0x77f
    1ba8:	0d9c                	addi	a5,sp,720
    1baa:	00a0                	addi	s0,sp,72
    1bac:	0000                	unimp
    1bae:	0000                	unimp
    1bb0:	0da8                	addi	a0,sp,728
    1bb2:	00a0                	addi	s0,sp,72
    1bb4:	0000                	unimp
    1bb6:	0000                	unimp
    1bb8:	8002                	0x8002
    1bba:	077f                	0x77f
    1bbc:	0da8                	addi	a0,sp,728
    1bbe:	00a0                	addi	s0,sp,72
    1bc0:	0000                	unimp
    1bc2:	0000                	unimp
    1bc4:	0dd0                	addi	a2,sp,724
    1bc6:	00a0                	addi	s0,sp,72
    1bc8:	0000                	unimp
    1bca:	0000                	unimp
    1bcc:	7602                	ld	a2,32(sp)
    1bce:	007f                	0x7f
    1bd0:	a00da807          	flw	fa6,-1536(s11)
    1bd4:	0000                	unimp
    1bd6:	0000                	unimp
    1bd8:	c800                	sw	s0,16(s0)
    1bda:	a00d                	j	1bfc <_text-0x9fe404>
    1bdc:	0000                	unimp
    1bde:	0000                	unimp
    1be0:	0300                	addi	s0,sp,384
    1be2:	8008                	0x8008
    1be4:	009f a807 a00d      	0xa00da807009f
    1bea:	0000                	unimp
    1bec:	0000                	unimp
    1bee:	c800                	sw	s0,16(s0)
    1bf0:	a00d                	j	1c12 <_text-0x9fe3ee>
    1bf2:	0000                	unimp
    1bf4:	0000                	unimp
    1bf6:	0200                	addi	s0,sp,256
    1bf8:	9f30                	0x9f30
    1bfa:	0700                	addi	s0,sp,896
    1bfc:	0da8                	addi	a0,sp,728
    1bfe:	00a0                	addi	s0,sp,72
    1c00:	0000                	unimp
    1c02:	0000                	unimp
    1c04:	0dc8                	addi	a0,sp,724
    1c06:	00a0                	addi	s0,sp,72
    1c08:	0000                	unimp
    1c0a:	0000                	unimp
    1c0c:	3502                	fld	fa0,32(sp)
    1c0e:	009f 5807 a00d      	0xa00d5807009f
    1c14:	0000                	unimp
    1c16:	0000                	unimp
    1c18:	9400                	0x9400
    1c1a:	a00d                	j	1c3c <_text-0x9fe3c4>
    1c1c:	0000                	unimp
    1c1e:	0000                	unimp
    1c20:	0200                	addi	s0,sp,256
    1c22:	9f3d                	addw	a4,a4,a5
    1c24:	0700                	addi	s0,sp,896
    1c26:	0d74                	addi	a3,sp,668
    1c28:	00a0                	addi	s0,sp,72
    1c2a:	0000                	unimp
    1c2c:	0000                	unimp
    1c2e:	0d94                	addi	a3,sp,720
    1c30:	00a0                	addi	s0,sp,72
    1c32:	0000                	unimp
    1c34:	0000                	unimp
    1c36:	9f800803          	lb	a6,-1544(zero) # fffffffffffff9f8 <end+0xfffffffffeffd9f8>
    1c3a:	0700                	addi	s0,sp,896
    1c3c:	0d74                	addi	a3,sp,668
    1c3e:	00a0                	addi	s0,sp,72
    1c40:	0000                	unimp
    1c42:	0000                	unimp
    1c44:	0d94                	addi	a3,sp,720
    1c46:	00a0                	addi	s0,sp,72
    1c48:	0000                	unimp
    1c4a:	0000                	unimp
    1c4c:	3002                	fld	ft0,32(sp)
    1c4e:	009f 7407 a00d      	0xa00d7407009f
    1c54:	0000                	unimp
    1c56:	0000                	unimp
    1c58:	9400                	0x9400
    1c5a:	a00d                	j	1c7c <_text-0x9fe384>
    1c5c:	0000                	unimp
    1c5e:	0000                	unimp
    1c60:	0200                	addi	s0,sp,256
    1c62:	9f35                	addw	a4,a4,a3
    1c64:	0700                	addi	s0,sp,896
    1c66:	04f4                	addi	a3,sp,588
    1c68:	00a0                	addi	s0,sp,72
    1c6a:	0000                	unimp
    1c6c:	0000                	unimp
    1c6e:	0504                	addi	s1,sp,640
    1c70:	00a0                	addi	s0,sp,72
    1c72:	0000                	unimp
    1c74:	0000                	unimp
    1c76:	8002                	0x8002
    1c78:	0700                	addi	s0,sp,896
    1c7a:	0578                	addi	a4,sp,652
    1c7c:	00a0                	addi	s0,sp,72
    1c7e:	0000                	unimp
    1c80:	0000                	unimp
    1c82:	0580                	addi	s0,sp,704
    1c84:	00a0                	addi	s0,sp,72
    1c86:	0000                	unimp
    1c88:	0000                	unimp
    1c8a:	8002                	0x8002
    1c8c:	0000                	unimp
    1c8e:	a0058807          	0xa0058807
    1c92:	0000                	unimp
    1c94:	0000                	unimp
    1c96:	a800                	fsd	fs0,16(s0)
    1c98:	a005                	j	1cb8 <_text-0x9fe348>
    1c9a:	0000                	unimp
    1c9c:	0000                	unimp
    1c9e:	0300                	addi	s0,sp,384
    1ca0:	8008                	0x8008
    1ca2:	009f 8807 a005      	0xa0058807009f
    1ca8:	0000                	unimp
    1caa:	0000                	unimp
    1cac:	a800                	fsd	fs0,16(s0)
    1cae:	a005                	j	1cce <_text-0x9fe332>
    1cb0:	0000                	unimp
    1cb2:	0000                	unimp
    1cb4:	0200                	addi	s0,sp,256
    1cb6:	9f30                	0x9f30
    1cb8:	0700                	addi	s0,sp,896
    1cba:	0588                	addi	a0,sp,704
    1cbc:	00a0                	addi	s0,sp,72
    1cbe:	0000                	unimp
    1cc0:	0000                	unimp
    1cc2:	05a8                	addi	a0,sp,712
    1cc4:	00a0                	addi	s0,sp,72
    1cc6:	0000                	unimp
    1cc8:	0000                	unimp
    1cca:	3502                	fld	fa0,32(sp)
    1ccc:	009f 3007 a005      	0xa0053007009f
    1cd2:	0000                	unimp
    1cd4:	0000                	unimp
    1cd6:	7400                	ld	s0,40(s0)
    1cd8:	a005                	j	1cf8 <_text-0x9fe308>
    1cda:	0000                	unimp
    1cdc:	0000                	unimp
    1cde:	0200                	addi	s0,sp,256
    1ce0:	9f3d                	addw	a4,a4,a5
    1ce2:	0700                	addi	s0,sp,896
    1ce4:	0550                	addi	a2,sp,644
    1ce6:	00a0                	addi	s0,sp,72
    1ce8:	0000                	unimp
    1cea:	0000                	unimp
    1cec:	0570                	addi	a2,sp,652
    1cee:	00a0                	addi	s0,sp,72
    1cf0:	0000                	unimp
    1cf2:	0000                	unimp
    1cf4:	9f800803          	lb	a6,-1544(zero) # fffffffffffff9f8 <end+0xfffffffffeffd9f8>
    1cf8:	0700                	addi	s0,sp,896
    1cfa:	0550                	addi	a2,sp,644
    1cfc:	00a0                	addi	s0,sp,72
    1cfe:	0000                	unimp
    1d00:	0000                	unimp
    1d02:	0570                	addi	a2,sp,652
    1d04:	00a0                	addi	s0,sp,72
    1d06:	0000                	unimp
    1d08:	0000                	unimp
    1d0a:	3002                	fld	ft0,32(sp)
    1d0c:	009f 5007 a005      	0xa0055007009f
    1d12:	0000                	unimp
    1d14:	0000                	unimp
    1d16:	7000                	ld	s0,32(s0)
    1d18:	a005                	j	1d38 <_text-0x9fe2c8>
    1d1a:	0000                	unimp
    1d1c:	0000                	unimp
    1d1e:	0200                	addi	s0,sp,256
    1d20:	9f35                	addw	a4,a4,a3
    1d22:	0700                	addi	s0,sp,896
    1d24:	074c                	addi	a1,sp,900
    1d26:	00a0                	addi	s0,sp,72
    1d28:	0000                	unimp
    1d2a:	0000                	unimp
    1d2c:	0768                	addi	a0,sp,908
    1d2e:	00a0                	addi	s0,sp,72
    1d30:	0000                	unimp
    1d32:	0000                	unimp
    1d34:	6501                	0x6501
    1d36:	a0076807          	0xa0076807
    1d3a:	0000                	unimp
    1d3c:	0000                	unimp
    1d3e:	8400                	0x8400
    1d40:	0000a007          	flw	ft0,0(ra)
    1d44:	0000                	unimp
    1d46:	0200                	addi	s0,sp,256
    1d48:	007f                	0x7f
    1d4a:	0700                	addi	s0,sp,896
    1d4c:	076c                	addi	a1,sp,908
    1d4e:	00a0                	addi	s0,sp,72
    1d50:	0000                	unimp
    1d52:	0000                	unimp
    1d54:	078c                	addi	a1,sp,960
    1d56:	00a0                	addi	s0,sp,72
    1d58:	0000                	unimp
    1d5a:	0000                	unimp
    1d5c:	9f800803          	lb	a6,-1544(zero) # fffffffffffff9f8 <end+0xfffffffffeffd9f8>
    1d60:	0700                	addi	s0,sp,896
    1d62:	076c                	addi	a1,sp,908
    1d64:	00a0                	addi	s0,sp,72
    1d66:	0000                	unimp
    1d68:	0000                	unimp
    1d6a:	078c                	addi	a1,sp,960
    1d6c:	00a0                	addi	s0,sp,72
    1d6e:	0000                	unimp
    1d70:	0000                	unimp
    1d72:	3002                	fld	ft0,32(sp)
    1d74:	009f 6c07 a007      	0xa0076c07009f
    1d7a:	0000                	unimp
    1d7c:	0000                	unimp
    1d7e:	8c00                	0x8c00
    1d80:	0000a007          	flw	ft0,0(ra)
    1d84:	0000                	unimp
    1d86:	0200                	addi	s0,sp,256
    1d88:	9f35                	addw	a4,a4,a3
    1d8a:	0700                	addi	s0,sp,896
    1d8c:	07bc                	addi	a5,sp,968
    1d8e:	00a0                	addi	s0,sp,72
    1d90:	0000                	unimp
    1d92:	0000                	unimp
    1d94:	07d8                	addi	a4,sp,964
    1d96:	00a0                	addi	s0,sp,72
    1d98:	0000                	unimp
    1d9a:	0000                	unimp
    1d9c:	7804                	ld	s1,48(s0)
    1d9e:	7eb0                	ld	a2,120(a3)
    1da0:	079f 07f4 00a0      	0xa007f4079f
    1da6:	0000                	unimp
    1da8:	0000                	unimp
    1daa:	07f8                	addi	a4,sp,972
    1dac:	00a0                	addi	s0,sp,72
    1dae:	0000                	unimp
    1db0:	0000                	unimp
    1db2:	9f7f8003          	lb	zero,-1545(t6)
    1db6:	a007f807          	0xa007f807
    1dba:	0000                	unimp
    1dbc:	0000                	unimp
    1dbe:	2400                	fld	fs0,8(s0)
    1dc0:	a008                	fsd	fa0,0(s0)
    1dc2:	0000                	unimp
    1dc4:	0000                	unimp
    1dc6:	0100                	addi	s0,sp,128
    1dc8:	0756                	slli	a4,a4,0x15
    1dca:	0824                	addi	s1,sp,24
    1dcc:	00a0                	addi	s0,sp,72
    1dce:	0000                	unimp
    1dd0:	0000                	unimp
    1dd2:	0868                	addi	a0,sp,28
    1dd4:	00a0                	addi	s0,sp,72
    1dd6:	0000                	unimp
    1dd8:	0000                	unimp
    1dda:	9f7f8003          	lb	zero,-1545(t6)
    1dde:	a0086807          	0xa0086807
    1de2:	0000                	unimp
    1de4:	0000                	unimp
    1de6:	7800                	ld	s0,48(s0)
    1de8:	a008                	fsd	fa0,0(s0)
    1dea:	0000                	unimp
    1dec:	0000                	unimp
    1dee:	0100                	addi	s0,sp,128
    1df0:	0760                	addi	s0,sp,908
    1df2:	0878                	addi	a4,sp,28
    1df4:	00a0                	addi	s0,sp,72
    1df6:	0000                	unimp
    1df8:	0000                	unimp
    1dfa:	08a0                	addi	s0,sp,88
    1dfc:	00a0                	addi	s0,sp,72
    1dfe:	0000                	unimp
    1e00:	0000                	unimp
    1e02:	5601                	li	a2,-32
    1e04:	0700                	addi	s0,sp,896
    1e06:	0828                	addi	a0,sp,24
    1e08:	00a0                	addi	s0,sp,72
    1e0a:	0000                	unimp
    1e0c:	0000                	unimp
    1e0e:	0864                	addi	s1,sp,28
    1e10:	00a0                	addi	s0,sp,72
    1e12:	0000                	unimp
    1e14:	0000                	unimp
    1e16:	3d02                	fld	fs10,32(sp)
    1e18:	009f 4407 a008      	0xa0084407009f
    1e1e:	0000                	unimp
    1e20:	0000                	unimp
    1e22:	6400                	ld	s0,8(s0)
    1e24:	a008                	fsd	fa0,0(s0)
    1e26:	0000                	unimp
    1e28:	0000                	unimp
    1e2a:	0300                	addi	s0,sp,384
    1e2c:	8008                	0x8008
    1e2e:	009f 4407 a008      	0xa0084407009f
    1e34:	0000                	unimp
    1e36:	0000                	unimp
    1e38:	6400                	ld	s0,8(s0)
    1e3a:	a008                	fsd	fa0,0(s0)
    1e3c:	0000                	unimp
    1e3e:	0000                	unimp
    1e40:	0200                	addi	s0,sp,256
    1e42:	9f30                	0x9f30
    1e44:	0700                	addi	s0,sp,896
    1e46:	0844                	addi	s1,sp,20
    1e48:	00a0                	addi	s0,sp,72
    1e4a:	0000                	unimp
    1e4c:	0000                	unimp
    1e4e:	0864                	addi	s1,sp,28
    1e50:	00a0                	addi	s0,sp,72
    1e52:	0000                	unimp
    1e54:	0000                	unimp
    1e56:	3502                	fld	fa0,32(sp)
    1e58:	009f fc07 a007      	0xa007fc07009f
    1e5e:	0000                	unimp
    1e60:	0000                	unimp
    1e62:	1800                	addi	s0,sp,48
    1e64:	a008                	fsd	fa0,0(s0)
    1e66:	0000                	unimp
    1e68:	0000                	unimp
    1e6a:	0200                	addi	s0,sp,256
    1e6c:	7f76                	ld	t5,376(sp)
    1e6e:	a0086c07          	0xa0086c07
    1e72:	0000                	unimp
    1e74:	0000                	unimp
    1e76:	7800                	ld	s0,48(s0)
    1e78:	a008                	fsd	fa0,0(s0)
    1e7a:	0000                	unimp
    1e7c:	0000                	unimp
    1e7e:	0200                	addi	s0,sp,256
    1e80:	7f80                	ld	s0,56(a5)
    1e82:	a0087807          	0xa0087807
    1e86:	0000                	unimp
    1e88:	0000                	unimp
    1e8a:	a000                	fsd	fs0,0(s0)
    1e8c:	a008                	fsd	fa0,0(s0)
    1e8e:	0000                	unimp
    1e90:	0000                	unimp
    1e92:	0200                	addi	s0,sp,256
    1e94:	7f76                	ld	t5,376(sp)
    1e96:	0700                	addi	s0,sp,896
    1e98:	0878                	addi	a4,sp,28
    1e9a:	00a0                	addi	s0,sp,72
    1e9c:	0000                	unimp
    1e9e:	0000                	unimp
    1ea0:	0898                	addi	a4,sp,80
    1ea2:	00a0                	addi	s0,sp,72
    1ea4:	0000                	unimp
    1ea6:	0000                	unimp
    1ea8:	9f800803          	lb	a6,-1544(zero) # fffffffffffff9f8 <end+0xfffffffffeffd9f8>
    1eac:	0700                	addi	s0,sp,896
    1eae:	0878                	addi	a4,sp,28
    1eb0:	00a0                	addi	s0,sp,72
    1eb2:	0000                	unimp
    1eb4:	0000                	unimp
    1eb6:	0898                	addi	a4,sp,80
    1eb8:	00a0                	addi	s0,sp,72
    1eba:	0000                	unimp
    1ebc:	0000                	unimp
    1ebe:	3002                	fld	ft0,32(sp)
    1ec0:	009f 7807 a008      	0xa0087807009f
    1ec6:	0000                	unimp
    1ec8:	0000                	unimp
    1eca:	9800                	0x9800
    1ecc:	a008                	fsd	fa0,0(s0)
    1ece:	0000                	unimp
    1ed0:	0000                	unimp
    1ed2:	0200                	addi	s0,sp,256
    1ed4:	9f35                	addw	a4,a4,a3
    1ed6:	0700                	addi	s0,sp,896
    1ed8:	08d8                	addi	a4,sp,84
    1eda:	00a0                	addi	s0,sp,72
    1edc:	0000                	unimp
    1ede:	0000                	unimp
    1ee0:	08f4                	addi	a3,sp,92
    1ee2:	00a0                	addi	s0,sp,72
    1ee4:	0000                	unimp
    1ee6:	0000                	unimp
    1ee8:	7804                	ld	s1,48(s0)
    1eea:	7eb0                	ld	a2,120(a3)
    1eec:	079f 0900 00a0      	0xa00900079f
    1ef2:	0000                	unimp
    1ef4:	0000                	unimp
    1ef6:	0904                	addi	s1,sp,144
    1ef8:	00a0                	addi	s0,sp,72
    1efa:	0000                	unimp
    1efc:	0000                	unimp
    1efe:	9f7f8003          	lb	zero,-1545(t6)
    1f02:	a0090407          	0xa0090407
    1f06:	0000                	unimp
    1f08:	0000                	unimp
    1f0a:	3000                	fld	fs0,32(s0)
    1f0c:	a009                	j	1f0e <_text-0x9fe0f2>
    1f0e:	0000                	unimp
    1f10:	0000                	unimp
    1f12:	0100                	addi	s0,sp,128
    1f14:	0756                	slli	a4,a4,0x15
    1f16:	0930                	addi	a2,sp,152
    1f18:	00a0                	addi	s0,sp,72
    1f1a:	0000                	unimp
    1f1c:	0000                	unimp
    1f1e:	0974                	addi	a3,sp,156
    1f20:	00a0                	addi	s0,sp,72
    1f22:	0000                	unimp
    1f24:	0000                	unimp
    1f26:	9f7f8003          	lb	zero,-1545(t6)
    1f2a:	a0097407          	0xa0097407
    1f2e:	0000                	unimp
    1f30:	0000                	unimp
    1f32:	8400                	0x8400
    1f34:	a009                	j	1f36 <_text-0x9fe0ca>
    1f36:	0000                	unimp
    1f38:	0000                	unimp
    1f3a:	0100                	addi	s0,sp,128
    1f3c:	0760                	addi	s0,sp,908
    1f3e:	0984                	addi	s1,sp,208
    1f40:	00a0                	addi	s0,sp,72
    1f42:	0000                	unimp
    1f44:	0000                	unimp
    1f46:	09ac                	addi	a1,sp,216
    1f48:	00a0                	addi	s0,sp,72
    1f4a:	0000                	unimp
    1f4c:	0000                	unimp
    1f4e:	5601                	li	a2,-32
    1f50:	0700                	addi	s0,sp,896
    1f52:	0934                	addi	a3,sp,152
    1f54:	00a0                	addi	s0,sp,72
    1f56:	0000                	unimp
    1f58:	0000                	unimp
    1f5a:	0970                	addi	a2,sp,156
    1f5c:	00a0                	addi	s0,sp,72
    1f5e:	0000                	unimp
    1f60:	0000                	unimp
    1f62:	3d02                	fld	fs10,32(sp)
    1f64:	009f 5007 a009      	0xa0095007009f
    1f6a:	0000                	unimp
    1f6c:	0000                	unimp
    1f6e:	7000                	ld	s0,32(s0)
    1f70:	a009                	j	1f72 <_text-0x9fe08e>
    1f72:	0000                	unimp
    1f74:	0000                	unimp
    1f76:	0300                	addi	s0,sp,384
    1f78:	8008                	0x8008
    1f7a:	009f 5007 a009      	0xa0095007009f
    1f80:	0000                	unimp
    1f82:	0000                	unimp
    1f84:	7000                	ld	s0,32(s0)
    1f86:	a009                	j	1f88 <_text-0x9fe078>
    1f88:	0000                	unimp
    1f8a:	0000                	unimp
    1f8c:	0200                	addi	s0,sp,256
    1f8e:	9f30                	0x9f30
    1f90:	0700                	addi	s0,sp,896
    1f92:	0950                	addi	a2,sp,148
    1f94:	00a0                	addi	s0,sp,72
    1f96:	0000                	unimp
    1f98:	0000                	unimp
    1f9a:	0970                	addi	a2,sp,156
    1f9c:	00a0                	addi	s0,sp,72
    1f9e:	0000                	unimp
    1fa0:	0000                	unimp
    1fa2:	3502                	fld	fa0,32(sp)
    1fa4:	009f 0807 a009      	0xa0090807009f
    1faa:	0000                	unimp
    1fac:	0000                	unimp
    1fae:	2400                	fld	fs0,8(s0)
    1fb0:	a009                	j	1fb2 <_text-0x9fe04e>
    1fb2:	0000                	unimp
    1fb4:	0000                	unimp
    1fb6:	0200                	addi	s0,sp,256
    1fb8:	7f76                	ld	t5,376(sp)
    1fba:	a0097807          	0xa0097807
    1fbe:	0000                	unimp
    1fc0:	0000                	unimp
    1fc2:	8400                	0x8400
    1fc4:	a009                	j	1fc6 <_text-0x9fe03a>
    1fc6:	0000                	unimp
    1fc8:	0000                	unimp
    1fca:	0200                	addi	s0,sp,256
    1fcc:	7f80                	ld	s0,56(a5)
    1fce:	a0098407          	0xa0098407
    1fd2:	0000                	unimp
    1fd4:	0000                	unimp
    1fd6:	ac00                	fsd	fs0,24(s0)
    1fd8:	a009                	j	1fda <_text-0x9fe026>
    1fda:	0000                	unimp
    1fdc:	0000                	unimp
    1fde:	0200                	addi	s0,sp,256
    1fe0:	7f76                	ld	t5,376(sp)
    1fe2:	0700                	addi	s0,sp,896
    1fe4:	0984                	addi	s1,sp,208
    1fe6:	00a0                	addi	s0,sp,72
    1fe8:	0000                	unimp
    1fea:	0000                	unimp
    1fec:	09a4                	addi	s1,sp,216
    1fee:	00a0                	addi	s0,sp,72
    1ff0:	0000                	unimp
    1ff2:	0000                	unimp
    1ff4:	9f800803          	lb	a6,-1544(zero) # fffffffffffff9f8 <end+0xfffffffffeffd9f8>
    1ff8:	0700                	addi	s0,sp,896
    1ffa:	0984                	addi	s1,sp,208
    1ffc:	00a0                	addi	s0,sp,72
    1ffe:	0000                	unimp
    2000:	0000                	unimp
    2002:	09a4                	addi	s1,sp,216
    2004:	00a0                	addi	s0,sp,72
    2006:	0000                	unimp
    2008:	0000                	unimp
    200a:	3002                	fld	ft0,32(sp)
    200c:	009f 8407 a009      	0xa0098407009f
    2012:	0000                	unimp
    2014:	0000                	unimp
    2016:	a400                	fsd	fs0,8(s0)
    2018:	a009                	j	201a <_text-0x9fdfe6>
    201a:	0000                	unimp
    201c:	0000                	unimp
    201e:	0200                	addi	s0,sp,256
    2020:	9f35                	addw	a4,a4,a3
    2022:	0700                	addi	s0,sp,896
    2024:	09e4                	addi	s1,sp,220
    2026:	00a0                	addi	s0,sp,72
    2028:	0000                	unimp
    202a:	0000                	unimp
    202c:	0a00                	addi	s0,sp,272
    202e:	00a0                	addi	s0,sp,72
    2030:	0000                	unimp
    2032:	0000                	unimp
    2034:	7804                	ld	s1,48(s0)
    2036:	7eb0                	ld	a2,120(a3)
    2038:	079f 0a0c 00a0      	0xa00a0c079f
    203e:	0000                	unimp
    2040:	0000                	unimp
    2042:	0a10                	addi	a2,sp,272
    2044:	00a0                	addi	s0,sp,72
    2046:	0000                	unimp
    2048:	0000                	unimp
    204a:	9f7f8003          	lb	zero,-1545(t6)
    204e:	a00a1007          	0xa00a1007
    2052:	0000                	unimp
    2054:	0000                	unimp
    2056:	3c00                	fld	fs0,56(s0)
    2058:	a00a                	fsd	ft2,0(sp)
    205a:	0000                	unimp
    205c:	0000                	unimp
    205e:	0100                	addi	s0,sp,128
    2060:	0756                	slli	a4,a4,0x15
    2062:	0a3c                	addi	a5,sp,280
    2064:	00a0                	addi	s0,sp,72
    2066:	0000                	unimp
    2068:	0000                	unimp
    206a:	0a80                	addi	s0,sp,336
    206c:	00a0                	addi	s0,sp,72
    206e:	0000                	unimp
    2070:	0000                	unimp
    2072:	9f7f8003          	lb	zero,-1545(t6)
    2076:	a00a8007          	0xa00a8007
    207a:	0000                	unimp
    207c:	0000                	unimp
    207e:	9000                	0x9000
    2080:	a00a                	fsd	ft2,0(sp)
    2082:	0000                	unimp
    2084:	0000                	unimp
    2086:	0100                	addi	s0,sp,128
    2088:	0760                	addi	s0,sp,908
    208a:	0a90                	addi	a2,sp,336
    208c:	00a0                	addi	s0,sp,72
    208e:	0000                	unimp
    2090:	0000                	unimp
    2092:	0ab8                	addi	a4,sp,344
    2094:	00a0                	addi	s0,sp,72
    2096:	0000                	unimp
    2098:	0000                	unimp
    209a:	5601                	li	a2,-32
    209c:	0700                	addi	s0,sp,896
    209e:	0a40                	addi	s0,sp,276
    20a0:	00a0                	addi	s0,sp,72
    20a2:	0000                	unimp
    20a4:	0000                	unimp
    20a6:	0a7c                	addi	a5,sp,284
    20a8:	00a0                	addi	s0,sp,72
    20aa:	0000                	unimp
    20ac:	0000                	unimp
    20ae:	3d02                	fld	fs10,32(sp)
    20b0:	009f 5c07 a00a      	0xa00a5c07009f
    20b6:	0000                	unimp
    20b8:	0000                	unimp
    20ba:	7c00                	ld	s0,56(s0)
    20bc:	a00a                	fsd	ft2,0(sp)
    20be:	0000                	unimp
    20c0:	0000                	unimp
    20c2:	0300                	addi	s0,sp,384
    20c4:	8008                	0x8008
    20c6:	009f 5c07 a00a      	0xa00a5c07009f
    20cc:	0000                	unimp
    20ce:	0000                	unimp
    20d0:	7c00                	ld	s0,56(s0)
    20d2:	a00a                	fsd	ft2,0(sp)
    20d4:	0000                	unimp
    20d6:	0000                	unimp
    20d8:	0200                	addi	s0,sp,256
    20da:	9f30                	0x9f30
    20dc:	0700                	addi	s0,sp,896
    20de:	0a5c                	addi	a5,sp,276
    20e0:	00a0                	addi	s0,sp,72
    20e2:	0000                	unimp
    20e4:	0000                	unimp
    20e6:	0a7c                	addi	a5,sp,284
    20e8:	00a0                	addi	s0,sp,72
    20ea:	0000                	unimp
    20ec:	0000                	unimp
    20ee:	3502                	fld	fa0,32(sp)
    20f0:	009f 1407 a00a      	0xa00a1407009f
    20f6:	0000                	unimp
    20f8:	0000                	unimp
    20fa:	3000                	fld	fs0,32(s0)
    20fc:	a00a                	fsd	ft2,0(sp)
    20fe:	0000                	unimp
    2100:	0000                	unimp
    2102:	0200                	addi	s0,sp,256
    2104:	7f76                	ld	t5,376(sp)
    2106:	a00a8407          	0xa00a8407
    210a:	0000                	unimp
    210c:	0000                	unimp
    210e:	9000                	0x9000
    2110:	a00a                	fsd	ft2,0(sp)
    2112:	0000                	unimp
    2114:	0000                	unimp
    2116:	0200                	addi	s0,sp,256
    2118:	7f80                	ld	s0,56(a5)
    211a:	a00a9007          	0xa00a9007
    211e:	0000                	unimp
    2120:	0000                	unimp
    2122:	b800                	fsd	fs0,48(s0)
    2124:	a00a                	fsd	ft2,0(sp)
    2126:	0000                	unimp
    2128:	0000                	unimp
    212a:	0200                	addi	s0,sp,256
    212c:	7f76                	ld	t5,376(sp)
    212e:	0700                	addi	s0,sp,896
    2130:	0a90                	addi	a2,sp,336
    2132:	00a0                	addi	s0,sp,72
    2134:	0000                	unimp
    2136:	0000                	unimp
    2138:	0ab0                	addi	a2,sp,344
    213a:	00a0                	addi	s0,sp,72
    213c:	0000                	unimp
    213e:	0000                	unimp
    2140:	9f800803          	lb	a6,-1544(zero) # fffffffffffff9f8 <end+0xfffffffffeffd9f8>
    2144:	0700                	addi	s0,sp,896
    2146:	0a90                	addi	a2,sp,336
    2148:	00a0                	addi	s0,sp,72
    214a:	0000                	unimp
    214c:	0000                	unimp
    214e:	0ab0                	addi	a2,sp,344
    2150:	00a0                	addi	s0,sp,72
    2152:	0000                	unimp
    2154:	0000                	unimp
    2156:	3002                	fld	ft0,32(sp)
    2158:	009f 9007 a00a      	0xa00a9007009f
    215e:	0000                	unimp
    2160:	0000                	unimp
    2162:	b000                	fsd	fs0,32(s0)
    2164:	a00a                	fsd	ft2,0(sp)
    2166:	0000                	unimp
    2168:	0000                	unimp
    216a:	0200                	addi	s0,sp,256
    216c:	9f35                	addw	a4,a4,a3
    216e:	0700                	addi	s0,sp,896
    2170:	0af0                	addi	a2,sp,348
    2172:	00a0                	addi	s0,sp,72
    2174:	0000                	unimp
    2176:	0000                	unimp
    2178:	0b0c                	addi	a1,sp,400
    217a:	00a0                	addi	s0,sp,72
    217c:	0000                	unimp
    217e:	0000                	unimp
    2180:	7804                	ld	s1,48(s0)
    2182:	7eb0                	ld	a2,120(a3)
    2184:	079f 0b18 00a0      	0xa00b18079f
    218a:	0000                	unimp
    218c:	0000                	unimp
    218e:	0b1c                	addi	a5,sp,400
    2190:	00a0                	addi	s0,sp,72
    2192:	0000                	unimp
    2194:	0000                	unimp
    2196:	9f7f8003          	lb	zero,-1545(t6)
    219a:	a00b1c07          	0xa00b1c07
    219e:	0000                	unimp
    21a0:	0000                	unimp
    21a2:	4800                	lw	s0,16(s0)
    21a4:	0000a00b          	0xa00b
    21a8:	0000                	unimp
    21aa:	0100                	addi	s0,sp,128
    21ac:	0756                	slli	a4,a4,0x15
    21ae:	0b48                	addi	a0,sp,404
    21b0:	00a0                	addi	s0,sp,72
    21b2:	0000                	unimp
    21b4:	0000                	unimp
    21b6:	0b8c                	addi	a1,sp,464
    21b8:	00a0                	addi	s0,sp,72
    21ba:	0000                	unimp
    21bc:	0000                	unimp
    21be:	9f7f8003          	lb	zero,-1545(t6)
    21c2:	a00b8c07          	0xa00b8c07
    21c6:	0000                	unimp
    21c8:	0000                	unimp
    21ca:	9c00                	0x9c00
    21cc:	0000a00b          	0xa00b
    21d0:	0000                	unimp
    21d2:	0100                	addi	s0,sp,128
    21d4:	0760                	addi	s0,sp,908
    21d6:	0b9c                	addi	a5,sp,464
    21d8:	00a0                	addi	s0,sp,72
    21da:	0000                	unimp
    21dc:	0000                	unimp
    21de:	0bc4                	addi	s1,sp,468
    21e0:	00a0                	addi	s0,sp,72
    21e2:	0000                	unimp
    21e4:	0000                	unimp
    21e6:	5601                	li	a2,-32
    21e8:	0700                	addi	s0,sp,896
    21ea:	0b4c                	addi	a1,sp,404
    21ec:	00a0                	addi	s0,sp,72
    21ee:	0000                	unimp
    21f0:	0000                	unimp
    21f2:	0b88                	addi	a0,sp,464
    21f4:	00a0                	addi	s0,sp,72
    21f6:	0000                	unimp
    21f8:	0000                	unimp
    21fa:	3d02                	fld	fs10,32(sp)
    21fc:	009f 6807 a00b      	0xa00b6807009f
    2202:	0000                	unimp
    2204:	0000                	unimp
    2206:	8800                	0x8800
    2208:	0000a00b          	0xa00b
    220c:	0000                	unimp
    220e:	0300                	addi	s0,sp,384
    2210:	8008                	0x8008
    2212:	009f 6807 a00b      	0xa00b6807009f
    2218:	0000                	unimp
    221a:	0000                	unimp
    221c:	8800                	0x8800
    221e:	0000a00b          	0xa00b
    2222:	0000                	unimp
    2224:	0200                	addi	s0,sp,256
    2226:	9f30                	0x9f30
    2228:	0700                	addi	s0,sp,896
    222a:	0b68                	addi	a0,sp,412
    222c:	00a0                	addi	s0,sp,72
    222e:	0000                	unimp
    2230:	0000                	unimp
    2232:	0b88                	addi	a0,sp,464
    2234:	00a0                	addi	s0,sp,72
    2236:	0000                	unimp
    2238:	0000                	unimp
    223a:	3502                	fld	fa0,32(sp)
    223c:	009f 2007 a00b      	0xa00b2007009f
    2242:	0000                	unimp
    2244:	0000                	unimp
    2246:	3c00                	fld	fs0,56(s0)
    2248:	0000a00b          	0xa00b
    224c:	0000                	unimp
    224e:	0200                	addi	s0,sp,256
    2250:	7f76                	ld	t5,376(sp)
    2252:	a00b9007          	0xa00b9007
    2256:	0000                	unimp
    2258:	0000                	unimp
    225a:	9c00                	0x9c00
    225c:	0000a00b          	0xa00b
    2260:	0000                	unimp
    2262:	0200                	addi	s0,sp,256
    2264:	7f80                	ld	s0,56(a5)
    2266:	a00b9c07          	0xa00b9c07
    226a:	0000                	unimp
    226c:	0000                	unimp
    226e:	c400                	sw	s0,8(s0)
    2270:	0000a00b          	0xa00b
    2274:	0000                	unimp
    2276:	0200                	addi	s0,sp,256
    2278:	7f76                	ld	t5,376(sp)
    227a:	0700                	addi	s0,sp,896
    227c:	0b9c                	addi	a5,sp,464
    227e:	00a0                	addi	s0,sp,72
    2280:	0000                	unimp
    2282:	0000                	unimp
    2284:	0bbc                	addi	a5,sp,472
    2286:	00a0                	addi	s0,sp,72
    2288:	0000                	unimp
    228a:	0000                	unimp
    228c:	9f800803          	lb	a6,-1544(zero) # fffffffffffff9f8 <end+0xfffffffffeffd9f8>
    2290:	0700                	addi	s0,sp,896
    2292:	0b9c                	addi	a5,sp,464
    2294:	00a0                	addi	s0,sp,72
    2296:	0000                	unimp
    2298:	0000                	unimp
    229a:	0bbc                	addi	a5,sp,472
    229c:	00a0                	addi	s0,sp,72
    229e:	0000                	unimp
    22a0:	0000                	unimp
    22a2:	3002                	fld	ft0,32(sp)
    22a4:	009f 9c07 a00b      	0xa00b9c07009f
    22aa:	0000                	unimp
    22ac:	0000                	unimp
    22ae:	bc00                	fsd	fs0,56(s0)
    22b0:	0000a00b          	0xa00b
    22b4:	0000                	unimp
    22b6:	0200                	addi	s0,sp,256
    22b8:	9f35                	addw	a4,a4,a3
    22ba:	0700                	addi	s0,sp,896
    22bc:	0bfc                	addi	a5,sp,476
    22be:	00a0                	addi	s0,sp,72
    22c0:	0000                	unimp
    22c2:	0000                	unimp
    22c4:	0c18                	addi	a4,sp,528
    22c6:	00a0                	addi	s0,sp,72
    22c8:	0000                	unimp
    22ca:	0000                	unimp
    22cc:	7804                	ld	s1,48(s0)
    22ce:	7eb0                	ld	a2,120(a3)
    22d0:	079f 0c24 00a0      	0xa00c24079f
    22d6:	0000                	unimp
    22d8:	0000                	unimp
    22da:	0c28                	addi	a0,sp,536
    22dc:	00a0                	addi	s0,sp,72
    22de:	0000                	unimp
    22e0:	0000                	unimp
    22e2:	9f7f8003          	lb	zero,-1545(t6)
    22e6:	a00c2807          	flw	fa6,-1536(s8)
    22ea:	0000                	unimp
    22ec:	0000                	unimp
    22ee:	5400                	lw	s0,40(s0)
    22f0:	a00c                	fsd	fa1,0(s0)
    22f2:	0000                	unimp
    22f4:	0000                	unimp
    22f6:	0100                	addi	s0,sp,128
    22f8:	0756                	slli	a4,a4,0x15
    22fa:	0c54                	addi	a3,sp,532
    22fc:	00a0                	addi	s0,sp,72
    22fe:	0000                	unimp
    2300:	0000                	unimp
    2302:	0c98                	addi	a4,sp,592
    2304:	00a0                	addi	s0,sp,72
    2306:	0000                	unimp
    2308:	0000                	unimp
    230a:	9f7f8003          	lb	zero,-1545(t6)
    230e:	a00c9807          	0xa00c9807
    2312:	0000                	unimp
    2314:	0000                	unimp
    2316:	a800                	fsd	fs0,16(s0)
    2318:	a00c                	fsd	fa1,0(s0)
    231a:	0000                	unimp
    231c:	0000                	unimp
    231e:	0100                	addi	s0,sp,128
    2320:	0760                	addi	s0,sp,908
    2322:	0ca8                	addi	a0,sp,600
    2324:	00a0                	addi	s0,sp,72
    2326:	0000                	unimp
    2328:	0000                	unimp
    232a:	0cd0                	addi	a2,sp,596
    232c:	00a0                	addi	s0,sp,72
    232e:	0000                	unimp
    2330:	0000                	unimp
    2332:	5601                	li	a2,-32
    2334:	0700                	addi	s0,sp,896
    2336:	0c58                	addi	a4,sp,532
    2338:	00a0                	addi	s0,sp,72
    233a:	0000                	unimp
    233c:	0000                	unimp
    233e:	0c94                	addi	a3,sp,592
    2340:	00a0                	addi	s0,sp,72
    2342:	0000                	unimp
    2344:	0000                	unimp
    2346:	3d02                	fld	fs10,32(sp)
    2348:	009f 7407 a00c      	0xa00c7407009f
    234e:	0000                	unimp
    2350:	0000                	unimp
    2352:	9400                	0x9400
    2354:	a00c                	fsd	fa1,0(s0)
    2356:	0000                	unimp
    2358:	0000                	unimp
    235a:	0300                	addi	s0,sp,384
    235c:	8008                	0x8008
    235e:	009f 7407 a00c      	0xa00c7407009f
    2364:	0000                	unimp
    2366:	0000                	unimp
    2368:	9400                	0x9400
    236a:	a00c                	fsd	fa1,0(s0)
    236c:	0000                	unimp
    236e:	0000                	unimp
    2370:	0200                	addi	s0,sp,256
    2372:	9f30                	0x9f30
    2374:	0700                	addi	s0,sp,896
    2376:	0c74                	addi	a3,sp,540
    2378:	00a0                	addi	s0,sp,72
    237a:	0000                	unimp
    237c:	0000                	unimp
    237e:	0c94                	addi	a3,sp,592
    2380:	00a0                	addi	s0,sp,72
    2382:	0000                	unimp
    2384:	0000                	unimp
    2386:	3502                	fld	fa0,32(sp)
    2388:	009f 2c07 a00c      	0xa00c2c07009f
    238e:	0000                	unimp
    2390:	0000                	unimp
    2392:	4800                	lw	s0,16(s0)
    2394:	a00c                	fsd	fa1,0(s0)
    2396:	0000                	unimp
    2398:	0000                	unimp
    239a:	0200                	addi	s0,sp,256
    239c:	7f76                	ld	t5,376(sp)
    239e:	a00c9c07          	0xa00c9c07
    23a2:	0000                	unimp
    23a4:	0000                	unimp
    23a6:	a800                	fsd	fs0,16(s0)
    23a8:	a00c                	fsd	fa1,0(s0)
    23aa:	0000                	unimp
    23ac:	0000                	unimp
    23ae:	0200                	addi	s0,sp,256
    23b0:	7f80                	ld	s0,56(a5)
    23b2:	a00ca807          	flw	fa6,-1536(s9)
    23b6:	0000                	unimp
    23b8:	0000                	unimp
    23ba:	d000                	sw	s0,32(s0)
    23bc:	a00c                	fsd	fa1,0(s0)
    23be:	0000                	unimp
    23c0:	0000                	unimp
    23c2:	0200                	addi	s0,sp,256
    23c4:	7f76                	ld	t5,376(sp)
    23c6:	0700                	addi	s0,sp,896
    23c8:	0ca8                	addi	a0,sp,600
    23ca:	00a0                	addi	s0,sp,72
    23cc:	0000                	unimp
    23ce:	0000                	unimp
    23d0:	0cc8                	addi	a0,sp,596
    23d2:	00a0                	addi	s0,sp,72
    23d4:	0000                	unimp
    23d6:	0000                	unimp
    23d8:	9f800803          	lb	a6,-1544(zero) # fffffffffffff9f8 <end+0xfffffffffeffd9f8>
    23dc:	0700                	addi	s0,sp,896
    23de:	0ca8                	addi	a0,sp,600
    23e0:	00a0                	addi	s0,sp,72
    23e2:	0000                	unimp
    23e4:	0000                	unimp
    23e6:	0cc8                	addi	a0,sp,596
    23e8:	00a0                	addi	s0,sp,72
    23ea:	0000                	unimp
    23ec:	0000                	unimp
    23ee:	3002                	fld	ft0,32(sp)
    23f0:	009f a807 a00c      	0xa00ca807009f
    23f6:	0000                	unimp
    23f8:	0000                	unimp
    23fa:	c800                	sw	s0,16(s0)
    23fc:	a00c                	fsd	fa1,0(s0)
    23fe:	0000                	unimp
    2400:	0000                	unimp
    2402:	0200                	addi	s0,sp,256
    2404:	9f35                	addw	a4,a4,a3
    2406:	0700                	addi	s0,sp,896
    2408:	0de4                	addi	s1,sp,732
    240a:	00a0                	addi	s0,sp,72
    240c:	0000                	unimp
    240e:	0000                	unimp
    2410:	0e04                	addi	s1,sp,784
    2412:	00a0                	addi	s0,sp,72
    2414:	0000                	unimp
    2416:	0000                	unimp
    2418:	5a01                	li	s4,-32
    241a:	0700                	addi	s0,sp,896
    241c:	0de4                	addi	s1,sp,732
    241e:	00a0                	addi	s0,sp,72
    2420:	0000                	unimp
    2422:	0000                	unimp
    2424:	0e04                	addi	s1,sp,784
    2426:	00a0                	addi	s0,sp,72
    2428:	0000                	unimp
    242a:	0000                	unimp
    242c:	3002                	fld	ft0,32(sp)
    242e:	009f e407 a00d      	0xa00de407009f
    2434:	0000                	unimp
    2436:	0000                	unimp
    2438:	e800                	sd	s0,16(s0)
    243a:	a00d                	j	245c <_text-0x9fdba4>
    243c:	0000                	unimp
    243e:	0000                	unimp
    2440:	0600                	addi	s0,sp,768
    2442:	007a                	c.slli	zero,0x1e
    2444:	ff08                	sd	a0,56(a4)
    2446:	9f1a                	add	t5,t5,t1
    2448:	a00de807          	0xa00de807
    244c:	0000                	unimp
    244e:	0000                	unimp
    2450:	0400                	addi	s0,sp,512
    2452:	a00e                	fsd	ft3,0(sp)
    2454:	0000                	unimp
    2456:	0000                	unimp
    2458:	0100                	addi	s0,sp,128
    245a:	005a                	c.slli	zero,0x16
    245c:	a00de407          	0xa00de407
    2460:	0000                	unimp
    2462:	0000                	unimp
    2464:	0400                	addi	s0,sp,512
    2466:	a00e                	fsd	ft3,0(sp)
    2468:	0000                	unimp
    246a:	0000                	unimp
    246c:	0200                	addi	s0,sp,256
    246e:	9f34                	0x9f34
    2470:	d300                	sw	s0,32(a4)
    2472:	000a                	c.slli	zero,0x2
    2474:	0500                	addi	s0,sp,640
    2476:	0800                	addi	s0,sp,16
    2478:	0000                	unimp
    247a:	0000                	unimp
    247c:	0700                	addi	s0,sp,896
    247e:	1354                	addi	a3,sp,420
    2480:	00a0                	addi	s0,sp,72
    2482:	0000                	unimp
    2484:	0000                	unimp
    2486:	00a0136b          	0xa0136b
    248a:	0000                	unimp
    248c:	0000                	unimp
    248e:	5a01                	li	s4,-32
    2490:	a0136b07          	0xa0136b07
    2494:	0000                	unimp
    2496:	0000                	unimp
    2498:	7c00                	ld	s0,56(s0)
    249a:	0000a013          	slti	zero,ra,0
    249e:	0000                	unimp
    24a0:	0400                	addi	s0,sp,512
    24a2:	9f5a01a3          	sb	s5,-1565(s4)
    24a6:	0700                	addi	s0,sp,896
    24a8:	1354                	addi	a3,sp,420
    24aa:	00a0                	addi	s0,sp,72
    24ac:	0000                	unimp
    24ae:	0000                	unimp
    24b0:	00a0136b          	0xa0136b
    24b4:	0000                	unimp
    24b6:	0000                	unimp
    24b8:	5b01                	li	s6,-32
    24ba:	a0136b07          	0xa0136b07
    24be:	0000                	unimp
    24c0:	0000                	unimp
    24c2:	7c00                	ld	s0,56(s0)
    24c4:	0000a013          	slti	zero,ra,0
    24c8:	0000                	unimp
    24ca:	0400                	addi	s0,sp,512
    24cc:	9f5b01a3          	sb	s5,-1565(s6)
    24d0:	0700                	addi	s0,sp,896
    24d2:	1354                	addi	a3,sp,420
    24d4:	00a0                	addi	s0,sp,72
    24d6:	0000                	unimp
    24d8:	0000                	unimp
    24da:	00a0136b          	0xa0136b
    24de:	0000                	unimp
    24e0:	0000                	unimp
    24e2:	5c01                	li	s8,-32
    24e4:	a0136b07          	0xa0136b07
    24e8:	0000                	unimp
    24ea:	0000                	unimp
    24ec:	7c00                	ld	s0,56(s0)
    24ee:	0000a013          	slti	zero,ra,0
    24f2:	0000                	unimp
    24f4:	0400                	addi	s0,sp,512
    24f6:	9f5c01a3          	sb	s5,-1565(s8)
    24fa:	0700                	addi	s0,sp,896
    24fc:	12f8                	addi	a4,sp,364
    24fe:	00a0                	addi	s0,sp,72
    2500:	0000                	unimp
    2502:	0000                	unimp
    2504:	131c                	addi	a5,sp,416
    2506:	00a0                	addi	s0,sp,72
    2508:	0000                	unimp
    250a:	0000                	unimp
    250c:	5a01                	li	s4,-32
    250e:	a0131c07          	0xa0131c07
    2512:	0000                	unimp
    2514:	0000                	unimp
    2516:	4c00                	lw	s0,24(s0)
    2518:	0000a013          	slti	zero,ra,0
    251c:	0000                	unimp
    251e:	0400                	addi	s0,sp,512
    2520:	9f5a01a3          	sb	s5,-1565(s4)
    2524:	a0134c07          	flq	fs8,-1535(t1)
    2528:	0000                	unimp
    252a:	0000                	unimp
    252c:	5000                	lw	s0,32(s0)
    252e:	0000a013          	slti	zero,ra,0
    2532:	0000                	unimp
    2534:	0100                	addi	s0,sp,128
    2536:	075a                	slli	a4,a4,0x16
    2538:	1350                	addi	a2,sp,420
    253a:	00a0                	addi	s0,sp,72
    253c:	0000                	unimp
    253e:	0000                	unimp
    2540:	1354                	addi	a3,sp,420
    2542:	00a0                	addi	s0,sp,72
    2544:	0000                	unimp
    2546:	0000                	unimp
    2548:	a304                	fsd	fs1,0(a4)
    254a:	5a01                	li	s4,-32
    254c:	009f f807 a012      	0xa012f807009f
    2552:	0000                	unimp
    2554:	0000                	unimp
    2556:	1c00                	addi	s0,sp,560
    2558:	0000a013          	slti	zero,ra,0
    255c:	0000                	unimp
    255e:	0100                	addi	s0,sp,128
    2560:	131c075b          	0x131c075b
    2564:	00a0                	addi	s0,sp,72
    2566:	0000                	unimp
    2568:	0000                	unimp
    256a:	134c                	addi	a1,sp,420
    256c:	00a0                	addi	s0,sp,72
    256e:	0000                	unimp
    2570:	0000                	unimp
    2572:	a304                	fsd	fs1,0(a4)
    2574:	5b01                	li	s6,-32
    2576:	079f 134c 00a0      	0xa0134c079f
    257c:	0000                	unimp
    257e:	0000                	unimp
    2580:	1354                	addi	a3,sp,420
    2582:	00a0                	addi	s0,sp,72
    2584:	0000                	unimp
    2586:	0000                	unimp
    2588:	5b01                	li	s6,-32
    258a:	0700                	addi	s0,sp,896
    258c:	12f8                	addi	a4,sp,364
    258e:	00a0                	addi	s0,sp,72
    2590:	0000                	unimp
    2592:	0000                	unimp
    2594:	1304                	addi	s1,sp,416
    2596:	00a0                	addi	s0,sp,72
    2598:	0000                	unimp
    259a:	0000                	unimp
    259c:	5c01                	li	s8,-32
    259e:	a0130407          	0xa0130407
    25a2:	0000                	unimp
    25a4:	0000                	unimp
    25a6:	0c00                	addi	s0,sp,528
    25a8:	0000a013          	slti	zero,ra,0
    25ac:	0000                	unimp
    25ae:	0300                	addi	s0,sp,384
    25b0:	7f7c                	ld	a5,248(a4)
    25b2:	079f 130c 00a0      	0xa0130c079f
    25b8:	0000                	unimp
    25ba:	0000                	unimp
    25bc:	1310                	addi	a2,sp,416
    25be:	00a0                	addi	s0,sp,72
    25c0:	0000                	unimp
    25c2:	0000                	unimp
    25c4:	5d01                	li	s10,-32
    25c6:	a0131007          	0xa0131007
    25ca:	0000                	unimp
    25cc:	0000                	unimp
    25ce:	4000                	lw	s0,0(s0)
    25d0:	0000a013          	slti	zero,ra,0
    25d4:	0000                	unimp
    25d6:	0300                	addi	s0,sp,384
    25d8:	7f7c                	ld	a5,248(a4)
    25da:	079f 134c 00a0      	0xa0134c079f
    25e0:	0000                	unimp
    25e2:	0000                	unimp
    25e4:	1354                	addi	a3,sp,420
    25e6:	00a0                	addi	s0,sp,72
    25e8:	0000                	unimp
    25ea:	0000                	unimp
    25ec:	9f7f7c03          	0x9f7f7c03
    25f0:	0700                	addi	s0,sp,896
    25f2:	1304                	addi	s1,sp,416
    25f4:	00a0                	addi	s0,sp,72
    25f6:	0000                	unimp
    25f8:	0000                	unimp
    25fa:	1338                	addi	a4,sp,424
    25fc:	00a0                	addi	s0,sp,72
    25fe:	0000                	unimp
    2600:	0000                	unimp
    2602:	5a01                	li	s4,-32
    2604:	a0133c07          	fld	fs8,-1535(t1)
    2608:	0000                	unimp
    260a:	0000                	unimp
    260c:	4000                	lw	s0,0(s0)
    260e:	0000a013          	slti	zero,ra,0
    2612:	0000                	unimp
    2614:	0100                	addi	s0,sp,128
    2616:	075a                	slli	a4,a4,0x16
    2618:	134c                	addi	a1,sp,420
    261a:	00a0                	addi	s0,sp,72
    261c:	0000                	unimp
    261e:	0000                	unimp
    2620:	1350                	addi	a2,sp,420
    2622:	00a0                	addi	s0,sp,72
    2624:	0000                	unimp
    2626:	0000                	unimp
    2628:	5a01                	li	s4,-32
    262a:	a0135007          	0xa0135007
    262e:	0000                	unimp
    2630:	0000                	unimp
    2632:	5400                	lw	s0,40(s0)
    2634:	0000a013          	slti	zero,ra,0
    2638:	0000                	unimp
    263a:	0400                	addi	s0,sp,512
    263c:	9f5a01a3          	sb	s5,-1565(s4)
    2640:	0700                	addi	s0,sp,896
    2642:	127c                	addi	a5,sp,300
    2644:	00a0                	addi	s0,sp,72
    2646:	0000                	unimp
    2648:	0000                	unimp
    264a:	12a0                	addi	s0,sp,360
    264c:	00a0                	addi	s0,sp,72
    264e:	0000                	unimp
    2650:	0000                	unimp
    2652:	5b01                	li	s6,-32
    2654:	a012a007          	flw	ft0,-1535(t0)
    2658:	0000                	unimp
    265a:	0000                	unimp
    265c:	c000                	sw	s0,0(s0)
    265e:	a012                	fsd	ft4,0(sp)
    2660:	0000                	unimp
    2662:	0000                	unimp
    2664:	0400                	addi	s0,sp,512
    2666:	9f5b01a3          	sb	s5,-1565(s6)
    266a:	a012c007          	flq	ft0,-1535(t0)
    266e:	0000                	unimp
    2670:	0000                	unimp
    2672:	c800                	sw	s0,16(s0)
    2674:	a012                	fsd	ft4,0(sp)
    2676:	0000                	unimp
    2678:	0000                	unimp
    267a:	0100                	addi	s0,sp,128
    267c:	12c8075b          	0x12c8075b
    2680:	00a0                	addi	s0,sp,72
    2682:	0000                	unimp
    2684:	0000                	unimp
    2686:	12f8                	addi	a4,sp,364
    2688:	00a0                	addi	s0,sp,72
    268a:	0000                	unimp
    268c:	0000                	unimp
    268e:	a304                	fsd	fs1,0(a4)
    2690:	5b01                	li	s6,-32
    2692:	009f 7c07 a012      	0xa0127c07009f
    2698:	0000                	unimp
    269a:	0000                	unimp
    269c:	8c00                	0x8c00
    269e:	a012                	fsd	ft4,0(sp)
    26a0:	0000                	unimp
    26a2:	0000                	unimp
    26a4:	0100                	addi	s0,sp,128
    26a6:	075c                	addi	a5,sp,900
    26a8:	128c                	addi	a1,sp,352
    26aa:	00a0                	addi	s0,sp,72
    26ac:	0000                	unimp
    26ae:	0000                	unimp
    26b0:	1294                	addi	a3,sp,352
    26b2:	00a0                	addi	s0,sp,72
    26b4:	0000                	unimp
    26b6:	0000                	unimp
    26b8:	9f7f7c03          	0x9f7f7c03
    26bc:	a012c007          	flq	ft0,-1535(t0)
    26c0:	0000                	unimp
    26c2:	0000                	unimp
    26c4:	c800                	sw	s0,16(s0)
    26c6:	a012                	fsd	ft4,0(sp)
    26c8:	0000                	unimp
    26ca:	0000                	unimp
    26cc:	0100                	addi	s0,sp,128
    26ce:	075c                	addi	a5,sp,900
    26d0:	12c8                	addi	a0,sp,356
    26d2:	00a0                	addi	s0,sp,72
    26d4:	0000                	unimp
    26d6:	0000                	unimp
    26d8:	12f8                	addi	a4,sp,364
    26da:	00a0                	addi	s0,sp,72
    26dc:	0000                	unimp
    26de:	0000                	unimp
    26e0:	9f7f7c03          	0x9f7f7c03
    26e4:	0700                	addi	s0,sp,896
    26e6:	1288                	addi	a0,sp,352
    26e8:	00a0                	addi	s0,sp,72
    26ea:	0000                	unimp
    26ec:	0000                	unimp
    26ee:	12a0                	addi	s0,sp,360
    26f0:	00a0                	addi	s0,sp,72
    26f2:	0000                	unimp
    26f4:	0000                	unimp
    26f6:	5a01                	li	s4,-32
    26f8:	a012a007          	flw	ft0,-1535(t0)
    26fc:	0000                	unimp
    26fe:	0000                	unimp
    2700:	b400                	fsd	fs0,40(s0)
    2702:	a012                	fsd	ft4,0(sp)
    2704:	0000                	unimp
    2706:	0000                	unimp
    2708:	0100                	addi	s0,sp,128
    270a:	075e                	slli	a4,a4,0x17
    270c:	12c0                	addi	s0,sp,356
    270e:	00a0                	addi	s0,sp,72
    2710:	0000                	unimp
    2712:	0000                	unimp
    2714:	12c4                	addi	s1,sp,356
    2716:	00a0                	addi	s0,sp,72
    2718:	0000                	unimp
    271a:	0000                	unimp
    271c:	5a01                	li	s4,-32
    271e:	a012c407          	flq	fs0,-1535(t0)
    2722:	0000                	unimp
    2724:	0000                	unimp
    2726:	f800                	sd	s0,48(s0)
    2728:	a012                	fsd	ft4,0(sp)
    272a:	0000                	unimp
    272c:	0000                	unimp
    272e:	0100                	addi	s0,sp,128
    2730:	005e                	c.slli	zero,0x17
    2732:	a0121807          	0xa0121807
    2736:	0000                	unimp
    2738:	0000                	unimp
    273a:	4000                	lw	s0,0(s0)
    273c:	a012                	fsd	ft4,0(sp)
    273e:	0000                	unimp
    2740:	0000                	unimp
    2742:	0100                	addi	s0,sp,128
    2744:	075a                	slli	a4,a4,0x16
    2746:	1240                	addi	s0,sp,292
    2748:	00a0                	addi	s0,sp,72
    274a:	0000                	unimp
    274c:	0000                	unimp
    274e:	1268                	addi	a0,sp,300
    2750:	00a0                	addi	s0,sp,72
    2752:	0000                	unimp
    2754:	0000                	unimp
    2756:	5e01                	li	t3,-32
    2758:	a0127407          	0xa0127407
    275c:	0000                	unimp
    275e:	0000                	unimp
    2760:	7800                	ld	s0,48(s0)
    2762:	a012                	fsd	ft4,0(sp)
    2764:	0000                	unimp
    2766:	0000                	unimp
    2768:	0100                	addi	s0,sp,128
    276a:	075a                	slli	a4,a4,0x16
    276c:	1278                	addi	a4,sp,300
    276e:	00a0                	addi	s0,sp,72
    2770:	0000                	unimp
    2772:	0000                	unimp
    2774:	127c                	addi	a5,sp,300
    2776:	00a0                	addi	s0,sp,72
    2778:	0000                	unimp
    277a:	0000                	unimp
    277c:	a304                	fsd	fs1,0(a4)
    277e:	5a01                	li	s4,-32
    2780:	009f 2407 a012      	0xa0122407009f
    2786:	0000                	unimp
    2788:	0000                	unimp
    278a:	4000                	lw	s0,0(s0)
    278c:	a012                	fsd	ft4,0(sp)
    278e:	0000                	unimp
    2790:	0000                	unimp
    2792:	0200                	addi	s0,sp,256
    2794:	9f30                	0x9f30
    2796:	a0124007          	flq	ft0,-1535(tp) # fffffffffffffa01 <end+0xfffffffffeffda01>
    279a:	0000                	unimp
    279c:	0000                	unimp
    279e:	5800                	lw	s0,48(s0)
    27a0:	a012                	fsd	ft4,0(sp)
    27a2:	0000                	unimp
    27a4:	0000                	unimp
    27a6:	0100                	addi	s0,sp,128
    27a8:	075a                	slli	a4,a4,0x16
    27aa:	1258                	addi	a4,sp,292
    27ac:	00a0                	addi	s0,sp,72
    27ae:	0000                	unimp
    27b0:	0000                	unimp
    27b2:	1260                	addi	s0,sp,300
    27b4:	00a0                	addi	s0,sp,72
    27b6:	0000                	unimp
    27b8:	0000                	unimp
    27ba:	9f507f03          	0x9f507f03
    27be:	a0127407          	0xa0127407
    27c2:	0000                	unimp
    27c4:	0000                	unimp
    27c6:	7c00                	ld	s0,56(s0)
    27c8:	a012                	fsd	ft4,0(sp)
    27ca:	0000                	unimp
    27cc:	0000                	unimp
    27ce:	0200                	addi	s0,sp,256
    27d0:	9f30                	0x9f30
    27d2:	0700                	addi	s0,sp,896
    27d4:	119c                	addi	a5,sp,224
    27d6:	00a0                	addi	s0,sp,72
    27d8:	0000                	unimp
    27da:	0000                	unimp
    27dc:	11b4                	addi	a3,sp,232
    27de:	00a0                	addi	s0,sp,72
    27e0:	0000                	unimp
    27e2:	0000                	unimp
    27e4:	5a01                	li	s4,-32
    27e6:	a011b407          	fld	fs0,-1535(gp)
    27ea:	0000                	unimp
    27ec:	0000                	unimp
    27ee:	c800                	sw	s0,16(s0)
    27f0:	a011                	j	27f4 <_text-0x9fd80c>
    27f2:	0000                	unimp
    27f4:	0000                	unimp
    27f6:	0100                	addi	s0,sp,128
    27f8:	075f 11c8 00a0      	0xa011c8075f
    27fe:	0000                	unimp
    2800:	0000                	unimp
    2802:	11e0                	addi	s0,sp,236
    2804:	00a0                	addi	s0,sp,72
    2806:	0000                	unimp
    2808:	0000                	unimp
    280a:	5b01                	li	s6,-32
    280c:	a011e007          	0xa011e007
    2810:	0000                	unimp
    2812:	0000                	unimp
    2814:	1000                	addi	s0,sp,32
    2816:	a012                	fsd	ft4,0(sp)
    2818:	0000                	unimp
    281a:	0000                	unimp
    281c:	0400                	addi	s0,sp,512
    281e:	9f5a01a3          	sb	s5,-1565(s4)
    2822:	a0121007          	0xa0121007
    2826:	0000                	unimp
    2828:	0000                	unimp
    282a:	1800                	addi	s0,sp,48
    282c:	a012                	fsd	ft4,0(sp)
    282e:	0000                	unimp
    2830:	0000                	unimp
    2832:	0100                	addi	s0,sp,128
    2834:	9c07005b          	0x9c07005b
    2838:	a011                	j	283c <_text-0x9fd7c4>
    283a:	0000                	unimp
    283c:	0000                	unimp
    283e:	b800                	fsd	fs0,48(s0)
    2840:	a011                	j	2844 <_text-0x9fd7bc>
    2842:	0000                	unimp
    2844:	0000                	unimp
    2846:	0100                	addi	s0,sp,128
    2848:	11b8075b          	0x11b8075b
    284c:	00a0                	addi	s0,sp,72
    284e:	0000                	unimp
    2850:	0000                	unimp
    2852:	11f0                	addi	a2,sp,236
    2854:	00a0                	addi	s0,sp,72
    2856:	0000                	unimp
    2858:	0000                	unimp
    285a:	5601                	li	a2,-32
    285c:	a011f007          	0xa011f007
    2860:	0000                	unimp
    2862:	0000                	unimp
    2864:	f800                	sd	s0,48(s0)
    2866:	a011                	j	286a <_text-0x9fd796>
    2868:	0000                	unimp
    286a:	0000                	unimp
    286c:	0100                	addi	s0,sp,128
    286e:	11f8075b          	0x11f8075b
    2872:	00a0                	addi	s0,sp,72
    2874:	0000                	unimp
    2876:	0000                	unimp
    2878:	1210                	addi	a2,sp,288
    287a:	00a0                	addi	s0,sp,72
    287c:	0000                	unimp
    287e:	0000                	unimp
    2880:	a304                	fsd	fs1,0(a4)
    2882:	5b01                	li	s6,-32
    2884:	079f 1210 00a0      	0xa01210079f
    288a:	0000                	unimp
    288c:	0000                	unimp
    288e:	1214                	addi	a3,sp,288
    2890:	00a0                	addi	s0,sp,72
    2892:	0000                	unimp
    2894:	0000                	unimp
    2896:	5601                	li	a2,-32
    2898:	a0121407          	0xa0121407
    289c:	0000                	unimp
    289e:	0000                	unimp
    28a0:	1800                	addi	s0,sp,48
    28a2:	a012                	fsd	ft4,0(sp)
    28a4:	0000                	unimp
    28a6:	0000                	unimp
    28a8:	0400                	addi	s0,sp,512
    28aa:	9f5b01a3          	sb	s5,-1565(s6)
    28ae:	0700                	addi	s0,sp,896
    28b0:	11f0                	addi	a2,sp,236
    28b2:	00a0                	addi	s0,sp,72
    28b4:	0000                	unimp
    28b6:	0000                	unimp
    28b8:	1200                	addi	s0,sp,288
    28ba:	00a0                	addi	s0,sp,72
    28bc:	0000                	unimp
    28be:	0000                	unimp
    28c0:	5601                	li	a2,-32
    28c2:	0700                	addi	s0,sp,896
    28c4:	11b0                	addi	a2,sp,232
    28c6:	00a0                	addi	s0,sp,72
    28c8:	0000                	unimp
    28ca:	0000                	unimp
    28cc:	11d4                	addi	a3,sp,228
    28ce:	00a0                	addi	s0,sp,72
    28d0:	0000                	unimp
    28d2:	0000                	unimp
    28d4:	3002                	fld	ft0,32(sp)
    28d6:	009f b007 a011      	0xa011b007009f
    28dc:	0000                	unimp
    28de:	0000                	unimp
    28e0:	b400                	fsd	fs0,40(s0)
    28e2:	a011                	j	28e6 <_text-0x9fd71a>
    28e4:	0000                	unimp
    28e6:	0000                	unimp
    28e8:	0100                	addi	s0,sp,128
    28ea:	075a                	slli	a4,a4,0x16
    28ec:	11b4                	addi	a3,sp,232
    28ee:	00a0                	addi	s0,sp,72
    28f0:	0000                	unimp
    28f2:	0000                	unimp
    28f4:	11c8                	addi	a0,sp,228
    28f6:	00a0                	addi	s0,sp,72
    28f8:	0000                	unimp
    28fa:	0000                	unimp
    28fc:	5f01                	li	t5,-32
    28fe:	a011c807          	flq	fa6,-1535(gp)
    2902:	0000                	unimp
    2904:	0000                	unimp
    2906:	d400                	sw	s0,40(s0)
    2908:	a011                	j	290c <_text-0x9fd6f4>
    290a:	0000                	unimp
    290c:	0000                	unimp
    290e:	0100                	addi	s0,sp,128
    2910:	b007005b          	0xb007005b
    2914:	a011                	j	2918 <_text-0x9fd6e8>
    2916:	0000                	unimp
    2918:	0000                	unimp
    291a:	d000                	sw	s0,32(s0)
    291c:	a011                	j	2920 <_text-0x9fd6e0>
    291e:	0000                	unimp
    2920:	0000                	unimp
    2922:	0200                	addi	s0,sp,256
    2924:	9f30                	0x9f30
    2926:	0700                	addi	s0,sp,896
    2928:	11b0                	addi	a2,sp,232
    292a:	00a0                	addi	s0,sp,72
    292c:	0000                	unimp
    292e:	0000                	unimp
    2930:	11d0                	addi	a2,sp,228
    2932:	00a0                	addi	s0,sp,72
    2934:	0000                	unimp
    2936:	0000                	unimp
    2938:	3202                	fld	ft4,32(sp)
    293a:	009f b007 a011      	0xa011b007009f
    2940:	0000                	unimp
    2942:	0000                	unimp
    2944:	b400                	fsd	fs0,40(s0)
    2946:	a011                	j	294a <_text-0x9fd6b6>
    2948:	0000                	unimp
    294a:	0000                	unimp
    294c:	0100                	addi	s0,sp,128
    294e:	075a                	slli	a4,a4,0x16
    2950:	11b4                	addi	a3,sp,232
    2952:	00a0                	addi	s0,sp,72
    2954:	0000                	unimp
    2956:	0000                	unimp
    2958:	11c8                	addi	a0,sp,228
    295a:	00a0                	addi	s0,sp,72
    295c:	0000                	unimp
    295e:	0000                	unimp
    2960:	5f01                	li	t5,-32
    2962:	a011c807          	flq	fa6,-1535(gp)
    2966:	0000                	unimp
    2968:	0000                	unimp
    296a:	d000                	sw	s0,32(s0)
    296c:	a011                	j	2970 <_text-0x9fd690>
    296e:	0000                	unimp
    2970:	0000                	unimp
    2972:	0100                	addi	s0,sp,128
    2974:	b007005b          	0xb007005b
    2978:	a011                	j	297c <_text-0x9fd684>
    297a:	0000                	unimp
    297c:	0000                	unimp
    297e:	d000                	sw	s0,32(s0)
    2980:	a011                	j	2984 <_text-0x9fd67c>
    2982:	0000                	unimp
    2984:	0000                	unimp
    2986:	0300                	addi	s0,sp,384
    2988:	9c09                	subw	s0,s0,a0
    298a:	009f b007 a011      	0xa011b007009f
    2990:	0000                	unimp
    2992:	0000                	unimp
    2994:	d000                	sw	s0,32(s0)
    2996:	a011                	j	299a <_text-0x9fd666>
    2998:	0000                	unimp
    299a:	0000                	unimp
    299c:	0300                	addi	s0,sp,384
    299e:	3808                	fld	fa0,48(s0)
    29a0:	009f d807 a011      	0xa011d807009f
    29a6:	0000                	unimp
    29a8:	0000                	unimp
    29aa:	f000                	sd	s0,32(s0)
    29ac:	a011                	j	29b0 <_text-0x9fd650>
    29ae:	0000                	unimp
    29b0:	0000                	unimp
    29b2:	0100                	addi	s0,sp,128
    29b4:	0056                	c.slli	zero,0x15
    29b6:	a011d807          	0xa011d807
    29ba:	0000                	unimp
    29bc:	0000                	unimp
    29be:	f000                	sd	s0,32(s0)
    29c0:	a011                	j	29c4 <_text-0x9fd63c>
    29c2:	0000                	unimp
    29c4:	0000                	unimp
    29c6:	0100                	addi	s0,sp,128
    29c8:	0060                	addi	s0,sp,12
    29ca:	a011d807          	0xa011d807
    29ce:	0000                	unimp
    29d0:	0000                	unimp
    29d2:	ec00                	sd	s0,24(s0)
    29d4:	a011                	j	29d8 <_text-0x9fd628>
    29d6:	0000                	unimp
    29d8:	0000                	unimp
    29da:	0200                	addi	s0,sp,256
    29dc:	9f30                	0x9f30
    29de:	0700                	addi	s0,sp,896
    29e0:	11d8                	addi	a4,sp,228
    29e2:	00a0                	addi	s0,sp,72
    29e4:	0000                	unimp
    29e6:	0000                	unimp
    29e8:	11ec                	addi	a1,sp,236
    29ea:	00a0                	addi	s0,sp,72
    29ec:	0000                	unimp
    29ee:	0000                	unimp
    29f0:	5601                	li	a2,-32
    29f2:	0700                	addi	s0,sp,896
    29f4:	11d8                	addi	a4,sp,228
    29f6:	00a0                	addi	s0,sp,72
    29f8:	0000                	unimp
    29fa:	0000                	unimp
    29fc:	11ec                	addi	a1,sp,236
    29fe:	00a0                	addi	s0,sp,72
    2a00:	0000                	unimp
    2a02:	0000                	unimp
    2a04:	6001                	0x6001
    2a06:	0700                	addi	s0,sp,896
    2a08:	11d8                	addi	a4,sp,228
    2a0a:	00a0                	addi	s0,sp,72
    2a0c:	0000                	unimp
    2a0e:	0000                	unimp
    2a10:	11ec                	addi	a1,sp,236
    2a12:	00a0                	addi	s0,sp,72
    2a14:	0000                	unimp
    2a16:	0000                	unimp
    2a18:	9f500803          	lb	a6,-1547(zero) # fffffffffffff9f5 <end+0xfffffffffeffd9f5>
    2a1c:	0700                	addi	s0,sp,896
    2a1e:	11f0                	addi	a2,sp,236
    2a20:	00a0                	addi	s0,sp,72
    2a22:	0000                	unimp
    2a24:	0000                	unimp
    2a26:	1200                	addi	s0,sp,288
    2a28:	00a0                	addi	s0,sp,72
    2a2a:	0000                	unimp
    2a2c:	0000                	unimp
    2a2e:	6001                	0x6001
    2a30:	0700                	addi	s0,sp,896
    2a32:	11f0                	addi	a2,sp,236
    2a34:	00a0                	addi	s0,sp,72
    2a36:	0000                	unimp
    2a38:	0000                	unimp
    2a3a:	1200                	addi	s0,sp,288
    2a3c:	00a0                	addi	s0,sp,72
    2a3e:	0000                	unimp
    2a40:	0000                	unimp
    2a42:	3002                	fld	ft0,32(sp)
    2a44:	009f f007 a011      	0xa011f007009f
    2a4a:	0000                	unimp
    2a4c:	0000                	unimp
    2a4e:	0000                	unimp
    2a50:	a012                	fsd	ft4,0(sp)
    2a52:	0000                	unimp
    2a54:	0000                	unimp
    2a56:	0300                	addi	s0,sp,384
    2a58:	3908                	fld	fa0,48(a0)
    2a5a:	009f 9807 a010      	0xa0109807009f
    2a60:	0000                	unimp
    2a62:	0000                	unimp
    2a64:	d400                	sw	s0,40(s0)
    2a66:	a010                	fsd	fa2,0(s0)
    2a68:	0000                	unimp
    2a6a:	0000                	unimp
    2a6c:	0100                	addi	s0,sp,128
    2a6e:	075a                	slli	a4,a4,0x16
    2a70:	10d4                	addi	a3,sp,100
    2a72:	00a0                	addi	s0,sp,72
    2a74:	0000                	unimp
    2a76:	0000                	unimp
    2a78:	1170                	addi	a2,sp,172
    2a7a:	00a0                	addi	s0,sp,72
    2a7c:	0000                	unimp
    2a7e:	0000                	unimp
    2a80:	6d01                	0x6d01
    2a82:	a0117007          	0xa0117007
    2a86:	0000                	unimp
    2a88:	0000                	unimp
    2a8a:	8000                	0x8000
    2a8c:	a011                	j	2a90 <_text-0x9fd570>
    2a8e:	0000                	unimp
    2a90:	0000                	unimp
    2a92:	0100                	addi	s0,sp,128
    2a94:	075a                	slli	a4,a4,0x16
    2a96:	1180                	addi	s0,sp,224
    2a98:	00a0                	addi	s0,sp,72
    2a9a:	0000                	unimp
    2a9c:	0000                	unimp
    2a9e:	119c                	addi	a5,sp,224
    2aa0:	00a0                	addi	s0,sp,72
    2aa2:	0000                	unimp
    2aa4:	0000                	unimp
    2aa6:	6d01                	0x6d01
    2aa8:	0700                	addi	s0,sp,896
    2aaa:	1098                	addi	a4,sp,96
    2aac:	00a0                	addi	s0,sp,72
    2aae:	0000                	unimp
    2ab0:	0000                	unimp
    2ab2:	10d4                	addi	a3,sp,100
    2ab4:	00a0                	addi	s0,sp,72
    2ab6:	0000                	unimp
    2ab8:	0000                	unimp
    2aba:	5b01                	li	s6,-32
    2abc:	a010d407          	0xa010d407
    2ac0:	0000                	unimp
    2ac2:	0000                	unimp
    2ac4:	7000                	ld	s0,32(s0)
    2ac6:	a011                	j	2aca <_text-0x9fd536>
    2ac8:	0000                	unimp
    2aca:	0000                	unimp
    2acc:	0400                	addi	s0,sp,512
    2ace:	9f5b01a3          	sb	s5,-1565(s6)
    2ad2:	a0117007          	0xa0117007
    2ad6:	0000                	unimp
    2ad8:	0000                	unimp
    2ada:	8000                	0x8000
    2adc:	a011                	j	2ae0 <_text-0x9fd520>
    2ade:	0000                	unimp
    2ae0:	0000                	unimp
    2ae2:	0100                	addi	s0,sp,128
    2ae4:	1180075b          	0x1180075b
    2ae8:	00a0                	addi	s0,sp,72
    2aea:	0000                	unimp
    2aec:	0000                	unimp
    2aee:	119c                	addi	a5,sp,224
    2af0:	00a0                	addi	s0,sp,72
    2af2:	0000                	unimp
    2af4:	0000                	unimp
    2af6:	a304                	fsd	fs1,0(a4)
    2af8:	5b01                	li	s6,-32
    2afa:	009f 9c07 a010      	0xa0109c07009f
    2b00:	0000                	unimp
    2b02:	0000                	unimp
    2b04:	d400                	sw	s0,40(s0)
    2b06:	a010                	fsd	fa2,0(s0)
    2b08:	0000                	unimp
    2b0a:	0000                	unimp
    2b0c:	0200                	addi	s0,sp,256
    2b0e:	9f30                	0x9f30
    2b10:	a010d407          	0xa010d407
    2b14:	0000                	unimp
    2b16:	0000                	unimp
    2b18:	dc00                	sw	s0,56(s0)
    2b1a:	a010                	fsd	fa2,0(s0)
    2b1c:	0000                	unimp
    2b1e:	0000                	unimp
    2b20:	0100                	addi	s0,sp,128
    2b22:	0760                	addi	s0,sp,908
    2b24:	10f4                	addi	a3,sp,108
    2b26:	00a0                	addi	s0,sp,72
    2b28:	0000                	unimp
    2b2a:	0000                	unimp
    2b2c:	114c                	addi	a1,sp,164
    2b2e:	00a0                	addi	s0,sp,72
    2b30:	0000                	unimp
    2b32:	0000                	unimp
    2b34:	6001                	0x6001
    2b36:	a0114c07          	flq	fs8,-1535(sp)
    2b3a:	0000                	unimp
    2b3c:	0000                	unimp
    2b3e:	6800                	ld	s0,16(s0)
    2b40:	a011                	j	2b44 <_text-0x9fd4bc>
    2b42:	0000                	unimp
    2b44:	0000                	unimp
    2b46:	0100                	addi	s0,sp,128
    2b48:	0756                	slli	a4,a4,0x15
    2b4a:	1168                	addi	a0,sp,172
    2b4c:	00a0                	addi	s0,sp,72
    2b4e:	0000                	unimp
    2b50:	0000                	unimp
    2b52:	1170                	addi	a2,sp,172
    2b54:	00a0                	addi	s0,sp,72
    2b56:	0000                	unimp
    2b58:	0000                	unimp
    2b5a:	6001                	0x6001
    2b5c:	a0117007          	0xa0117007
    2b60:	0000                	unimp
    2b62:	0000                	unimp
    2b64:	7400                	ld	s0,40(s0)
    2b66:	a011                	j	2b6a <_text-0x9fd496>
    2b68:	0000                	unimp
    2b6a:	0000                	unimp
    2b6c:	0200                	addi	s0,sp,256
    2b6e:	9f30                	0x9f30
    2b70:	a0117407          	0xa0117407
    2b74:	0000                	unimp
    2b76:	0000                	unimp
    2b78:	7800                	ld	s0,48(s0)
    2b7a:	a011                	j	2b7e <_text-0x9fd482>
    2b7c:	0000                	unimp
    2b7e:	0000                	unimp
    2b80:	0100                	addi	s0,sp,128
    2b82:	0756                	slli	a4,a4,0x15
    2b84:	1178                	addi	a4,sp,172
    2b86:	00a0                	addi	s0,sp,72
    2b88:	0000                	unimp
    2b8a:	0000                	unimp
    2b8c:	1180                	addi	s0,sp,224
    2b8e:	00a0                	addi	s0,sp,72
    2b90:	0000                	unimp
    2b92:	0000                	unimp
    2b94:	3002                	fld	ft0,32(sp)
    2b96:	079f 1180 00a0      	0xa01180079f
    2b9c:	0000                	unimp
    2b9e:	0000                	unimp
    2ba0:	1184                	addi	s1,sp,224
    2ba2:	00a0                	addi	s0,sp,72
    2ba4:	0000                	unimp
    2ba6:	0000                	unimp
    2ba8:	6001                	0x6001
    2baa:	a0118407          	0xa0118407
    2bae:	0000                	unimp
    2bb0:	0000                	unimp
    2bb2:	8800                	0x8800
    2bb4:	a011                	j	2bb8 <_text-0x9fd448>
    2bb6:	0000                	unimp
    2bb8:	0000                	unimp
    2bba:	0100                	addi	s0,sp,128
    2bbc:	0056                	c.slli	zero,0x15
    2bbe:	a010d407          	0xa010d407
    2bc2:	0000                	unimp
    2bc4:	0000                	unimp
    2bc6:	e000                	sd	s0,0(s0)
    2bc8:	a010                	fsd	fa2,0(s0)
    2bca:	0000                	unimp
    2bcc:	0000                	unimp
    2bce:	0100                	addi	s0,sp,128
    2bd0:	075a                	slli	a4,a4,0x16
    2bd2:	111c                	addi	a5,sp,160
    2bd4:	00a0                	addi	s0,sp,72
    2bd6:	0000                	unimp
    2bd8:	0000                	unimp
    2bda:	1130                	addi	a2,sp,168
    2bdc:	00a0                	addi	s0,sp,72
    2bde:	0000                	unimp
    2be0:	0000                	unimp
    2be2:	5a01                	li	s4,-32
    2be4:	a0118007          	0xa0118007
    2be8:	0000                	unimp
    2bea:	0000                	unimp
    2bec:	8400                	0x8400
    2bee:	a011                	j	2bf2 <_text-0x9fd40e>
    2bf0:	0000                	unimp
    2bf2:	0000                	unimp
    2bf4:	0100                	addi	s0,sp,128
    2bf6:	005a                	c.slli	zero,0x16
    2bf8:	a010dc07          	0xa010dc07
    2bfc:	0000                	unimp
    2bfe:	0000                	unimp
    2c00:	f400                	sd	s0,40(s0)
    2c02:	a010                	fsd	fa2,0(s0)
    2c04:	0000                	unimp
    2c06:	0000                	unimp
    2c08:	0200                	addi	s0,sp,256
    2c0a:	07009f33          	0x7009f33
    2c0e:	10dc                	addi	a5,sp,100
    2c10:	00a0                	addi	s0,sp,72
    2c12:	0000                	unimp
    2c14:	0000                	unimp
    2c16:	10f4                	addi	a3,sp,108
    2c18:	00a0                	addi	s0,sp,72
    2c1a:	0000                	unimp
    2c1c:	0000                	unimp
    2c1e:	030a                	slli	t1,t1,0x2
    2c20:	2210                	fld	fa2,0(a2)
    2c22:	00a0                	addi	s0,sp,72
    2c24:	0000                	unimp
    2c26:	0000                	unimp
    2c28:	009f dc07 a010      	0xa010dc07009f
    2c2e:	0000                	unimp
    2c30:	0000                	unimp
    2c32:	f400                	sd	s0,40(s0)
    2c34:	a010                	fsd	fa2,0(s0)
    2c36:	0000                	unimp
    2c38:	0000                	unimp
    2c3a:	0200                	addi	s0,sp,256
    2c3c:	9f31                	addw	a4,a4,a2
    2c3e:	0700                	addi	s0,sp,896
    2c40:	10dc                	addi	a5,sp,100
    2c42:	00a0                	addi	s0,sp,72
    2c44:	0000                	unimp
    2c46:	0000                	unimp
    2c48:	10f4                	addi	a3,sp,108
    2c4a:	00a0                	addi	s0,sp,72
    2c4c:	0000                	unimp
    2c4e:	0000                	unimp
    2c50:	3002                	fld	ft0,32(sp)
    2c52:	009f dc07 a010      	0xa010dc07009f
    2c58:	0000                	unimp
    2c5a:	0000                	unimp
    2c5c:	f400                	sd	s0,40(s0)
    2c5e:	a010                	fsd	fa2,0(s0)
    2c60:	0000                	unimp
    2c62:	0000                	unimp
    2c64:	0300                	addi	s0,sp,384
    2c66:	4008                	lw	a0,0(s0)
    2c68:	009f fc07 a010      	0xa010fc07009f
    2c6e:	0000                	unimp
    2c70:	0000                	unimp
    2c72:	1c00                	addi	s0,sp,560
    2c74:	a011                	j	2c78 <_text-0x9fd388>
    2c76:	0000                	unimp
    2c78:	0000                	unimp
    2c7a:	0200                	addi	s0,sp,256
    2c7c:	9f31                	addw	a4,a4,a2
    2c7e:	0700                	addi	s0,sp,896
    2c80:	10fc                	addi	a5,sp,108
    2c82:	00a0                	addi	s0,sp,72
    2c84:	0000                	unimp
    2c86:	0000                	unimp
    2c88:	1104                	addi	s1,sp,160
    2c8a:	00a0                	addi	s0,sp,72
    2c8c:	0000                	unimp
    2c8e:	0000                	unimp
    2c90:	9f6f7803          	0x9f6f7803
    2c94:	a0110407          	0xa0110407
    2c98:	0000                	unimp
    2c9a:	0000                	unimp
    2c9c:	1c00                	addi	s0,sp,560
    2c9e:	a011                	j	2ca2 <_text-0x9fd35e>
    2ca0:	0000                	unimp
    2ca2:	0000                	unimp
    2ca4:	0100                	addi	s0,sp,128
    2ca6:	fc07005b          	0xfc07005b
    2caa:	a010                	fsd	fa2,0(s0)
    2cac:	0000                	unimp
    2cae:	0000                	unimp
    2cb0:	1c00                	addi	s0,sp,560
    2cb2:	a011                	j	2cb6 <_text-0x9fd34a>
    2cb4:	0000                	unimp
    2cb6:	0000                	unimp
    2cb8:	0200                	addi	s0,sp,256
    2cba:	9f30                	0x9f30
    2cbc:	0700                	addi	s0,sp,896
    2cbe:	10fc                	addi	a5,sp,108
    2cc0:	00a0                	addi	s0,sp,72
    2cc2:	0000                	unimp
    2cc4:	0000                	unimp
    2cc6:	111c                	addi	a5,sp,160
    2cc8:	00a0                	addi	s0,sp,72
    2cca:	0000                	unimp
    2ccc:	0000                	unimp
    2cce:	9f3f0803          	lb	a6,-1549(t5)
    2cd2:	0700                	addi	s0,sp,896
    2cd4:	112c                	addi	a1,sp,168
    2cd6:	00a0                	addi	s0,sp,72
    2cd8:	0000                	unimp
    2cda:	0000                	unimp
    2cdc:	114c                	addi	a1,sp,164
    2cde:	00a0                	addi	s0,sp,72
    2ce0:	0000                	unimp
    2ce2:	0000                	unimp
    2ce4:	3102                	fld	ft2,32(sp)
    2ce6:	009f 2c07 a011      	0xa0112c07009f
    2cec:	0000                	unimp
    2cee:	0000                	unimp
    2cf0:	4c00                	lw	s0,24(s0)
    2cf2:	a011                	j	2cf6 <_text-0x9fd30a>
    2cf4:	0000                	unimp
    2cf6:	0000                	unimp
    2cf8:	0100                	addi	s0,sp,128
    2cfa:	2c07005b          	0x2c07005b
    2cfe:	a011                	j	2d02 <_text-0x9fd2fe>
    2d00:	0000                	unimp
    2d02:	0000                	unimp
    2d04:	4c00                	lw	s0,24(s0)
    2d06:	a011                	j	2d0a <_text-0x9fd2f6>
    2d08:	0000                	unimp
    2d0a:	0000                	unimp
    2d0c:	0200                	addi	s0,sp,256
    2d0e:	9f30                	0x9f30
    2d10:	0700                	addi	s0,sp,896
    2d12:	112c                	addi	a1,sp,168
    2d14:	00a0                	addi	s0,sp,72
    2d16:	0000                	unimp
    2d18:	0000                	unimp
    2d1a:	114c                	addi	a1,sp,164
    2d1c:	00a0                	addi	s0,sp,72
    2d1e:	0000                	unimp
    2d20:	0000                	unimp
    2d22:	9f400803          	lb	a6,-1548(zero) # fffffffffffff9f4 <end+0xfffffffffeffd9f4>
    2d26:	0700                	addi	s0,sp,896
    2d28:	105c                	addi	a5,sp,36
    2d2a:	00a0                	addi	s0,sp,72
    2d2c:	0000                	unimp
    2d2e:	0000                	unimp
    2d30:	1078                	addi	a4,sp,44
    2d32:	00a0                	addi	s0,sp,72
    2d34:	0000                	unimp
    2d36:	0000                	unimp
    2d38:	5a01                	li	s4,-32
    2d3a:	a0107807          	0xa0107807
    2d3e:	0000                	unimp
    2d40:	0000                	unimp
    2d42:	8400                	0x8400
    2d44:	a010                	fsd	fa2,0(s0)
    2d46:	0000                	unimp
    2d48:	0000                	unimp
    2d4a:	0100                	addi	s0,sp,128
    2d4c:	075a                	slli	a4,a4,0x16
    2d4e:	1090                	addi	a2,sp,96
    2d50:	00a0                	addi	s0,sp,72
    2d52:	0000                	unimp
    2d54:	0000                	unimp
    2d56:	1094                	addi	a3,sp,96
    2d58:	00a0                	addi	s0,sp,72
    2d5a:	0000                	unimp
    2d5c:	0000                	unimp
    2d5e:	5a01                	li	s4,-32
    2d60:	a0109407          	0xa0109407
    2d64:	0000                	unimp
    2d66:	0000                	unimp
    2d68:	9800                	0x9800
    2d6a:	a010                	fsd	fa2,0(s0)
    2d6c:	0000                	unimp
    2d6e:	0000                	unimp
    2d70:	0400                	addi	s0,sp,512
    2d72:	9f5a01a3          	sb	s5,-1565(s4)
    2d76:	0700                	addi	s0,sp,896
    2d78:	1024                	addi	s1,sp,40
    2d7a:	00a0                	addi	s0,sp,72
    2d7c:	0000                	unimp
    2d7e:	0000                	unimp
    2d80:	103c                	addi	a5,sp,40
    2d82:	00a0                	addi	s0,sp,72
    2d84:	0000                	unimp
    2d86:	0000                	unimp
    2d88:	5c01                	li	s8,-32
    2d8a:	a0103c07          	fld	fs8,-1535(zero) # fffffffffffffa01 <end+0xfffffffffeffda01>
    2d8e:	0000                	unimp
    2d90:	0000                	unimp
    2d92:	5c00                	lw	s0,56(s0)
    2d94:	a010                	fsd	fa2,0(s0)
    2d96:	0000                	unimp
    2d98:	0000                	unimp
    2d9a:	0400                	addi	s0,sp,512
    2d9c:	9f5c01a3          	sb	s5,-1565(s8)
    2da0:	0700                	addi	s0,sp,896
    2da2:	1030                	addi	a2,sp,40
    2da4:	00a0                	addi	s0,sp,72
    2da6:	0000                	unimp
    2da8:	0000                	unimp
    2daa:	1044                	addi	s1,sp,36
    2dac:	00a0                	addi	s0,sp,72
    2dae:	0000                	unimp
    2db0:	0000                	unimp
    2db2:	3002                	fld	ft0,32(sp)
    2db4:	079f 1044 00a0      	0xa01044079f
    2dba:	0000                	unimp
    2dbc:	0000                	unimp
    2dbe:	1048                	addi	a0,sp,36
    2dc0:	00a0                	addi	s0,sp,72
    2dc2:	0000                	unimp
    2dc4:	0000                	unimp
    2dc6:	7f06                	ld	t5,96(sp)
    2dc8:	7a00                	ld	s0,48(a2)
    2dca:	1c00                	addi	s0,sp,560
    2dcc:	079f 1048 00a0      	0xa01048079f
    2dd2:	0000                	unimp
    2dd4:	0000                	unimp
    2dd6:	104c                	addi	a1,sp,36
    2dd8:	00a0                	addi	s0,sp,72
    2dda:	0000                	unimp
    2ddc:	0000                	unimp
    2dde:	7f08                	ld	a0,56(a4)
    2de0:	7a00                	ld	s0,48(a2)
    2de2:	1c00                	addi	s0,sp,560
    2de4:	009f0123          	sb	s1,2(t5)
    2de8:	a00fdc07          	0xa00fdc07
    2dec:	0000                	unimp
    2dee:	0000                	unimp
    2df0:	f400                	sd	s0,40(s0)
    2df2:	0000a00f          	0xa00f
    2df6:	0000                	unimp
    2df8:	0100                	addi	s0,sp,128
    2dfa:	075a                	slli	a4,a4,0x16
    2dfc:	0ff4                	addi	a3,sp,988
    2dfe:	00a0                	addi	s0,sp,72
    2e00:	0000                	unimp
    2e02:	0000                	unimp
    2e04:	1000                	addi	s0,sp,32
    2e06:	00a0                	addi	s0,sp,72
    2e08:	0000                	unimp
    2e0a:	0000                	unimp
    2e0c:	9f7f7a03          	0x9f7f7a03
    2e10:	a0100007          	0xa0100007
    2e14:	0000                	unimp
    2e16:	0000                	unimp
    2e18:	1c00                	addi	s0,sp,560
    2e1a:	a010                	fsd	fa2,0(s0)
    2e1c:	0000                	unimp
    2e1e:	0000                	unimp
    2e20:	0400                	addi	s0,sp,512
    2e22:	9f5a01a3          	sb	s5,-1565(s4)
    2e26:	a0101c07          	0xa0101c07
    2e2a:	0000                	unimp
    2e2c:	0000                	unimp
    2e2e:	2000                	fld	fs0,0(s0)
    2e30:	a010                	fsd	fa2,0(s0)
    2e32:	0000                	unimp
    2e34:	0000                	unimp
    2e36:	0100                	addi	s0,sp,128
    2e38:	075a                	slli	a4,a4,0x16
    2e3a:	1020                	addi	s0,sp,40
    2e3c:	00a0                	addi	s0,sp,72
    2e3e:	0000                	unimp
    2e40:	0000                	unimp
    2e42:	1024                	addi	s1,sp,40
    2e44:	00a0                	addi	s0,sp,72
    2e46:	0000                	unimp
    2e48:	0000                	unimp
    2e4a:	a304                	fsd	fs1,0(a4)
    2e4c:	5a01                	li	s4,-32
    2e4e:	009f e807 a00f      	0xa00fe807009f
    2e54:	0000                	unimp
    2e56:	0000                	unimp
    2e58:	0000                	unimp
    2e5a:	a010                	fsd	fa2,0(s0)
    2e5c:	0000                	unimp
    2e5e:	0000                	unimp
    2e60:	0200                	addi	s0,sp,256
    2e62:	9f30                	0x9f30
    2e64:	a0100007          	0xa0100007
    2e68:	0000                	unimp
    2e6a:	0000                	unimp
    2e6c:	0400                	addi	s0,sp,512
    2e6e:	a010                	fsd	fa2,0(s0)
    2e70:	0000                	unimp
    2e72:	0000                	unimp
    2e74:	0900                	addi	s0,sp,144
    2e76:	007f                	0x7f
    2e78:	235a01a3          	sb	s5,547(s4)
    2e7c:	1c01                	addi	s8,s8,-32
    2e7e:	079f 1004 00a0      	0xa01004079f
    2e84:	0000                	unimp
    2e86:	0000                	unimp
    2e88:	1008                	addi	a0,sp,32
    2e8a:	00a0                	addi	s0,sp,72
    2e8c:	0000                	unimp
    2e8e:	0000                	unimp
    2e90:	7d06                	ld	s10,96(sp)
    2e92:	7f00                	ld	s0,56(a4)
    2e94:	2200                	fld	fs0,0(a2)
    2e96:	079f 101c 00a0      	0xa0101c079f
    2e9c:	0000                	unimp
    2e9e:	0000                	unimp
    2ea0:	1024                	addi	s1,sp,40
    2ea2:	00a0                	addi	s0,sp,72
    2ea4:	0000                	unimp
    2ea6:	0000                	unimp
    2ea8:	3002                	fld	ft0,32(sp)
    2eaa:	009f 9c07 a00f      	0xa00f9c07009f
    2eb0:	0000                	unimp
    2eb2:	0000                	unimp
    2eb4:	bc00                	fsd	fs0,56(s0)
    2eb6:	0000a00f          	0xa00f
    2eba:	0000                	unimp
    2ebc:	0100                	addi	s0,sp,128
    2ebe:	075a                	slli	a4,a4,0x16
    2ec0:	0fbc                	addi	a5,sp,984
    2ec2:	00a0                	addi	s0,sp,72
    2ec4:	0000                	unimp
    2ec6:	0000                	unimp
    2ec8:	0fcc                	addi	a1,sp,980
    2eca:	00a0                	addi	s0,sp,72
    2ecc:	0000                	unimp
    2ece:	0000                	unimp
    2ed0:	5a01                	li	s4,-32
    2ed2:	0700                	addi	s0,sp,896
    2ed4:	0f9c                	addi	a5,sp,976
    2ed6:	00a0                	addi	s0,sp,72
    2ed8:	0000                	unimp
    2eda:	0000                	unimp
    2edc:	0fc0                	addi	s0,sp,980
    2ede:	00a0                	addi	s0,sp,72
    2ee0:	0000                	unimp
    2ee2:	0000                	unimp
    2ee4:	5b01                	li	s6,-32
    2ee6:	a00fc007          	flq	ft0,-1536(t6)
    2eea:	0000                	unimp
    2eec:	0000                	unimp
    2eee:	dc00                	sw	s0,56(s0)
    2ef0:	0000a00f          	0xa00f
    2ef4:	0000                	unimp
    2ef6:	0100                	addi	s0,sp,128
    2ef8:	6c07005b          	0x6c07005b
    2efc:	0000a00f          	0xa00f
    2f00:	0000                	unimp
    2f02:	7c00                	ld	s0,56(s0)
    2f04:	0000a00f          	0xa00f
    2f08:	0000                	unimp
    2f0a:	0100                	addi	s0,sp,128
    2f0c:	075a                	slli	a4,a4,0x16
    2f0e:	0f7c                	addi	a5,sp,924
    2f10:	00a0                	addi	s0,sp,72
    2f12:	0000                	unimp
    2f14:	0000                	unimp
    2f16:	0f9c                	addi	a5,sp,976
    2f18:	00a0                	addi	s0,sp,72
    2f1a:	0000                	unimp
    2f1c:	0000                	unimp
    2f1e:	5f01                	li	t5,-32
    2f20:	0700                	addi	s0,sp,896
    2f22:	0f6c                	addi	a1,sp,924
    2f24:	00a0                	addi	s0,sp,72
    2f26:	0000                	unimp
    2f28:	0000                	unimp
    2f2a:	0f80                	addi	s0,sp,976
    2f2c:	00a0                	addi	s0,sp,72
    2f2e:	0000                	unimp
    2f30:	0000                	unimp
    2f32:	5b01                	li	s6,-32
    2f34:	a00f8007          	0xa00f8007
    2f38:	0000                	unimp
    2f3a:	0000                	unimp
    2f3c:	9c00                	0x9c00
    2f3e:	0000a00f          	0xa00f
    2f42:	0000                	unimp
    2f44:	0100                	addi	s0,sp,128
    2f46:	02af005b          	0x2af005b
    2f4a:	0000                	unimp
    2f4c:	0005                	c.nop	1
    2f4e:	0008                	0x8
    2f50:	0000                	unimp
    2f52:	0000                	unimp
    2f54:	a0142c07          	flw	fs8,-1535(s0)
    2f58:	0000                	unimp
    2f5a:	0000                	unimp
    2f5c:	7400                	ld	s0,40(s0)
    2f5e:	a014                	fsd	fa3,0(s0)
    2f60:	0000                	unimp
    2f62:	0000                	unimp
    2f64:	0100                	addi	s0,sp,128
    2f66:	075a                	slli	a4,a4,0x16
    2f68:	1474                	addi	a3,sp,556
    2f6a:	00a0                	addi	s0,sp,72
    2f6c:	0000                	unimp
    2f6e:	0000                	unimp
    2f70:	1584                	addi	s1,sp,736
    2f72:	00a0                	addi	s0,sp,72
    2f74:	0000                	unimp
    2f76:	0000                	unimp
    2f78:	a304                	fsd	fs1,0(a4)
    2f7a:	5a01                	li	s4,-32
    2f7c:	009f 7c07 a014      	0xa0147c07009f
    2f82:	0000                	unimp
    2f84:	0000                	unimp
    2f86:	8400                	0x8400
    2f88:	a014                	fsd	fa3,0(s0)
    2f8a:	0000                	unimp
    2f8c:	0000                	unimp
    2f8e:	0100                	addi	s0,sp,128
    2f90:	075f 14c8 00a0      	0xa014c8075f
    2f96:	0000                	unimp
    2f98:	0000                	unimp
    2f9a:	14cc                	addi	a1,sp,612
    2f9c:	00a0                	addi	s0,sp,72
    2f9e:	0000                	unimp
    2fa0:	0000                	unimp
    2fa2:	030a                	slli	t1,t1,0x2
    2fa4:	3000                	fld	fs0,32(s0)
    2fa6:	00a0                	addi	s0,sp,72
    2fa8:	0000                	unimp
    2faa:	0000                	unimp
    2fac:	079f 14cc 00a0      	0xa014cc079f
    2fb2:	0000                	unimp
    2fb4:	0000                	unimp
    2fb6:	14f4                	addi	a3,sp,620
    2fb8:	00a0                	addi	s0,sp,72
    2fba:	0000                	unimp
    2fbc:	0000                	unimp
    2fbe:	5f01                	li	t5,-32
    2fc0:	a0151c07          	0xa0151c07
    2fc4:	0000                	unimp
    2fc6:	0000                	unimp
    2fc8:	2800                	fld	fs0,16(s0)
    2fca:	a015                	j	2fee <_text-0x9fd012>
    2fcc:	0000                	unimp
    2fce:	0000                	unimp
    2fd0:	0100                	addi	s0,sp,128
    2fd2:	075f 153c 00a0      	0xa0153c075f
    2fd8:	0000                	unimp
    2fda:	0000                	unimp
    2fdc:	1544                	addi	s1,sp,676
    2fde:	00a0                	addi	s0,sp,72
    2fe0:	0000                	unimp
    2fe2:	0000                	unimp
    2fe4:	5a01                	li	s4,-32
    2fe6:	a0154407          	flq	fs0,-1535(a0)
    2fea:	0000                	unimp
    2fec:	0000                	unimp
    2fee:	7000                	ld	s0,32(s0)
    2ff0:	a015                	j	3014 <_text-0x9fcfec>
    2ff2:	0000                	unimp
    2ff4:	0000                	unimp
    2ff6:	0100                	addi	s0,sp,128
    2ff8:	005f 7407 a014      	0xa0147407005f
    2ffe:	0000                	unimp
    3000:	0000                	unimp
    3002:	8400                	0x8400
    3004:	a014                	fsd	fa3,0(s0)
    3006:	0000                	unimp
    3008:	0000                	unimp
    300a:	0100                	addi	s0,sp,128
    300c:	075a                	slli	a4,a4,0x16
    300e:	14b0                	addi	a2,sp,616
    3010:	00a0                	addi	s0,sp,72
    3012:	0000                	unimp
    3014:	0000                	unimp
    3016:	14cc                	addi	a1,sp,612
    3018:	00a0                	addi	s0,sp,72
    301a:	0000                	unimp
    301c:	0000                	unimp
    301e:	030a                	slli	t1,t1,0x2
    3020:	3000                	fld	fs0,32(s0)
    3022:	00a0                	addi	s0,sp,72
    3024:	0000                	unimp
    3026:	0000                	unimp
    3028:	079f 14cc 00a0      	0xa014cc079f
    302e:	0000                	unimp
    3030:	0000                	unimp
    3032:	14f4                	addi	a3,sp,620
    3034:	00a0                	addi	s0,sp,72
    3036:	0000                	unimp
    3038:	0000                	unimp
    303a:	5a01                	li	s4,-32
    303c:	a0151c07          	0xa0151c07
    3040:	0000                	unimp
    3042:	0000                	unimp
    3044:	2800                	fld	fs0,16(s0)
    3046:	a015                	j	306a <_text-0x9fcf96>
    3048:	0000                	unimp
    304a:	0000                	unimp
    304c:	0100                	addi	s0,sp,128
    304e:	075a                	slli	a4,a4,0x16
    3050:	1540                	addi	s0,sp,676
    3052:	00a0                	addi	s0,sp,72
    3054:	0000                	unimp
    3056:	0000                	unimp
    3058:	154c                	addi	a1,sp,676
    305a:	00a0                	addi	s0,sp,72
    305c:	0000                	unimp
    305e:	0000                	unimp
    3060:	5a01                	li	s4,-32
    3062:	0700                	addi	s0,sp,896
    3064:	146c                	addi	a1,sp,556
    3066:	00a0                	addi	s0,sp,72
    3068:	0000                	unimp
    306a:	0000                	unimp
    306c:	1508                	addi	a0,sp,672
    306e:	00a0                	addi	s0,sp,72
    3070:	0000                	unimp
    3072:	0000                	unimp
    3074:	6301                	0x6301
    3076:	a0151c07          	0xa0151c07
    307a:	0000                	unimp
    307c:	0000                	unimp
    307e:	8400                	0x8400
    3080:	a015                	j	30a4 <_text-0x9fcf5c>
    3082:	0000                	unimp
    3084:	0000                	unimp
    3086:	0100                	addi	s0,sp,128
    3088:	28070063          	beqz	a4,3308 <_text-0x9fccf8>
    308c:	a015                	j	30b0 <_text-0x9fcf50>
    308e:	0000                	unimp
    3090:	0000                	unimp
    3092:	3c00                	fld	fs0,56(s0)
    3094:	a015                	j	30b8 <_text-0x9fcf48>
    3096:	0000                	unimp
    3098:	0000                	unimp
    309a:	1b00                	addi	s0,sp,432
    309c:	0079                	c.nop	30
    309e:	0c12                	slli	s8,s8,0x4
    30a0:	ffff                	0xffff
    30a2:	ffff                	0xffff
    30a4:	0a1a                	slli	s4,s4,0x6
    30a6:	1000                	addi	s0,sp,32
    30a8:	1416                	slli	s0,s0,0x25
    30aa:	ff0c                	sd	a1,56(a4)
    30ac:	ffff                	0xffff
    30ae:	1aff                	0x1aff
    30b0:	0001282b          	0x1282b
    30b4:	1316                	slli	t1,t1,0x25
    30b6:	079f 1558 00a0      	0xa01558079f
    30bc:	0000                	unimp
    30be:	0000                	unimp
    30c0:	1580                	addi	s0,sp,736
    30c2:	00a0                	addi	s0,sp,72
    30c4:	0000                	unimp
    30c6:	0000                	unimp
    30c8:	1200791b          	0x1200791b
    30cc:	ff0c                	sd	a1,56(a4)
    30ce:	ffff                	0xffff
    30d0:	1aff                	0x1aff
    30d2:	000a                	c.slli	zero,0x2
    30d4:	1610                	addi	a2,sp,800
    30d6:	0c14                	addi	a3,sp,528
    30d8:	ffff                	0xffff
    30da:	ffff                	0xffff
    30dc:	2b1a                	fld	fs6,384(sp)
    30de:	0128                	addi	a0,sp,136
    30e0:	1600                	addi	s0,sp,800
    30e2:	07009f13          	0x7009f13
    30e6:	1528                	addi	a0,sp,680
    30e8:	00a0                	addi	s0,sp,72
    30ea:	0000                	unimp
    30ec:	0000                	unimp
    30ee:	1530                	addi	a2,sp,680
    30f0:	00a0                	addi	s0,sp,72
    30f2:	0000                	unimp
    30f4:	0000                	unimp
    30f6:	5a01                	li	s4,-32
    30f8:	a0153007          	fld	ft0,-1535(a0)
    30fc:	0000                	unimp
    30fe:	0000                	unimp
    3100:	3700                	fld	fs0,40(a4)
    3102:	a015                	j	3126 <_text-0x9fceda>
    3104:	0000                	unimp
    3106:	0000                	unimp
    3108:	0300                	addi	s0,sp,384
    310a:	707a                	0x707a
    310c:	079f 1578 00a0      	0xa01578079f
    3112:	0000                	unimp
    3114:	0000                	unimp
    3116:	1580                	addi	s0,sp,736
    3118:	00a0                	addi	s0,sp,72
    311a:	0000                	unimp
    311c:	0000                	unimp
    311e:	5a01                	li	s4,-32
    3120:	0700                	addi	s0,sp,896
    3122:	1528                	addi	a0,sp,680
    3124:	00a0                	addi	s0,sp,72
    3126:	0000                	unimp
    3128:	0000                	unimp
    312a:	1530                	addi	a2,sp,680
    312c:	00a0                	addi	s0,sp,72
    312e:	0000                	unimp
    3130:	0000                	unimp
    3132:	5a01                	li	s4,-32
    3134:	a0153007          	fld	ft0,-1535(a0)
    3138:	0000                	unimp
    313a:	0000                	unimp
    313c:	3700                	fld	fs0,40(a4)
    313e:	a015                	j	3162 <_text-0x9fce9e>
    3140:	0000                	unimp
    3142:	0000                	unimp
    3144:	0300                	addi	s0,sp,384
    3146:	707a                	0x707a
    3148:	009f 5807 a015      	0xa0155807009f
    314e:	0000                	unimp
    3150:	0000                	unimp
    3152:	7800                	ld	s0,48(s0)
    3154:	a015                	j	3178 <_text-0x9fce88>
    3156:	0000                	unimp
    3158:	0000                	unimp
    315a:	0500                	addi	s0,sp,640
    315c:	0086                	slli	ra,ra,0x1
    315e:	2434                	fld	fa3,72(s0)
    3160:	009f 5807 a015      	0xa0155807009f
    3166:	0000                	unimp
    3168:	0000                	unimp
    316a:	7800                	ld	s0,48(s0)
    316c:	a015                	j	3190 <_text-0x9fce70>
    316e:	0000                	unimp
    3170:	0000                	unimp
    3172:	0200                	addi	s0,sp,256
    3174:	9f30                	0x9f30
    3176:	0700                	addi	s0,sp,896
    3178:	1558                	addi	a4,sp,676
    317a:	00a0                	addi	s0,sp,72
    317c:	0000                	unimp
    317e:	0000                	unimp
    3180:	1578                	addi	a4,sp,684
    3182:	00a0                	addi	s0,sp,72
    3184:	0000                	unimp
    3186:	0000                	unimp
    3188:	3400860b          	0x3400860b
    318c:	0824                	addi	s1,sp,24
    318e:	2420                	fld	fs0,72(s0)
    3190:	2008                	fld	fa0,0(s0)
    3192:	9f26                	add	t5,t5,s1
    3194:	0700                	addi	s0,sp,896
    3196:	1558                	addi	a4,sp,676
    3198:	00a0                	addi	s0,sp,72
    319a:	0000                	unimp
    319c:	0000                	unimp
    319e:	1578                	addi	a4,sp,684
    31a0:	00a0                	addi	s0,sp,72
    31a2:	0000                	unimp
    31a4:	0000                	unimp
    31a6:	3d02                	fld	fs10,32(sp)
    31a8:	009f 8c07 a013      	0xa0138c07009f
    31ae:	0000                	unimp
    31b0:	0000                	unimp
    31b2:	c000                	sw	s0,0(s0)
    31b4:	0000a013          	slti	zero,ra,0
    31b8:	0000                	unimp
    31ba:	0100                	addi	s0,sp,128
    31bc:	075d                	addi	a4,a4,23
    31be:	13c0                	addi	s0,sp,484
    31c0:	00a0                	addi	s0,sp,72
    31c2:	0000                	unimp
    31c4:	0000                	unimp
    31c6:	13c4                	addi	s1,sp,484
    31c8:	00a0                	addi	s0,sp,72
    31ca:	0000                	unimp
    31cc:	0000                	unimp
    31ce:	9f707a03          	0x9f707a03
    31d2:	a013c407          	flq	fs0,-1535(t2)
    31d6:	0000                	unimp
    31d8:	0000                	unimp
    31da:	1400                	addi	s0,sp,544
    31dc:	a014                	fsd	fa3,0(s0)
    31de:	0000                	unimp
    31e0:	0000                	unimp
    31e2:	0100                	addi	s0,sp,128
    31e4:	075d                	addi	a4,a4,23
    31e6:	1414                	addi	a3,sp,544
    31e8:	00a0                	addi	s0,sp,72
    31ea:	0000                	unimp
    31ec:	0000                	unimp
    31ee:	142c                	addi	a1,sp,552
    31f0:	00a0                	addi	s0,sp,72
    31f2:	0000                	unimp
    31f4:	0000                	unimp
    31f6:	9f707a03          	0x9f707a03
	...

Disassembly of section .debug_frame:

0000000000000000 <.debug_frame>:
   0:	000c                	0xc
   2:	0000                	unimp
   4:	ffff                	0xffff
   6:	ffff                	0xffff
   8:	7c010003          	lb	zero,1984(sp)
   c:	0d01                	addi	s10,s10,0
   e:	0002                	c.slli64	zero
  10:	002c                	addi	a1,sp,8
  12:	0000                	unimp
  14:	0000                	unimp
  16:	0000                	unimp
  18:	0020                	addi	s0,sp,8
  1a:	00a0                	addi	s0,sp,72
  1c:	0000                	unimp
  1e:	0000                	unimp
  20:	00b8                	addi	a4,sp,72
  22:	0000                	unimp
  24:	0000                	unimp
  26:	0000                	unimp
  28:	8802                	jr	a6
  2a:	100e                	c.slli	zero,0x23
  2c:	8148                	0x8148
  2e:	8802                	jr	a6
  30:	4404                	lw	s1,8(s0)
  32:	080c                	addi	a1,sp,16
  34:	5800                	lw	s0,48(s0)
  36:	44c1                	li	s1,16
  38:	0cc8                	addi	a0,sp,596
  3a:	1002                	c.slli	zero,0x20
  3c:	0e44                	addi	s1,sp,788
  3e:	0000                	unimp
  40:	000c                	0xc
  42:	0000                	unimp
  44:	ffff                	0xffff
  46:	ffff                	0xffff
  48:	7c010003          	lb	zero,1984(sp)
  4c:	0d01                	addi	s10,s10,0
  4e:	0002                	c.slli64	zero
  50:	002c                	addi	a1,sp,8
  52:	0000                	unimp
  54:	0040                	addi	s0,sp,4
  56:	0000                	unimp
  58:	00d8                	addi	a4,sp,68
  5a:	00a0                	addi	s0,sp,72
  5c:	0000                	unimp
  5e:	0000                	unimp
  60:	0044                	addi	s1,sp,4
  62:	0000                	unimp
  64:	0000                	unimp
  66:	0000                	unimp
  68:	0e44                	addi	s1,sp,788
  6a:	4810                	lw	a2,16(s0)
  6c:	0281                	addi	t0,t0,0
  6e:	0488                	addi	a0,sp,576
  70:	0c44                	addi	s1,sp,532
  72:	0008                	0x8
  74:	c168                	sw	a0,68(a0)
  76:	c844                	sw	s1,20(s0)
  78:	020c                	addi	a1,sp,256
  7a:	4410                	lw	a2,8(s0)
  7c:	000e                	c.slli	zero,0x3
  7e:	0000                	unimp
  80:	000c                	0xc
  82:	0000                	unimp
  84:	ffff                	0xffff
  86:	ffff                	0xffff
  88:	7c010003          	lb	zero,1984(sp)
  8c:	0d01                	addi	s10,s10,0
  8e:	0002                	c.slli64	zero
  90:	002c                	addi	a1,sp,8
  92:	0000                	unimp
  94:	0080                	addi	s0,sp,64
  96:	0000                	unimp
  98:	011c                	addi	a5,sp,128
  9a:	00a0                	addi	s0,sp,72
  9c:	0000                	unimp
  9e:	0000                	unimp
  a0:	0098                	addi	a4,sp,64
  a2:	0000                	unimp
  a4:	0000                	unimp
  a6:	0000                	unimp
  a8:	0e44                	addi	s1,sp,788
  aa:	4410                	lw	a2,8(s0)
  ac:	0288                	addi	a0,sp,320
  ae:	0c44                	addi	s1,sp,532
  b0:	0008                	0x8
  b2:	5402                	lw	s0,32(sp)
  b4:	c80a                	sw	sp,16(sp)
  b6:	020c                	addi	a1,sp,256
  b8:	4410                	lw	a2,8(s0)
  ba:	000e                	c.slli	zero,0x3
  bc:	0b44                	addi	s1,sp,404
  be:	0000                	unimp
  c0:	002c                	addi	a1,sp,8
  c2:	0000                	unimp
  c4:	0080                	addi	s0,sp,64
  c6:	0000                	unimp
  c8:	01b4                	addi	a3,sp,200
  ca:	00a0                	addi	s0,sp,72
  cc:	0000                	unimp
  ce:	0000                	unimp
  d0:	0138                	addi	a4,sp,136
  d2:	0000                	unimp
  d4:	0000                	unimp
  d6:	0000                	unimp
  d8:	0e44                	addi	s1,sp,788
  da:	4410                	lw	a2,8(s0)
  dc:	0288                	addi	a0,sp,320
  de:	0c44                	addi	s1,sp,532
  e0:	0008                	0x8
  e2:	fc02                	sd	zero,56(sp)
  e4:	c80a                	sw	sp,16(sp)
  e6:	020c                	addi	a1,sp,256
  e8:	4410                	lw	a2,8(s0)
  ea:	000e                	c.slli	zero,0x3
  ec:	0b44                	addi	s1,sp,404
  ee:	0000                	unimp
  f0:	002c                	addi	a1,sp,8
  f2:	0000                	unimp
  f4:	0080                	addi	s0,sp,64
  f6:	0000                	unimp
  f8:	02ec                	addi	a1,sp,332
  fa:	00a0                	addi	s0,sp,72
  fc:	0000                	unimp
  fe:	0000                	unimp
 100:	019c                	addi	a5,sp,192
 102:	0000                	unimp
 104:	0000                	unimp
 106:	0000                	unimp
 108:	0e44                	addi	s1,sp,788
 10a:	4410                	lw	a2,8(s0)
 10c:	0288                	addi	a0,sp,320
 10e:	0c44                	addi	s1,sp,532
 110:	0008                	0x8
 112:	0a013003          	ld	zero,160(sp)
 116:	0cc8                	addi	a0,sp,596
 118:	1002                	c.slli	zero,0x20
 11a:	0e44                	addi	s1,sp,788
 11c:	4400                	lw	s0,8(s0)
 11e:	0054000b          	0x54000b
 122:	0000                	unimp
 124:	0080                	addi	s0,sp,64
 126:	0000                	unimp
 128:	0488                	addi	a0,sp,576
 12a:	00a0                	addi	s0,sp,72
 12c:	0000                	unimp
 12e:	0000                	unimp
 130:	09c0                	addi	s0,sp,212
 132:	0000                	unimp
 134:	0000                	unimp
 136:	0000                	unimp
 138:	0e4c                	addi	a1,sp,788
 13a:	01d0                	addi	a2,sp,196
 13c:	8168                	0x8168
 13e:	8802                	jr	a6
 140:	8904                	0x8904
 142:	9206                	add	tp,tp,ra
 144:	9308                	0x9308
 146:	940a                	add	s0,s0,sp
 148:	950c                	0x950c
 14a:	960e                	add	a2,a2,gp
 14c:	9710                	0x9710
 14e:	9812                	add	a6,a6,tp
 150:	4414                	lw	a3,8(s0)
 152:	080c                	addi	a1,sp,16
 154:	0300                	addi	s0,sp,384
 156:	0958                	addi	a4,sp,148
 158:	44c1                	li	s1,16
 15a:	0cc8                	addi	a0,sp,596
 15c:	d002                	sw	zero,32(sp)
 15e:	4401                	li	s0,0
 160:	44c9                	li	s1,18
 162:	44d2                	lw	s1,20(sp)
 164:	44d444d3          	0x44d444d3
 168:	44d5                	li	s1,21
 16a:	44d6                	lw	s1,84(sp)
 16c:	44d844d7          	0x44d844d7
 170:	000e                	c.slli	zero,0x3
 172:	0000                	unimp
 174:	0000                	unimp
 176:	0000                	unimp
 178:	002c                	addi	a1,sp,8
 17a:	0000                	unimp
 17c:	0080                	addi	s0,sp,64
 17e:	0000                	unimp
 180:	0e48                	addi	a0,sp,788
 182:	00a0                	addi	s0,sp,72
 184:	0000                	unimp
 186:	0000                	unimp
 188:	0080                	addi	s0,sp,64
 18a:	0000                	unimp
 18c:	0000                	unimp
 18e:	0000                	unimp
 190:	0e44                	addi	s1,sp,788
 192:	4860                	lw	s0,84(s0)
 194:	1281                	addi	t0,t0,-32
 196:	1488                	addi	a0,sp,608
 198:	0c44                	addi	s1,sp,532
 19a:	4008                	lw	a0,0(s0)
 19c:	6402                	ld	s0,0(sp)
 19e:	44c1                	li	s1,16
 1a0:	0cc8                	addi	a0,sp,596
 1a2:	6002                	0x6002
 1a4:	0e44                	addi	s1,sp,788
 1a6:	0000                	unimp
 1a8:	0024                	addi	s1,sp,8
 1aa:	0000                	unimp
 1ac:	0080                	addi	s0,sp,64
 1ae:	0000                	unimp
 1b0:	0ec8                	addi	a0,sp,852
 1b2:	00a0                	addi	s0,sp,72
 1b4:	0000                	unimp
 1b6:	0000                	unimp
 1b8:	007c                	addi	a5,sp,12
 1ba:	0000                	unimp
 1bc:	0000                	unimp
 1be:	0000                	unimp
 1c0:	0e44                	addi	s1,sp,788
 1c2:	4c60                	lw	s0,92(s0)
 1c4:	0e81                	addi	t4,t4,0
 1c6:	1088                	addi	a0,sp,96
 1c8:	1289                	addi	t0,t0,-30
 1ca:	0c44                	addi	s1,sp,532
 1cc:	3008                	fld	fa0,32(s0)
 1ce:	0000                	unimp
 1d0:	0024                	addi	s1,sp,8
 1d2:	0000                	unimp
 1d4:	0080                	addi	s0,sp,64
 1d6:	0000                	unimp
 1d8:	0f44                	addi	s1,sp,916
 1da:	00a0                	addi	s0,sp,72
 1dc:	0000                	unimp
 1de:	0000                	unimp
 1e0:	0028                	addi	a0,sp,8
 1e2:	0000                	unimp
 1e4:	0000                	unimp
 1e6:	0000                	unimp
 1e8:	0e4c                	addi	a1,sp,788
 1ea:	4810                	lw	a2,16(s0)
 1ec:	0281                	addi	t0,t0,0
 1ee:	0488                	addi	a0,sp,576
 1f0:	0c44                	addi	s1,sp,532
 1f2:	0008                	0x8
 1f4:	0000                	unimp
 1f6:	0000                	unimp
 1f8:	000c                	0xc
 1fa:	0000                	unimp
 1fc:	ffff                	0xffff
 1fe:	ffff                	0xffff
 200:	7c010003          	lb	zero,1984(sp)
 204:	0d01                	addi	s10,s10,0
 206:	0002                	c.slli64	zero
 208:	002c                	addi	a1,sp,8
 20a:	0000                	unimp
 20c:	01f8                	addi	a4,sp,204
 20e:	0000                	unimp
 210:	0f6c                	addi	a1,sp,924
 212:	00a0                	addi	s0,sp,72
 214:	0000                	unimp
 216:	0000                	unimp
 218:	0030                	addi	a2,sp,8
 21a:	0000                	unimp
 21c:	0000                	unimp
 21e:	0000                	unimp
 220:	0e44                	addi	s1,sp,788
 222:	4410                	lw	a2,8(s0)
 224:	0288                	addi	a0,sp,320
 226:	0c44                	addi	s1,sp,532
 228:	0008                	0x8
 22a:	c85c                	sw	a5,20(s0)
 22c:	020c                	addi	a1,sp,256
 22e:	4410                	lw	a2,8(s0)
 230:	000e                	c.slli	zero,0x3
 232:	0000                	unimp
 234:	0000                	unimp
 236:	0000                	unimp
 238:	002c                	addi	a1,sp,8
 23a:	0000                	unimp
 23c:	01f8                	addi	a4,sp,204
 23e:	0000                	unimp
 240:	0f9c                	addi	a5,sp,976
 242:	00a0                	addi	s0,sp,72
 244:	0000                	unimp
 246:	0000                	unimp
 248:	0040                	addi	s0,sp,4
 24a:	0000                	unimp
 24c:	0000                	unimp
 24e:	0000                	unimp
 250:	0e44                	addi	s1,sp,788
 252:	4410                	lw	a2,8(s0)
 254:	0288                	addi	a0,sp,320
 256:	0c44                	addi	s1,sp,532
 258:	0008                	0x8
 25a:	c86c                	sw	a1,84(s0)
 25c:	020c                	addi	a1,sp,256
 25e:	4410                	lw	a2,8(s0)
 260:	000e                	c.slli	zero,0x3
 262:	0000                	unimp
 264:	0000                	unimp
 266:	0000                	unimp
 268:	002c                	addi	a1,sp,8
 26a:	0000                	unimp
 26c:	01f8                	addi	a4,sp,204
 26e:	0000                	unimp
 270:	0fdc                	addi	a5,sp,980
 272:	00a0                	addi	s0,sp,72
 274:	0000                	unimp
 276:	0000                	unimp
 278:	0048                	addi	a0,sp,4
 27a:	0000                	unimp
 27c:	0000                	unimp
 27e:	0000                	unimp
 280:	0e44                	addi	s1,sp,788
 282:	4410                	lw	a2,8(s0)
 284:	0288                	addi	a0,sp,320
 286:	0c44                	addi	s1,sp,532
 288:	0008                	0x8
 28a:	0a6c                	addi	a1,sp,284
 28c:	0cc8                	addi	a0,sp,596
 28e:	1002                	c.slli	zero,0x20
 290:	0e44                	addi	s1,sp,788
 292:	4400                	lw	s0,8(s0)
 294:	0000000b          	0xb
 298:	002c                	addi	a1,sp,8
 29a:	0000                	unimp
 29c:	01f8                	addi	a4,sp,204
 29e:	0000                	unimp
 2a0:	1024                	addi	s1,sp,40
 2a2:	00a0                	addi	s0,sp,72
 2a4:	0000                	unimp
 2a6:	0000                	unimp
 2a8:	0038                	addi	a4,sp,8
 2aa:	0000                	unimp
 2ac:	0000                	unimp
 2ae:	0000                	unimp
 2b0:	0e44                	addi	s1,sp,788
 2b2:	4410                	lw	a2,8(s0)
 2b4:	0288                	addi	a0,sp,320
 2b6:	0c44                	addi	s1,sp,532
 2b8:	0008                	0x8
 2ba:	c864                	sw	s1,84(s0)
 2bc:	020c                	addi	a1,sp,256
 2be:	4410                	lw	a2,8(s0)
 2c0:	000e                	c.slli	zero,0x3
 2c2:	0000                	unimp
 2c4:	0000                	unimp
 2c6:	0000                	unimp
 2c8:	002c                	addi	a1,sp,8
 2ca:	0000                	unimp
 2cc:	01f8                	addi	a4,sp,204
 2ce:	0000                	unimp
 2d0:	105c                	addi	a5,sp,36
 2d2:	00a0                	addi	s0,sp,72
 2d4:	0000                	unimp
 2d6:	0000                	unimp
 2d8:	003c                	addi	a5,sp,8
 2da:	0000                	unimp
 2dc:	0000                	unimp
 2de:	0000                	unimp
 2e0:	0e44                	addi	s1,sp,788
 2e2:	4410                	lw	a2,8(s0)
 2e4:	0288                	addi	a0,sp,320
 2e6:	0c44                	addi	s1,sp,532
 2e8:	0008                	0x8
 2ea:	0a60                	addi	s0,sp,284
 2ec:	0cc8                	addi	a0,sp,596
 2ee:	1002                	c.slli	zero,0x20
 2f0:	0e44                	addi	s1,sp,788
 2f2:	4400                	lw	s0,8(s0)
 2f4:	0000000b          	0xb
 2f8:	0034                	addi	a3,sp,8
 2fa:	0000                	unimp
 2fc:	01f8                	addi	a4,sp,204
 2fe:	0000                	unimp
 300:	1098                	addi	a4,sp,96
 302:	00a0                	addi	s0,sp,72
 304:	0000                	unimp
 306:	0000                	unimp
 308:	0104                	addi	s1,sp,128
 30a:	0000                	unimp
 30c:	0000                	unimp
 30e:	0000                	unimp
 310:	0e50                	addi	a2,sp,788
 312:	4420                	lw	s0,72(s0)
 314:	0288                	addi	a0,sp,320
 316:	0c44                	addi	s1,sp,532
 318:	0008                	0x8
 31a:	c002                	sw	zero,0(sp)
 31c:	020d                	addi	tp,tp,3
 31e:	50c8                	lw	a0,36(s1)
 320:	080d                	addi	a6,a6,3
 322:	0288                	addi	a0,sp,320
 324:	c854                	sw	a3,20(s0)
 326:	020c                	addi	a1,sp,256
 328:	4420                	lw	s0,72(s0)
 32a:	000e                	c.slli	zero,0x3
 32c:	0000                	unimp
 32e:	0000                	unimp
 330:	002c                	addi	a1,sp,8
 332:	0000                	unimp
 334:	01f8                	addi	a4,sp,204
 336:	0000                	unimp
 338:	119c                	addi	a5,sp,224
 33a:	00a0                	addi	s0,sp,72
 33c:	0000                	unimp
 33e:	0000                	unimp
 340:	007c                	addi	a5,sp,12
 342:	0000                	unimp
 344:	0000                	unimp
 346:	0000                	unimp
 348:	0e44                	addi	s1,sp,788
 34a:	4410                	lw	a2,8(s0)
 34c:	0288                	addi	a0,sp,320
 34e:	0c44                	addi	s1,sp,532
 350:	0008                	0x8
 352:	6002                	0x6002
 354:	c80a                	sw	sp,16(sp)
 356:	020c                	addi	a1,sp,256
 358:	4410                	lw	a2,8(s0)
 35a:	000e                	c.slli	zero,0x3
 35c:	0b44                	addi	s1,sp,404
 35e:	0000                	unimp
 360:	002c                	addi	a1,sp,8
 362:	0000                	unimp
 364:	01f8                	addi	a4,sp,204
 366:	0000                	unimp
 368:	1218                	addi	a4,sp,288
 36a:	00a0                	addi	s0,sp,72
 36c:	0000                	unimp
 36e:	0000                	unimp
 370:	0064                	addi	s1,sp,12
 372:	0000                	unimp
 374:	0000                	unimp
 376:	0000                	unimp
 378:	0e44                	addi	s1,sp,788
 37a:	4410                	lw	a2,8(s0)
 37c:	0288                	addi	a0,sp,320
 37e:	0c44                	addi	s1,sp,532
 380:	0008                	0x8
 382:	4802                	lw	a6,0(sp)
 384:	c80a                	sw	sp,16(sp)
 386:	020c                	addi	a1,sp,256
 388:	4410                	lw	a2,8(s0)
 38a:	000e                	c.slli	zero,0x3
 38c:	0b44                	addi	s1,sp,404
 38e:	0000                	unimp
 390:	002c                	addi	a1,sp,8
 392:	0000                	unimp
 394:	01f8                	addi	a4,sp,204
 396:	0000                	unimp
 398:	127c                	addi	a5,sp,300
 39a:	00a0                	addi	s0,sp,72
 39c:	0000                	unimp
 39e:	0000                	unimp
 3a0:	007c                	addi	a5,sp,12
 3a2:	0000                	unimp
 3a4:	0000                	unimp
 3a6:	0000                	unimp
 3a8:	0e44                	addi	s1,sp,788
 3aa:	4410                	lw	a2,8(s0)
 3ac:	0288                	addi	a0,sp,320
 3ae:	0c44                	addi	s1,sp,532
 3b0:	0008                	0x8
 3b2:	0a70                	addi	a2,sp,284
 3b4:	0cc8                	addi	a0,sp,596
 3b6:	1002                	c.slli	zero,0x20
 3b8:	0e44                	addi	s1,sp,788
 3ba:	4400                	lw	s0,8(s0)
 3bc:	0000000b          	0xb
 3c0:	002c                	addi	a1,sp,8
 3c2:	0000                	unimp
 3c4:	01f8                	addi	a4,sp,204
 3c6:	0000                	unimp
 3c8:	12f8                	addi	a4,sp,364
 3ca:	00a0                	addi	s0,sp,72
 3cc:	0000                	unimp
 3ce:	0000                	unimp
 3d0:	005c                	addi	a5,sp,4
 3d2:	0000                	unimp
 3d4:	0000                	unimp
 3d6:	0000                	unimp
 3d8:	0e44                	addi	s1,sp,788
 3da:	4410                	lw	a2,8(s0)
 3dc:	0288                	addi	a0,sp,320
 3de:	0c44                	addi	s1,sp,532
 3e0:	0008                	0x8
 3e2:	4002                	0x4002
 3e4:	c80a                	sw	sp,16(sp)
 3e6:	020c                	addi	a1,sp,256
 3e8:	4410                	lw	a2,8(s0)
 3ea:	000e                	c.slli	zero,0x3
 3ec:	0b44                	addi	s1,sp,404
 3ee:	0000                	unimp
 3f0:	002c                	addi	a1,sp,8
 3f2:	0000                	unimp
 3f4:	01f8                	addi	a4,sp,204
 3f6:	0000                	unimp
 3f8:	1354                	addi	a3,sp,420
 3fa:	00a0                	addi	s0,sp,72
 3fc:	0000                	unimp
 3fe:	0000                	unimp
 400:	0028                	addi	a0,sp,8
 402:	0000                	unimp
 404:	0000                	unimp
 406:	0000                	unimp
 408:	0e44                	addi	s1,sp,788
 40a:	4810                	lw	a2,16(s0)
 40c:	0281                	addi	t0,t0,0
 40e:	0488                	addi	a0,sp,576
 410:	0c44                	addi	s1,sp,532
 412:	0008                	0x8
 414:	c14c                	sw	a1,4(a0)
 416:	c844                	sw	s1,20(s0)
 418:	020c                	addi	a1,sp,256
 41a:	4410                	lw	a2,8(s0)
 41c:	000e                	c.slli	zero,0x3
 41e:	0000                	unimp
 420:	000c                	0xc
 422:	0000                	unimp
 424:	ffff                	0xffff
 426:	ffff                	0xffff
 428:	7c010003          	lb	zero,1984(sp)
 42c:	0d01                	addi	s10,s10,0
 42e:	0002                	c.slli64	zero
 430:	002c                	addi	a1,sp,8
 432:	0000                	unimp
 434:	0420                	addi	s0,sp,520
 436:	0000                	unimp
 438:	137c                	addi	a5,sp,428
 43a:	00a0                	addi	s0,sp,72
 43c:	0000                	unimp
 43e:	0000                	unimp
 440:	00b0                	addi	a2,sp,72
 442:	0000                	unimp
 444:	0000                	unimp
 446:	0000                	unimp
 448:	0e44                	addi	s1,sp,788
 44a:	4410                	lw	a2,8(s0)
 44c:	0288                	addi	a0,sp,320
 44e:	0c44                	addi	s1,sp,532
 450:	0008                	0x8
 452:	9c02                	jalr	s8
 454:	0cc8                	addi	a0,sp,596
 456:	1002                	c.slli	zero,0x20
 458:	0e44                	addi	s1,sp,788
 45a:	0000                	unimp
 45c:	0000                	unimp
 45e:	0000                	unimp
 460:	004c                	addi	a1,sp,4
 462:	0000                	unimp
 464:	0420                	addi	s0,sp,520
 466:	0000                	unimp
 468:	142c                	addi	a1,sp,552
 46a:	00a0                	addi	s0,sp,72
 46c:	0000                	unimp
 46e:	0000                	unimp
 470:	0158                	addi	a4,sp,132
 472:	0000                	unimp
 474:	0000                	unimp
 476:	0000                	unimp
 478:	0e44                	addi	s1,sp,788
 47a:	6040                	ld	s0,128(s0)
 47c:	0281                	addi	t0,t0,0
 47e:	0488                	addi	a0,sp,576
 480:	0689                	addi	a3,a3,2
 482:	0892                	slli	a7,a7,0x4
 484:	0c940a93          	addi	s5,s0,201
 488:	0e95                	addi	t4,t4,5
 48a:	1096                	slli	ra,ra,0x25
 48c:	0c44                	addi	s1,sp,532
 48e:	0008                	0x8
 490:	a402                	fsd	ft0,8(sp)
 492:	c10a                	sw	sp,128(sp)
 494:	c844                	sw	s1,20(s0)
 496:	020c                	addi	a1,sp,256
 498:	4440                	lw	s0,12(s0)
 49a:	44c9                	li	s1,18
 49c:	44d2                	lw	s1,20(sp)
 49e:	44d444d3          	0x44d444d3
 4a2:	44d5                	li	s1,21
 4a4:	44d6                	lw	s1,84(sp)
 4a6:	000e                	c.slli	zero,0x3
 4a8:	0b44                	addi	s1,sp,404
 4aa:	0000                	unimp
 4ac:	0000                	unimp
	...

Disassembly of section .debug_rnglists:

0000000000000000 <.debug_rnglists>:
   0:	000004ef          	jal	s1,0 <_text-0xa00000>
   4:	0005                	c.nop	1
   6:	0008                	0x8
   8:	0000                	unimp
   a:	0000                	unimp
   c:	fc06                	sd	ra,56(sp)
   e:	a002                	fsd	ft0,0(sp)
  10:	0000                	unimp
  12:	0000                	unimp
  14:	2000                	fld	fs0,0(s0)
  16:	0000a003          	lw	zero,0(ra)
  1a:	0000                	unimp
  1c:	0600                	addi	s0,sp,768
  1e:	0328                	addi	a0,sp,392
  20:	00a0                	addi	s0,sp,72
  22:	0000                	unimp
  24:	0000                	unimp
  26:	032c                	addi	a1,sp,392
  28:	00a0                	addi	s0,sp,72
  2a:	0000                	unimp
  2c:	0000                	unimp
  2e:	2c06                	fld	fs8,64(sp)
  30:	0000a003          	lw	zero,0(ra)
  34:	0000                	unimp
  36:	5800                	lw	s0,48(s0)
  38:	0000a003          	lw	zero,0(ra)
  3c:	0000                	unimp
  3e:	0000                	unimp
  40:	dc06                	sw	ra,56(sp)
  42:	0000a003          	lw	zero,0(ra)
  46:	0000                	unimp
  48:	1c00                	addi	s0,sp,560
  4a:	a004                	fsd	fs1,0(s0)
  4c:	0000                	unimp
  4e:	0000                	unimp
  50:	0600                	addi	s0,sp,768
  52:	0480                	addi	s0,sp,576
  54:	00a0                	addi	s0,sp,72
  56:	0000                	unimp
  58:	0000                	unimp
  5a:	0488                	addi	a0,sp,576
  5c:	00a0                	addi	s0,sp,72
  5e:	0000                	unimp
  60:	0000                	unimp
  62:	0600                	addi	s0,sp,768
  64:	04d8                	addi	a4,sp,580
  66:	00a0                	addi	s0,sp,72
  68:	0000                	unimp
  6a:	0000                	unimp
  6c:	04f0                	addi	a2,sp,588
  6e:	00a0                	addi	s0,sp,72
  70:	0000                	unimp
  72:	0000                	unimp
  74:	fc06                	sd	ra,56(sp)
  76:	a00c                	fsd	fa1,0(s0)
  78:	0000                	unimp
  7a:	0000                	unimp
  7c:	1800                	addi	s0,sp,48
  7e:	a00d                	j	a0 <_text-0x9fff60>
  80:	0000                	unimp
  82:	0000                	unimp
  84:	0600                	addi	s0,sp,768
  86:	0d24                	addi	s1,sp,664
  88:	00a0                	addi	s0,sp,72
  8a:	0000                	unimp
  8c:	0000                	unimp
  8e:	0dd0                	addi	a2,sp,724
  90:	00a0                	addi	s0,sp,72
  92:	0000                	unimp
  94:	0000                	unimp
  96:	0600                	addi	s0,sp,768
  98:	04d8                	addi	a4,sp,580
  9a:	00a0                	addi	s0,sp,72
  9c:	0000                	unimp
  9e:	0000                	unimp
  a0:	04f0                	addi	a2,sp,588
  a2:	00a0                	addi	s0,sp,72
  a4:	0000                	unimp
  a6:	0000                	unimp
  a8:	1006                	c.slli	zero,0x21
  aa:	a00d                	j	cc <_text-0x9fff34>
  ac:	0000                	unimp
  ae:	0000                	unimp
  b0:	1800                	addi	s0,sp,48
  b2:	a00d                	j	d4 <_text-0x9fff2c>
  b4:	0000                	unimp
  b6:	0000                	unimp
  b8:	0600                	addi	s0,sp,768
  ba:	0d2c                	addi	a1,sp,664
  bc:	00a0                	addi	s0,sp,72
  be:	0000                	unimp
  c0:	0000                	unimp
  c2:	0d48                	addi	a0,sp,660
  c4:	00a0                	addi	s0,sp,72
  c6:	0000                	unimp
  c8:	0000                	unimp
  ca:	9c06                	add	s8,s8,ra
  cc:	a00d                	j	ee <_text-0x9fff12>
  ce:	0000                	unimp
  d0:	0000                	unimp
  d2:	d000                	sw	s0,32(s0)
  d4:	a00d                	j	f6 <_text-0x9fff0a>
  d6:	0000                	unimp
  d8:	0000                	unimp
  da:	0000                	unimp
  dc:	e806                	sd	ra,16(sp)
  de:	a004                	fsd	fs1,0(s0)
  e0:	0000                	unimp
  e2:	0000                	unimp
  e4:	f000                	sd	s0,32(s0)
  e6:	a004                	fsd	fs1,0(s0)
  e8:	0000                	unimp
  ea:	0000                	unimp
  ec:	0600                	addi	s0,sp,768
  ee:	0d44                	addi	s1,sp,660
  f0:	00a0                	addi	s0,sp,72
  f2:	0000                	unimp
  f4:	0000                	unimp
  f6:	0d48                	addi	a0,sp,660
  f8:	00a0                	addi	s0,sp,72
  fa:	0000                	unimp
  fc:	0000                	unimp
  fe:	a406                	fsd	ft1,8(sp)
 100:	a00d                	j	122 <_text-0x9ffede>
 102:	0000                	unimp
 104:	0000                	unimp
 106:	d000                	sw	s0,32(s0)
 108:	a00d                	j	12a <_text-0x9ffed6>
 10a:	0000                	unimp
 10c:	0000                	unimp
 10e:	0000                	unimp
 110:	0c06                	slli	s8,s8,0x1
 112:	a00d                	j	134 <_text-0x9ffecc>
 114:	0000                	unimp
 116:	0000                	unimp
 118:	1000                	addi	s0,sp,32
 11a:	a00d                	j	13c <_text-0x9ffec4>
 11c:	0000                	unimp
 11e:	0000                	unimp
 120:	0600                	addi	s0,sp,768
 122:	0d58                	addi	a4,sp,660
 124:	00a0                	addi	s0,sp,72
 126:	0000                	unimp
 128:	0000                	unimp
 12a:	0d94                	addi	a3,sp,720
 12c:	00a0                	addi	s0,sp,72
 12e:	0000                	unimp
 130:	0000                	unimp
 132:	0600                	addi	s0,sp,768
 134:	04f4                	addi	a3,sp,588
 136:	00a0                	addi	s0,sp,72
 138:	0000                	unimp
 13a:	0000                	unimp
 13c:	0510                	addi	a2,sp,640
 13e:	00a0                	addi	s0,sp,72
 140:	0000                	unimp
 142:	0000                	unimp
 144:	7806                	ld	a6,96(sp)
 146:	a005                	j	166 <_text-0x9ffe9a>
 148:	0000                	unimp
 14a:	0000                	unimp
 14c:	b000                	fsd	fs0,32(s0)
 14e:	a005                	j	16e <_text-0x9ffe92>
 150:	0000                	unimp
 152:	0000                	unimp
 154:	0000                	unimp
 156:	0c06                	slli	s8,s8,0x1
 158:	a005                	j	178 <_text-0x9ffe88>
 15a:	0000                	unimp
 15c:	0000                	unimp
 15e:	1000                	addi	s0,sp,32
 160:	a005                	j	180 <_text-0x9ffe80>
 162:	0000                	unimp
 164:	0000                	unimp
 166:	0600                	addi	s0,sp,768
 168:	0584                	addi	s1,sp,704
 16a:	00a0                	addi	s0,sp,72
 16c:	0000                	unimp
 16e:	0000                	unimp
 170:	05b0                	addi	a2,sp,712
 172:	00a0                	addi	s0,sp,72
 174:	0000                	unimp
 176:	0000                	unimp
 178:	0600                	addi	s0,sp,768
 17a:	074c                	addi	a1,sp,900
 17c:	00a0                	addi	s0,sp,72
 17e:	0000                	unimp
 180:	0000                	unimp
 182:	0764                	addi	s1,sp,908
 184:	00a0                	addi	s0,sp,72
 186:	0000                	unimp
 188:	0000                	unimp
 18a:	6806                	ld	a6,64(sp)
 18c:	0000a007          	flw	ft0,0(ra)
 190:	0000                	unimp
 192:	9400                	0x9400
 194:	0000a007          	flw	ft0,0(ra)
 198:	0000                	unimp
 19a:	0000                	unimp
 19c:	6406                	ld	s0,64(sp)
 19e:	0000a007          	flw	ft0,0(ra)
 1a2:	0000                	unimp
 1a4:	6400                	ld	s0,8(s0)
 1a6:	0000a007          	flw	ft0,0(ra)
 1aa:	0000                	unimp
 1ac:	0600                	addi	s0,sp,768
 1ae:	0768                	addi	a0,sp,908
 1b0:	00a0                	addi	s0,sp,72
 1b2:	0000                	unimp
 1b4:	0000                	unimp
 1b6:	0794                	addi	a3,sp,960
 1b8:	00a0                	addi	s0,sp,72
 1ba:	0000                	unimp
 1bc:	0000                	unimp
 1be:	0600                	addi	s0,sp,768
 1c0:	07bc                	addi	a5,sp,968
 1c2:	00a0                	addi	s0,sp,72
 1c4:	0000                	unimp
 1c6:	0000                	unimp
 1c8:	07d8                	addi	a4,sp,964
 1ca:	00a0                	addi	s0,sp,72
 1cc:	0000                	unimp
 1ce:	0000                	unimp
 1d0:	f406                	sd	ra,40(sp)
 1d2:	0000a007          	flw	ft0,0(ra)
 1d6:	0000                	unimp
 1d8:	a000                	fsd	fs0,0(s0)
 1da:	a008                	fsd	fa0,0(s0)
 1dc:	0000                	unimp
 1de:	0000                	unimp
 1e0:	0000                	unimp
 1e2:	cc06                	sw	ra,24(sp)
 1e4:	0000a007          	flw	ft0,0(ra)
 1e8:	0000                	unimp
 1ea:	d000                	sw	s0,32(s0)
 1ec:	0000a007          	flw	ft0,0(ra)
 1f0:	0000                	unimp
 1f2:	0600                	addi	s0,sp,768
 1f4:	0828                	addi	a0,sp,24
 1f6:	00a0                	addi	s0,sp,72
 1f8:	0000                	unimp
 1fa:	0000                	unimp
 1fc:	0864                	addi	s1,sp,28
 1fe:	00a0                	addi	s0,sp,72
 200:	0000                	unimp
 202:	0000                	unimp
 204:	0600                	addi	s0,sp,768
 206:	07d0                	addi	a2,sp,964
 208:	00a0                	addi	s0,sp,72
 20a:	0000                	unimp
 20c:	0000                	unimp
 20e:	07d8                	addi	a4,sp,964
 210:	00a0                	addi	s0,sp,72
 212:	0000                	unimp
 214:	0000                	unimp
 216:	fc06                	sd	ra,56(sp)
 218:	0000a007          	flw	ft0,0(ra)
 21c:	0000                	unimp
 21e:	1800                	addi	s0,sp,48
 220:	a008                	fsd	fa0,0(s0)
 222:	0000                	unimp
 224:	0000                	unimp
 226:	0600                	addi	s0,sp,768
 228:	086c                	addi	a1,sp,28
 22a:	00a0                	addi	s0,sp,72
 22c:	0000                	unimp
 22e:	0000                	unimp
 230:	08a0                	addi	s0,sp,88
 232:	00a0                	addi	s0,sp,72
 234:	0000                	unimp
 236:	0000                	unimp
 238:	0600                	addi	s0,sp,768
 23a:	0814                	addi	a3,sp,16
 23c:	00a0                	addi	s0,sp,72
 23e:	0000                	unimp
 240:	0000                	unimp
 242:	0818                	addi	a4,sp,16
 244:	00a0                	addi	s0,sp,72
 246:	0000                	unimp
 248:	0000                	unimp
 24a:	7406                	ld	s0,96(sp)
 24c:	a008                	fsd	fa0,0(s0)
 24e:	0000                	unimp
 250:	0000                	unimp
 252:	a000                	fsd	fs0,0(s0)
 254:	a008                	fsd	fa0,0(s0)
 256:	0000                	unimp
 258:	0000                	unimp
 25a:	0000                	unimp
 25c:	d806                	sw	ra,48(sp)
 25e:	a008                	fsd	fa0,0(s0)
 260:	0000                	unimp
 262:	0000                	unimp
 264:	f400                	sd	s0,40(s0)
 266:	a008                	fsd	fa0,0(s0)
 268:	0000                	unimp
 26a:	0000                	unimp
 26c:	0600                	addi	s0,sp,768
 26e:	0900                	addi	s0,sp,144
 270:	00a0                	addi	s0,sp,72
 272:	0000                	unimp
 274:	0000                	unimp
 276:	09ac                	addi	a1,sp,216
 278:	00a0                	addi	s0,sp,72
 27a:	0000                	unimp
 27c:	0000                	unimp
 27e:	0600                	addi	s0,sp,768
 280:	08e8                	addi	a0,sp,92
 282:	00a0                	addi	s0,sp,72
 284:	0000                	unimp
 286:	0000                	unimp
 288:	08ec                	addi	a1,sp,92
 28a:	00a0                	addi	s0,sp,72
 28c:	0000                	unimp
 28e:	0000                	unimp
 290:	3406                	fld	fs0,96(sp)
 292:	a009                	j	294 <_text-0x9ffd6c>
 294:	0000                	unimp
 296:	0000                	unimp
 298:	7000                	ld	s0,32(s0)
 29a:	a009                	j	29c <_text-0x9ffd64>
 29c:	0000                	unimp
 29e:	0000                	unimp
 2a0:	0000                	unimp
 2a2:	ec06                	sd	ra,24(sp)
 2a4:	a008                	fsd	fa0,0(s0)
 2a6:	0000                	unimp
 2a8:	0000                	unimp
 2aa:	f400                	sd	s0,40(s0)
 2ac:	a008                	fsd	fa0,0(s0)
 2ae:	0000                	unimp
 2b0:	0000                	unimp
 2b2:	0600                	addi	s0,sp,768
 2b4:	0908                	addi	a0,sp,144
 2b6:	00a0                	addi	s0,sp,72
 2b8:	0000                	unimp
 2ba:	0000                	unimp
 2bc:	0924                	addi	s1,sp,152
 2be:	00a0                	addi	s0,sp,72
 2c0:	0000                	unimp
 2c2:	0000                	unimp
 2c4:	7806                	ld	a6,96(sp)
 2c6:	a009                	j	2c8 <_text-0x9ffd38>
 2c8:	0000                	unimp
 2ca:	0000                	unimp
 2cc:	ac00                	fsd	fs0,24(s0)
 2ce:	a009                	j	2d0 <_text-0x9ffd30>
 2d0:	0000                	unimp
 2d2:	0000                	unimp
 2d4:	0000                	unimp
 2d6:	2006                	fld	ft0,64(sp)
 2d8:	a009                	j	2da <_text-0x9ffd26>
 2da:	0000                	unimp
 2dc:	0000                	unimp
 2de:	2400                	fld	fs0,8(s0)
 2e0:	a009                	j	2e2 <_text-0x9ffd1e>
 2e2:	0000                	unimp
 2e4:	0000                	unimp
 2e6:	0600                	addi	s0,sp,768
 2e8:	0980                	addi	s0,sp,208
 2ea:	00a0                	addi	s0,sp,72
 2ec:	0000                	unimp
 2ee:	0000                	unimp
 2f0:	09ac                	addi	a1,sp,216
 2f2:	00a0                	addi	s0,sp,72
 2f4:	0000                	unimp
 2f6:	0000                	unimp
 2f8:	0600                	addi	s0,sp,768
 2fa:	09e4                	addi	s1,sp,220
 2fc:	00a0                	addi	s0,sp,72
 2fe:	0000                	unimp
 300:	0000                	unimp
 302:	0a00                	addi	s0,sp,272
 304:	00a0                	addi	s0,sp,72
 306:	0000                	unimp
 308:	0000                	unimp
 30a:	0c06                	slli	s8,s8,0x1
 30c:	a00a                	fsd	ft2,0(sp)
 30e:	0000                	unimp
 310:	0000                	unimp
 312:	b800                	fsd	fs0,48(s0)
 314:	a00a                	fsd	ft2,0(sp)
 316:	0000                	unimp
 318:	0000                	unimp
 31a:	0000                	unimp
 31c:	f406                	sd	ra,40(sp)
 31e:	a009                	j	320 <_text-0x9ffce0>
 320:	0000                	unimp
 322:	0000                	unimp
 324:	f800                	sd	s0,48(s0)
 326:	a009                	j	328 <_text-0x9ffcd8>
 328:	0000                	unimp
 32a:	0000                	unimp
 32c:	0600                	addi	s0,sp,768
 32e:	0a40                	addi	s0,sp,276
 330:	00a0                	addi	s0,sp,72
 332:	0000                	unimp
 334:	0000                	unimp
 336:	0a7c                	addi	a5,sp,284
 338:	00a0                	addi	s0,sp,72
 33a:	0000                	unimp
 33c:	0000                	unimp
 33e:	0600                	addi	s0,sp,768
 340:	09f8                	addi	a4,sp,220
 342:	00a0                	addi	s0,sp,72
 344:	0000                	unimp
 346:	0000                	unimp
 348:	0a00                	addi	s0,sp,272
 34a:	00a0                	addi	s0,sp,72
 34c:	0000                	unimp
 34e:	0000                	unimp
 350:	1406                	slli	s0,s0,0x21
 352:	a00a                	fsd	ft2,0(sp)
 354:	0000                	unimp
 356:	0000                	unimp
 358:	3000                	fld	fs0,32(s0)
 35a:	a00a                	fsd	ft2,0(sp)
 35c:	0000                	unimp
 35e:	0000                	unimp
 360:	0600                	addi	s0,sp,768
 362:	0a84                	addi	s1,sp,336
 364:	00a0                	addi	s0,sp,72
 366:	0000                	unimp
 368:	0000                	unimp
 36a:	0ab8                	addi	a4,sp,344
 36c:	00a0                	addi	s0,sp,72
 36e:	0000                	unimp
 370:	0000                	unimp
 372:	0600                	addi	s0,sp,768
 374:	0a2c                	addi	a1,sp,280
 376:	00a0                	addi	s0,sp,72
 378:	0000                	unimp
 37a:	0000                	unimp
 37c:	0a30                	addi	a2,sp,280
 37e:	00a0                	addi	s0,sp,72
 380:	0000                	unimp
 382:	0000                	unimp
 384:	8c06                	mv	s8,ra
 386:	a00a                	fsd	ft2,0(sp)
 388:	0000                	unimp
 38a:	0000                	unimp
 38c:	b800                	fsd	fs0,48(s0)
 38e:	a00a                	fsd	ft2,0(sp)
 390:	0000                	unimp
 392:	0000                	unimp
 394:	0000                	unimp
 396:	f006                	sd	ra,32(sp)
 398:	a00a                	fsd	ft2,0(sp)
 39a:	0000                	unimp
 39c:	0000                	unimp
 39e:	0c00                	addi	s0,sp,528
 3a0:	0000a00b          	0xa00b
 3a4:	0000                	unimp
 3a6:	0600                	addi	s0,sp,768
 3a8:	0b18                	addi	a4,sp,400
 3aa:	00a0                	addi	s0,sp,72
 3ac:	0000                	unimp
 3ae:	0000                	unimp
 3b0:	0bc4                	addi	s1,sp,468
 3b2:	00a0                	addi	s0,sp,72
 3b4:	0000                	unimp
 3b6:	0000                	unimp
 3b8:	0600                	addi	s0,sp,768
 3ba:	0b00                	addi	s0,sp,400
 3bc:	00a0                	addi	s0,sp,72
 3be:	0000                	unimp
 3c0:	0000                	unimp
 3c2:	0b04                	addi	s1,sp,400
 3c4:	00a0                	addi	s0,sp,72
 3c6:	0000                	unimp
 3c8:	0000                	unimp
 3ca:	4c06                	lw	s8,64(sp)
 3cc:	0000a00b          	0xa00b
 3d0:	0000                	unimp
 3d2:	8800                	0x8800
 3d4:	0000a00b          	0xa00b
 3d8:	0000                	unimp
 3da:	0000                	unimp
 3dc:	0406                	slli	s0,s0,0x1
 3de:	0000a00b          	0xa00b
 3e2:	0000                	unimp
 3e4:	0c00                	addi	s0,sp,528
 3e6:	0000a00b          	0xa00b
 3ea:	0000                	unimp
 3ec:	0600                	addi	s0,sp,768
 3ee:	0b20                	addi	s0,sp,408
 3f0:	00a0                	addi	s0,sp,72
 3f2:	0000                	unimp
 3f4:	0000                	unimp
 3f6:	0b3c                	addi	a5,sp,408
 3f8:	00a0                	addi	s0,sp,72
 3fa:	0000                	unimp
 3fc:	0000                	unimp
 3fe:	9006                	c.add	zero,ra
 400:	0000a00b          	0xa00b
 404:	0000                	unimp
 406:	c400                	sw	s0,8(s0)
 408:	0000a00b          	0xa00b
 40c:	0000                	unimp
 40e:	0000                	unimp
 410:	3806                	fld	fa6,96(sp)
 412:	0000a00b          	0xa00b
 416:	0000                	unimp
 418:	3c00                	fld	fs0,56(s0)
 41a:	0000a00b          	0xa00b
 41e:	0000                	unimp
 420:	0600                	addi	s0,sp,768
 422:	0b98                	addi	a4,sp,464
 424:	00a0                	addi	s0,sp,72
 426:	0000                	unimp
 428:	0000                	unimp
 42a:	0bc4                	addi	s1,sp,468
 42c:	00a0                	addi	s0,sp,72
 42e:	0000                	unimp
 430:	0000                	unimp
 432:	0600                	addi	s0,sp,768
 434:	0bfc                	addi	a5,sp,476
 436:	00a0                	addi	s0,sp,72
 438:	0000                	unimp
 43a:	0000                	unimp
 43c:	0c18                	addi	a4,sp,528
 43e:	00a0                	addi	s0,sp,72
 440:	0000                	unimp
 442:	0000                	unimp
 444:	2406                	fld	fs0,64(sp)
 446:	a00c                	fsd	fa1,0(s0)
 448:	0000                	unimp
 44a:	0000                	unimp
 44c:	d000                	sw	s0,32(s0)
 44e:	a00c                	fsd	fa1,0(s0)
 450:	0000                	unimp
 452:	0000                	unimp
 454:	0000                	unimp
 456:	0c06                	slli	s8,s8,0x1
 458:	a00c                	fsd	fa1,0(s0)
 45a:	0000                	unimp
 45c:	0000                	unimp
 45e:	1000                	addi	s0,sp,32
 460:	a00c                	fsd	fa1,0(s0)
 462:	0000                	unimp
 464:	0000                	unimp
 466:	0600                	addi	s0,sp,768
 468:	0c58                	addi	a4,sp,532
 46a:	00a0                	addi	s0,sp,72
 46c:	0000                	unimp
 46e:	0000                	unimp
 470:	0c94                	addi	a3,sp,592
 472:	00a0                	addi	s0,sp,72
 474:	0000                	unimp
 476:	0000                	unimp
 478:	0600                	addi	s0,sp,768
 47a:	0c10                	addi	a2,sp,528
 47c:	00a0                	addi	s0,sp,72
 47e:	0000                	unimp
 480:	0000                	unimp
 482:	0c18                	addi	a4,sp,528
 484:	00a0                	addi	s0,sp,72
 486:	0000                	unimp
 488:	0000                	unimp
 48a:	2c06                	fld	fs8,64(sp)
 48c:	a00c                	fsd	fa1,0(s0)
 48e:	0000                	unimp
 490:	0000                	unimp
 492:	4800                	lw	s0,16(s0)
 494:	a00c                	fsd	fa1,0(s0)
 496:	0000                	unimp
 498:	0000                	unimp
 49a:	0600                	addi	s0,sp,768
 49c:	0c9c                	addi	a5,sp,592
 49e:	00a0                	addi	s0,sp,72
 4a0:	0000                	unimp
 4a2:	0000                	unimp
 4a4:	0cd0                	addi	a2,sp,596
 4a6:	00a0                	addi	s0,sp,72
 4a8:	0000                	unimp
 4aa:	0000                	unimp
 4ac:	0600                	addi	s0,sp,768
 4ae:	0c44                	addi	s1,sp,532
 4b0:	00a0                	addi	s0,sp,72
 4b2:	0000                	unimp
 4b4:	0000                	unimp
 4b6:	0c48                	addi	a0,sp,532
 4b8:	00a0                	addi	s0,sp,72
 4ba:	0000                	unimp
 4bc:	0000                	unimp
 4be:	a406                	fsd	ft1,8(sp)
 4c0:	a00c                	fsd	fa1,0(s0)
 4c2:	0000                	unimp
 4c4:	0000                	unimp
 4c6:	d000                	sw	s0,32(s0)
 4c8:	a00c                	fsd	fa1,0(s0)
 4ca:	0000                	unimp
 4cc:	0000                	unimp
 4ce:	0000                	unimp
 4d0:	e406                	sd	ra,8(sp)
 4d2:	a00d                	j	4f4 <_text-0x9ffb0c>
 4d4:	0000                	unimp
 4d6:	0000                	unimp
 4d8:	e400                	sd	s0,8(s0)
 4da:	a00d                	j	4fc <_text-0x9ffb04>
 4dc:	0000                	unimp
 4de:	0000                	unimp
 4e0:	0600                	addi	s0,sp,768
 4e2:	0de8                	addi	a0,sp,732
 4e4:	00a0                	addi	s0,sp,72
 4e6:	0000                	unimp
 4e8:	0000                	unimp
 4ea:	0e04                	addi	s1,sp,784
 4ec:	00a0                	addi	s0,sp,72
 4ee:	0000                	unimp
 4f0:	0000                	unimp
 4f2:	2b00                	fld	fs0,16(a4)
 4f4:	0000                	unimp
 4f6:	0500                	addi	s0,sp,640
 4f8:	0800                	addi	s0,sp,16
 4fa:	0000                	unimp
 4fc:	0000                	unimp
 4fe:	0600                	addi	s0,sp,768
 500:	10c8                	addi	a0,sp,100
 502:	00a0                	addi	s0,sp,72
 504:	0000                	unimp
 506:	0000                	unimp
 508:	10d4                	addi	a3,sp,100
 50a:	00a0                	addi	s0,sp,72
 50c:	0000                	unimp
 50e:	0000                	unimp
 510:	dc06                	sw	ra,56(sp)
 512:	a010                	fsd	fa2,0(s0)
 514:	0000                	unimp
 516:	0000                	unimp
 518:	f400                	sd	s0,40(s0)
 51a:	a010                	fsd	fa2,0(s0)
 51c:	0000                	unimp
 51e:	0000                	unimp
 520:	0000                	unimp
 522:	0070                	addi	a2,sp,12
 524:	0000                	unimp
 526:	0005                	c.nop	1
 528:	0008                	0x8
 52a:	0000                	unimp
 52c:	0000                	unimp
 52e:	9c06                	add	s8,s8,ra
 530:	a014                	fsd	fa3,0(s0)
 532:	0000                	unimp
 534:	0000                	unimp
 536:	a000                	fsd	fs0,0(s0)
 538:	a014                	fsd	fa3,0(s0)
 53a:	0000                	unimp
 53c:	0000                	unimp
 53e:	0600                	addi	s0,sp,768
 540:	14a8                	addi	a0,sp,616
 542:	00a0                	addi	s0,sp,72
 544:	0000                	unimp
 546:	0000                	unimp
 548:	14b0                	addi	a2,sp,616
 54a:	00a0                	addi	s0,sp,72
 54c:	0000                	unimp
 54e:	0000                	unimp
 550:	2806                	fld	fa6,64(sp)
 552:	a015                	j	576 <_text-0x9ffa8a>
 554:	0000                	unimp
 556:	0000                	unimp
 558:	3c00                	fld	fs0,56(s0)
 55a:	a015                	j	57e <_text-0x9ffa82>
 55c:	0000                	unimp
 55e:	0000                	unimp
 560:	0600                	addi	s0,sp,768
 562:	1558                	addi	a4,sp,676
 564:	00a0                	addi	s0,sp,72
 566:	0000                	unimp
 568:	0000                	unimp
 56a:	157c                	addi	a5,sp,684
 56c:	00a0                	addi	s0,sp,72
 56e:	0000                	unimp
 570:	0000                	unimp
 572:	0600                	addi	s0,sp,768
 574:	149c                	addi	a5,sp,608
 576:	00a0                	addi	s0,sp,72
 578:	0000                	unimp
 57a:	0000                	unimp
 57c:	14a0                	addi	s0,sp,616
 57e:	00a0                	addi	s0,sp,72
 580:	0000                	unimp
 582:	0000                	unimp
 584:	5806                	lw	a6,96(sp)
 586:	a015                	j	5aa <_text-0x9ffa56>
 588:	0000                	unimp
 58a:	0000                	unimp
 58c:	7800                	ld	s0,48(s0)
 58e:	a015                	j	5b2 <_text-0x9ffa4e>
 590:	0000                	unimp
 592:	0000                	unimp
	...
