
SysfileTest.b：     文件格式 elf64-littleriscv


Disassembly of section .text:

0000000000a00000 <_text>:
  a00000:	00013503          	ld	a0,0(sp)
  a00004:	00810593          	addi	a1,sp,8
  a00008:	00013603          	ld	a2,0(sp)
  a0000c:	00160613          	addi	a2,a2,1
  a00010:	00361613          	slli	a2,a2,0x3
  a00014:	00c58633          	add	a2,a1,a2
  a00018:	17c000ef          	jal	ra,a00194 <libMain>

0000000000a0001c <_userLoop>:
  a0001c:	000000ef          	jal	ra,a0001c <_userLoop>

0000000000a00020 <userMain>:
  a00020:	fc010113          	addi	sp,sp,-64
  a00024:	02113c23          	sd	ra,56(sp)
  a00028:	02813823          	sd	s0,48(sp)
  a0002c:	02913423          	sd	s1,40(sp)
  a00030:	03213023          	sd	s2,32(sp)
  a00034:	04010413          	addi	s0,sp,64
  a00038:	f9c00513          	li	a0,-100
  a0003c:	00002597          	auipc	a1,0x2
  a00040:	16c58593          	addi	a1,a1,364 # a021a8 <_etext+0x1a8>
  a00044:	00000613          	li	a2,0
  a00048:	00200693          	li	a3,2
  a0004c:	00000713          	li	a4,0
  a00050:	00000793          	li	a5,0
  a00054:	03800893          	li	a7,56
  a00058:	00000073          	ecall
  a0005c:	0005049b          	sext.w	s1,a0
  a00060:	00048593          	mv	a1,s1
  a00064:	00002517          	auipc	a0,0x2
  a00068:	15450513          	addi	a0,a0,340 # a021b8 <_etext+0x1b8>
  a0006c:	00001097          	auipc	ra,0x1
  a00070:	e98080e7          	jalr	-360(ra) # a00f04 <printf>
  a00074:	fc043823          	sd	zero,-48(s0)
  a00078:	fc041c23          	sh	zero,-40(s0)
  a0007c:	00048513          	mv	a0,s1
  a00080:	fd040593          	addi	a1,s0,-48
  a00084:	00a00613          	li	a2,10
  a00088:	00000693          	li	a3,0
  a0008c:	00000713          	li	a4,0
  a00090:	00000793          	li	a5,0
  a00094:	03f00893          	li	a7,63
  a00098:	00000073          	ecall
  a0009c:	00058613          	mv	a2,a1
  a000a0:	0005059b          	sext.w	a1,a0
  a000a4:	00002517          	auipc	a0,0x2
  a000a8:	11c50513          	addi	a0,a0,284 # a021c0 <_etext+0x1c0>
  a000ac:	00001097          	auipc	ra,0x1
  a000b0:	e58080e7          	jalr	-424(ra) # a00f04 <printf>
  a000b4:	00002917          	auipc	s2,0x2
  a000b8:	12c90913          	addi	s2,s2,300 # a021e0 <_etext+0x1e0>
  a000bc:	f9c00513          	li	a0,-100
  a000c0:	00090593          	mv	a1,s2
  a000c4:	04100613          	li	a2,65
  a000c8:	00200693          	li	a3,2
  a000cc:	00000713          	li	a4,0
  a000d0:	00000793          	li	a5,0
  a000d4:	03800893          	li	a7,56
  a000d8:	00000073          	ecall
  a000dc:	0005049b          	sext.w	s1,a0
  a000e0:	00048593          	mv	a1,s1
  a000e4:	00002517          	auipc	a0,0x2
  a000e8:	10c50513          	addi	a0,a0,268 # a021f0 <_etext+0x1f0>
  a000ec:	00001097          	auipc	ra,0x1
  a000f0:	e18080e7          	jalr	-488(ra) # a00f04 <printf>
  a000f4:	00048513          	mv	a0,s1
  a000f8:	00002597          	auipc	a1,0x2
  a000fc:	10058593          	addi	a1,a1,256 # a021f8 <_etext+0x1f8>
  a00100:	00f00613          	li	a2,15
  a00104:	00000693          	li	a3,0
  a00108:	00000713          	li	a4,0
  a0010c:	00000793          	li	a5,0
  a00110:	04000893          	li	a7,64
  a00114:	00000073          	ecall
  a00118:	0005059b          	sext.w	a1,a0
  a0011c:	00002517          	auipc	a0,0x2
  a00120:	0ec50513          	addi	a0,a0,236 # a02208 <_etext+0x208>
  a00124:	00001097          	auipc	ra,0x1
  a00128:	de0080e7          	jalr	-544(ra) # a00f04 <printf>
  a0012c:	00048513          	mv	a0,s1
  a00130:	00000593          	li	a1,0
  a00134:	00000613          	li	a2,0
  a00138:	00000693          	li	a3,0
  a0013c:	00000713          	li	a4,0
  a00140:	00000793          	li	a5,0
  a00144:	03900893          	li	a7,57
  a00148:	00000073          	ecall
  a0014c:	f9c00513          	li	a0,-100
  a00150:	00090593          	mv	a1,s2
  a00154:	00200693          	li	a3,2
  a00158:	03800893          	li	a7,56
  a0015c:	00000073          	ecall
  a00160:	0005051b          	sext.w	a0,a0
  a00164:	fc040593          	addi	a1,s0,-64
  a00168:	01000613          	li	a2,16
  a0016c:	00000693          	li	a3,0
  a00170:	03f00893          	li	a7,63
  a00174:	00000073          	ecall
  a00178:	00058613          	mv	a2,a1
  a0017c:	0005059b          	sext.w	a1,a0
  a00180:	00002517          	auipc	a0,0x2
  a00184:	04050513          	addi	a0,a0,64 # a021c0 <_etext+0x1c0>
  a00188:	00001097          	auipc	ra,0x1
  a0018c:	d7c080e7          	jalr	-644(ra) # a00f04 <printf>
  a00190:	0000006f          	j	a00190 <userMain+0x170>

0000000000a00194 <libMain>:
  a00194:	ff010113          	addi	sp,sp,-16
  a00198:	00113423          	sd	ra,8(sp)
  a0019c:	00813023          	sd	s0,0(sp)
  a001a0:	01010413          	addi	s0,sp,16
  a001a4:	00000097          	auipc	ra,0x0
  a001a8:	e7c080e7          	jalr	-388(ra) # a00020 <userMain>
  a001ac:	00000593          	li	a1,0
  a001b0:	00000613          	li	a2,0
  a001b4:	00000693          	li	a3,0
  a001b8:	00000713          	li	a4,0
  a001bc:	00000793          	li	a5,0
  a001c0:	05d00893          	li	a7,93
  a001c4:	00000073          	ecall
  a001c8:	00813083          	ld	ra,8(sp)
  a001cc:	00013403          	ld	s0,0(sp)
  a001d0:	01010113          	addi	sp,sp,16
  a001d4:	00008067          	ret

0000000000a001d8 <printChar>:
  a001d8:	ff010113          	addi	sp,sp,-16
  a001dc:	00813423          	sd	s0,8(sp)
  a001e0:	01010413          	addi	s0,sp,16
  a001e4:	00060713          	mv	a4,a2
  a001e8:	04c05c63          	blez	a2,a00240 <printChar+0x68>
  a001ec:	0007071b          	sext.w	a4,a4
  a001f0:	04069c63          	bnez	a3,a00248 <printChar+0x70>
  a001f4:	00100793          	li	a5,1
  a001f8:	02c7d663          	bge	a5,a2,a00224 <printChar+0x4c>
  a001fc:	00050793          	mv	a5,a0
  a00200:	00150693          	addi	a3,a0,1
  a00204:	ffe7061b          	addiw	a2,a4,-2
  a00208:	02061613          	slli	a2,a2,0x20
  a0020c:	02065613          	srli	a2,a2,0x20
  a00210:	00c686b3          	add	a3,a3,a2
  a00214:	02000613          	li	a2,32
  a00218:	00c78023          	sb	a2,0(a5)
  a0021c:	00178793          	addi	a5,a5,1
  a00220:	fed79ce3          	bne	a5,a3,a00218 <printChar+0x40>
  a00224:	00e507b3          	add	a5,a0,a4
  a00228:	feb78fa3          	sb	a1,-1(a5)
  a0022c:	00e50533          	add	a0,a0,a4
  a00230:	00050023          	sb	zero,0(a0)
  a00234:	00813403          	ld	s0,8(sp)
  a00238:	01010113          	addi	sp,sp,16
  a0023c:	00008067          	ret
  a00240:	00100713          	li	a4,1
  a00244:	fa9ff06f          	j	a001ec <printChar+0x14>
  a00248:	00b50023          	sb	a1,0(a0)
  a0024c:	00100793          	li	a5,1
  a00250:	fcc7dee3          	bge	a5,a2,a0022c <printChar+0x54>
  a00254:	02000613          	li	a2,32
  a00258:	00f506b3          	add	a3,a0,a5
  a0025c:	00c68023          	sb	a2,0(a3)
  a00260:	00178793          	addi	a5,a5,1
  a00264:	0007869b          	sext.w	a3,a5
  a00268:	fee6c8e3          	blt	a3,a4,a00258 <printChar+0x80>
  a0026c:	fc1ff06f          	j	a0022c <printChar+0x54>

0000000000a00270 <printString>:
  a00270:	ff010113          	addi	sp,sp,-16
  a00274:	00813423          	sd	s0,8(sp)
  a00278:	01010413          	addi	s0,sp,16
  a0027c:	0005c783          	lbu	a5,0(a1)
  a00280:	10078463          	beqz	a5,a00388 <printString+0x118>
  a00284:	00158713          	addi	a4,a1,1
  a00288:	00000793          	li	a5,0
  a0028c:	00078893          	mv	a7,a5
  a00290:	0017879b          	addiw	a5,a5,1
  a00294:	00170713          	addi	a4,a4,1
  a00298:	fff74803          	lbu	a6,-1(a4)
  a0029c:	fe0818e3          	bnez	a6,a0028c <printString+0x1c>
  a002a0:	00060713          	mv	a4,a2
  a002a4:	00f65463          	bge	a2,a5,a002ac <printString+0x3c>
  a002a8:	00078713          	mv	a4,a5
  a002ac:	0007081b          	sext.w	a6,a4
  a002b0:	06069063          	bnez	a3,a00310 <printString+0xa0>
  a002b4:	40f7073b          	subw	a4,a4,a5
  a002b8:	02e05663          	blez	a4,a002e4 <printString+0x74>
  a002bc:	00050693          	mv	a3,a0
  a002c0:	00150613          	addi	a2,a0,1
  a002c4:	fff7089b          	addiw	a7,a4,-1
  a002c8:	02089893          	slli	a7,a7,0x20
  a002cc:	0208d893          	srli	a7,a7,0x20
  a002d0:	01160633          	add	a2,a2,a7
  a002d4:	02000893          	li	a7,32
  a002d8:	01168023          	sb	a7,0(a3)
  a002dc:	00168693          	addi	a3,a3,1
  a002e0:	fec69ce3          	bne	a3,a2,a002d8 <printString+0x68>
  a002e4:	09075463          	bge	a4,a6,a0036c <printString+0xfc>
  a002e8:	410787b3          	sub	a5,a5,a6
  a002ec:	00e786b3          	add	a3,a5,a4
  a002f0:	00d586b3          	add	a3,a1,a3
  a002f4:	0006c603          	lbu	a2,0(a3)
  a002f8:	00e506b3          	add	a3,a0,a4
  a002fc:	00c68023          	sb	a2,0(a3)
  a00300:	00170713          	addi	a4,a4,1
  a00304:	0007069b          	sext.w	a3,a4
  a00308:	ff06c2e3          	blt	a3,a6,a002ec <printString+0x7c>
  a0030c:	0600006f          	j	a0036c <printString+0xfc>
  a00310:	02f05463          	blez	a5,a00338 <printString+0xc8>
  a00314:	00050613          	mv	a2,a0
  a00318:	00058713          	mv	a4,a1
  a0031c:	00074683          	lbu	a3,0(a4)
  a00320:	00d60023          	sb	a3,0(a2)
  a00324:	00170713          	addi	a4,a4,1
  a00328:	00160613          	addi	a2,a2,1
  a0032c:	40b706bb          	subw	a3,a4,a1
  a00330:	fff6869b          	addiw	a3,a3,-1
  a00334:	ff16c4e3          	blt	a3,a7,a0031c <printString+0xac>
  a00338:	0307da63          	bge	a5,a6,a0036c <printString+0xfc>
  a0033c:	00f50733          	add	a4,a0,a5
  a00340:	fff8069b          	addiw	a3,a6,-1
  a00344:	40f686bb          	subw	a3,a3,a5
  a00348:	02069693          	slli	a3,a3,0x20
  a0034c:	0206d693          	srli	a3,a3,0x20
  a00350:	00150613          	addi	a2,a0,1
  a00354:	00f607b3          	add	a5,a2,a5
  a00358:	00f687b3          	add	a5,a3,a5
  a0035c:	02000693          	li	a3,32
  a00360:	00d70023          	sb	a3,0(a4)
  a00364:	00170713          	addi	a4,a4,1
  a00368:	fef71ce3          	bne	a4,a5,a00360 <printString+0xf0>
  a0036c:	01050833          	add	a6,a0,a6
  a00370:	00080023          	sb	zero,0(a6)
  a00374:	00813403          	ld	s0,8(sp)
  a00378:	01010113          	addi	sp,sp,16
  a0037c:	00008067          	ret
  a00380:	00000793          	li	a5,0
  a00384:	fb5ff06f          	j	a00338 <printString+0xc8>
  a00388:	fff64813          	not	a6,a2
  a0038c:	43f85813          	srai	a6,a6,0x3f
  a00390:	00c87833          	and	a6,a6,a2
  a00394:	fe0696e3          	bnez	a3,a00380 <printString+0x110>
  a00398:	00080713          	mv	a4,a6
  a0039c:	00068793          	mv	a5,a3
  a003a0:	f0c04ee3          	bgtz	a2,a002bc <printString+0x4c>
  a003a4:	fc9ff06f          	j	a0036c <printString+0xfc>

0000000000a003a8 <printNum>:
  a003a8:	ff010113          	addi	sp,sp,-16
  a003ac:	00813423          	sd	s0,8(sp)
  a003b0:	01010413          	addi	s0,sp,16
  a003b4:	00150e13          	addi	t3,a0,1
  a003b8:	00060f93          	mv	t6,a2
  a003bc:	00900f13          	li	t5,9
  a003c0:	0280006f          	j	a003e8 <printNum+0x40>
  a003c4:	04088063          	beqz	a7,a00404 <printNum+0x5c>
  a003c8:	000e0e93          	mv	t4,t3
  a003cc:	0373031b          	addiw	t1,t1,55
  a003d0:	0ff37313          	zext.b	t1,t1
  a003d4:	fe6e0fa3          	sb	t1,-1(t3)
  a003d8:	02c5d333          	divu	t1,a1,a2
  a003dc:	001e0e13          	addi	t3,t3,1
  a003e0:	03f5ea63          	bltu	a1,t6,a00414 <printNum+0x6c>
  a003e4:	00030593          	mv	a1,t1
  a003e8:	02c5f333          	remu	t1,a1,a2
  a003ec:	00030e9b          	sext.w	t4,t1
  a003f0:	fddf4ae3          	blt	t5,t4,a003c4 <printNum+0x1c>
  a003f4:	000e0e93          	mv	t4,t3
  a003f8:	0303031b          	addiw	t1,t1,48
  a003fc:	0ff37313          	zext.b	t1,t1
  a00400:	fd5ff06f          	j	a003d4 <printNum+0x2c>
  a00404:	000e0e93          	mv	t4,t3
  a00408:	0573031b          	addiw	t1,t1,87
  a0040c:	0ff37313          	zext.b	t1,t1
  a00410:	fc5ff06f          	j	a003d4 <printNum+0x2c>
  a00414:	02068c63          	beqz	a3,a0044c <printNum+0xa4>
  a00418:	02d00613          	li	a2,45
  a0041c:	00ce8023          	sb	a2,0(t4)
  a00420:	001e8e93          	addi	t4,t4,1
  a00424:	40ae8eb3          	sub	t4,t4,a0
  a00428:	000e859b          	sext.w	a1,t4
  a0042c:	00058893          	mv	a7,a1
  a00430:	00e5d463          	bge	a1,a4,a00438 <printNum+0x90>
  a00434:	00070893          	mv	a7,a4
  a00438:	0008889b          	sext.w	a7,a7
  a0043c:	02079e63          	bnez	a5,a00478 <printNum+0xd0>
  a00440:	0a069663          	bnez	a3,a004ec <printNum+0x144>
  a00444:	0315ce63          	blt	a1,a7,a00480 <printNum+0xd8>
  a00448:	0f40006f          	j	a0053c <printNum+0x194>
  a0044c:	40ae8eb3          	sub	t4,t4,a0
  a00450:	000e859b          	sext.w	a1,t4
  a00454:	00058893          	mv	a7,a1
  a00458:	00e5d463          	bge	a1,a4,a00460 <printNum+0xb8>
  a0045c:	00070893          	mv	a7,a4
  a00460:	0008889b          	sext.w	a7,a7
  a00464:	fc078ee3          	beqz	a5,a00440 <printNum+0x98>
  a00468:	00069863          	bnez	a3,a00478 <printNum+0xd0>
  a0046c:	02000813          	li	a6,32
  a00470:	0115c863          	blt	a1,a7,a00480 <printNum+0xd8>
  a00474:	0280006f          	j	a0049c <printNum+0xf4>
  a00478:	02000813          	li	a6,32
  a0047c:	0315d063          	bge	a1,a7,a0049c <printNum+0xf4>
  a00480:	00058713          	mv	a4,a1
  a00484:	00e506b3          	add	a3,a0,a4
  a00488:	01068023          	sb	a6,0(a3)
  a0048c:	00170713          	addi	a4,a4,1
  a00490:	0007069b          	sext.w	a3,a4
  a00494:	ff16c8e3          	blt	a3,a7,a00484 <printNum+0xdc>
  a00498:	0a078263          	beqz	a5,a0053c <printNum+0x194>
  a0049c:	fff5859b          	addiw	a1,a1,-1
  a004a0:	02b05c63          	blez	a1,a004d8 <printNum+0x130>
  a004a4:	00050693          	mv	a3,a0
  a004a8:	00b50733          	add	a4,a0,a1
  a004ac:	00000613          	li	a2,0
  a004b0:	0006c783          	lbu	a5,0(a3)
  a004b4:	00074803          	lbu	a6,0(a4)
  a004b8:	01068023          	sb	a6,0(a3)
  a004bc:	00f70023          	sb	a5,0(a4)
  a004c0:	0016079b          	addiw	a5,a2,1
  a004c4:	0007861b          	sext.w	a2,a5
  a004c8:	00168693          	addi	a3,a3,1
  a004cc:	fff70713          	addi	a4,a4,-1
  a004d0:	40f587bb          	subw	a5,a1,a5
  a004d4:	fcf64ee3          	blt	a2,a5,a004b0 <printNum+0x108>
  a004d8:	011508b3          	add	a7,a0,a7
  a004dc:	00088023          	sb	zero,0(a7)
  a004e0:	00813403          	ld	s0,8(sp)
  a004e4:	01010113          	addi	sp,sp,16
  a004e8:	00008067          	ret
  a004ec:	03000713          	li	a4,48
  a004f0:	00e80663          	beq	a6,a4,a004fc <printNum+0x154>
  a004f4:	f915c6e3          	blt	a1,a7,a00480 <printNum+0xd8>
  a004f8:	0440006f          	j	a0053c <printNum+0x194>
  a004fc:	fff5871b          	addiw	a4,a1,-1
  a00500:	0315d863          	bge	a1,a7,a00530 <printNum+0x188>
  a00504:	00e50733          	add	a4,a0,a4
  a00508:	41d887bb          	subw	a5,a7,t4
  a0050c:	fff7879b          	addiw	a5,a5,-1
  a00510:	02079793          	slli	a5,a5,0x20
  a00514:	0207d793          	srli	a5,a5,0x20
  a00518:	00b505b3          	add	a1,a0,a1
  a0051c:	00b787b3          	add	a5,a5,a1
  a00520:	03000693          	li	a3,48
  a00524:	00d70023          	sb	a3,0(a4)
  a00528:	00170713          	addi	a4,a4,1
  a0052c:	fef71ce3          	bne	a4,a5,a00524 <printNum+0x17c>
  a00530:	011507b3          	add	a5,a0,a7
  a00534:	02d00713          	li	a4,45
  a00538:	fee78fa3          	sb	a4,-1(a5)
  a0053c:	fff8859b          	addiw	a1,a7,-1
  a00540:	f61ff06f          	j	a004a0 <printNum+0xf8>

0000000000a00544 <print>:
  a00544:	00054783          	lbu	a5,0(a0)
  a00548:	1a078ce3          	beqz	a5,a00f00 <print+0x9bc>
  a0054c:	f3010113          	addi	sp,sp,-208
  a00550:	0c113423          	sd	ra,200(sp)
  a00554:	0c813023          	sd	s0,192(sp)
  a00558:	0a913c23          	sd	s1,184(sp)
  a0055c:	0b213823          	sd	s2,176(sp)
  a00560:	0b313423          	sd	s3,168(sp)
  a00564:	0b413023          	sd	s4,160(sp)
  a00568:	09513c23          	sd	s5,152(sp)
  a0056c:	09613823          	sd	s6,144(sp)
  a00570:	09713423          	sd	s7,136(sp)
  a00574:	09813023          	sd	s8,128(sp)
  a00578:	0d010413          	addi	s0,sp,208
  a0057c:	00050913          	mv	s2,a0
  a00580:	00058a93          	mv	s5,a1
  a00584:	00050813          	mv	a6,a0
  a00588:	00000b93          	li	s7,0
  a0058c:	00002b17          	auipc	s6,0x2
  a00590:	a74b0b13          	addi	s6,s6,-1420 # a02000 <_etext>
  a00594:	00601497          	auipc	s1,0x601
  a00598:	c6c48493          	addi	s1,s1,-916 # 1001200 <bufferLen>
  a0059c:	00601997          	auipc	s3,0x601
  a005a0:	a6498993          	addi	s3,s3,-1436 # 1001000 <printfBuffer>
  a005a4:	08000a13          	li	s4,128
  a005a8:	0340006f          	j	a005dc <print+0x98>
  a005ac:	00084603          	lbu	a2,0(a6)
  a005b0:	0004a783          	lw	a5,0(s1)
  a005b4:	0017871b          	addiw	a4,a5,1
  a005b8:	0007069b          	sext.w	a3,a4
  a005bc:	00e4a023          	sw	a4,0(s1)
  a005c0:	00f987b3          	add	a5,s3,a5
  a005c4:	00c78023          	sb	a2,0(a5)
  a005c8:	07468e63          	beq	a3,s4,a00644 <print+0x100>
  a005cc:	001b8b9b          	addiw	s7,s7,1
  a005d0:	01790833          	add	a6,s2,s7
  a005d4:	00084783          	lbu	a5,0(a6)
  a005d8:	0e078ce3          	beqz	a5,a00ed0 <print+0x98c>
  a005dc:	02500713          	li	a4,37
  a005e0:	08e78663          	beq	a5,a4,a0066c <print+0x128>
  a005e4:	00a00713          	li	a4,10
  a005e8:	fce792e3          	bne	a5,a4,a005ac <print+0x68>
  a005ec:	0004a783          	lw	a5,0(s1)
  a005f0:	0017871b          	addiw	a4,a5,1
  a005f4:	0007069b          	sext.w	a3,a4
  a005f8:	00e4a023          	sw	a4,0(s1)
  a005fc:	00f987b3          	add	a5,s3,a5
  a00600:	00d00713          	li	a4,13
  a00604:	00e78023          	sb	a4,0(a5)
  a00608:	fb4692e3          	bne	a3,s4,a005ac <print+0x68>
  a0060c:	00098513          	mv	a0,s3
  a00610:	000a0593          	mv	a1,s4
  a00614:	00000613          	li	a2,0
  a00618:	00000693          	li	a3,0
  a0061c:	00000713          	li	a4,0
  a00620:	00000793          	li	a5,0
  a00624:	00500893          	li	a7,5
  a00628:	00000073          	ecall
  a0062c:	0004a023          	sw	zero,0(s1)
  a00630:	00084783          	lbu	a5,0(a6)
  a00634:	00100713          	li	a4,1
  a00638:	00e4a023          	sw	a4,0(s1)
  a0063c:	00f98023          	sb	a5,0(s3)
  a00640:	f8dff06f          	j	a005cc <print+0x88>
  a00644:	00098513          	mv	a0,s3
  a00648:	000a0593          	mv	a1,s4
  a0064c:	00000613          	li	a2,0
  a00650:	00000693          	li	a3,0
  a00654:	00000713          	li	a4,0
  a00658:	00000793          	li	a5,0
  a0065c:	00500893          	li	a7,5
  a00660:	00000073          	ecall
  a00664:	0004a023          	sw	zero,0(s1)
  a00668:	f65ff06f          	j	a005cc <print+0x88>
  a0066c:	001b831b          	addiw	t1,s7,1
  a00670:	006907b3          	add	a5,s2,t1
  a00674:	0007c503          	lbu	a0,0(a5)
  a00678:	02d00713          	li	a4,45
  a0067c:	00000793          	li	a5,0
  a00680:	08e50e63          	beq	a0,a4,a0071c <print+0x1d8>
  a00684:	03000713          	li	a4,48
  a00688:	02000813          	li	a6,32
  a0068c:	0ae50263          	beq	a0,a4,a00730 <print+0x1ec>
  a00690:	fd05071b          	addiw	a4,a0,-48
  a00694:	00900693          	li	a3,9
  a00698:	0ae6e663          	bltu	a3,a4,a00744 <print+0x200>
  a0069c:	0013059b          	addiw	a1,t1,1
  a006a0:	00000713          	li	a4,0
  a006a4:	00900e13          	li	t3,9
  a006a8:	0027189b          	slliw	a7,a4,0x2
  a006ac:	00e888bb          	addw	a7,a7,a4
  a006b0:	0018989b          	slliw	a7,a7,0x1
  a006b4:	00a888bb          	addw	a7,a7,a0
  a006b8:	fd08871b          	addiw	a4,a7,-48
  a006bc:	0005831b          	sext.w	t1,a1
  a006c0:	00b90633          	add	a2,s2,a1
  a006c4:	00064883          	lbu	a7,0(a2)
  a006c8:	0008851b          	sext.w	a0,a7
  a006cc:	00158593          	addi	a1,a1,1
  a006d0:	fd08889b          	addiw	a7,a7,-48
  a006d4:	fd1e7ae3          	bgeu	t3,a7,a006a8 <print+0x164>
  a006d8:	02e00693          	li	a3,46
  a006dc:	06d50863          	beq	a0,a3,a0074c <print+0x208>
  a006e0:	06c00693          	li	a3,108
  a006e4:	0ad50863          	beq	a0,a3,a00794 <print+0x250>
  a006e8:	7a050663          	beqz	a0,a00e94 <print+0x950>
  a006ec:	fbc5069b          	addiw	a3,a0,-68
  a006f0:	03400613          	li	a2,52
  a006f4:	7ad66663          	bltu	a2,a3,a00ea0 <print+0x95c>
  a006f8:	fbc5069b          	addiw	a3,a0,-68
  a006fc:	0006859b          	sext.w	a1,a3
  a00700:	7ab66063          	bltu	a2,a1,a00ea0 <print+0x95c>
  a00704:	02069613          	slli	a2,a3,0x20
  a00708:	01e65693          	srli	a3,a2,0x1e
  a0070c:	016686b3          	add	a3,a3,s6
  a00710:	0006a683          	lw	a3,0(a3)
  a00714:	016686b3          	add	a3,a3,s6
  a00718:	00068067          	jr	a3
  a0071c:	002b831b          	addiw	t1,s7,2
  a00720:	006907b3          	add	a5,s2,t1
  a00724:	0007c503          	lbu	a0,0(a5)
  a00728:	00100793          	li	a5,1
  a0072c:	f59ff06f          	j	a00684 <print+0x140>
  a00730:	0013031b          	addiw	t1,t1,1
  a00734:	00690733          	add	a4,s2,t1
  a00738:	00074503          	lbu	a0,0(a4)
  a0073c:	03000813          	li	a6,48
  a00740:	f51ff06f          	j	a00690 <print+0x14c>
  a00744:	00000713          	li	a4,0
  a00748:	f91ff06f          	j	a006d8 <print+0x194>
  a0074c:	0013069b          	addiw	a3,t1,1
  a00750:	00d90633          	add	a2,s2,a3
  a00754:	00064503          	lbu	a0,0(a2)
  a00758:	fd050e1b          	addiw	t3,a0,-48
  a0075c:	00900893          	li	a7,9
  a00760:	0023061b          	addiw	a2,t1,2
  a00764:	00900593          	li	a1,9
  a00768:	0005051b          	sext.w	a0,a0
  a0076c:	00068313          	mv	t1,a3
  a00770:	f7c8e8e3          	bltu	a7,t3,a006e0 <print+0x19c>
  a00774:	0006031b          	sext.w	t1,a2
  a00778:	00c906b3          	add	a3,s2,a2
  a0077c:	0006c503          	lbu	a0,0(a3)
  a00780:	00160613          	addi	a2,a2,1
  a00784:	fd05069b          	addiw	a3,a0,-48
  a00788:	fed5f6e3          	bgeu	a1,a3,a00774 <print+0x230>
  a0078c:	0005051b          	sext.w	a0,a0
  a00790:	f51ff06f          	j	a006e0 <print+0x19c>
  a00794:	0013031b          	addiw	t1,t1,1
  a00798:	006906b3          	add	a3,s2,t1
  a0079c:	0006c503          	lbu	a0,0(a3)
  a007a0:	6e050a63          	beqz	a0,a00e94 <print+0x950>
  a007a4:	fbc5069b          	addiw	a3,a0,-68
  a007a8:	0ff6f693          	zext.b	a3,a3
  a007ac:	03400613          	li	a2,52
  a007b0:	6ed66663          	bltu	a2,a3,a00e9c <print+0x958>
  a007b4:	fbc5069b          	addiw	a3,a0,-68
  a007b8:	0ff6f593          	zext.b	a1,a3
  a007bc:	6eb66063          	bltu	a2,a1,a00e9c <print+0x958>
  a007c0:	00259693          	slli	a3,a1,0x2
  a007c4:	00002617          	auipc	a2,0x2
  a007c8:	91060613          	addi	a2,a2,-1776 # a020d4 <_etext+0xd4>
  a007cc:	00c686b3          	add	a3,a3,a2
  a007d0:	0006a683          	lw	a3,0(a3)
  a007d4:	00c686b3          	add	a3,a3,a2
  a007d8:	00068067          	jr	a3
  a007dc:	00030b93          	mv	s7,t1
  a007e0:	0080006f          	j	a007e8 <print+0x2a4>
  a007e4:	00030b93          	mv	s7,t1
  a007e8:	008a8c13          	addi	s8,s5,8
  a007ec:	000aca83          	lbu	s5,0(s5)
  a007f0:	00078693          	mv	a3,a5
  a007f4:	00070613          	mv	a2,a4
  a007f8:	000a8593          	mv	a1,s5
  a007fc:	f3040513          	addi	a0,s0,-208
  a00800:	00000097          	auipc	ra,0x0
  a00804:	9d8080e7          	jalr	-1576(ra) # a001d8 <printChar>
  a00808:	0004a783          	lw	a5,0(s1)
  a0080c:	0017871b          	addiw	a4,a5,1
  a00810:	0007069b          	sext.w	a3,a4
  a00814:	00e4a023          	sw	a4,0(s1)
  a00818:	00f987b3          	add	a5,s3,a5
  a0081c:	01578023          	sb	s5,0(a5)
  a00820:	000c0a93          	mv	s5,s8
  a00824:	db4694e3          	bne	a3,s4,a005cc <print+0x88>
  a00828:	00098513          	mv	a0,s3
  a0082c:	000a0593          	mv	a1,s4
  a00830:	00000613          	li	a2,0
  a00834:	00000693          	li	a3,0
  a00838:	00000713          	li	a4,0
  a0083c:	00000793          	li	a5,0
  a00840:	00500893          	li	a7,5
  a00844:	00000073          	ecall
  a00848:	0004a023          	sw	zero,0(s1)
  a0084c:	d81ff06f          	j	a005cc <print+0x88>
  a00850:	000ab583          	ld	a1,0(s5)
  a00854:	00030b93          	mv	s7,t1
  a00858:	008a8a93          	addi	s5,s5,8
  a0085c:	00000693          	li	a3,0
  a00860:	0405c263          	bltz	a1,a008a4 <print+0x360>
  a00864:	00000893          	li	a7,0
  a00868:	00a00613          	li	a2,10
  a0086c:	f3040513          	addi	a0,s0,-208
  a00870:	00000097          	auipc	ra,0x0
  a00874:	b38080e7          	jalr	-1224(ra) # a003a8 <printNum>
  a00878:	f3044783          	lbu	a5,-208(s0)
  a0087c:	d40788e3          	beqz	a5,a005cc <print+0x88>
  a00880:	f3140813          	addi	a6,s0,-207
  a00884:	00a00e13          	li	t3,10
  a00888:	00d00e93          	li	t4,13
  a0088c:	00100f13          	li	t5,1
  a00890:	0500006f          	j	a008e0 <print+0x39c>
  a00894:	000aa583          	lw	a1,0(s5)
  a00898:	00030b93          	mv	s7,t1
  a0089c:	008a8a93          	addi	s5,s5,8
  a008a0:	fbdff06f          	j	a0085c <print+0x318>
  a008a4:	40b005b3          	neg	a1,a1
  a008a8:	00100693          	li	a3,1
  a008ac:	fb9ff06f          	j	a00864 <print+0x320>
  a008b0:	00080313          	mv	t1,a6
  a008b4:	fff84603          	lbu	a2,-1(a6)
  a008b8:	0004a783          	lw	a5,0(s1)
  a008bc:	0017871b          	addiw	a4,a5,1
  a008c0:	0007069b          	sext.w	a3,a4
  a008c4:	00e4a023          	sw	a4,0(s1)
  a008c8:	00f987b3          	add	a5,s3,a5
  a008cc:	00c78023          	sb	a2,0(a5)
  a008d0:	07468263          	beq	a3,s4,a00934 <print+0x3f0>
  a008d4:	00034783          	lbu	a5,0(t1)
  a008d8:	00180813          	addi	a6,a6,1
  a008dc:	ce0788e3          	beqz	a5,a005cc <print+0x88>
  a008e0:	fdc798e3          	bne	a5,t3,a008b0 <print+0x36c>
  a008e4:	0004a783          	lw	a5,0(s1)
  a008e8:	0017871b          	addiw	a4,a5,1
  a008ec:	0007069b          	sext.w	a3,a4
  a008f0:	00e4a023          	sw	a4,0(s1)
  a008f4:	00f987b3          	add	a5,s3,a5
  a008f8:	01d78023          	sb	t4,0(a5)
  a008fc:	fb469ae3          	bne	a3,s4,a008b0 <print+0x36c>
  a00900:	00098513          	mv	a0,s3
  a00904:	000a0593          	mv	a1,s4
  a00908:	00000613          	li	a2,0
  a0090c:	00000693          	li	a3,0
  a00910:	00000713          	li	a4,0
  a00914:	00000793          	li	a5,0
  a00918:	00500893          	li	a7,5
  a0091c:	00000073          	ecall
  a00920:	00080313          	mv	t1,a6
  a00924:	fff84783          	lbu	a5,-1(a6)
  a00928:	01e4a023          	sw	t5,0(s1)
  a0092c:	00f98023          	sb	a5,0(s3)
  a00930:	fa5ff06f          	j	a008d4 <print+0x390>
  a00934:	00098513          	mv	a0,s3
  a00938:	000a0593          	mv	a1,s4
  a0093c:	00000613          	li	a2,0
  a00940:	00000693          	li	a3,0
  a00944:	00000713          	li	a4,0
  a00948:	00000793          	li	a5,0
  a0094c:	00500893          	li	a7,5
  a00950:	00000073          	ecall
  a00954:	0004a023          	sw	zero,0(s1)
  a00958:	f7dff06f          	j	a008d4 <print+0x390>
  a0095c:	00030b93          	mv	s7,t1
  a00960:	00100693          	li	a3,1
  a00964:	00c0006f          	j	a00970 <print+0x42c>
  a00968:	00030b93          	mv	s7,t1
  a0096c:	00000693          	li	a3,0
  a00970:	04068063          	beqz	a3,a009b0 <print+0x46c>
  a00974:	000ab583          	ld	a1,0(s5)
  a00978:	008a8a93          	addi	s5,s5,8
  a0097c:	00000893          	li	a7,0
  a00980:	00000693          	li	a3,0
  a00984:	00800613          	li	a2,8
  a00988:	f3040513          	addi	a0,s0,-208
  a0098c:	00000097          	auipc	ra,0x0
  a00990:	a1c080e7          	jalr	-1508(ra) # a003a8 <printNum>
  a00994:	f3044783          	lbu	a5,-208(s0)
  a00998:	c2078ae3          	beqz	a5,a005cc <print+0x88>
  a0099c:	f3140813          	addi	a6,s0,-207
  a009a0:	00a00e13          	li	t3,10
  a009a4:	00d00e93          	li	t4,13
  a009a8:	00100f13          	li	t5,1
  a009ac:	0400006f          	j	a009ec <print+0x4a8>
  a009b0:	000aa583          	lw	a1,0(s5)
  a009b4:	008a8a93          	addi	s5,s5,8
  a009b8:	fc5ff06f          	j	a0097c <print+0x438>
  a009bc:	00080313          	mv	t1,a6
  a009c0:	fff84603          	lbu	a2,-1(a6)
  a009c4:	0004a783          	lw	a5,0(s1)
  a009c8:	0017871b          	addiw	a4,a5,1
  a009cc:	0007069b          	sext.w	a3,a4
  a009d0:	00e4a023          	sw	a4,0(s1)
  a009d4:	00f987b3          	add	a5,s3,a5
  a009d8:	00c78023          	sb	a2,0(a5)
  a009dc:	07468263          	beq	a3,s4,a00a40 <print+0x4fc>
  a009e0:	00034783          	lbu	a5,0(t1)
  a009e4:	00180813          	addi	a6,a6,1
  a009e8:	be0782e3          	beqz	a5,a005cc <print+0x88>
  a009ec:	fdc798e3          	bne	a5,t3,a009bc <print+0x478>
  a009f0:	0004a783          	lw	a5,0(s1)
  a009f4:	0017871b          	addiw	a4,a5,1
  a009f8:	0007069b          	sext.w	a3,a4
  a009fc:	00e4a023          	sw	a4,0(s1)
  a00a00:	00f987b3          	add	a5,s3,a5
  a00a04:	01d78023          	sb	t4,0(a5)
  a00a08:	fb469ae3          	bne	a3,s4,a009bc <print+0x478>
  a00a0c:	00098513          	mv	a0,s3
  a00a10:	000a0593          	mv	a1,s4
  a00a14:	00000613          	li	a2,0
  a00a18:	00000693          	li	a3,0
  a00a1c:	00000713          	li	a4,0
  a00a20:	00000793          	li	a5,0
  a00a24:	00500893          	li	a7,5
  a00a28:	00000073          	ecall
  a00a2c:	00080313          	mv	t1,a6
  a00a30:	fff84783          	lbu	a5,-1(a6)
  a00a34:	01e4a023          	sw	t5,0(s1)
  a00a38:	00f98023          	sb	a5,0(s3)
  a00a3c:	fa5ff06f          	j	a009e0 <print+0x49c>
  a00a40:	00098513          	mv	a0,s3
  a00a44:	000a0593          	mv	a1,s4
  a00a48:	00000613          	li	a2,0
  a00a4c:	00000693          	li	a3,0
  a00a50:	00000713          	li	a4,0
  a00a54:	00000793          	li	a5,0
  a00a58:	00500893          	li	a7,5
  a00a5c:	00000073          	ecall
  a00a60:	0004a023          	sw	zero,0(s1)
  a00a64:	f7dff06f          	j	a009e0 <print+0x49c>
  a00a68:	00030b93          	mv	s7,t1
  a00a6c:	00100693          	li	a3,1
  a00a70:	00c0006f          	j	a00a7c <print+0x538>
  a00a74:	00030b93          	mv	s7,t1
  a00a78:	00000693          	li	a3,0
  a00a7c:	04068063          	beqz	a3,a00abc <print+0x578>
  a00a80:	000ab583          	ld	a1,0(s5)
  a00a84:	008a8a93          	addi	s5,s5,8
  a00a88:	00000893          	li	a7,0
  a00a8c:	00000693          	li	a3,0
  a00a90:	00a00613          	li	a2,10
  a00a94:	f3040513          	addi	a0,s0,-208
  a00a98:	00000097          	auipc	ra,0x0
  a00a9c:	910080e7          	jalr	-1776(ra) # a003a8 <printNum>
  a00aa0:	f3044783          	lbu	a5,-208(s0)
  a00aa4:	b20784e3          	beqz	a5,a005cc <print+0x88>
  a00aa8:	f3140813          	addi	a6,s0,-207
  a00aac:	00a00e13          	li	t3,10
  a00ab0:	00d00e93          	li	t4,13
  a00ab4:	00100f13          	li	t5,1
  a00ab8:	0400006f          	j	a00af8 <print+0x5b4>
  a00abc:	000aa583          	lw	a1,0(s5)
  a00ac0:	008a8a93          	addi	s5,s5,8
  a00ac4:	fc5ff06f          	j	a00a88 <print+0x544>
  a00ac8:	00080313          	mv	t1,a6
  a00acc:	fff84603          	lbu	a2,-1(a6)
  a00ad0:	0004a783          	lw	a5,0(s1)
  a00ad4:	0017871b          	addiw	a4,a5,1
  a00ad8:	0007069b          	sext.w	a3,a4
  a00adc:	00e4a023          	sw	a4,0(s1)
  a00ae0:	00f987b3          	add	a5,s3,a5
  a00ae4:	00c78023          	sb	a2,0(a5)
  a00ae8:	07468263          	beq	a3,s4,a00b4c <print+0x608>
  a00aec:	00034783          	lbu	a5,0(t1)
  a00af0:	00180813          	addi	a6,a6,1
  a00af4:	ac078ce3          	beqz	a5,a005cc <print+0x88>
  a00af8:	fdc798e3          	bne	a5,t3,a00ac8 <print+0x584>
  a00afc:	0004a783          	lw	a5,0(s1)
  a00b00:	0017871b          	addiw	a4,a5,1
  a00b04:	0007069b          	sext.w	a3,a4
  a00b08:	00e4a023          	sw	a4,0(s1)
  a00b0c:	00f987b3          	add	a5,s3,a5
  a00b10:	01d78023          	sb	t4,0(a5)
  a00b14:	fb469ae3          	bne	a3,s4,a00ac8 <print+0x584>
  a00b18:	00098513          	mv	a0,s3
  a00b1c:	000a0593          	mv	a1,s4
  a00b20:	00000613          	li	a2,0
  a00b24:	00000693          	li	a3,0
  a00b28:	00000713          	li	a4,0
  a00b2c:	00000793          	li	a5,0
  a00b30:	00500893          	li	a7,5
  a00b34:	00000073          	ecall
  a00b38:	00080313          	mv	t1,a6
  a00b3c:	fff84783          	lbu	a5,-1(a6)
  a00b40:	01e4a023          	sw	t5,0(s1)
  a00b44:	00f98023          	sb	a5,0(s3)
  a00b48:	fa5ff06f          	j	a00aec <print+0x5a8>
  a00b4c:	00098513          	mv	a0,s3
  a00b50:	000a0593          	mv	a1,s4
  a00b54:	00000613          	li	a2,0
  a00b58:	00000693          	li	a3,0
  a00b5c:	00000713          	li	a4,0
  a00b60:	00000793          	li	a5,0
  a00b64:	00500893          	li	a7,5
  a00b68:	00000073          	ecall
  a00b6c:	0004a023          	sw	zero,0(s1)
  a00b70:	f7dff06f          	j	a00aec <print+0x5a8>
  a00b74:	00030b93          	mv	s7,t1
  a00b78:	00100693          	li	a3,1
  a00b7c:	00c0006f          	j	a00b88 <print+0x644>
  a00b80:	00030b93          	mv	s7,t1
  a00b84:	00000693          	li	a3,0
  a00b88:	04068063          	beqz	a3,a00bc8 <print+0x684>
  a00b8c:	000ab583          	ld	a1,0(s5)
  a00b90:	008a8a93          	addi	s5,s5,8
  a00b94:	00000893          	li	a7,0
  a00b98:	00000693          	li	a3,0
  a00b9c:	01000613          	li	a2,16
  a00ba0:	f3040513          	addi	a0,s0,-208
  a00ba4:	00000097          	auipc	ra,0x0
  a00ba8:	804080e7          	jalr	-2044(ra) # a003a8 <printNum>
  a00bac:	f3044783          	lbu	a5,-208(s0)
  a00bb0:	a0078ee3          	beqz	a5,a005cc <print+0x88>
  a00bb4:	f3140813          	addi	a6,s0,-207
  a00bb8:	00a00e13          	li	t3,10
  a00bbc:	00d00e93          	li	t4,13
  a00bc0:	00100f13          	li	t5,1
  a00bc4:	0400006f          	j	a00c04 <print+0x6c0>
  a00bc8:	000aa583          	lw	a1,0(s5)
  a00bcc:	008a8a93          	addi	s5,s5,8
  a00bd0:	fc5ff06f          	j	a00b94 <print+0x650>
  a00bd4:	00080313          	mv	t1,a6
  a00bd8:	fff84603          	lbu	a2,-1(a6)
  a00bdc:	0004a783          	lw	a5,0(s1)
  a00be0:	0017871b          	addiw	a4,a5,1
  a00be4:	0007069b          	sext.w	a3,a4
  a00be8:	00e4a023          	sw	a4,0(s1)
  a00bec:	00f987b3          	add	a5,s3,a5
  a00bf0:	00c78023          	sb	a2,0(a5)
  a00bf4:	07468263          	beq	a3,s4,a00c58 <print+0x714>
  a00bf8:	00034783          	lbu	a5,0(t1)
  a00bfc:	00180813          	addi	a6,a6,1
  a00c00:	9c0786e3          	beqz	a5,a005cc <print+0x88>
  a00c04:	fdc798e3          	bne	a5,t3,a00bd4 <print+0x690>
  a00c08:	0004a783          	lw	a5,0(s1)
  a00c0c:	0017871b          	addiw	a4,a5,1
  a00c10:	0007069b          	sext.w	a3,a4
  a00c14:	00e4a023          	sw	a4,0(s1)
  a00c18:	00f987b3          	add	a5,s3,a5
  a00c1c:	01d78023          	sb	t4,0(a5)
  a00c20:	fb469ae3          	bne	a3,s4,a00bd4 <print+0x690>
  a00c24:	00098513          	mv	a0,s3
  a00c28:	000a0593          	mv	a1,s4
  a00c2c:	00000613          	li	a2,0
  a00c30:	00000693          	li	a3,0
  a00c34:	00000713          	li	a4,0
  a00c38:	00000793          	li	a5,0
  a00c3c:	00500893          	li	a7,5
  a00c40:	00000073          	ecall
  a00c44:	00080313          	mv	t1,a6
  a00c48:	fff84783          	lbu	a5,-1(a6)
  a00c4c:	01e4a023          	sw	t5,0(s1)
  a00c50:	00f98023          	sb	a5,0(s3)
  a00c54:	fa5ff06f          	j	a00bf8 <print+0x6b4>
  a00c58:	00098513          	mv	a0,s3
  a00c5c:	000a0593          	mv	a1,s4
  a00c60:	00000613          	li	a2,0
  a00c64:	00000693          	li	a3,0
  a00c68:	00000713          	li	a4,0
  a00c6c:	00000793          	li	a5,0
  a00c70:	00500893          	li	a7,5
  a00c74:	00000073          	ecall
  a00c78:	0004a023          	sw	zero,0(s1)
  a00c7c:	f7dff06f          	j	a00bf8 <print+0x6b4>
  a00c80:	00030b93          	mv	s7,t1
  a00c84:	00100693          	li	a3,1
  a00c88:	00c0006f          	j	a00c94 <print+0x750>
  a00c8c:	00030b93          	mv	s7,t1
  a00c90:	00000693          	li	a3,0
  a00c94:	04068063          	beqz	a3,a00cd4 <print+0x790>
  a00c98:	000ab583          	ld	a1,0(s5)
  a00c9c:	008a8a93          	addi	s5,s5,8
  a00ca0:	00100893          	li	a7,1
  a00ca4:	00000693          	li	a3,0
  a00ca8:	01000613          	li	a2,16
  a00cac:	f3040513          	addi	a0,s0,-208
  a00cb0:	fffff097          	auipc	ra,0xfffff
  a00cb4:	6f8080e7          	jalr	1784(ra) # a003a8 <printNum>
  a00cb8:	f3044783          	lbu	a5,-208(s0)
  a00cbc:	900788e3          	beqz	a5,a005cc <print+0x88>
  a00cc0:	f3140813          	addi	a6,s0,-207
  a00cc4:	00a00e13          	li	t3,10
  a00cc8:	00d00e93          	li	t4,13
  a00ccc:	00100f13          	li	t5,1
  a00cd0:	0400006f          	j	a00d10 <print+0x7cc>
  a00cd4:	000aa583          	lw	a1,0(s5)
  a00cd8:	008a8a93          	addi	s5,s5,8
  a00cdc:	fc5ff06f          	j	a00ca0 <print+0x75c>
  a00ce0:	00080313          	mv	t1,a6
  a00ce4:	fff84603          	lbu	a2,-1(a6)
  a00ce8:	0004a783          	lw	a5,0(s1)
  a00cec:	0017871b          	addiw	a4,a5,1
  a00cf0:	0007069b          	sext.w	a3,a4
  a00cf4:	00e4a023          	sw	a4,0(s1)
  a00cf8:	00f987b3          	add	a5,s3,a5
  a00cfc:	00c78023          	sb	a2,0(a5)
  a00d00:	07468263          	beq	a3,s4,a00d64 <print+0x820>
  a00d04:	00034783          	lbu	a5,0(t1)
  a00d08:	00180813          	addi	a6,a6,1
  a00d0c:	8c0780e3          	beqz	a5,a005cc <print+0x88>
  a00d10:	fdc798e3          	bne	a5,t3,a00ce0 <print+0x79c>
  a00d14:	0004a783          	lw	a5,0(s1)
  a00d18:	0017871b          	addiw	a4,a5,1
  a00d1c:	0007069b          	sext.w	a3,a4
  a00d20:	00e4a023          	sw	a4,0(s1)
  a00d24:	00f987b3          	add	a5,s3,a5
  a00d28:	01d78023          	sb	t4,0(a5)
  a00d2c:	fb469ae3          	bne	a3,s4,a00ce0 <print+0x79c>
  a00d30:	00098513          	mv	a0,s3
  a00d34:	000a0593          	mv	a1,s4
  a00d38:	00000613          	li	a2,0
  a00d3c:	00000693          	li	a3,0
  a00d40:	00000713          	li	a4,0
  a00d44:	00000793          	li	a5,0
  a00d48:	00500893          	li	a7,5
  a00d4c:	00000073          	ecall
  a00d50:	00080313          	mv	t1,a6
  a00d54:	fff84783          	lbu	a5,-1(a6)
  a00d58:	01e4a023          	sw	t5,0(s1)
  a00d5c:	00f98023          	sb	a5,0(s3)
  a00d60:	fa5ff06f          	j	a00d04 <print+0x7c0>
  a00d64:	00098513          	mv	a0,s3
  a00d68:	000a0593          	mv	a1,s4
  a00d6c:	00000613          	li	a2,0
  a00d70:	00000693          	li	a3,0
  a00d74:	00000713          	li	a4,0
  a00d78:	00000793          	li	a5,0
  a00d7c:	00500893          	li	a7,5
  a00d80:	00000073          	ecall
  a00d84:	0004a023          	sw	zero,0(s1)
  a00d88:	f7dff06f          	j	a00d04 <print+0x7c0>
  a00d8c:	00030b93          	mv	s7,t1
  a00d90:	0080006f          	j	a00d98 <print+0x854>
  a00d94:	00030b93          	mv	s7,t1
  a00d98:	008a8c13          	addi	s8,s5,8
  a00d9c:	000ab583          	ld	a1,0(s5)
  a00da0:	02058a63          	beqz	a1,a00dd4 <print+0x890>
  a00da4:	00078693          	mv	a3,a5
  a00da8:	00070613          	mv	a2,a4
  a00dac:	f3040513          	addi	a0,s0,-208
  a00db0:	fffff097          	auipc	ra,0xfffff
  a00db4:	4c0080e7          	jalr	1216(ra) # a00270 <printString>
  a00db8:	f3044783          	lbu	a5,-208(s0)
  a00dbc:	10078663          	beqz	a5,a00ec8 <print+0x984>
  a00dc0:	f3140813          	addi	a6,s0,-207
  a00dc4:	00a00e13          	li	t3,10
  a00dc8:	00d00e93          	li	t4,13
  a00dcc:	00100f13          	li	t5,1
  a00dd0:	0400006f          	j	a00e10 <print+0x8cc>
  a00dd4:	00001597          	auipc	a1,0x1
  a00dd8:	45458593          	addi	a1,a1,1108 # a02228 <_etext+0x228>
  a00ddc:	fc9ff06f          	j	a00da4 <print+0x860>
  a00de0:	00080313          	mv	t1,a6
  a00de4:	fff84603          	lbu	a2,-1(a6)
  a00de8:	0004a783          	lw	a5,0(s1)
  a00dec:	0017871b          	addiw	a4,a5,1
  a00df0:	0007069b          	sext.w	a3,a4
  a00df4:	00e4a023          	sw	a4,0(s1)
  a00df8:	00f987b3          	add	a5,s3,a5
  a00dfc:	00c78023          	sb	a2,0(a5)
  a00e00:	07468263          	beq	a3,s4,a00e64 <print+0x920>
  a00e04:	00034783          	lbu	a5,0(t1)
  a00e08:	00180813          	addi	a6,a6,1
  a00e0c:	08078063          	beqz	a5,a00e8c <print+0x948>
  a00e10:	fdc798e3          	bne	a5,t3,a00de0 <print+0x89c>
  a00e14:	0004a783          	lw	a5,0(s1)
  a00e18:	0017871b          	addiw	a4,a5,1
  a00e1c:	0007069b          	sext.w	a3,a4
  a00e20:	00e4a023          	sw	a4,0(s1)
  a00e24:	00f987b3          	add	a5,s3,a5
  a00e28:	01d78023          	sb	t4,0(a5)
  a00e2c:	fb469ae3          	bne	a3,s4,a00de0 <print+0x89c>
  a00e30:	00098513          	mv	a0,s3
  a00e34:	000a0593          	mv	a1,s4
  a00e38:	00000613          	li	a2,0
  a00e3c:	00000693          	li	a3,0
  a00e40:	00000713          	li	a4,0
  a00e44:	00000793          	li	a5,0
  a00e48:	00500893          	li	a7,5
  a00e4c:	00000073          	ecall
  a00e50:	00080313          	mv	t1,a6
  a00e54:	fff84783          	lbu	a5,-1(a6)
  a00e58:	01e4a023          	sw	t5,0(s1)
  a00e5c:	00f98023          	sb	a5,0(s3)
  a00e60:	fa5ff06f          	j	a00e04 <print+0x8c0>
  a00e64:	00098513          	mv	a0,s3
  a00e68:	000a0593          	mv	a1,s4
  a00e6c:	00000613          	li	a2,0
  a00e70:	00000693          	li	a3,0
  a00e74:	00000713          	li	a4,0
  a00e78:	00000793          	li	a5,0
  a00e7c:	00500893          	li	a7,5
  a00e80:	00000073          	ecall
  a00e84:	0004a023          	sw	zero,0(s1)
  a00e88:	f7dff06f          	j	a00e04 <print+0x8c0>
  a00e8c:	000c0a93          	mv	s5,s8
  a00e90:	f3cff06f          	j	a005cc <print+0x88>
  a00e94:	fff30b9b          	addiw	s7,t1,-1
  a00e98:	f34ff06f          	j	a005cc <print+0x88>
  a00e9c:	0005051b          	sext.w	a0,a0
  a00ea0:	0ff57513          	zext.b	a0,a0
  a00ea4:	00000593          	li	a1,0
  a00ea8:	00000613          	li	a2,0
  a00eac:	00000693          	li	a3,0
  a00eb0:	00000713          	li	a4,0
  a00eb4:	00000793          	li	a5,0
  a00eb8:	00400893          	li	a7,4
  a00ebc:	00000073          	ecall
  a00ec0:	00030b93          	mv	s7,t1
  a00ec4:	f08ff06f          	j	a005cc <print+0x88>
  a00ec8:	000c0a93          	mv	s5,s8
  a00ecc:	f00ff06f          	j	a005cc <print+0x88>
  a00ed0:	0c813083          	ld	ra,200(sp)
  a00ed4:	0c013403          	ld	s0,192(sp)
  a00ed8:	0b813483          	ld	s1,184(sp)
  a00edc:	0b013903          	ld	s2,176(sp)
  a00ee0:	0a813983          	ld	s3,168(sp)
  a00ee4:	0a013a03          	ld	s4,160(sp)
  a00ee8:	09813a83          	ld	s5,152(sp)
  a00eec:	09013b03          	ld	s6,144(sp)
  a00ef0:	08813b83          	ld	s7,136(sp)
  a00ef4:	08013c03          	ld	s8,128(sp)
  a00ef8:	0d010113          	addi	sp,sp,208
  a00efc:	00008067          	ret
  a00f00:	00008067          	ret

0000000000a00f04 <printf>:
  a00f04:	fa010113          	addi	sp,sp,-96
  a00f08:	00113c23          	sd	ra,24(sp)
  a00f0c:	00813823          	sd	s0,16(sp)
  a00f10:	02010413          	addi	s0,sp,32
  a00f14:	00b43423          	sd	a1,8(s0)
  a00f18:	00c43823          	sd	a2,16(s0)
  a00f1c:	00d43c23          	sd	a3,24(s0)
  a00f20:	02e43023          	sd	a4,32(s0)
  a00f24:	02f43423          	sd	a5,40(s0)
  a00f28:	03043823          	sd	a6,48(s0)
  a00f2c:	03143c23          	sd	a7,56(s0)
  a00f30:	00840593          	addi	a1,s0,8
  a00f34:	feb43423          	sd	a1,-24(s0)
  a00f38:	fffff097          	auipc	ra,0xfffff
  a00f3c:	60c080e7          	jalr	1548(ra) # a00544 <print>
  a00f40:	00600597          	auipc	a1,0x600
  a00f44:	2c05a583          	lw	a1,704(a1) # 1001200 <bufferLen>
  a00f48:	02b05663          	blez	a1,a00f74 <printf+0x70>
  a00f4c:	00600517          	auipc	a0,0x600
  a00f50:	0b450513          	addi	a0,a0,180 # 1001000 <printfBuffer>
  a00f54:	00000613          	li	a2,0
  a00f58:	00000693          	li	a3,0
  a00f5c:	00000713          	li	a4,0
  a00f60:	00000793          	li	a5,0
  a00f64:	00500893          	li	a7,5
  a00f68:	00000073          	ecall
  a00f6c:	00600797          	auipc	a5,0x600
  a00f70:	2807aa23          	sw	zero,660(a5) # 1001200 <bufferLen>
  a00f74:	01813083          	ld	ra,24(sp)
  a00f78:	01013403          	ld	s0,16(sp)
  a00f7c:	06010113          	addi	sp,sp,96
  a00f80:	00008067          	ret

0000000000a00f84 <_panic_>:
  a00f84:	fa010113          	addi	sp,sp,-96
  a00f88:	02113423          	sd	ra,40(sp)
  a00f8c:	02813023          	sd	s0,32(sp)
  a00f90:	00913c23          	sd	s1,24(sp)
  a00f94:	03010413          	addi	s0,sp,48
  a00f98:	00060493          	mv	s1,a2
  a00f9c:	00d43423          	sd	a3,8(s0)
  a00fa0:	00e43823          	sd	a4,16(s0)
  a00fa4:	00f43c23          	sd	a5,24(s0)
  a00fa8:	03043023          	sd	a6,32(s0)
  a00fac:	03143423          	sd	a7,40(s0)
  a00fb0:	00058613          	mv	a2,a1
  a00fb4:	00050593          	mv	a1,a0
  a00fb8:	00001517          	auipc	a0,0x1
  a00fbc:	27850513          	addi	a0,a0,632 # a02230 <_etext+0x230>
  a00fc0:	00000097          	auipc	ra,0x0
  a00fc4:	f44080e7          	jalr	-188(ra) # a00f04 <printf>
  a00fc8:	00840593          	addi	a1,s0,8
  a00fcc:	fcb43c23          	sd	a1,-40(s0)
  a00fd0:	00048513          	mv	a0,s1
  a00fd4:	fffff097          	auipc	ra,0xfffff
  a00fd8:	570080e7          	jalr	1392(ra) # a00544 <print>
  a00fdc:	00a00513          	li	a0,10
  a00fe0:	00000593          	li	a1,0
  a00fe4:	00000613          	li	a2,0
  a00fe8:	00000693          	li	a3,0
  a00fec:	00000713          	li	a4,0
  a00ff0:	00000793          	li	a5,0
  a00ff4:	00400893          	li	a7,4
  a00ff8:	00000073          	ecall
  a00ffc:	0000006f          	j	a00ffc <_panic_+0x78>

0000000000a01000 <_assert_>:
  a01000:	00068463          	beqz	a3,a01008 <_assert_+0x8>
  a01004:	00008067          	ret
  a01008:	ff010113          	addi	sp,sp,-16
  a0100c:	00113423          	sd	ra,8(sp)
  a01010:	00813023          	sd	s0,0(sp)
  a01014:	01010413          	addi	s0,sp,16
  a01018:	00001697          	auipc	a3,0x1
  a0101c:	23068693          	addi	a3,a3,560 # a02248 <_etext+0x248>
  a01020:	00000097          	auipc	ra,0x0
  a01024:	f64080e7          	jalr	-156(ra) # a00f84 <_panic_>

0000000000a01028 <strcpy>:
  a01028:	ff010113          	addi	sp,sp,-16
  a0102c:	00813423          	sd	s0,8(sp)
  a01030:	01010413          	addi	s0,sp,16
  a01034:	00050793          	mv	a5,a0
  a01038:	00158593          	addi	a1,a1,1
  a0103c:	00178793          	addi	a5,a5,1
  a01040:	fff5c703          	lbu	a4,-1(a1)
  a01044:	fee78fa3          	sb	a4,-1(a5)
  a01048:	fe0718e3          	bnez	a4,a01038 <strcpy+0x10>
  a0104c:	00813403          	ld	s0,8(sp)
  a01050:	01010113          	addi	sp,sp,16
  a01054:	00008067          	ret

0000000000a01058 <strcmp>:
  a01058:	ff010113          	addi	sp,sp,-16
  a0105c:	00813423          	sd	s0,8(sp)
  a01060:	01010413          	addi	s0,sp,16
  a01064:	00054783          	lbu	a5,0(a0)
  a01068:	00078e63          	beqz	a5,a01084 <strcmp+0x2c>
  a0106c:	0005c703          	lbu	a4,0(a1)
  a01070:	00f71a63          	bne	a4,a5,a01084 <strcmp+0x2c>
  a01074:	00150513          	addi	a0,a0,1
  a01078:	00158593          	addi	a1,a1,1
  a0107c:	00054783          	lbu	a5,0(a0)
  a01080:	fe0796e3          	bnez	a5,a0106c <strcmp+0x14>
  a01084:	0005c503          	lbu	a0,0(a1)
  a01088:	40a7853b          	subw	a0,a5,a0
  a0108c:	00813403          	ld	s0,8(sp)
  a01090:	01010113          	addi	sp,sp,16
  a01094:	00008067          	ret

0000000000a01098 <strlen>:
  a01098:	ff010113          	addi	sp,sp,-16
  a0109c:	00813423          	sd	s0,8(sp)
  a010a0:	01010413          	addi	s0,sp,16
  a010a4:	00054783          	lbu	a5,0(a0)
  a010a8:	02078863          	beqz	a5,a010d8 <strlen+0x40>
  a010ac:	00150513          	addi	a0,a0,1
  a010b0:	00050793          	mv	a5,a0
  a010b4:	00100693          	li	a3,1
  a010b8:	40a686bb          	subw	a3,a3,a0
  a010bc:	00f6853b          	addw	a0,a3,a5
  a010c0:	00178793          	addi	a5,a5,1
  a010c4:	fff7c703          	lbu	a4,-1(a5)
  a010c8:	fe071ae3          	bnez	a4,a010bc <strlen+0x24>
  a010cc:	00813403          	ld	s0,8(sp)
  a010d0:	01010113          	addi	sp,sp,16
  a010d4:	00008067          	ret
  a010d8:	00000513          	li	a0,0
  a010dc:	ff1ff06f          	j	a010cc <strlen+0x34>

0000000000a010e0 <memset>:
  a010e0:	ff010113          	addi	sp,sp,-16
  a010e4:	00813423          	sd	s0,8(sp)
  a010e8:	01010413          	addi	s0,sp,16
  a010ec:	02060063          	beqz	a2,a0110c <memset+0x2c>
  a010f0:	00050793          	mv	a5,a0
  a010f4:	02061613          	slli	a2,a2,0x20
  a010f8:	02065613          	srli	a2,a2,0x20
  a010fc:	00a60733          	add	a4,a2,a0
  a01100:	00b78023          	sb	a1,0(a5)
  a01104:	00178793          	addi	a5,a5,1
  a01108:	fee79ce3          	bne	a5,a4,a01100 <memset+0x20>
  a0110c:	00813403          	ld	s0,8(sp)
  a01110:	01010113          	addi	sp,sp,16
  a01114:	00008067          	ret

0000000000a01118 <strchr>:
  a01118:	ff010113          	addi	sp,sp,-16
  a0111c:	00813423          	sd	s0,8(sp)
  a01120:	01010413          	addi	s0,sp,16
  a01124:	00054783          	lbu	a5,0(a0)
  a01128:	02078263          	beqz	a5,a0114c <strchr+0x34>
  a0112c:	00f58a63          	beq	a1,a5,a01140 <strchr+0x28>
  a01130:	00150513          	addi	a0,a0,1
  a01134:	00054783          	lbu	a5,0(a0)
  a01138:	fe079ae3          	bnez	a5,a0112c <strchr+0x14>
  a0113c:	00000513          	li	a0,0
  a01140:	00813403          	ld	s0,8(sp)
  a01144:	01010113          	addi	sp,sp,16
  a01148:	00008067          	ret
  a0114c:	00000513          	li	a0,0
  a01150:	ff1ff06f          	j	a01140 <strchr+0x28>

0000000000a01154 <gets>:
  a01154:	00050e93          	mv	t4,a0
  a01158:	00100793          	li	a5,1
  a0115c:	0cb7d863          	bge	a5,a1,a0122c <gets+0xd8>
  a01160:	fe010113          	addi	sp,sp,-32
  a01164:	00813c23          	sd	s0,24(sp)
  a01168:	02010413          	addi	s0,sp,32
  a0116c:	00058e13          	mv	t3,a1
  a01170:	00000813          	li	a6,0
  a01174:	00100313          	li	t1,1
  a01178:	07f00f13          	li	t5,127
  a0117c:	00a00f93          	li	t6,10
  a01180:	00d00293          	li	t0,13
  a01184:	00001397          	auipc	t2,0x1
  a01188:	0d438393          	addi	t2,t2,212 # a02258 <backspace.0>
  a0118c:	02c0006f          	j	a011b8 <gets+0x64>
  a01190:	03005063          	blez	a6,a011b0 <gets+0x5c>
  a01194:	fff8081b          	addiw	a6,a6,-1
  a01198:	00100513          	li	a0,1
  a0119c:	00038593          	mv	a1,t2
  a011a0:	00300613          	li	a2,3
  a011a4:	00000793          	li	a5,0
  a011a8:	04000893          	li	a7,64
  a011ac:	00000073          	ecall
  a011b0:	0018031b          	addiw	t1,a6,1
  a011b4:	07c35863          	bge	t1,t3,a01224 <gets+0xd0>
  a011b8:	00000513          	li	a0,0
  a011bc:	fef40593          	addi	a1,s0,-17
  a011c0:	00100613          	li	a2,1
  a011c4:	00000693          	li	a3,0
  a011c8:	00000713          	li	a4,0
  a011cc:	00000793          	li	a5,0
  a011d0:	03f00893          	li	a7,63
  a011d4:	00000073          	ecall
  a011d8:	0005051b          	sext.w	a0,a0
  a011dc:	06a05063          	blez	a0,a0123c <gets+0xe8>
  a011e0:	fef44783          	lbu	a5,-17(s0)
  a011e4:	fbe786e3          	beq	a5,t5,a01190 <gets+0x3c>
  a011e8:	00100513          	li	a0,1
  a011ec:	fef40593          	addi	a1,s0,-17
  a011f0:	00100613          	li	a2,1
  a011f4:	00000693          	li	a3,0
  a011f8:	00000713          	li	a4,0
  a011fc:	00000793          	li	a5,0
  a01200:	04000893          	li	a7,64
  a01204:	00000073          	ecall
  a01208:	fef44783          	lbu	a5,-17(s0)
  a0120c:	010e8833          	add	a6,t4,a6
  a01210:	00f80023          	sb	a5,0(a6)
  a01214:	03f78663          	beq	a5,t6,a01240 <gets+0xec>
  a01218:	02578463          	beq	a5,t0,a01240 <gets+0xec>
  a0121c:	00030813          	mv	a6,t1
  a01220:	f91ff06f          	j	a011b0 <gets+0x5c>
  a01224:	00080313          	mv	t1,a6
  a01228:	0180006f          	j	a01240 <gets+0xec>
  a0122c:	00000313          	li	t1,0
  a01230:	00650333          	add	t1,a0,t1
  a01234:	00030023          	sb	zero,0(t1)
  a01238:	00008067          	ret
  a0123c:	00080313          	mv	t1,a6
  a01240:	006e8333          	add	t1,t4,t1
  a01244:	00030023          	sb	zero,0(t1)
  a01248:	000e8513          	mv	a0,t4
  a0124c:	01813403          	ld	s0,24(sp)
  a01250:	02010113          	addi	sp,sp,32
  a01254:	00008067          	ret

0000000000a01258 <stat>:
  a01258:	ff010113          	addi	sp,sp,-16
  a0125c:	00813423          	sd	s0,8(sp)
  a01260:	01010413          	addi	s0,sp,16
  a01264:	00050793          	mv	a5,a0
  a01268:	00058313          	mv	t1,a1
  a0126c:	f9c00513          	li	a0,-100
  a01270:	00078593          	mv	a1,a5
  a01274:	00000613          	li	a2,0
  a01278:	00200693          	li	a3,2
  a0127c:	00000713          	li	a4,0
  a01280:	00000793          	li	a5,0
  a01284:	03800893          	li	a7,56
  a01288:	00000073          	ecall
  a0128c:	0005081b          	sext.w	a6,a0
  a01290:	02084e63          	bltz	a6,a012cc <stat+0x74>
  a01294:	00080513          	mv	a0,a6
  a01298:	00030593          	mv	a1,t1
  a0129c:	00000693          	li	a3,0
  a012a0:	05000893          	li	a7,80
  a012a4:	00000073          	ecall
  a012a8:	0005031b          	sext.w	t1,a0
  a012ac:	00080513          	mv	a0,a6
  a012b0:	00000593          	li	a1,0
  a012b4:	03900893          	li	a7,57
  a012b8:	00000073          	ecall
  a012bc:	00030513          	mv	a0,t1
  a012c0:	00813403          	ld	s0,8(sp)
  a012c4:	01010113          	addi	sp,sp,16
  a012c8:	00008067          	ret
  a012cc:	fff00313          	li	t1,-1
  a012d0:	fedff06f          	j	a012bc <stat+0x64>

0000000000a012d4 <atoi>:
  a012d4:	ff010113          	addi	sp,sp,-16
  a012d8:	00813423          	sd	s0,8(sp)
  a012dc:	01010413          	addi	s0,sp,16
  a012e0:	00054683          	lbu	a3,0(a0)
  a012e4:	fd06879b          	addiw	a5,a3,-48
  a012e8:	0ff7f793          	zext.b	a5,a5
  a012ec:	00900613          	li	a2,9
  a012f0:	04f66063          	bltu	a2,a5,a01330 <atoi+0x5c>
  a012f4:	00050713          	mv	a4,a0
  a012f8:	00000513          	li	a0,0
  a012fc:	00170713          	addi	a4,a4,1
  a01300:	0025179b          	slliw	a5,a0,0x2
  a01304:	00a787bb          	addw	a5,a5,a0
  a01308:	0017979b          	slliw	a5,a5,0x1
  a0130c:	00d787bb          	addw	a5,a5,a3
  a01310:	fd07851b          	addiw	a0,a5,-48
  a01314:	00074683          	lbu	a3,0(a4)
  a01318:	fd06879b          	addiw	a5,a3,-48
  a0131c:	0ff7f793          	zext.b	a5,a5
  a01320:	fcf67ee3          	bgeu	a2,a5,a012fc <atoi+0x28>
  a01324:	00813403          	ld	s0,8(sp)
  a01328:	01010113          	addi	sp,sp,16
  a0132c:	00008067          	ret
  a01330:	00000513          	li	a0,0
  a01334:	ff1ff06f          	j	a01324 <atoi+0x50>

0000000000a01338 <memmove>:
  a01338:	ff010113          	addi	sp,sp,-16
  a0133c:	00813423          	sd	s0,8(sp)
  a01340:	01010413          	addi	s0,sp,16
  a01344:	02b57c63          	bgeu	a0,a1,a0137c <memmove+0x44>
  a01348:	02c05463          	blez	a2,a01370 <memmove+0x38>
  a0134c:	02061613          	slli	a2,a2,0x20
  a01350:	02065613          	srli	a2,a2,0x20
  a01354:	00c507b3          	add	a5,a0,a2
  a01358:	00050713          	mv	a4,a0
  a0135c:	00158593          	addi	a1,a1,1
  a01360:	00170713          	addi	a4,a4,1
  a01364:	fff5c683          	lbu	a3,-1(a1)
  a01368:	fed70fa3          	sb	a3,-1(a4)
  a0136c:	fee798e3          	bne	a5,a4,a0135c <memmove+0x24>
  a01370:	00813403          	ld	s0,8(sp)
  a01374:	01010113          	addi	sp,sp,16
  a01378:	00008067          	ret
  a0137c:	00c50733          	add	a4,a0,a2
  a01380:	00c585b3          	add	a1,a1,a2
  a01384:	fec056e3          	blez	a2,a01370 <memmove+0x38>
  a01388:	fff6079b          	addiw	a5,a2,-1
  a0138c:	02079793          	slli	a5,a5,0x20
  a01390:	0207d793          	srli	a5,a5,0x20
  a01394:	fff7c793          	not	a5,a5
  a01398:	00f707b3          	add	a5,a4,a5
  a0139c:	fff58593          	addi	a1,a1,-1
  a013a0:	fff70713          	addi	a4,a4,-1
  a013a4:	0005c683          	lbu	a3,0(a1)
  a013a8:	00d70023          	sb	a3,0(a4)
  a013ac:	fee798e3          	bne	a5,a4,a0139c <memmove+0x64>
  a013b0:	fc1ff06f          	j	a01370 <memmove+0x38>

0000000000a013b4 <memcmp>:
  a013b4:	ff010113          	addi	sp,sp,-16
  a013b8:	00813423          	sd	s0,8(sp)
  a013bc:	01010413          	addi	s0,sp,16
  a013c0:	04060463          	beqz	a2,a01408 <memcmp+0x54>
  a013c4:	fff6069b          	addiw	a3,a2,-1
  a013c8:	02069693          	slli	a3,a3,0x20
  a013cc:	0206d693          	srli	a3,a3,0x20
  a013d0:	00168693          	addi	a3,a3,1
  a013d4:	00d506b3          	add	a3,a0,a3
  a013d8:	00054783          	lbu	a5,0(a0)
  a013dc:	0005c703          	lbu	a4,0(a1)
  a013e0:	00e79c63          	bne	a5,a4,a013f8 <memcmp+0x44>
  a013e4:	00150513          	addi	a0,a0,1
  a013e8:	00158593          	addi	a1,a1,1
  a013ec:	fed516e3          	bne	a0,a3,a013d8 <memcmp+0x24>
  a013f0:	00000513          	li	a0,0
  a013f4:	0080006f          	j	a013fc <memcmp+0x48>
  a013f8:	40e7853b          	subw	a0,a5,a4
  a013fc:	00813403          	ld	s0,8(sp)
  a01400:	01010113          	addi	sp,sp,16
  a01404:	00008067          	ret
  a01408:	00000513          	li	a0,0
  a0140c:	ff1ff06f          	j	a013fc <memcmp+0x48>

0000000000a01410 <memcpy>:
  a01410:	ff010113          	addi	sp,sp,-16
  a01414:	00113423          	sd	ra,8(sp)
  a01418:	00813023          	sd	s0,0(sp)
  a0141c:	01010413          	addi	s0,sp,16
  a01420:	00000097          	auipc	ra,0x0
  a01424:	f18080e7          	jalr	-232(ra) # a01338 <memmove>
  a01428:	00813083          	ld	ra,8(sp)
  a0142c:	00013403          	ld	s0,0(sp)
  a01430:	01010113          	addi	sp,sp,16
  a01434:	00008067          	ret

0000000000a01438 <free>:
  a01438:	ff010113          	addi	sp,sp,-16
  a0143c:	00813423          	sd	s0,8(sp)
  a01440:	01010413          	addi	s0,sp,16
  a01444:	ff050693          	addi	a3,a0,-16
  a01448:	005ff797          	auipc	a5,0x5ff
  a0144c:	bb87b783          	ld	a5,-1096(a5) # 1000000 <freep>
  a01450:	0400006f          	j	a01490 <free+0x58>
  a01454:	00862703          	lw	a4,8(a2)
  a01458:	00b7073b          	addw	a4,a4,a1
  a0145c:	fee52c23          	sw	a4,-8(a0)
  a01460:	0007b703          	ld	a4,0(a5)
  a01464:	00073603          	ld	a2,0(a4)
  a01468:	0500006f          	j	a014b8 <free+0x80>
  a0146c:	ff852703          	lw	a4,-8(a0)
  a01470:	00c7073b          	addw	a4,a4,a2
  a01474:	00e7a423          	sw	a4,8(a5)
  a01478:	ff053683          	ld	a3,-16(a0)
  a0147c:	0540006f          	j	a014d0 <free+0x98>
  a01480:	0007b703          	ld	a4,0(a5)
  a01484:	00e7e463          	bltu	a5,a4,a0148c <free+0x54>
  a01488:	00e6ec63          	bltu	a3,a4,a014a0 <free+0x68>
  a0148c:	00070793          	mv	a5,a4
  a01490:	fed7f8e3          	bgeu	a5,a3,a01480 <free+0x48>
  a01494:	0007b703          	ld	a4,0(a5)
  a01498:	00e6e463          	bltu	a3,a4,a014a0 <free+0x68>
  a0149c:	fee7e8e3          	bltu	a5,a4,a0148c <free+0x54>
  a014a0:	ff852583          	lw	a1,-8(a0)
  a014a4:	0007b603          	ld	a2,0(a5)
  a014a8:	02059813          	slli	a6,a1,0x20
  a014ac:	01c85713          	srli	a4,a6,0x1c
  a014b0:	00e68733          	add	a4,a3,a4
  a014b4:	fae600e3          	beq	a2,a4,a01454 <free+0x1c>
  a014b8:	fec53823          	sd	a2,-16(a0)
  a014bc:	0087a603          	lw	a2,8(a5)
  a014c0:	02061593          	slli	a1,a2,0x20
  a014c4:	01c5d713          	srli	a4,a1,0x1c
  a014c8:	00e78733          	add	a4,a5,a4
  a014cc:	fae680e3          	beq	a3,a4,a0146c <free+0x34>
  a014d0:	00d7b023          	sd	a3,0(a5)
  a014d4:	005ff717          	auipc	a4,0x5ff
  a014d8:	b2f73623          	sd	a5,-1236(a4) # 1000000 <freep>
  a014dc:	00813403          	ld	s0,8(sp)
  a014e0:	01010113          	addi	sp,sp,16
  a014e4:	00008067          	ret

0000000000a014e8 <malloc>:
  a014e8:	fc010113          	addi	sp,sp,-64
  a014ec:	02113c23          	sd	ra,56(sp)
  a014f0:	02813823          	sd	s0,48(sp)
  a014f4:	02913423          	sd	s1,40(sp)
  a014f8:	03213023          	sd	s2,32(sp)
  a014fc:	01313c23          	sd	s3,24(sp)
  a01500:	01413823          	sd	s4,16(sp)
  a01504:	01513423          	sd	s5,8(sp)
  a01508:	01613023          	sd	s6,0(sp)
  a0150c:	04010413          	addi	s0,sp,64
  a01510:	02051493          	slli	s1,a0,0x20
  a01514:	0204d493          	srli	s1,s1,0x20
  a01518:	00f48493          	addi	s1,s1,15
  a0151c:	0044d493          	srli	s1,s1,0x4
  a01520:	0014899b          	addiw	s3,s1,1
  a01524:	00148493          	addi	s1,s1,1
  a01528:	005ff517          	auipc	a0,0x5ff
  a0152c:	ad853503          	ld	a0,-1320(a0) # 1000000 <freep>
  a01530:	02050e63          	beqz	a0,a0156c <malloc+0x84>
  a01534:	00053783          	ld	a5,0(a0)
  a01538:	0087a703          	lw	a4,8(a5)
  a0153c:	04977663          	bgeu	a4,s1,a01588 <malloc+0xa0>
  a01540:	00098a13          	mv	s4,s3
  a01544:	0009871b          	sext.w	a4,s3
  a01548:	000016b7          	lui	a3,0x1
  a0154c:	00d77463          	bgeu	a4,a3,a01554 <malloc+0x6c>
  a01550:	00001a37          	lui	s4,0x1
  a01554:	000a0b1b          	sext.w	s6,s4
  a01558:	004a1a1b          	slliw	s4,s4,0x4
  a0155c:	005ff917          	auipc	s2,0x5ff
  a01560:	aa490913          	addi	s2,s2,-1372 # 1000000 <freep>
  a01564:	fff00a93          	li	s5,-1
  a01568:	0a00006f          	j	a01608 <malloc+0x120>
  a0156c:	00002797          	auipc	a5,0x2
  a01570:	aa478793          	addi	a5,a5,-1372 # a03010 <base>
  a01574:	005ff717          	auipc	a4,0x5ff
  a01578:	a8f73623          	sd	a5,-1396(a4) # 1000000 <freep>
  a0157c:	00f7b023          	sd	a5,0(a5)
  a01580:	0007a423          	sw	zero,8(a5)
  a01584:	fbdff06f          	j	a01540 <malloc+0x58>
  a01588:	04e48863          	beq	s1,a4,a015d8 <malloc+0xf0>
  a0158c:	4137073b          	subw	a4,a4,s3
  a01590:	00e7a423          	sw	a4,8(a5)
  a01594:	02071693          	slli	a3,a4,0x20
  a01598:	01c6d713          	srli	a4,a3,0x1c
  a0159c:	00e787b3          	add	a5,a5,a4
  a015a0:	0137a423          	sw	s3,8(a5)
  a015a4:	005ff717          	auipc	a4,0x5ff
  a015a8:	a4a73e23          	sd	a0,-1444(a4) # 1000000 <freep>
  a015ac:	01078513          	addi	a0,a5,16
  a015b0:	03813083          	ld	ra,56(sp)
  a015b4:	03013403          	ld	s0,48(sp)
  a015b8:	02813483          	ld	s1,40(sp)
  a015bc:	02013903          	ld	s2,32(sp)
  a015c0:	01813983          	ld	s3,24(sp)
  a015c4:	01013a03          	ld	s4,16(sp)
  a015c8:	00813a83          	ld	s5,8(sp)
  a015cc:	00013b03          	ld	s6,0(sp)
  a015d0:	04010113          	addi	sp,sp,64
  a015d4:	00008067          	ret
  a015d8:	0007b703          	ld	a4,0(a5)
  a015dc:	00e53023          	sd	a4,0(a0)
  a015e0:	fc5ff06f          	j	a015a4 <malloc+0xbc>
  a015e4:	01652423          	sw	s6,8(a0)
  a015e8:	01050513          	addi	a0,a0,16
  a015ec:	00000097          	auipc	ra,0x0
  a015f0:	e4c080e7          	jalr	-436(ra) # a01438 <free>
  a015f4:	00093503          	ld	a0,0(s2)
  a015f8:	fa050ce3          	beqz	a0,a015b0 <malloc+0xc8>
  a015fc:	00053783          	ld	a5,0(a0)
  a01600:	0087a703          	lw	a4,8(a5)
  a01604:	f89772e3          	bgeu	a4,s1,a01588 <malloc+0xa0>
  a01608:	00093703          	ld	a4,0(s2)
  a0160c:	00078513          	mv	a0,a5
  a01610:	fef716e3          	bne	a4,a5,a015fc <malloc+0x114>
  a01614:	000a0513          	mv	a0,s4
  a01618:	00000593          	li	a1,0
  a0161c:	00000613          	li	a2,0
  a01620:	00000693          	li	a3,0
  a01624:	00000713          	li	a4,0
  a01628:	00000793          	li	a5,0
  a0162c:	00d00893          	li	a7,13
  a01630:	00000073          	ecall
  a01634:	fb5518e3          	bne	a0,s5,a015e4 <malloc+0xfc>
  a01638:	00000513          	li	a0,0
  a0163c:	f75ff06f          	j	a015b0 <malloc+0xc8>

Disassembly of section .data:

0000000000a02000 <_etext>:
  a02000:	e894                	sd	a3,16(s1)
  a02002:	ffff                	0xffff
  a02004:	eea0                	sd	s0,88(a3)
  a02006:	ffff                	0xffff
  a02008:	eea0                	sd	s0,88(a3)
  a0200a:	ffff                	0xffff
  a0200c:	eea0                	sd	s0,88(a3)
  a0200e:	ffff                	0xffff
  a02010:	eea0                	sd	s0,88(a3)
  a02012:	ffff                	0xffff
  a02014:	eea0                	sd	s0,88(a3)
  a02016:	ffff                	0xffff
  a02018:	eea0                	sd	s0,88(a3)
  a0201a:	ffff                	0xffff
  a0201c:	eea0                	sd	s0,88(a3)
  a0201e:	ffff                	0xffff
  a02020:	eea0                	sd	s0,88(a3)
  a02022:	ffff                	0xffff
  a02024:	eea0                	sd	s0,88(a3)
  a02026:	ffff                	0xffff
  a02028:	eea0                	sd	s0,88(a3)
  a0202a:	ffff                	0xffff
  a0202c:	e968                	sd	a0,208(a0)
  a0202e:	ffff                	0xffff
  a02030:	eea0                	sd	s0,88(a3)
  a02032:	ffff                	0xffff
  a02034:	eea0                	sd	s0,88(a3)
  a02036:	ffff                	0xffff
  a02038:	eea0                	sd	s0,88(a3)
  a0203a:	ffff                	0xffff
  a0203c:	eea0                	sd	s0,88(a3)
  a0203e:	ffff                	0xffff
  a02040:	eea0                	sd	s0,88(a3)
  a02042:	ffff                	0xffff
  a02044:	ea74                	sd	a3,208(a2)
  a02046:	ffff                	0xffff
  a02048:	eea0                	sd	s0,88(a3)
  a0204a:	ffff                	0xffff
  a0204c:	eea0                	sd	s0,88(a3)
  a0204e:	ffff                	0xffff
  a02050:	ec8c                	sd	a1,24(s1)
  a02052:	ffff                	0xffff
  a02054:	eea0                	sd	s0,88(a3)
  a02056:	ffff                	0xffff
  a02058:	eea0                	sd	s0,88(a3)
  a0205a:	ffff                	0xffff
  a0205c:	eea0                	sd	s0,88(a3)
  a0205e:	ffff                	0xffff
  a02060:	eea0                	sd	s0,88(a3)
  a02062:	ffff                	0xffff
  a02064:	eea0                	sd	s0,88(a3)
  a02066:	ffff                	0xffff
  a02068:	eea0                	sd	s0,88(a3)
  a0206a:	ffff                	0xffff
  a0206c:	eea0                	sd	s0,88(a3)
  a0206e:	ffff                	0xffff
  a02070:	eea0                	sd	s0,88(a3)
  a02072:	ffff                	0xffff
  a02074:	eea0                	sd	s0,88(a3)
  a02076:	ffff                	0xffff
  a02078:	eea0                	sd	s0,88(a3)
  a0207a:	ffff                	0xffff
  a0207c:	e7e4                	sd	s1,200(a5)
  a0207e:	ffff                	0xffff
  a02080:	e894                	sd	a3,16(s1)
  a02082:	ffff                	0xffff
  a02084:	eea0                	sd	s0,88(a3)
  a02086:	ffff                	0xffff
  a02088:	eea0                	sd	s0,88(a3)
  a0208a:	ffff                	0xffff
  a0208c:	eea0                	sd	s0,88(a3)
  a0208e:	ffff                	0xffff
  a02090:	eea0                	sd	s0,88(a3)
  a02092:	ffff                	0xffff
  a02094:	eea0                	sd	s0,88(a3)
  a02096:	ffff                	0xffff
  a02098:	eea0                	sd	s0,88(a3)
  a0209a:	ffff                	0xffff
  a0209c:	eea0                	sd	s0,88(a3)
  a0209e:	ffff                	0xffff
  a020a0:	eea0                	sd	s0,88(a3)
  a020a2:	ffff                	0xffff
  a020a4:	eea0                	sd	s0,88(a3)
  a020a6:	ffff                	0xffff
  a020a8:	eea0                	sd	s0,88(a3)
  a020aa:	ffff                	0xffff
  a020ac:	e968                	sd	a0,208(a0)
  a020ae:	ffff                	0xffff
  a020b0:	eea0                	sd	s0,88(a3)
  a020b2:	ffff                	0xffff
  a020b4:	eea0                	sd	s0,88(a3)
  a020b6:	ffff                	0xffff
  a020b8:	eea0                	sd	s0,88(a3)
  a020ba:	ffff                	0xffff
  a020bc:	ed94                	sd	a3,24(a1)
  a020be:	ffff                	0xffff
  a020c0:	eea0                	sd	s0,88(a3)
  a020c2:	ffff                	0xffff
  a020c4:	ea74                	sd	a3,208(a2)
  a020c6:	ffff                	0xffff
  a020c8:	eea0                	sd	s0,88(a3)
  a020ca:	ffff                	0xffff
  a020cc:	eea0                	sd	s0,88(a3)
  a020ce:	ffff                	0xffff
  a020d0:	eb80                	sd	s0,16(a5)
  a020d2:	ffff                	0xffff
  a020d4:	e77c                	sd	a5,200(a4)
  a020d6:	ffff                	0xffff
  a020d8:	edc8                	sd	a0,152(a1)
  a020da:	ffff                	0xffff
  a020dc:	edc8                	sd	a0,152(a1)
  a020de:	ffff                	0xffff
  a020e0:	edc8                	sd	a0,152(a1)
  a020e2:	ffff                	0xffff
  a020e4:	edc8                	sd	a0,152(a1)
  a020e6:	ffff                	0xffff
  a020e8:	edc8                	sd	a0,152(a1)
  a020ea:	ffff                	0xffff
  a020ec:	edc8                	sd	a0,152(a1)
  a020ee:	ffff                	0xffff
  a020f0:	edc8                	sd	a0,152(a1)
  a020f2:	ffff                	0xffff
  a020f4:	edc8                	sd	a0,152(a1)
  a020f6:	ffff                	0xffff
  a020f8:	edc8                	sd	a0,152(a1)
  a020fa:	ffff                	0xffff
  a020fc:	edc8                	sd	a0,152(a1)
  a020fe:	ffff                	0xffff
  a02100:	e888                	sd	a0,16(s1)
  a02102:	ffff                	0xffff
  a02104:	edc8                	sd	a0,152(a1)
  a02106:	ffff                	0xffff
  a02108:	edc8                	sd	a0,152(a1)
  a0210a:	ffff                	0xffff
  a0210c:	edc8                	sd	a0,152(a1)
  a0210e:	ffff                	0xffff
  a02110:	edc8                	sd	a0,152(a1)
  a02112:	ffff                	0xffff
  a02114:	edc8                	sd	a0,152(a1)
  a02116:	ffff                	0xffff
  a02118:	e994                	sd	a3,16(a1)
  a0211a:	ffff                	0xffff
  a0211c:	edc8                	sd	a0,152(a1)
  a0211e:	ffff                	0xffff
  a02120:	edc8                	sd	a0,152(a1)
  a02122:	ffff                	0xffff
  a02124:	ebac                	sd	a1,80(a5)
  a02126:	ffff                	0xffff
  a02128:	edc8                	sd	a0,152(a1)
  a0212a:	ffff                	0xffff
  a0212c:	edc8                	sd	a0,152(a1)
  a0212e:	ffff                	0xffff
  a02130:	edc8                	sd	a0,152(a1)
  a02132:	ffff                	0xffff
  a02134:	edc8                	sd	a0,152(a1)
  a02136:	ffff                	0xffff
  a02138:	edc8                	sd	a0,152(a1)
  a0213a:	ffff                	0xffff
  a0213c:	edc8                	sd	a0,152(a1)
  a0213e:	ffff                	0xffff
  a02140:	edc8                	sd	a0,152(a1)
  a02142:	ffff                	0xffff
  a02144:	edc8                	sd	a0,152(a1)
  a02146:	ffff                	0xffff
  a02148:	edc8                	sd	a0,152(a1)
  a0214a:	ffff                	0xffff
  a0214c:	edc8                	sd	a0,152(a1)
  a0214e:	ffff                	0xffff
  a02150:	e708                	sd	a0,8(a4)
  a02152:	ffff                	0xffff
  a02154:	e77c                	sd	a5,200(a4)
  a02156:	ffff                	0xffff
  a02158:	edc8                	sd	a0,152(a1)
  a0215a:	ffff                	0xffff
  a0215c:	edc8                	sd	a0,152(a1)
  a0215e:	ffff                	0xffff
  a02160:	edc8                	sd	a0,152(a1)
  a02162:	ffff                	0xffff
  a02164:	edc8                	sd	a0,152(a1)
  a02166:	ffff                	0xffff
  a02168:	edc8                	sd	a0,152(a1)
  a0216a:	ffff                	0xffff
  a0216c:	edc8                	sd	a0,152(a1)
  a0216e:	ffff                	0xffff
  a02170:	edc8                	sd	a0,152(a1)
  a02172:	ffff                	0xffff
  a02174:	edc8                	sd	a0,152(a1)
  a02176:	ffff                	0xffff
  a02178:	edc8                	sd	a0,152(a1)
  a0217a:	ffff                	0xffff
  a0217c:	edc8                	sd	a0,152(a1)
  a0217e:	ffff                	0xffff
  a02180:	e888                	sd	a0,16(s1)
  a02182:	ffff                	0xffff
  a02184:	edc8                	sd	a0,152(a1)
  a02186:	ffff                	0xffff
  a02188:	edc8                	sd	a0,152(a1)
  a0218a:	ffff                	0xffff
  a0218c:	edc8                	sd	a0,152(a1)
  a0218e:	ffff                	0xffff
  a02190:	ecb8                	sd	a4,88(s1)
  a02192:	ffff                	0xffff
  a02194:	edc8                	sd	a0,152(a1)
  a02196:	ffff                	0xffff
  a02198:	e994                	sd	a3,16(a1)
  a0219a:	ffff                	0xffff
  a0219c:	edc8                	sd	a0,152(a1)
  a0219e:	ffff                	0xffff
  a021a0:	edc8                	sd	a0,152(a1)
  a021a2:	ffff                	0xffff
  a021a4:	eaa0                	sd	s0,80(a3)
  a021a6:	ffff                	0xffff
  a021a8:	7365742f          	0x7365742f
  a021ac:	6674                	ld	a3,200(a2)
  a021ae:	6c69                	lui	s8,0x1a
  a021b0:	0065                	c.nop	25
  a021b2:	0000                	unimp
  a021b4:	0000                	unimp
  a021b6:	0000                	unimp
  a021b8:	6466                	ld	s0,88(sp)
  a021ba:	3d31                	addiw	s10,s10,-20
  a021bc:	6425                	lui	s0,0x9
  a021be:	000a                	c.slli	zero,0x2
  a021c0:	6165725b          	0x6165725b
  a021c4:	6964                	ld	s1,208(a0)
  a021c6:	676e                	ld	a4,216(sp)
  a021c8:	6620                	ld	s0,72(a2)
  a021ca:	6c69                	lui	s8,0x1a
  a021cc:	2065                	0x2065
  a021ce:	6425                	lui	s0,0x9
  a021d0:	6220                	ld	s0,64(a2)
  a021d2:	7479                	lui	s0,0xffffe
  a021d4:	7365                	lui	t1,0xffff9
  a021d6:	3a5d                	addiw	s4,s4,-9
  a021d8:	2520                	fld	fs0,72(a0)
  a021da:	00000a73          	0xa73
  a021de:	0000                	unimp
  a021e0:	6572632f          	0x6572632f
  a021e4:	7461                	lui	s0,0xffff8
  a021e6:	6665                	lui	a2,0x19
  a021e8:	6c69                	lui	s8,0x1a
  a021ea:	0065                	c.nop	25
  a021ec:	0000                	unimp
  a021ee:	0000                	unimp
  a021f0:	6466                	ld	s0,88(sp)
  a021f2:	3d32                	fld	fs10,296(sp)
  a021f4:	6425                	lui	s0,0x9
  a021f6:	000a                	c.slli	zero,0x2
  a021f8:	6574                	ld	a3,200(a0)
  a021fa:	72637473          	csrrci	s0,0x726,6
  a021fe:	6165                	addi	sp,sp,112
  a02200:	6574                	ld	a3,200(a0)
  a02202:	6966                	ld	s2,88(sp)
  a02204:	656c                	ld	a1,200(a0)
  a02206:	0000                	unimp
  a02208:	6972775b          	0x6972775b
  a0220c:	6974                	ld	a3,208(a0)
  a0220e:	676e                	ld	a4,216(sp)
  a02210:	6620                	ld	s0,72(a2)
  a02212:	6c69                	lui	s8,0x1a
  a02214:	2065                	0x2065
  a02216:	6425                	lui	s0,0x9
  a02218:	6220                	ld	s0,64(a2)
  a0221a:	7479                	lui	s0,0xffffe
  a0221c:	7365                	lui	t1,0xffff9
  a0221e:	0a5d                	addi	s4,s4,23
	...
  a02228:	6e28                	ld	a0,88(a2)
  a0222a:	6c75                	lui	s8,0x1d
  a0222c:	296c                	fld	fa1,208(a0)
  a0222e:	0000                	unimp
  a02230:	7375                	lui	t1,0xffffd
  a02232:	7265                	lui	tp,0xffff9
  a02234:	7020                	ld	s0,96(s0)
  a02236:	6e61                	lui	t3,0x18
  a02238:	6369                	lui	t1,0x1a
  a0223a:	6120                	ld	s0,64(a0)
  a0223c:	2074                	fld	fa3,192(s0)
  a0223e:	7325                	lui	t1,0xfffe9
  a02240:	203a                	fld	ft0,392(sp)
  a02242:	6425                	lui	s0,0x9
  a02244:	203a                	fld	ft0,392(sp)
  a02246:	0000                	unimp
  a02248:	7361                	lui	t1,0xffff8
  a0224a:	74726573          	csrrsi	a0,0x747,4
  a0224e:	6620                	ld	s0,72(a2)
  a02250:	6961                	lui	s2,0x18
  a02252:	656c                	ld	a1,200(a0)
  a02254:	0a64                	addi	s1,sp,284
	...

Disassembly of section .sdata:

0000000000a02258 <backspace.0>:
  a02258:	2008                	fld	fa0,0(s0)
  a0225a:	0008                	0x8

Disassembly of section .bss:

0000000000a03000 <message>:
	...

0000000000a03010 <base>:
	...

Disassembly of section .sbss:

0000000001000000 <freep>:
	...

Disassembly of section .buffer:

0000000001001000 <printfBuffer>:
	...

0000000001001200 <bufferLen>:
	...

Disassembly of section .riscv.attributes:

0000000000000000 <.riscv.attributes>:
   0:	2f41                	addiw	t5,t5,16
   2:	0000                	unimp
   4:	7200                	ld	s0,32(a2)
   6:	7369                	lui	t1,0xffffa
   8:	01007663          	bgeu	zero,a6,14 <_text-0x9fffec>
   c:	0025                	c.nop	9
   e:	0000                	unimp
  10:	1004                	addi	s1,sp,32
  12:	7205                	lui	tp,0xfffe1
  14:	3676                	fld	fa2,376(sp)
  16:	6934                	ld	a3,80(a0)
  18:	7032                	0x7032
  1a:	5f30                	lw	a2,120(a4)
  1c:	326d                	addiw	tp,tp,-5
  1e:	3070                	fld	fa2,224(s0)
  20:	615f 7032 5f30      	0x5f307032615f
  26:	3266                	fld	ft4,120(sp)
  28:	3070                	fld	fa2,224(s0)
  2a:	645f 7032 0030      	0x307032645f

Disassembly of section .comment:

0000000000000000 <.comment>:
   0:	3a434347          	fmsub.d	ft6,ft6,ft4,ft7,rmm
   4:	2820                	fld	fs0,80(s0)
   6:	29554e47          	fmsub.s	ft8,fa0,fs5,ft5,rmm
   a:	3120                	fld	fs0,96(a0)
   c:	2e31                	addiw	t3,t3,12
   e:	2e31                	addiw	t3,t3,12
  10:	0030                	addi	a2,sp,8

Disassembly of section .debug_line:

0000000000000000 <.debug_line>:
       0:	006e                	c.slli	zero,0x1b
       2:	0000                	unimp
       4:	0005                	c.nop	1
       6:	0008                	0x8
       8:	002a                	c.slli	zero,0xa
       a:	0000                	unimp
       c:	0101                	addi	sp,sp,0
       e:	fb01                	bnez	a4,ffffffffffffff1e <end+0xfffffffffeffdf1e>
      10:	0d0e                	slli	s10,s10,0x3
      12:	0100                	addi	s0,sp,128
      14:	0101                	addi	sp,sp,0
      16:	0001                	nop
      18:	0000                	unimp
      1a:	0001                	nop
      1c:	0100                	addi	s0,sp,128
      1e:	0101                	addi	sp,sp,0
      20:	011f 0000 0000      	0x11f
      26:	0102                	c.slli64	sp
      28:	021f 020f 0027      	0x27020f021f
      2e:	0000                	unimp
      30:	2700                	fld	fs0,8(a4)
      32:	0000                	unimp
      34:	0000                	unimp
      36:	0900                	addi	s0,sp,144
      38:	0002                	c.slli64	zero
      3a:	a000                	fsd	fs0,0(s0)
      3c:	0000                	unimp
      3e:	0000                	unimp
      40:	1500                	addi	s0,sp,672
      42:	04090103          	lb	sp,64(s2) # 18040 <_text-0x9e7fc0>
      46:	0100                	addi	s0,sp,128
      48:	04090103          	lb	sp,64(s2)
      4c:	0100                	addi	s0,sp,128
      4e:	04090103          	lb	sp,64(s2)
      52:	0100                	addi	s0,sp,128
      54:	04090103          	lb	sp,64(s2)
      58:	0100                	addi	s0,sp,128
      5a:	04090103          	lb	sp,64(s2)
      5e:	0100                	addi	s0,sp,128
      60:	04090103          	lb	sp,64(s2)
      64:	0100                	addi	s0,sp,128
      66:	04090203          	lb	tp,64(s2)
      6a:	0100                	addi	s0,sp,128
      6c:	0409                	addi	s0,s0,2
      6e:	0000                	unimp
      70:	0101                	addi	sp,sp,0
      72:	0000050f          	0x50f
      76:	0005                	c.nop	1
      78:	0008                	0x8
      7a:	0046                	c.slli	zero,0x11
      7c:	0000                	unimp
      7e:	0101                	addi	sp,sp,0
      80:	fb01                	bnez	a4,ffffffffffffff90 <end+0xfffffffffeffdf90>
      82:	0d0e                	slli	s10,s10,0x3
      84:	0100                	addi	s0,sp,128
      86:	0101                	addi	sp,sp,0
      88:	0001                	nop
      8a:	0000                	unimp
      8c:	0001                	nop
      8e:	0100                	addi	s0,sp,128
      90:	0101                	addi	sp,sp,0
      92:	031f 0000 0000      	0x31f
      98:	0000004b          	fnmsub.s	ft0,ft0,ft0,ft0,rne
      9c:	003d                	c.nop	15
      9e:	0000                	unimp
      a0:	0102                	c.slli64	sp
      a2:	021f 060f 002f      	0x2f060f021f
      a8:	0000                	unimp
      aa:	2f00                	fld	fs0,24(a4)
      ac:	0000                	unimp
      ae:	0000                	unimp
      b0:	0055                	c.nop	21
      b2:	0000                	unimp
      b4:	6201                	0x6201
      b6:	0000                	unimp
      b8:	0100                	addi	s0,sp,128
      ba:	006c                	addi	a1,sp,12
      bc:	0000                	unimp
      be:	7501                	lui	a0,0xfffe0
      c0:	0000                	unimp
      c2:	0200                	addi	s0,sp,256
      c4:	2505                	addiw	a0,a0,1
      c6:	0900                	addi	s0,sp,144
      c8:	2002                	fld	ft0,0(sp)
      ca:	a000                	fsd	fs0,0(s0)
      cc:	0000                	unimp
      ce:	0000                	unimp
      d0:	1700                	addi	s0,sp,928
      d2:	0505                	addi	a0,a0,1
      d4:	18090103          	lb	sp,384(s2)
      d8:	0100                	addi	s0,sp,128
      da:	0204                	addi	s1,sp,256
      dc:	0900c303          	lbu	t1,144(ra)
      e0:	0000                	unimp
      e2:	0401                	addi	s0,s0,0
      e4:	03020503          	lb	a0,48(tp) # fffffffffffe1030 <end+0xfffffffffefdf030>
      e8:	7fbe                	ld	t6,488(sp)
      ea:	0009                	c.nop	2
      ec:	0100                	addi	s0,sp,128
      ee:	0f05                	addi	t5,t5,1
      f0:	0306                	slli	t1,t1,0x1
      f2:	0900                	addi	s0,sp,144
      f4:	0000                	unimp
      f6:	0501                	addi	a0,a0,0
      f8:	0602                	c.slli64	a2
      fa:	04090103          	lb	sp,64(s2)
      fe:	0100                	addi	s0,sp,128
     100:	0f05                	addi	t5,t5,1
     102:	0306                	slli	t1,t1,0x1
     104:	0900                	addi	s0,sp,144
     106:	0000                	unimp
     108:	0501                	addi	a0,a0,0
     10a:	0602                	c.slli64	a2
     10c:	08090103          	lb	sp,128(s2)
     110:	0100                	addi	s0,sp,128
     112:	0f05                	addi	t5,t5,1
     114:	0306                	slli	t1,t1,0x1
     116:	0900                	addi	s0,sp,144
     118:	0000                	unimp
     11a:	0501                	addi	a0,a0,0
     11c:	0602                	c.slli64	a2
     11e:	04090103          	lb	sp,64(s2)
     122:	0100                	addi	s0,sp,128
     124:	0f05                	addi	t5,t5,1
     126:	0306                	slli	t1,t1,0x1
     128:	0900                	addi	s0,sp,144
     12a:	0000                	unimp
     12c:	0501                	addi	a0,a0,0
     12e:	0602                	c.slli64	a2
     130:	04090103          	lb	sp,64(s2)
     134:	0100                	addi	s0,sp,128
     136:	0f05                	addi	t5,t5,1
     138:	0306                	slli	t1,t1,0x1
     13a:	0900                	addi	s0,sp,144
     13c:	0000                	unimp
     13e:	0501                	addi	a0,a0,0
     140:	0602                	c.slli64	a2
     142:	04090103          	lb	sp,64(s2)
     146:	0100                	addi	s0,sp,128
     148:	0f05                	addi	t5,t5,1
     14a:	0306                	slli	t1,t1,0x1
     14c:	0900                	addi	s0,sp,144
     14e:	0000                	unimp
     150:	0501                	addi	a0,a0,0
     152:	0602                	c.slli64	a2
     154:	04090103          	lb	sp,64(s2)
     158:	0100                	addi	s0,sp,128
     15a:	1005                	c.nop	-31
     15c:	0306                	slli	t1,t1,0x1
     15e:	0900                	addi	s0,sp,144
     160:	0000                	unimp
     162:	0501                	addi	a0,a0,0
     164:	0602                	c.slli64	a2
     166:	04090103          	lb	sp,64(s2)
     16a:	0100                	addi	s0,sp,128
     16c:	04090203          	lb	tp,64(s2)
     170:	0100                	addi	s0,sp,128
     172:	0204                	addi	s1,sp,256
     174:	0c05                	addi	s8,s8,1
     176:	0306                	slli	t1,t1,0x1
     178:	0939                	addi	s2,s2,14
     17a:	0000                	unimp
     17c:	0401                	addi	s0,s0,0
     17e:	0501                	addi	a0,a0,0
     180:	0605                	addi	a2,a2,1
     182:	097fbe03          	ld	t3,151(t6)
     186:	0004                	0x4
     188:	0301                	addi	t1,t1,0
     18a:	0901                	addi	s2,s2,0
     18c:	0014                	0x14
     18e:	0501                	addi	a0,a0,0
     190:	060a                	slli	a2,a2,0x2
     192:	00090003          	lb	zero,0(s2)
     196:	0100                	addi	s0,sp,128
     198:	0505                	addi	a0,a0,1
     19a:	0306                	slli	t1,t1,0x1
     19c:	0901                	addi	s2,s2,0
     19e:	0008                	0x8
     1a0:	0401                	addi	s0,s0,0
     1a2:	0302                	c.slli64	t1
     1a4:	00d4                	addi	a3,sp,68
     1a6:	0009                	c.nop	2
     1a8:	0100                	addi	s0,sp,128
     1aa:	0304                	addi	s1,sp,384
     1ac:	0205                	addi	tp,tp,1
     1ae:	097faa03          	lw	s4,151(t6)
     1b2:	0000                	unimp
     1b4:	0401                	addi	s0,s0,0
     1b6:	0502                	c.slli64	a0
     1b8:	060c                	addi	a1,sp,768
     1ba:	0900d603          	lhu	a2,144(ra)
     1be:	0000                	unimp
     1c0:	0401                	addi	s0,s0,0
     1c2:	06020503          	lb	a0,96(tp) # 60 <_text-0x9fffa0>
     1c6:	097fab03          	lw	s6,151(t6)
     1ca:	0004                	0x4
     1cc:	0501                	addi	a0,a0,0
     1ce:	0003060f          	0x3060f
     1d2:	0009                	c.nop	2
     1d4:	0100                	addi	s0,sp,128
     1d6:	0205                	addi	tp,tp,1
     1d8:	0306                	slli	t1,t1,0x1
     1da:	0901                	addi	s2,s2,0
     1dc:	0004                	0x4
     1de:	0501                	addi	a0,a0,0
     1e0:	0003060f          	0x3060f
     1e4:	0009                	c.nop	2
     1e6:	0100                	addi	s0,sp,128
     1e8:	0205                	addi	tp,tp,1
     1ea:	0306                	slli	t1,t1,0x1
     1ec:	0901                	addi	s2,s2,0
     1ee:	0004                	0x4
     1f0:	0501                	addi	a0,a0,0
     1f2:	0003060f          	0x3060f
     1f6:	0009                	c.nop	2
     1f8:	0100                	addi	s0,sp,128
     1fa:	0205                	addi	tp,tp,1
     1fc:	0306                	slli	t1,t1,0x1
     1fe:	0901                	addi	s2,s2,0
     200:	0004                	0x4
     202:	0501                	addi	a0,a0,0
     204:	0003060f          	0x3060f
     208:	0009                	c.nop	2
     20a:	0100                	addi	s0,sp,128
     20c:	0205                	addi	tp,tp,1
     20e:	0306                	slli	t1,t1,0x1
     210:	0901                	addi	s2,s2,0
     212:	0004                	0x4
     214:	0501                	addi	a0,a0,0
     216:	0003060f          	0x3060f
     21a:	0009                	c.nop	2
     21c:	0100                	addi	s0,sp,128
     21e:	0205                	addi	tp,tp,1
     220:	0306                	slli	t1,t1,0x1
     222:	0901                	addi	s2,s2,0
     224:	0004                	0x4
     226:	0501                	addi	a0,a0,0
     228:	0610                	addi	a2,sp,768
     22a:	00090003          	lb	zero,0(s2)
     22e:	0100                	addi	s0,sp,128
     230:	0205                	addi	tp,tp,1
     232:	0306                	slli	t1,t1,0x1
     234:	0901                	addi	s2,s2,0
     236:	0004                	0x4
     238:	0301                	addi	t1,t1,0
     23a:	0902                	c.slli64	s2
     23c:	0004                	0x4
     23e:	0401                	addi	s0,s0,0
     240:	0501                	addi	a0,a0,0
     242:	0305                	addi	t1,t1,1
     244:	097a                	slli	s2,s2,0x1e
     246:	0000                	unimp
     248:	0301                	addi	t1,t1,0
     24a:	0902                	c.slli64	s2
     24c:	0018                	0x18
     24e:	0401                	addi	s0,s0,0
     250:	0302                	c.slli64	t1
     252:	093d                	addi	s2,s2,15
     254:	0000                	unimp
     256:	0501                	addi	a0,a0,0
     258:	060c                	addi	a1,sp,768
     25a:	00090003          	lb	zero,0(s2)
     25e:	0100                	addi	s0,sp,128
     260:	0304                	addi	s1,sp,384
     262:	0205                	addi	tp,tp,1
     264:	0306                	slli	t1,t1,0x1
     266:	7fbe                	ld	t6,488(sp)
     268:	0809                	addi	a6,a6,2
     26a:	0100                	addi	s0,sp,128
     26c:	0f05                	addi	t5,t5,1
     26e:	0306                	slli	t1,t1,0x1
     270:	0900                	addi	s0,sp,144
     272:	0000                	unimp
     274:	0501                	addi	a0,a0,0
     276:	0602                	c.slli64	a2
     278:	04090103          	lb	sp,64(s2)
     27c:	0100                	addi	s0,sp,128
     27e:	0f05                	addi	t5,t5,1
     280:	0306                	slli	t1,t1,0x1
     282:	0900                	addi	s0,sp,144
     284:	0000                	unimp
     286:	0501                	addi	a0,a0,0
     288:	0602                	c.slli64	a2
     28a:	04090103          	lb	sp,64(s2)
     28e:	0100                	addi	s0,sp,128
     290:	0f05                	addi	t5,t5,1
     292:	0306                	slli	t1,t1,0x1
     294:	0900                	addi	s0,sp,144
     296:	0000                	unimp
     298:	0501                	addi	a0,a0,0
     29a:	0602                	c.slli64	a2
     29c:	04090103          	lb	sp,64(s2)
     2a0:	0100                	addi	s0,sp,128
     2a2:	0f05                	addi	t5,t5,1
     2a4:	0306                	slli	t1,t1,0x1
     2a6:	0900                	addi	s0,sp,144
     2a8:	0000                	unimp
     2aa:	0501                	addi	a0,a0,0
     2ac:	0602                	c.slli64	a2
     2ae:	04090103          	lb	sp,64(s2)
     2b2:	0100                	addi	s0,sp,128
     2b4:	0f05                	addi	t5,t5,1
     2b6:	0306                	slli	t1,t1,0x1
     2b8:	0900                	addi	s0,sp,144
     2ba:	0000                	unimp
     2bc:	0501                	addi	a0,a0,0
     2be:	0602                	c.slli64	a2
     2c0:	04090103          	lb	sp,64(s2)
     2c4:	0100                	addi	s0,sp,128
     2c6:	0f05                	addi	t5,t5,1
     2c8:	0306                	slli	t1,t1,0x1
     2ca:	0900                	addi	s0,sp,144
     2cc:	0000                	unimp
     2ce:	0501                	addi	a0,a0,0
     2d0:	0602                	c.slli64	a2
     2d2:	04090103          	lb	sp,64(s2)
     2d6:	0100                	addi	s0,sp,128
     2d8:	1005                	c.nop	-31
     2da:	0306                	slli	t1,t1,0x1
     2dc:	0900                	addi	s0,sp,144
     2de:	0000                	unimp
     2e0:	0501                	addi	a0,a0,0
     2e2:	0602                	c.slli64	a2
     2e4:	04090103          	lb	sp,64(s2)
     2e8:	0100                	addi	s0,sp,128
     2ea:	04090203          	lb	tp,64(s2)
     2ee:	0100                	addi	s0,sp,128
     2f0:	0204                	addi	s1,sp,256
     2f2:	0c05                	addi	s8,s8,1
     2f4:	0306                	slli	t1,t1,0x1
     2f6:	0939                	addi	s2,s2,14
     2f8:	0000                	unimp
     2fa:	0401                	addi	s0,s0,0
     2fc:	0501                	addi	a0,a0,0
     2fe:	0605                	addi	a2,a2,1
     300:	04094403          	lbu	s0,64(s2)
     304:	0100                	addi	s0,sp,128
     306:	14090103          	lb	sp,320(s2)
     30a:	0100                	addi	s0,sp,128
     30c:	00090103          	lb	sp,0(s2)
     310:	0100                	addi	s0,sp,128
     312:	0204                	addi	s1,sp,256
     314:	00092603          	lw	a2,0(s2)
     318:	0100                	addi	s0,sp,128
     31a:	0304                	addi	s1,sp,384
     31c:	0205                	addi	tp,tp,1
     31e:	00095203          	lhu	tp,0(s2)
     322:	0100                	addi	s0,sp,128
     324:	0f05                	addi	t5,t5,1
     326:	0306                	slli	t1,t1,0x1
     328:	0900                	addi	s0,sp,144
     32a:	0000                	unimp
     32c:	0501                	addi	a0,a0,0
     32e:	0602                	c.slli64	a2
     330:	04090103          	lb	sp,64(s2)
     334:	0100                	addi	s0,sp,128
     336:	0f05                	addi	t5,t5,1
     338:	0306                	slli	t1,t1,0x1
     33a:	0900                	addi	s0,sp,144
     33c:	0000                	unimp
     33e:	0501                	addi	a0,a0,0
     340:	0602                	c.slli64	a2
     342:	08090103          	lb	sp,128(s2)
     346:	0100                	addi	s0,sp,128
     348:	0f05                	addi	t5,t5,1
     34a:	0306                	slli	t1,t1,0x1
     34c:	0900                	addi	s0,sp,144
     34e:	0000                	unimp
     350:	0501                	addi	a0,a0,0
     352:	0602                	c.slli64	a2
     354:	04090103          	lb	sp,64(s2)
     358:	0100                	addi	s0,sp,128
     35a:	0f05                	addi	t5,t5,1
     35c:	0306                	slli	t1,t1,0x1
     35e:	0900                	addi	s0,sp,144
     360:	0000                	unimp
     362:	0501                	addi	a0,a0,0
     364:	0602                	c.slli64	a2
     366:	04090103          	lb	sp,64(s2)
     36a:	0100                	addi	s0,sp,128
     36c:	0f05                	addi	t5,t5,1
     36e:	0306                	slli	t1,t1,0x1
     370:	0900                	addi	s0,sp,144
     372:	0000                	unimp
     374:	0501                	addi	a0,a0,0
     376:	0602                	c.slli64	a2
     378:	04090103          	lb	sp,64(s2)
     37c:	0100                	addi	s0,sp,128
     37e:	0f05                	addi	t5,t5,1
     380:	0306                	slli	t1,t1,0x1
     382:	0900                	addi	s0,sp,144
     384:	0000                	unimp
     386:	0501                	addi	a0,a0,0
     388:	0602                	c.slli64	a2
     38a:	04090103          	lb	sp,64(s2)
     38e:	0100                	addi	s0,sp,128
     390:	1005                	c.nop	-31
     392:	0306                	slli	t1,t1,0x1
     394:	0900                	addi	s0,sp,144
     396:	0000                	unimp
     398:	0501                	addi	a0,a0,0
     39a:	0602                	c.slli64	a2
     39c:	04090103          	lb	sp,64(s2)
     3a0:	0100                	addi	s0,sp,128
     3a2:	04090203          	lb	tp,64(s2)
     3a6:	0100                	addi	s0,sp,128
     3a8:	0104                	addi	s1,sp,128
     3aa:	0505                	addi	a0,a0,1
     3ac:	00090003          	lb	zero,0(s2)
     3b0:	0100                	addi	s0,sp,128
     3b2:	14090203          	lb	tp,320(s2)
     3b6:	0100                	addi	s0,sp,128
     3b8:	0204                	addi	s1,sp,256
     3ba:	00093303          	ld	t1,0(s2)
     3be:	0100                	addi	s0,sp,128
     3c0:	0304                	addi	s1,sp,384
     3c2:	0205                	addi	tp,tp,1
     3c4:	00094203          	lbu	tp,0(s2)
     3c8:	0100                	addi	s0,sp,128
     3ca:	0f05                	addi	t5,t5,1
     3cc:	0306                	slli	t1,t1,0x1
     3ce:	0900                	addi	s0,sp,144
     3d0:	0000                	unimp
     3d2:	0501                	addi	a0,a0,0
     3d4:	0602                	c.slli64	a2
     3d6:	04090103          	lb	sp,64(s2)
     3da:	0100                	addi	s0,sp,128
     3dc:	0f05                	addi	t5,t5,1
     3de:	0306                	slli	t1,t1,0x1
     3e0:	0900                	addi	s0,sp,144
     3e2:	0000                	unimp
     3e4:	0501                	addi	a0,a0,0
     3e6:	0602                	c.slli64	a2
     3e8:	04090103          	lb	sp,64(s2)
     3ec:	0100                	addi	s0,sp,128
     3ee:	0f05                	addi	t5,t5,1
     3f0:	0306                	slli	t1,t1,0x1
     3f2:	0900                	addi	s0,sp,144
     3f4:	0000                	unimp
     3f6:	0501                	addi	a0,a0,0
     3f8:	0602                	c.slli64	a2
     3fa:	04090103          	lb	sp,64(s2)
     3fe:	0100                	addi	s0,sp,128
     400:	0f05                	addi	t5,t5,1
     402:	0306                	slli	t1,t1,0x1
     404:	0900                	addi	s0,sp,144
     406:	0000                	unimp
     408:	0501                	addi	a0,a0,0
     40a:	0602                	c.slli64	a2
     40c:	04090103          	lb	sp,64(s2)
     410:	0100                	addi	s0,sp,128
     412:	0f05                	addi	t5,t5,1
     414:	0306                	slli	t1,t1,0x1
     416:	0900                	addi	s0,sp,144
     418:	0000                	unimp
     41a:	0501                	addi	a0,a0,0
     41c:	0602                	c.slli64	a2
     41e:	04090103          	lb	sp,64(s2)
     422:	0100                	addi	s0,sp,128
     424:	0f05                	addi	t5,t5,1
     426:	0306                	slli	t1,t1,0x1
     428:	0900                	addi	s0,sp,144
     42a:	0000                	unimp
     42c:	0501                	addi	a0,a0,0
     42e:	0602                	c.slli64	a2
     430:	04090103          	lb	sp,64(s2)
     434:	0100                	addi	s0,sp,128
     436:	1005                	c.nop	-31
     438:	0306                	slli	t1,t1,0x1
     43a:	0900                	addi	s0,sp,144
     43c:	0000                	unimp
     43e:	0501                	addi	a0,a0,0
     440:	0602                	c.slli64	a2
     442:	04090103          	lb	sp,64(s2)
     446:	0100                	addi	s0,sp,128
     448:	04090203          	lb	tp,64(s2)
     44c:	0100                	addi	s0,sp,128
     44e:	0104                	addi	s1,sp,128
     450:	0505                	addi	a0,a0,1
     452:	00090403          	lb	s0,0(s2)
     456:	0100                	addi	s0,sp,128
     458:	0204                	addi	s1,sp,256
     45a:	00093503          	ld	a0,0(s2)
     45e:	0100                	addi	s0,sp,128
     460:	0304                	addi	s1,sp,384
     462:	0205                	addi	tp,tp,1
     464:	097fbe03          	ld	t3,151(t6)
     468:	0000                	unimp
     46a:	0501                	addi	a0,a0,0
     46c:	0003060f          	0x3060f
     470:	0009                	c.nop	2
     472:	0100                	addi	s0,sp,128
     474:	0205                	addi	tp,tp,1
     476:	0306                	slli	t1,t1,0x1
     478:	0901                	addi	s2,s2,0
     47a:	0004                	0x4
     47c:	0501                	addi	a0,a0,0
     47e:	0003060f          	0x3060f
     482:	0009                	c.nop	2
     484:	0100                	addi	s0,sp,128
     486:	0205                	addi	tp,tp,1
     488:	0306                	slli	t1,t1,0x1
     48a:	0901                	addi	s2,s2,0
     48c:	0004                	0x4
     48e:	0301                	addi	t1,t1,0
     490:	0901                	addi	s2,s2,0
     492:	0000                	unimp
     494:	0501                	addi	a0,a0,0
     496:	0003060f          	0x3060f
     49a:	0009                	c.nop	2
     49c:	0100                	addi	s0,sp,128
     49e:	0205                	addi	tp,tp,1
     4a0:	0306                	slli	t1,t1,0x1
     4a2:	0901                	addi	s2,s2,0
     4a4:	0004                	0x4
     4a6:	0301                	addi	t1,t1,0
     4a8:	0901                	addi	s2,s2,0
     4aa:	0000                	unimp
     4ac:	0301                	addi	t1,t1,0
     4ae:	0901                	addi	s2,s2,0
     4b0:	0000                	unimp
     4b2:	0501                	addi	a0,a0,0
     4b4:	0610                	addi	a2,sp,768
     4b6:	00090003          	lb	zero,0(s2)
     4ba:	0100                	addi	s0,sp,128
     4bc:	0205                	addi	tp,tp,1
     4be:	0306                	slli	t1,t1,0x1
     4c0:	0901                	addi	s2,s2,0
     4c2:	0004                	0x4
     4c4:	0301                	addi	t1,t1,0
     4c6:	0902                	c.slli64	s2
     4c8:	0004                	0x4
     4ca:	0401                	addi	s0,s0,0
     4cc:	0501                	addi	a0,a0,0
     4ce:	0305                	addi	t1,t1,1
     4d0:	0905                	addi	s2,s2,1
     4d2:	0000                	unimp
     4d4:	0301                	addi	t1,t1,0
     4d6:	0901                	addi	s2,s2,0
     4d8:	0000                	unimp
     4da:	0401                	addi	s0,s0,0
     4dc:	0302                	c.slli64	t1
     4de:	000900c7          	fmsub.s	ft1,fs2,ft0,ft0,rne
     4e2:	0100                	addi	s0,sp,128
     4e4:	0304                	addi	s1,sp,384
     4e6:	0205                	addi	tp,tp,1
     4e8:	097faa03          	lw	s4,151(t6)
     4ec:	0000                	unimp
     4ee:	0401                	addi	s0,s0,0
     4f0:	0502                	c.slli64	a0
     4f2:	060c                	addi	a1,sp,768
     4f4:	0900d603          	lhu	a2,144(ra)
     4f8:	0000                	unimp
     4fa:	0401                	addi	s0,s0,0
     4fc:	06020503          	lb	a0,96(tp) # 60 <_text-0x9fffa0>
     500:	097fab03          	lw	s6,151(t6)
     504:	0004                	0x4
     506:	0501                	addi	a0,a0,0
     508:	0003060f          	0x3060f
     50c:	0009                	c.nop	2
     50e:	0100                	addi	s0,sp,128
     510:	0205                	addi	tp,tp,1
     512:	0306                	slli	t1,t1,0x1
     514:	0901                	addi	s2,s2,0
     516:	0004                	0x4
     518:	0501                	addi	a0,a0,0
     51a:	0003060f          	0x3060f
     51e:	0009                	c.nop	2
     520:	0100                	addi	s0,sp,128
     522:	0205                	addi	tp,tp,1
     524:	0306                	slli	t1,t1,0x1
     526:	0901                	addi	s2,s2,0
     528:	0004                	0x4
     52a:	0501                	addi	a0,a0,0
     52c:	0003060f          	0x3060f
     530:	0009                	c.nop	2
     532:	0100                	addi	s0,sp,128
     534:	0205                	addi	tp,tp,1
     536:	0306                	slli	t1,t1,0x1
     538:	0901                	addi	s2,s2,0
     53a:	0004                	0x4
     53c:	0301                	addi	t1,t1,0
     53e:	0901                	addi	s2,s2,0
     540:	0000                	unimp
     542:	0301                	addi	t1,t1,0
     544:	0901                	addi	s2,s2,0
     546:	0000                	unimp
     548:	0501                	addi	a0,a0,0
     54a:	0610                	addi	a2,sp,768
     54c:	00090003          	lb	zero,0(s2)
     550:	0100                	addi	s0,sp,128
     552:	0205                	addi	tp,tp,1
     554:	0306                	slli	t1,t1,0x1
     556:	0901                	addi	s2,s2,0
     558:	0004                	0x4
     55a:	0301                	addi	t1,t1,0
     55c:	0902                	c.slli64	s2
     55e:	0004                	0x4
     560:	0401                	addi	s0,s0,0
     562:	0501                	addi	a0,a0,0
     564:	0305                	addi	t1,t1,1
     566:	00000907          	0x907
     56a:	0001                	nop
     56c:	0402                	c.slli64	s0
     56e:	0301                	addi	t1,t1,0
     570:	0901                	addi	s2,s2,0
     572:	0018                	0x18
     574:	0001                	nop
     576:	0402                	c.slli64	s0
     578:	0301                	addi	t1,t1,0
     57a:	0900                	addi	s0,sp,144
     57c:	0000                	unimp
     57e:	0901                	addi	s2,s2,0
     580:	0004                	0x4
     582:	0100                	addi	s0,sp,128
     584:	1a01                	addi	s4,s4,-32
     586:	0001                	nop
     588:	0500                	addi	s0,sp,640
     58a:	0800                	addi	s0,sp,16
     58c:	4f00                	lw	s0,24(a4)
     58e:	0000                	unimp
     590:	0100                	addi	s0,sp,128
     592:	0101                	addi	sp,sp,0
     594:	000d0efb          	0xd0efb
     598:	0101                	addi	sp,sp,0
     59a:	0101                	addi	sp,sp,0
     59c:	0000                	unimp
     59e:	0100                	addi	s0,sp,128
     5a0:	0000                	unimp
     5a2:	0101                	addi	sp,sp,0
     5a4:	1f01                	addi	t5,t5,-32
     5a6:	0004                	0x4
     5a8:	0000                	unimp
     5aa:	4b00                	lw	s0,16(a4)
     5ac:	0000                	unimp
     5ae:	8600                	0x8600
     5b0:	0000                	unimp
     5b2:	3d00                	fld	fs0,56(a0)
     5b4:	0000                	unimp
     5b6:	0200                	addi	s0,sp,256
     5b8:	1f01                	addi	t5,t5,-32
     5ba:	0f02                	c.slli64	t5
     5bc:	00007c07          	0x7c07
     5c0:	0000                	unimp
     5c2:	007c                	addi	a5,sp,12
     5c4:	0000                	unimp
     5c6:	5500                	lw	s0,40(a0)
     5c8:	0000                	unimp
     5ca:	0100                	addi	s0,sp,128
     5cc:	0062                	c.slli	zero,0x18
     5ce:	0000                	unimp
     5d0:	7502                	ld	a0,32(sp)
     5d2:	0000                	unimp
     5d4:	0300                	addi	s0,sp,384
     5d6:	006c                	addi	a1,sp,12
     5d8:	0000                	unimp
     5da:	9201                	srli	a2,a2,0x20
     5dc:	0000                	unimp
     5de:	0100                	addi	s0,sp,128
     5e0:	3205                	addiw	tp,tp,-31
     5e2:	0900                	addi	s0,sp,144
     5e4:	9402                	jalr	s0
     5e6:	a001                	j	5e6 <_text-0x9ffa1a>
     5e8:	0000                	unimp
     5ea:	0000                	unimp
     5ec:	1700                	addi	s0,sp,928
     5ee:	0505                	addi	a0,a0,1
     5f0:	10090103          	lb	sp,256(s2)
     5f4:	0100                	addi	s0,sp,128
     5f6:	0f05                	addi	t5,t5,1
     5f8:	0306                	slli	t1,t1,0x1
     5fa:	0900                	addi	s0,sp,144
     5fc:	0000                	unimp
     5fe:	0501                	addi	a0,a0,0
     600:	0605                	addi	a2,a2,1
     602:	08090103          	lb	sp,128(s2)
     606:	0100                	addi	s0,sp,128
     608:	0204                	addi	s1,sp,256
     60a:	00093603          	ld	a2,0(s2)
     60e:	0100                	addi	s0,sp,128
     610:	0304                	addi	s1,sp,384
     612:	0205                	addi	tp,tp,1
     614:	00094a03          	lbu	s4,0(s2)
     618:	0100                	addi	s0,sp,128
     61a:	00090103          	lb	sp,0(s2)
     61e:	0100                	addi	s0,sp,128
     620:	0f05                	addi	t5,t5,1
     622:	0306                	slli	t1,t1,0x1
     624:	0900                	addi	s0,sp,144
     626:	0000                	unimp
     628:	0501                	addi	a0,a0,0
     62a:	0602                	c.slli64	a2
     62c:	04090103          	lb	sp,64(s2)
     630:	0100                	addi	s0,sp,128
     632:	0f05                	addi	t5,t5,1
     634:	0306                	slli	t1,t1,0x1
     636:	0900                	addi	s0,sp,144
     638:	0000                	unimp
     63a:	0501                	addi	a0,a0,0
     63c:	0602                	c.slli64	a2
     63e:	04090103          	lb	sp,64(s2)
     642:	0100                	addi	s0,sp,128
     644:	0f05                	addi	t5,t5,1
     646:	0306                	slli	t1,t1,0x1
     648:	0900                	addi	s0,sp,144
     64a:	0000                	unimp
     64c:	0501                	addi	a0,a0,0
     64e:	0602                	c.slli64	a2
     650:	04090103          	lb	sp,64(s2)
     654:	0100                	addi	s0,sp,128
     656:	0f05                	addi	t5,t5,1
     658:	0306                	slli	t1,t1,0x1
     65a:	0900                	addi	s0,sp,144
     65c:	0000                	unimp
     65e:	0501                	addi	a0,a0,0
     660:	0602                	c.slli64	a2
     662:	04090103          	lb	sp,64(s2)
     666:	0100                	addi	s0,sp,128
     668:	0f05                	addi	t5,t5,1
     66a:	0306                	slli	t1,t1,0x1
     66c:	0900                	addi	s0,sp,144
     66e:	0000                	unimp
     670:	0501                	addi	a0,a0,0
     672:	0602                	c.slli64	a2
     674:	04090103          	lb	sp,64(s2)
     678:	0100                	addi	s0,sp,128
     67a:	1005                	c.nop	-31
     67c:	0306                	slli	t1,t1,0x1
     67e:	0900                	addi	s0,sp,144
     680:	0000                	unimp
     682:	0501                	addi	a0,a0,0
     684:	0602                	c.slli64	a2
     686:	04090103          	lb	sp,64(s2)
     68a:	0100                	addi	s0,sp,128
     68c:	04090203          	lb	tp,64(s2)
     690:	0100                	addi	s0,sp,128
     692:	0104                	addi	s1,sp,128
     694:	0105                	addi	sp,sp,1
     696:	0306                	slli	t1,t1,0x1
     698:	0978                	addi	a4,sp,156
     69a:	0000                	unimp
     69c:	0901                	addi	s2,s2,0
     69e:	0010                	0x10
     6a0:	0100                	addi	s0,sp,128
     6a2:	7b01                	lui	s6,0xfffe0
     6a4:	0021                	c.nop	8
     6a6:	0500                	addi	s0,sp,640
     6a8:	0800                	addi	s0,sp,16
     6aa:	4a00                	lw	s0,16(a2)
     6ac:	0000                	unimp
     6ae:	0100                	addi	s0,sp,128
     6b0:	0101                	addi	sp,sp,0
     6b2:	000d0efb          	0xd0efb
     6b6:	0101                	addi	sp,sp,0
     6b8:	0101                	addi	sp,sp,0
     6ba:	0000                	unimp
     6bc:	0100                	addi	s0,sp,128
     6be:	0000                	unimp
     6c0:	0101                	addi	sp,sp,0
     6c2:	1f01                	addi	t5,t5,-32
     6c4:	0004                	0x4
     6c6:	0000                	unimp
     6c8:	4b00                	lw	s0,16(a4)
     6ca:	0000                	unimp
     6cc:	8600                	0x8600
     6ce:	0000                	unimp
     6d0:	3d00                	fld	fs0,56(a0)
     6d2:	0000                	unimp
     6d4:	0200                	addi	s0,sp,256
     6d6:	1f01                	addi	t5,t5,-32
     6d8:	0f02                	c.slli64	t5
     6da:	9c06                	add	s8,s8,ra
     6dc:	0000                	unimp
     6de:	0000                	unimp
     6e0:	009c                	addi	a5,sp,64
     6e2:	0000                	unimp
     6e4:	6c00                	ld	s0,24(s0)
     6e6:	0000                	unimp
     6e8:	0100                	addi	s0,sp,128
     6ea:	0055                	c.nop	21
     6ec:	0000                	unimp
     6ee:	6201                	0x6201
     6f0:	0000                	unimp
     6f2:	0200                	addi	s0,sp,256
     6f4:	0075                	c.nop	29
     6f6:	0000                	unimp
     6f8:	003c0503          	lb	a0,3(s8) # 1d003 <_text-0x9e2ffd>
     6fc:	0209                	addi	tp,tp,2
     6fe:	01d8                	addi	a4,sp,196
     700:	00a0                	addi	s0,sp,72
     702:	0000                	unimp
     704:	0000                	unimp
     706:	0101b603          	ld	a2,16(gp)
     70a:	0505                	addi	a0,a0,1
     70c:	0c090103          	lb	sp,192(s2)
     710:	0100                	addi	s0,sp,128
     712:	00090203          	lb	tp,0(s2)
     716:	0100                	addi	s0,sp,128
     718:	0c090203          	lb	tp,192(s2)
     71c:	0100                	addi	s0,sp,128
     71e:	0805                	addi	a6,a6,1
     720:	0306                	slli	t1,t1,0x1
     722:	0900                	addi	s0,sp,144
     724:	0000                	unimp
     726:	0501                	addi	a0,a0,0
     728:	08030617          	auipc	a2,0x8030
     72c:	0409                	addi	s0,s0,2
     72e:	0100                	addi	s0,sp,128
     730:	1405                	addi	s0,s0,-31
     732:	0306                	slli	t1,t1,0x1
     734:	0901                	addi	s2,s2,0
     736:	0020                	addi	s0,sp,8
     738:	0501                	addi	a0,a0,0
     73a:	000d                	c.nop	3
     73c:	0402                	c.slli64	s0
     73e:	00030603          	lb	a2,0(t1) # ffffffffffffa000 <end+0xfffffffffeff8000>
     742:	0409                	addi	s0,s0,2
     744:	0100                	addi	s0,sp,128
     746:	1405                	addi	s0,s0,-31
     748:	0200                	addi	s0,sp,256
     74a:	0304                	addi	s1,sp,384
     74c:	0306                	slli	t1,t1,0x1
     74e:	0900                	addi	s0,sp,144
     750:	0000                	unimp
     752:	0501                	addi	a0,a0,0
     754:	0026                	c.slli	zero,0x9
     756:	0402                	c.slli64	s0
     758:	7f030603          	lb	a2,2032(t1)
     75c:	0409                	addi	s0,s0,2
     75e:	0100                	addi	s0,sp,128
     760:	1705                	addi	a4,a4,-31
     762:	0200                	addi	s0,sp,256
     764:	0304                	addi	s1,sp,384
     766:	00090003          	lb	zero,0(s2)
     76a:	0100                	addi	s0,sp,128
     76c:	0905                	addi	s2,s2,1
     76e:	08090203          	lb	tp,128(s2)
     772:	0100                	addi	s0,sp,128
     774:	1905                	addi	s2,s2,-31
     776:	0306                	slli	t1,t1,0x1
     778:	0900                	addi	s0,sp,144
     77a:	0000                	unimp
     77c:	0501                	addi	a0,a0,0
     77e:	0605                	addi	a2,a2,1
     780:	08090203          	lb	tp,128(s2)
     784:	0100                	addi	s0,sp,128
     786:	1105                	addi	sp,sp,-31
     788:	0306                	slli	t1,t1,0x1
     78a:	0900                	addi	s0,sp,144
     78c:	0000                	unimp
     78e:	0501                	addi	a0,a0,0
     790:	0301                	addi	t1,t1,0
     792:	0901                	addi	s2,s2,0
     794:	0008                	0x8
     796:	0501                	addi	a0,a0,0
     798:	0609                	addi	a2,a2,2
     79a:	14097503          	0x14097503
     79e:	0100                	addi	s0,sp,128
     7a0:	0e05                	addi	t3,t3,1
     7a2:	0306                	slli	t1,t1,0x1
     7a4:	0900                	addi	s0,sp,144
     7a6:	0000                	unimp
     7a8:	0501                	addi	a0,a0,0
     7aa:	0609                	addi	a2,a2,2
     7ac:	04090103          	lb	sp,64(s2)
     7b0:	0100                	addi	s0,sp,128
     7b2:	1705                	addi	a4,a4,-31
     7b4:	00090003          	lb	zero,0(s2)
     7b8:	0100                	addi	s0,sp,128
     7ba:	1405                	addi	s0,s0,-31
     7bc:	0306                	slli	t1,t1,0x1
     7be:	0901                	addi	s2,s2,0
     7c0:	0008                	0x8
     7c2:	0501                	addi	a0,a0,0
     7c4:	000d                	c.nop	3
     7c6:	0402                	c.slli64	s0
     7c8:	00030603          	lb	a2,0(t1)
     7cc:	0409                	addi	s0,s0,2
     7ce:	0100                	addi	s0,sp,128
     7d0:	1405                	addi	s0,s0,-31
     7d2:	0200                	addi	s0,sp,256
     7d4:	0304                	addi	s1,sp,384
     7d6:	0306                	slli	t1,t1,0x1
     7d8:	0900                	addi	s0,sp,144
     7da:	0000                	unimp
     7dc:	0501                	addi	a0,a0,0
     7de:	0022                	c.slli	zero,0x8
     7e0:	0402                	c.slli64	s0
     7e2:	7f030603          	lb	a2,2032(t1)
     7e6:	0809                	addi	a6,a6,2
     7e8:	0100                	addi	s0,sp,128
     7ea:	1705                	addi	a4,a4,-31
     7ec:	0200                	addi	s0,sp,256
     7ee:	0304                	addi	s1,sp,384
     7f0:	00090003          	lb	zero,0(s2)
     7f4:	0100                	addi	s0,sp,128
     7f6:	4005                	c.li	zero,1
     7f8:	10090c03          	lb	s8,256(s2)
     7fc:	0100                	addi	s0,sp,128
     7fe:	0505                	addi	a0,a0,1
     800:	0c090103          	lb	sp,192(s2)
     804:	0100                	addi	s0,sp,128
     806:	00090103          	lb	sp,0(s2)
     80a:	0100                	addi	s0,sp,128
     80c:	00090103          	lb	sp,0(s2)
     810:	0100                	addi	s0,sp,128
     812:	00090103          	lb	sp,0(s2)
     816:	0100                	addi	s0,sp,128
     818:	0c05                	addi	s8,s8,1
     81a:	00090003          	lb	zero,0(s2)
     81e:	0100                	addi	s0,sp,128
     820:	0905                	addi	s2,s2,1
     822:	0306                	slli	t1,t1,0x1
     824:	097e                	slli	s2,s2,0x1f
     826:	000c                	0xc
     828:	0601                	addi	a2,a2,0
     82a:	04090303          	lb	t1,64(s2)
     82e:	0100                	addi	s0,sp,128
     830:	0c05                	addi	s8,s8,1
     832:	0306                	slli	t1,t1,0x1
     834:	0900                	addi	s0,sp,144
     836:	0004                	0x4
     838:	0601                	addi	a2,a2,0
     83a:	04097f03          	0x4097f03
     83e:	0100                	addi	s0,sp,128
     840:	0505                	addi	a0,a0,1
     842:	0c090203          	lb	tp,192(s2)
     846:	0100                	addi	s0,sp,128
     848:	10090303          	lb	t1,256(s2)
     84c:	0100                	addi	s0,sp,128
     84e:	0805                	addi	a6,a6,1
     850:	0306                	slli	t1,t1,0x1
     852:	0900                	addi	s0,sp,144
     854:	0000                	unimp
     856:	0501                	addi	a0,a0,0
     858:	09030617          	auipc	a2,0x9030
     85c:	0409                	addi	s0,s0,2
     85e:	0100                	addi	s0,sp,128
     860:	2005                	0x2005
     862:	0306                	slli	t1,t1,0x1
     864:	0900                	addi	s0,sp,144
     866:	0000                	unimp
     868:	0501                	addi	a0,a0,0
     86a:	09000317          	auipc	t1,0x9000
     86e:	0004                	0x4
     870:	0501                	addi	a0,a0,0
     872:	0314                	addi	a3,sp,384
     874:	0901                	addi	s2,s2,0
     876:	001c                	0x1c
     878:	0501                	addi	a0,a0,0
     87a:	000d                	c.nop	3
     87c:	0402                	c.slli64	s0
     87e:	00030603          	lb	a2,0(t1) # 900086a <end+0x7ffe86a>
     882:	0409                	addi	s0,s0,2
     884:	0100                	addi	s0,sp,128
     886:	1405                	addi	s0,s0,-31
     888:	0200                	addi	s0,sp,256
     88a:	0304                	addi	s1,sp,384
     88c:	0306                	slli	t1,t1,0x1
     88e:	0900                	addi	s0,sp,144
     890:	0000                	unimp
     892:	0501                	addi	a0,a0,0
     894:	0028                	addi	a0,sp,8
     896:	0402                	c.slli64	s0
     898:	7f030603          	lb	a2,2032(t1)
     89c:	0409                	addi	s0,s0,2
     89e:	0100                	addi	s0,sp,128
     8a0:	1705                	addi	a4,a4,-31
     8a2:	0200                	addi	s0,sp,256
     8a4:	0304                	addi	s1,sp,384
     8a6:	00090003          	lb	zero,0(s2)
     8aa:	0100                	addi	s0,sp,128
     8ac:	2205                	addiw	tp,tp,1
     8ae:	08090203          	lb	tp,128(s2)
     8b2:	0100                	addi	s0,sp,128
     8b4:	1705                	addi	a4,a4,-31
     8b6:	0306                	slli	t1,t1,0x1
     8b8:	0901                	addi	s2,s2,0
     8ba:	0004                	0x4
     8bc:	0501                	addi	a0,a0,0
     8be:	000d                	c.nop	3
     8c0:	0402                	c.slli64	s0
     8c2:	00030603          	lb	a2,0(t1)
     8c6:	0409                	addi	s0,s0,2
     8c8:	0100                	addi	s0,sp,128
     8ca:	1705                	addi	a4,a4,-31
     8cc:	0200                	addi	s0,sp,256
     8ce:	0304                	addi	s1,sp,384
     8d0:	0306                	slli	t1,t1,0x1
     8d2:	0900                	addi	s0,sp,144
     8d4:	0000                	unimp
     8d6:	0501                	addi	a0,a0,0
     8d8:	0014                	0x14
     8da:	0402                	c.slli64	s0
     8dc:	09000303          	lb	t1,144(zero) # 90 <_text-0x9fff70>
     8e0:	000c                	0xc
     8e2:	0501                	addi	a0,a0,0
     8e4:	002d                	c.nop	11
     8e6:	0402                	c.slli64	s0
     8e8:	7f030603          	lb	a2,2032(t1)
     8ec:	0809                	addi	a6,a6,2
     8ee:	0100                	addi	s0,sp,128
     8f0:	2205                	addiw	tp,tp,1
     8f2:	0200                	addi	s0,sp,256
     8f4:	0304                	addi	s1,sp,384
     8f6:	00090003          	lb	zero,0(s2)
     8fa:	0100                	addi	s0,sp,128
     8fc:	1705                	addi	a4,a4,-31
     8fe:	10097703          	0x10097703
     902:	0100                	addi	s0,sp,128
     904:	0d05                	addi	s10,s10,1
     906:	0200                	addi	s0,sp,256
     908:	0304                	addi	s1,sp,384
     90a:	0c090103          	lb	sp,192(s2)
     90e:	0100                	addi	s0,sp,128
     910:	1705                	addi	a4,a4,-31
     912:	0200                	addi	s0,sp,256
     914:	0304                	addi	s1,sp,384
     916:	0306                	slli	t1,t1,0x1
     918:	0900                	addi	s0,sp,144
     91a:	0000                	unimp
     91c:	0501                	addi	a0,a0,0
     91e:	0014                	0x14
     920:	0402                	c.slli64	s0
     922:	09000303          	lb	t1,144(zero) # 90 <_text-0x9fff70>
     926:	0004                	0x4
     928:	0501                	addi	a0,a0,0
     92a:	001f 0402 0603      	0x6030402001f
     930:	04097f03          	0x4097f03
     934:	0100                	addi	s0,sp,128
     936:	1705                	addi	a4,a4,-31
     938:	0200                	addi	s0,sp,256
     93a:	0304                	addi	s1,sp,384
     93c:	00090003          	lb	zero,0(s2)
     940:	0100                	addi	s0,sp,128
     942:	1905                	addi	s2,s2,-31
     944:	14090203          	lb	tp,320(s2)
     948:	0100                	addi	s0,sp,128
     94a:	1405                	addi	s0,s0,-31
     94c:	0306                	slli	t1,t1,0x1
     94e:	0901                	addi	s2,s2,0
     950:	0024                	addi	s1,sp,8
     952:	0501                	addi	a0,a0,0
     954:	000d                	c.nop	3
     956:	0402                	c.slli64	s0
     958:	00030603          	lb	a2,0(t1)
     95c:	0409                	addi	s0,s0,2
     95e:	0100                	addi	s0,sp,128
     960:	1405                	addi	s0,s0,-31
     962:	0200                	addi	s0,sp,256
     964:	0304                	addi	s1,sp,384
     966:	0306                	slli	t1,t1,0x1
     968:	0900                	addi	s0,sp,144
     96a:	0000                	unimp
     96c:	0501                	addi	a0,a0,0
     96e:	0024                	addi	s1,sp,8
     970:	0402                	c.slli64	s0
     972:	7f030603          	lb	a2,2032(t1)
     976:	0409                	addi	s0,s0,2
     978:	0100                	addi	s0,sp,128
     97a:	1905                	addi	s2,s2,-31
     97c:	0200                	addi	s0,sp,256
     97e:	0304                	addi	s1,sp,384
     980:	00090003          	lb	zero,0(s2)
     984:	0100                	addi	s0,sp,128
     986:	0505                	addi	a0,a0,1
     988:	08090a03          	lb	s4,128(s2)
     98c:	0100                	addi	s0,sp,128
     98e:	1105                	addi	sp,sp,-31
     990:	0306                	slli	t1,t1,0x1
     992:	0900                	addi	s0,sp,144
     994:	0000                	unimp
     996:	0501                	addi	a0,a0,0
     998:	0301                	addi	t1,t1,0
     99a:	0901                	addi	s2,s2,0
     99c:	0008                	0x8
     99e:	0501                	addi	a0,a0,0
     9a0:	0309                	addi	t1,t1,2
     9a2:	096a                	slli	s2,s2,0x1a
     9a4:	000c                	0xc
     9a6:	0501                	addi	a0,a0,0
     9a8:	0605                	addi	a2,a2,1
     9aa:	08090403          	lb	s0,128(s2)
     9ae:	0100                	addi	s0,sp,128
     9b0:	0c090303          	lb	t1,192(s2)
     9b4:	0100                	addi	s0,sp,128
     9b6:	0805                	addi	a6,a6,1
     9b8:	0306                	slli	t1,t1,0x1
     9ba:	0900                	addi	s0,sp,144
     9bc:	0000                	unimp
     9be:	0501                	addi	a0,a0,0
     9c0:	09030617          	auipc	a2,0x9030
     9c4:	0409                	addi	s0,s0,2
     9c6:	0100                	addi	s0,sp,128
     9c8:	2005                	0x2005
     9ca:	0306                	slli	t1,t1,0x1
     9cc:	0900                	addi	s0,sp,144
     9ce:	0000                	unimp
     9d0:	0501                	addi	a0,a0,0
     9d2:	0309                	addi	t1,t1,2
     9d4:	0970                	addi	a2,sp,156
     9d6:	0004                	0x4
     9d8:	0501                	addi	a0,a0,0
     9da:	09100317          	auipc	t1,0x9100
     9de:	0004                	0x4
     9e0:	0501                	addi	a0,a0,0
     9e2:	0601                	addi	a2,a2,0
     9e4:	08090a03          	lb	s4,128(s2)
     9e8:	0100                	addi	s0,sp,128
     9ea:	0505                	addi	a0,a0,1
     9ec:	0c090103          	lb	sp,192(s2)
     9f0:	0100                	addi	s0,sp,128
     9f2:	00090103          	lb	sp,0(s2)
     9f6:	0100                	addi	s0,sp,128
     9f8:	1505                	addi	a0,a0,-31
     9fa:	0306                	slli	t1,t1,0x1
     9fc:	0905                	addi	s2,s2,1
     9fe:	0004                	0x4
     a00:	0501                	addi	a0,a0,0
     a02:	030c                	addi	a1,sp,384
     a04:	0901                	addi	s2,s2,0
     a06:	0004                	0x4
     a08:	0501                	addi	a0,a0,0
     a0a:	060e                	slli	a2,a2,0x3
     a0c:	08090403          	lb	s0,128(s2)
     a10:	0100                	addi	s0,sp,128
     a12:	1105                	addi	sp,sp,-31
     a14:	0306                	slli	t1,t1,0x1
     a16:	0900                	addi	s0,sp,144
     a18:	0000                	unimp
     a1a:	0501                	addi	a0,a0,0
     a1c:	060d                	addi	a2,a2,3
     a1e:	04090203          	lb	tp,64(s2)
     a22:	0100                	addi	s0,sp,128
     a24:	0f05                	addi	t5,t5,1
     a26:	0306                	slli	t1,t1,0x1
     a28:	0900                	addi	s0,sp,144
     a2a:	0000                	unimp
     a2c:	0501                	addi	a0,a0,0
     a2e:	031e                	slli	t1,t1,0x7
     a30:	0900                	addi	s0,sp,144
     a32:	0004                	0x4
     a34:	0501                	addi	a0,a0,0
     a36:	0312                	slli	t1,t1,0x4
     a38:	097c                	addi	a5,sp,156
     a3a:	0008                	0x8
     a3c:	0501                	addi	a0,a0,0
     a3e:	0609                	addi	a2,a2,2
     a40:	04090a03          	lb	s4,64(s2)
     a44:	0100                	addi	s0,sp,128
     a46:	0b05                	addi	s6,s6,1
     a48:	0306                	slli	t1,t1,0x1
     a4a:	0900                	addi	s0,sp,144
     a4c:	0000                	unimp
     a4e:	0501                	addi	a0,a0,0
     a50:	0610                	addi	a2,sp,768
     a52:	04090103          	lb	sp,64(s2)
     a56:	0100                	addi	s0,sp,128
     a58:	0b05                	addi	s6,s6,1
     a5a:	0306                	slli	t1,t1,0x1
     a5c:	097f                	0x97f
     a5e:	0008                	0x8
     a60:	0501                	addi	a0,a0,0
     a62:	0605                	addi	a2,a2,1
     a64:	04096f03          	lwu	t5,64(s2)
     a68:	0100                	addi	s0,sp,128
     a6a:	00090203          	lb	tp,0(s2)
     a6e:	0100                	addi	s0,sp,128
     a70:	0905                	addi	s2,s2,1
     a72:	00090203          	lb	tp,0(s2)
     a76:	0100                	addi	s0,sp,128
     a78:	1505                	addi	a0,a0,-31
     a7a:	0306                	slli	t1,t1,0x1
     a7c:	0900                	addi	s0,sp,144
     a7e:	0000                	unimp
     a80:	0501                	addi	a0,a0,0
     a82:	0609                	addi	a2,a2,2
     a84:	04090103          	lb	sp,64(s2)
     a88:	0100                	addi	s0,sp,128
     a8a:	0c05                	addi	s8,s8,1
     a8c:	0306                	slli	t1,t1,0x1
     a8e:	0900                	addi	s0,sp,144
     a90:	0000                	unimp
     a92:	0501                	addi	a0,a0,0
     a94:	060d                	addi	a2,a2,3
     a96:	08090203          	lb	tp,128(s2)
     a9a:	0100                	addi	s0,sp,128
     a9c:	0f05                	addi	t5,t5,1
     a9e:	0306                	slli	t1,t1,0x1
     aa0:	0900                	addi	s0,sp,144
     aa2:	0000                	unimp
     aa4:	0501                	addi	a0,a0,0
     aa6:	0318                	addi	a4,sp,384
     aa8:	0900                	addi	s0,sp,144
     aaa:	0004                	0x4
     aac:	0501                	addi	a0,a0,0
     aae:	060d                	addi	a2,a2,3
     ab0:	0c090803          	lb	a6,192(s2)
     ab4:	0100                	addi	s0,sp,128
     ab6:	0f05                	addi	t5,t5,1
     ab8:	0306                	slli	t1,t1,0x1
     aba:	0900                	addi	s0,sp,144
     abc:	0000                	unimp
     abe:	0501                	addi	a0,a0,0
     ac0:	031e                	slli	t1,t1,0x7
     ac2:	0900                	addi	s0,sp,144
     ac4:	0004                	0x4
     ac6:	0501                	addi	a0,a0,0
     ac8:	0605                	addi	a2,a2,1
     aca:	0c090503          	lb	a0,192(s2)
     ace:	0100                	addi	s0,sp,128
     ad0:	0805                	addi	a6,a6,1
     ad2:	0306                	slli	t1,t1,0x1
     ad4:	0900                	addi	s0,sp,144
     ad6:	0000                	unimp
     ad8:	0501                	addi	a0,a0,0
     ada:	0609                	addi	a2,a2,2
     adc:	04090203          	lb	tp,64(s2)
     ae0:	0100                	addi	s0,sp,128
     ae2:	0e05                	addi	t3,t3,1
     ae4:	0306                	slli	t1,t1,0x1
     ae6:	0900                	addi	s0,sp,144
     ae8:	0000                	unimp
     aea:	0501                	addi	a0,a0,0
     aec:	0605                	addi	a2,a2,1
     aee:	08090403          	lb	s0,128(s2)
     af2:	0100                	addi	s0,sp,128
     af4:	0b05                	addi	s6,s6,1
     af6:	0306                	slli	t1,t1,0x1
     af8:	097c                	addi	a5,sp,156
     afa:	0000                	unimp
     afc:	0501                	addi	a0,a0,0
     afe:	0316                	slli	t1,t1,0x5
     b00:	0904                	addi	s1,sp,144
     b02:	0004                	0x4
     b04:	0501                	addi	a0,a0,0
     b06:	0312                	slli	t1,t1,0x4
     b08:	0900                	addi	s0,sp,144
     b0a:	0004                	0x4
     b0c:	0501                	addi	a0,a0,0
     b0e:	0605                	addi	a2,a2,1
     b10:	04090103          	lb	sp,64(s2)
     b14:	0100                	addi	s0,sp,128
     b16:	10090403          	lb	s0,256(s2)
     b1a:	0100                	addi	s0,sp,128
     b1c:	0805                	addi	a6,a6,1
     b1e:	0306                	slli	t1,t1,0x1
     b20:	0900                	addi	s0,sp,144
     b22:	0000                	unimp
     b24:	0501                	addi	a0,a0,0
     b26:	0605                	addi	a2,a2,1
     b28:	04090403          	lb	s0,64(s2)
     b2c:	0100                	addi	s0,sp,128
     b2e:	0805                	addi	a6,a6,1
     b30:	0306                	slli	t1,t1,0x1
     b32:	0900                	addi	s0,sp,144
     b34:	0000                	unimp
     b36:	0501                	addi	a0,a0,0
     b38:	0622                	slli	a2,a2,0x8
     b3a:	04090803          	lb	a6,64(s2)
     b3e:	0100                	addi	s0,sp,128
     b40:	0505                	addi	a0,a0,1
     b42:	08096f03          	lwu	t5,128(s2)
     b46:	0100                	addi	s0,sp,128
     b48:	1605                	addi	a2,a2,-31
     b4a:	0306                	slli	t1,t1,0x1
     b4c:	0900                	addi	s0,sp,144
     b4e:	0000                	unimp
     b50:	0501                	addi	a0,a0,0
     b52:	0312                	slli	t1,t1,0x4
     b54:	0900                	addi	s0,sp,144
     b56:	0004                	0x4
     b58:	0501                	addi	a0,a0,0
     b5a:	0605                	addi	a2,a2,1
     b5c:	04090103          	lb	sp,64(s2)
     b60:	0100                	addi	s0,sp,128
     b62:	10090403          	lb	s0,256(s2)
     b66:	0100                	addi	s0,sp,128
     b68:	0805                	addi	a6,a6,1
     b6a:	0306                	slli	t1,t1,0x1
     b6c:	0900                	addi	s0,sp,144
     b6e:	0000                	unimp
     b70:	0501                	addi	a0,a0,0
     b72:	0609                	addi	a2,a2,2
     b74:	04090203          	lb	tp,64(s2)
     b78:	0100                	addi	s0,sp,128
     b7a:	0505                	addi	a0,a0,1
     b7c:	00090203          	lb	tp,0(s2)
     b80:	0100                	addi	s0,sp,128
     b82:	0805                	addi	a6,a6,1
     b84:	0306                	slli	t1,t1,0x1
     b86:	0900                	addi	s0,sp,144
     b88:	0000                	unimp
     b8a:	0501                	addi	a0,a0,0
     b8c:	0622                	slli	a2,a2,0x8
     b8e:	04090803          	lb	a6,64(s2)
     b92:	0100                	addi	s0,sp,128
     b94:	0e05                	addi	t3,t3,1
     b96:	0306                	slli	t1,t1,0x1
     b98:	0976                	slli	s2,s2,0x1d
     b9a:	0000                	unimp
     b9c:	0501                	addi	a0,a0,0
     b9e:	0322                	slli	t1,t1,0x8
     ba0:	090a                	slli	s2,s2,0x2
     ba2:	0004                	0x4
     ba4:	0001                	nop
     ba6:	0402                	c.slli64	s0
     ba8:	0601                	addi	a2,a2,0
     baa:	08090003          	lb	zero,128(s2)
     bae:	0100                	addi	s0,sp,128
     bb0:	0e05                	addi	t3,t3,1
     bb2:	0200                	addi	s0,sp,256
     bb4:	0104                	addi	s1,sp,128
     bb6:	0306                	slli	t1,t1,0x1
     bb8:	0976                	slli	s2,s2,0x1d
     bba:	0000                	unimp
     bbc:	0501                	addi	a0,a0,0
     bbe:	0022                	c.slli	zero,0x8
     bc0:	0402                	c.slli64	s0
     bc2:	0301                	addi	t1,t1,0
     bc4:	090a                	slli	s2,s2,0x2
     bc6:	0004                	0x4
     bc8:	0501                	addi	a0,a0,0
     bca:	000d                	c.nop	3
     bcc:	0402                	c.slli64	s0
     bce:	01030603          	lb	a2,16(t1) # 91009ea <end+0x80fe9ea>
     bd2:	0809                	addi	a6,a6,2
     bd4:	0100                	addi	s0,sp,128
     bd6:	1405                	addi	s0,s0,-31
     bd8:	0200                	addi	s0,sp,256
     bda:	0304                	addi	s1,sp,384
     bdc:	0306                	slli	t1,t1,0x1
     bde:	0900                	addi	s0,sp,144
     be0:	0000                	unimp
     be2:	0501                	addi	a0,a0,0
     be4:	002d                	c.nop	11
     be6:	0402                	c.slli64	s0
     be8:	7f030603          	lb	a2,2032(t1)
     bec:	0809                	addi	a6,a6,2
     bee:	0100                	addi	s0,sp,128
     bf0:	2205                	addiw	tp,tp,1
     bf2:	0200                	addi	s0,sp,256
     bf4:	0304                	addi	s1,sp,384
     bf6:	00090003          	lb	zero,0(s2)
     bfa:	0100                	addi	s0,sp,128
     bfc:	0905                	addi	s2,s2,1
     bfe:	0c090603          	lb	a2,192(s2)
     c02:	0100                	addi	s0,sp,128
     c04:	00090103          	lb	sp,0(s2)
     c08:	0100                	addi	s0,sp,128
     c0a:	00090103          	lb	sp,0(s2)
     c0e:	0100                	addi	s0,sp,128
     c10:	0c05                	addi	s8,s8,1
     c12:	0306                	slli	t1,t1,0x1
     c14:	0900                	addi	s0,sp,144
     c16:	0000                	unimp
     c18:	0501                	addi	a0,a0,0
     c1a:	060d                	addi	a2,a2,3
     c1c:	04090203          	lb	tp,64(s2)
     c20:	0100                	addi	s0,sp,128
     c22:	1105                	addi	sp,sp,-31
     c24:	0306                	slli	t1,t1,0x1
     c26:	0900                	addi	s0,sp,144
     c28:	0000                	unimp
     c2a:	0501                	addi	a0,a0,0
     c2c:	0614                	addi	a3,sp,768
     c2e:	04090703          	lb	a4,64(s2)
     c32:	0100                	addi	s0,sp,128
     c34:	0d05                	addi	s10,s10,1
     c36:	10090203          	lb	tp,256(s2)
     c3a:	0100                	addi	s0,sp,128
     c3c:	1205                	addi	tp,tp,-31
     c3e:	0306                	slli	t1,t1,0x1
     c40:	0900                	addi	s0,sp,144
     c42:	0000                	unimp
     c44:	0501                	addi	a0,a0,0
     c46:	060d                	addi	a2,a2,3
     c48:	04090103          	lb	sp,64(s2)
     c4c:	0100                	addi	s0,sp,128
     c4e:	1d05                	addi	s10,s10,-31
     c50:	0306                	slli	t1,t1,0x1
     c52:	0900                	addi	s0,sp,144
     c54:	0000                	unimp
     c56:	0501                	addi	a0,a0,0
     c58:	0318                	addi	a4,sp,384
     c5a:	0900                	addi	s0,sp,144
     c5c:	0004                	0x4
     c5e:	0501                	addi	a0,a0,0
     c60:	060d                	addi	a2,a2,3
     c62:	04090103          	lb	sp,64(s2)
     c66:	0100                	addi	s0,sp,128
     c68:	1605                	addi	a2,a2,-31
     c6a:	0306                	slli	t1,t1,0x1
     c6c:	0900                	addi	s0,sp,144
     c6e:	0000                	unimp
     c70:	0501                	addi	a0,a0,0
     c72:	060d                	addi	a2,a2,3
     c74:	04090103          	lb	sp,64(s2)
     c78:	0100                	addi	s0,sp,128
     c7a:	1205                	addi	tp,tp,-31
     c7c:	0306                	slli	t1,t1,0x1
     c7e:	0900                	addi	s0,sp,144
     c80:	0000                	unimp
     c82:	0501                	addi	a0,a0,0
     c84:	060d                	addi	a2,a2,3
     c86:	08090103          	lb	sp,128(s2)
     c8a:	0100                	addi	s0,sp,128
     c8c:	1405                	addi	s0,s0,-31
     c8e:	00097a03          	0x97a03
     c92:	0100                	addi	s0,sp,128
     c94:	0505                	addi	a0,a0,1
     c96:	10090b03          	lb	s6,256(s2)
     c9a:	0100                	addi	s0,sp,128
     c9c:	1105                	addi	sp,sp,-31
     c9e:	0306                	slli	t1,t1,0x1
     ca0:	0900                	addi	s0,sp,144
     ca2:	0000                	unimp
     ca4:	0501                	addi	a0,a0,0
     ca6:	0301                	addi	t1,t1,0
     ca8:	0901                	addi	s2,s2,0
     caa:	0008                	0x8
     cac:	0501                	addi	a0,a0,0
     cae:	001d                	c.nop	7
     cb0:	0402                	c.slli64	s0
     cb2:	0302                	c.slli64	t1
     cb4:	000c095b          	0xc095b
     cb8:	0501                	addi	a0,a0,0
     cba:	0622                	slli	a2,a2,0x8
     cbc:	08090803          	lb	a6,128(s2)
     cc0:	0100                	addi	s0,sp,128
     cc2:	0905                	addi	s2,s2,1
     cc4:	08097a03          	0x8097a03
     cc8:	0100                	addi	s0,sp,128
     cca:	1005                	c.nop	-31
     ccc:	0306                	slli	t1,t1,0x1
     cce:	0900                	addi	s0,sp,144
     cd0:	0000                	unimp
     cd2:	0501                	addi	a0,a0,0
     cd4:	0626                	slli	a2,a2,0x9
     cd6:	04090003          	lb	zero,64(s2)
     cda:	0100                	addi	s0,sp,128
     cdc:	1405                	addi	s0,s0,-31
     cde:	0306                	slli	t1,t1,0x1
     ce0:	0901                	addi	s2,s2,0
     ce2:	0020                	addi	s0,sp,8
     ce4:	0501                	addi	a0,a0,0
     ce6:	000d                	c.nop	3
     ce8:	0402                	c.slli64	s0
     cea:	00030603          	lb	a2,0(t1)
     cee:	0409                	addi	s0,s0,2
     cf0:	0100                	addi	s0,sp,128
     cf2:	1405                	addi	s0,s0,-31
     cf4:	0200                	addi	s0,sp,256
     cf6:	0304                	addi	s1,sp,384
     cf8:	0306                	slli	t1,t1,0x1
     cfa:	0900                	addi	s0,sp,144
     cfc:	0000                	unimp
     cfe:	0501                	addi	a0,a0,0
     d00:	0035                	c.nop	13
     d02:	0402                	c.slli64	s0
     d04:	7f030603          	lb	a2,2032(t1)
     d08:	0409                	addi	s0,s0,2
     d0a:	0100                	addi	s0,sp,128
     d0c:	2605                	addiw	a2,a2,1
     d0e:	0200                	addi	s0,sp,256
     d10:	0304                	addi	s1,sp,384
     d12:	00090003          	lb	zero,0(s2)
     d16:	0100                	addi	s0,sp,128
     d18:	0905                	addi	s2,s2,1
     d1a:	08090203          	lb	tp,128(s2)
     d1e:	0100                	addi	s0,sp,128
     d20:	1905                	addi	s2,s2,-31
     d22:	0306                	slli	t1,t1,0x1
     d24:	0900                	addi	s0,sp,144
     d26:	0000                	unimp
     d28:	0501                	addi	a0,a0,0
     d2a:	0609                	addi	a2,a2,2
     d2c:	0c090a03          	lb	s4,192(s2)
     d30:	0100                	addi	s0,sp,128
     d32:	00090103          	lb	sp,0(s2)
     d36:	0100                	addi	s0,sp,128
     d38:	00090103          	lb	sp,0(s2)
     d3c:	0100                	addi	s0,sp,128
     d3e:	0d05                	addi	s10,s10,1
     d40:	00090603          	lb	a2,0(s2)
     d44:	0100                	addi	s0,sp,128
     d46:	1105                	addi	sp,sp,-31
     d48:	0306                	slli	t1,t1,0x1
     d4a:	0900                	addi	s0,sp,144
     d4c:	0000                	unimp
     d4e:	0501                	addi	a0,a0,0
     d50:	0630                	addi	a2,sp,776
     d52:	097de403          	lwu	s0,151(s11)
     d56:	0008                	0x8
     d58:	0501                	addi	a0,a0,0
     d5a:	0305                	addi	t1,t1,1
     d5c:	0901                	addi	s2,s2,0
     d5e:	0000                	unimp
     d60:	0301                	addi	t1,t1,0
     d62:	0902                	c.slli64	s2
     d64:	0000                	unimp
     d66:	0301                	addi	t1,t1,0
     d68:	0901                	addi	s2,s2,0
     d6a:	0000                	unimp
     d6c:	0301                	addi	t1,t1,0
     d6e:	0901                	addi	s2,s2,0
     d70:	0000                	unimp
     d72:	0301                	addi	t1,t1,0
     d74:	0902                	c.slli64	s2
     d76:	0000                	unimp
     d78:	0301                	addi	t1,t1,0
     d7a:	0901                	addi	s2,s2,0
     d7c:	0000                	unimp
     d7e:	0301                	addi	t1,t1,0
     d80:	0902                	c.slli64	s2
     d82:	0000                	unimp
     d84:	0501                	addi	a0,a0,0
     d86:	0311                	addi	t1,t1,4
     d88:	0900                	addi	s0,sp,144
     d8a:	0000                	unimp
     d8c:	0501                	addi	a0,a0,0
     d8e:	0614                	addi	a3,sp,768
     d90:	00090003          	lb	zero,0(s2)
     d94:	0100                	addi	s0,sp,128
     d96:	1105                	addi	sp,sp,-31
     d98:	04090003          	lb	zero,64(s2)
     d9c:	0100                	addi	s0,sp,128
     d9e:	3005                	0x3005
     da0:	04097603          	0x4097603
     da4:	0100                	addi	s0,sp,128
     da6:	1405                	addi	s0,s0,-31
     da8:	38090a03          	lb	s4,896(s2)
     dac:	0100                	addi	s0,sp,128
     dae:	0c05                	addi	s8,s8,1
     db0:	04090003          	lb	zero,64(s2)
     db4:	0100                	addi	s0,sp,128
     db6:	0905                	addi	s2,s2,1
     db8:	04093203          	ld	tp,64(s2)
     dbc:	0100                	addi	s0,sp,128
     dbe:	0204                	addi	s1,sp,256
     dc0:	1b05                	addi	s6,s6,-31
     dc2:	08095003          	lhu	zero,128(s2)
     dc6:	0100                	addi	s0,sp,128
     dc8:	1f05                	addi	t5,t5,-31
     dca:	08090003          	lb	zero,128(s2)
     dce:	0100                	addi	s0,sp,128
     dd0:	0805                	addi	a6,a6,1
     dd2:	08097903          	0x8097903
     dd6:	0100                	addi	s0,sp,128
     dd8:	0104                	addi	s1,sp,128
     dda:	0d05                	addi	s10,s10,1
     ddc:	0306                	slli	t1,t1,0x1
     dde:	090a                	slli	s2,s2,0x2
     de0:	0008                	0x8
     de2:	0401                	addi	s0,s0,0
     de4:	0502                	c.slli64	a0
     de6:	0305                	addi	t1,t1,1
     de8:	097d                	addi	s2,s2,31
     dea:	0004                	0x4
     dec:	0501                	addi	a0,a0,0
     dee:	0003061b          	sext.w	a2,t1
     df2:	0009                	c.nop	2
     df4:	0100                	addi	s0,sp,128
     df6:	1f05                	addi	t5,t5,-31
     df8:	10090003          	lb	zero,256(s2)
     dfc:	0100                	addi	s0,sp,128
     dfe:	0505                	addi	a0,a0,1
     e00:	0306                	slli	t1,t1,0x1
     e02:	0901                	addi	s2,s2,0
     e04:	0008                	0x8
     e06:	0501                	addi	a0,a0,0
     e08:	0309                	addi	t1,t1,2
     e0a:	0901                	addi	s2,s2,0
     e0c:	0000                	unimp
     e0e:	0501                	addi	a0,a0,0
     e10:	0305                	addi	t1,t1,1
     e12:	00000977          	0x977
     e16:	0501                	addi	a0,a0,0
     e18:	0608                	addi	a0,sp,768
     e1a:	00090003          	lb	zero,0(s2)
     e1e:	0100                	addi	s0,sp,128
     e20:	0104                	addi	s1,sp,128
     e22:	1a05                	addi	s4,s4,-31
     e24:	0200                	addi	s0,sp,256
     e26:	0204                	addi	s1,sp,256
     e28:	0306                	slli	t1,t1,0x1
     e2a:	0905                	addi	s2,s2,1
     e2c:	0004                	0x4
     e2e:	0501                	addi	a0,a0,0
     e30:	0011                	c.nop	4
     e32:	0402                	c.slli64	s0
     e34:	0302                	c.slli64	t1
     e36:	0900                	addi	s0,sp,144
     e38:	0004                	0x4
     e3a:	0501                	addi	a0,a0,0
     e3c:	0014                	0x14
     e3e:	0402                	c.slli64	s0
     e40:	0602                	c.slli64	a2
     e42:	00090003          	lb	zero,0(s2)
     e46:	0100                	addi	s0,sp,128
     e48:	1105                	addi	sp,sp,-31
     e4a:	0200                	addi	s0,sp,256
     e4c:	0204                	addi	s1,sp,256
     e4e:	08090003          	lb	zero,128(s2)
     e52:	0100                	addi	s0,sp,128
     e54:	0905                	addi	s2,s2,1
     e56:	0306                	slli	t1,t1,0x1
     e58:	0901                	addi	s2,s2,0
     e5a:	0004                	0x4
     e5c:	0501                	addi	a0,a0,0
     e5e:	060c                	addi	a1,sp,768
     e60:	00090003          	lb	zero,0(s2)
     e64:	0100                	addi	s0,sp,128
     e66:	0d05                	addi	s10,s10,1
     e68:	0306                	slli	t1,t1,0x1
     e6a:	0901                	addi	s2,s2,0
     e6c:	0008                	0x8
     e6e:	0501                	addi	a0,a0,0
     e70:	0610                	addi	a2,sp,768
     e72:	00090003          	lb	zero,0(s2)
     e76:	0100                	addi	s0,sp,128
     e78:	1105                	addi	sp,sp,-31
     e7a:	0306                	slli	t1,t1,0x1
     e7c:	0901                	addi	s2,s2,0
     e7e:	0008                	0x8
     e80:	0401                	addi	s0,s0,0
     e82:	0502                	c.slli64	a0
     e84:	0305                	addi	t1,t1,1
     e86:	097f                	0x97f
     e88:	0000                	unimp
     e8a:	0501                	addi	a0,a0,0
     e8c:	0003061b          	sext.w	a2,t1
     e90:	0009                	c.nop	2
     e92:	0100                	addi	s0,sp,128
     e94:	1f05                	addi	t5,t5,-31
     e96:	10090003          	lb	zero,256(s2)
     e9a:	0100                	addi	s0,sp,128
     e9c:	0505                	addi	a0,a0,1
     e9e:	0306                	slli	t1,t1,0x1
     ea0:	0901                	addi	s2,s2,0
     ea2:	000c                	0xc
     ea4:	0501                	addi	a0,a0,0
     ea6:	0309                	addi	t1,t1,2
     ea8:	0901                	addi	s2,s2,0
     eaa:	0000                	unimp
     eac:	0501                	addi	a0,a0,0
     eae:	0305                	addi	t1,t1,1
     eb0:	00000977          	0x977
     eb4:	0501                	addi	a0,a0,0
     eb6:	0608                	addi	a0,sp,768
     eb8:	00090003          	lb	zero,0(s2)
     ebc:	0100                	addi	s0,sp,128
     ebe:	0905                	addi	s2,s2,1
     ec0:	0306                	slli	t1,t1,0x1
     ec2:	0901                	addi	s2,s2,0
     ec4:	0004                	0x4
     ec6:	0401                	addi	s0,s0,0
     ec8:	03050503          	lb	a0,48(a0) # fffffffffffe0030 <end+0xfffffffffefde030>
     ecc:	0904                	addi	s1,sp,144
     ece:	0000                	unimp
     ed0:	0401                	addi	s0,s0,0
     ed2:	0504                	addi	s1,sp,640
     ed4:	0302                	c.slli64	t1
     ed6:	00000977          	0x977
     eda:	0501                	addi	a0,a0,0
     edc:	0003060f          	0x3060f
     ee0:	0009                	c.nop	2
     ee2:	0100                	addi	s0,sp,128
     ee4:	0205                	addi	tp,tp,1
     ee6:	0306                	slli	t1,t1,0x1
     ee8:	0901                	addi	s2,s2,0
     eea:	0004                	0x4
     eec:	0501                	addi	a0,a0,0
     eee:	0003060f          	0x3060f
     ef2:	0009                	c.nop	2
     ef4:	0100                	addi	s0,sp,128
     ef6:	0205                	addi	tp,tp,1
     ef8:	0306                	slli	t1,t1,0x1
     efa:	0901                	addi	s2,s2,0
     efc:	0004                	0x4
     efe:	0501                	addi	a0,a0,0
     f00:	0003060f          	0x3060f
     f04:	0009                	c.nop	2
     f06:	0100                	addi	s0,sp,128
     f08:	0205                	addi	tp,tp,1
     f0a:	0306                	slli	t1,t1,0x1
     f0c:	0901                	addi	s2,s2,0
     f0e:	0004                	0x4
     f10:	0501                	addi	a0,a0,0
     f12:	0003060f          	0x3060f
     f16:	0009                	c.nop	2
     f18:	0100                	addi	s0,sp,128
     f1a:	0205                	addi	tp,tp,1
     f1c:	0306                	slli	t1,t1,0x1
     f1e:	0901                	addi	s2,s2,0
     f20:	0004                	0x4
     f22:	0501                	addi	a0,a0,0
     f24:	0003060f          	0x3060f
     f28:	0009                	c.nop	2
     f2a:	0100                	addi	s0,sp,128
     f2c:	0205                	addi	tp,tp,1
     f2e:	0306                	slli	t1,t1,0x1
     f30:	0901                	addi	s2,s2,0
     f32:	0004                	0x4
     f34:	0501                	addi	a0,a0,0
     f36:	0003060f          	0x3060f
     f3a:	0009                	c.nop	2
     f3c:	0100                	addi	s0,sp,128
     f3e:	0205                	addi	tp,tp,1
     f40:	0306                	slli	t1,t1,0x1
     f42:	0901                	addi	s2,s2,0
     f44:	0004                	0x4
     f46:	0501                	addi	a0,a0,0
     f48:	0610                	addi	a2,sp,768
     f4a:	00090003          	lb	zero,0(s2)
     f4e:	0100                	addi	s0,sp,128
     f50:	0205                	addi	tp,tp,1
     f52:	0306                	slli	t1,t1,0x1
     f54:	0901                	addi	s2,s2,0
     f56:	0004                	0x4
     f58:	0301                	addi	t1,t1,0
     f5a:	0902                	c.slli64	s2
     f5c:	0004                	0x4
     f5e:	0401                	addi	s0,s0,0
     f60:	0502                	c.slli64	a0
     f62:	0309                	addi	t1,t1,2
     f64:	097d                	addi	s2,s2,31
     f66:	0000                	unimp
     f68:	0501                	addi	a0,a0,0
     f6a:	00030613          	mv	a2,t1
     f6e:	0009                	c.nop	2
     f70:	0100                	addi	s0,sp,128
     f72:	0104                	addi	s1,sp,128
     f74:	0d05                	addi	s10,s10,1
     f76:	0306                	slli	t1,t1,0x1
     f78:	0908                	addi	a0,sp,144
     f7a:	0004                	0x4
     f7c:	0401                	addi	s0,s0,0
     f7e:	0502                	c.slli64	a0
     f80:	0305                	addi	t1,t1,1
     f82:	097d                	addi	s2,s2,31
     f84:	0004                	0x4
     f86:	0501                	addi	a0,a0,0
     f88:	0003061b          	sext.w	a2,t1
     f8c:	0009                	c.nop	2
     f8e:	0100                	addi	s0,sp,128
     f90:	1f05                	addi	t5,t5,-31
     f92:	08090003          	lb	zero,128(s2)
     f96:	0100                	addi	s0,sp,128
     f98:	0505                	addi	a0,a0,1
     f9a:	0306                	slli	t1,t1,0x1
     f9c:	0901                	addi	s2,s2,0
     f9e:	0004                	0x4
     fa0:	0501                	addi	a0,a0,0
     fa2:	0309                	addi	t1,t1,2
     fa4:	0901                	addi	s2,s2,0
     fa6:	0000                	unimp
     fa8:	0501                	addi	a0,a0,0
     faa:	0305                	addi	t1,t1,1
     fac:	00000977          	0x977
     fb0:	0501                	addi	a0,a0,0
     fb2:	0309                	addi	t1,t1,2
     fb4:	0901                	addi	s2,s2,0
     fb6:	0004                	0x4
     fb8:	0401                	addi	s0,s0,0
     fba:	03050503          	lb	a0,48(a0)
     fbe:	0904                	addi	s1,sp,144
     fc0:	0000                	unimp
     fc2:	0401                	addi	s0,s0,0
     fc4:	0504                	addi	s1,sp,640
     fc6:	0302                	c.slli64	t1
     fc8:	00000977          	0x977
     fcc:	0501                	addi	a0,a0,0
     fce:	0003060f          	0x3060f
     fd2:	0009                	c.nop	2
     fd4:	0100                	addi	s0,sp,128
     fd6:	0205                	addi	tp,tp,1
     fd8:	0306                	slli	t1,t1,0x1
     fda:	0901                	addi	s2,s2,0
     fdc:	0004                	0x4
     fde:	0501                	addi	a0,a0,0
     fe0:	0003060f          	0x3060f
     fe4:	0009                	c.nop	2
     fe6:	0100                	addi	s0,sp,128
     fe8:	0205                	addi	tp,tp,1
     fea:	0306                	slli	t1,t1,0x1
     fec:	0901                	addi	s2,s2,0
     fee:	0004                	0x4
     ff0:	0501                	addi	a0,a0,0
     ff2:	0003060f          	0x3060f
     ff6:	0009                	c.nop	2
     ff8:	0100                	addi	s0,sp,128
     ffa:	0205                	addi	tp,tp,1
     ffc:	0306                	slli	t1,t1,0x1
     ffe:	0901                	addi	s2,s2,0
    1000:	0004                	0x4
    1002:	0501                	addi	a0,a0,0
    1004:	0003060f          	0x3060f
    1008:	0009                	c.nop	2
    100a:	0100                	addi	s0,sp,128
    100c:	0205                	addi	tp,tp,1
    100e:	0306                	slli	t1,t1,0x1
    1010:	0901                	addi	s2,s2,0
    1012:	0004                	0x4
    1014:	0501                	addi	a0,a0,0
    1016:	0003060f          	0x3060f
    101a:	0009                	c.nop	2
    101c:	0100                	addi	s0,sp,128
    101e:	0205                	addi	tp,tp,1
    1020:	0306                	slli	t1,t1,0x1
    1022:	0901                	addi	s2,s2,0
    1024:	0004                	0x4
    1026:	0501                	addi	a0,a0,0
    1028:	0003060f          	0x3060f
    102c:	0009                	c.nop	2
    102e:	0100                	addi	s0,sp,128
    1030:	0205                	addi	tp,tp,1
    1032:	0306                	slli	t1,t1,0x1
    1034:	0901                	addi	s2,s2,0
    1036:	0004                	0x4
    1038:	0501                	addi	a0,a0,0
    103a:	0610                	addi	a2,sp,768
    103c:	00090003          	lb	zero,0(s2)
    1040:	0100                	addi	s0,sp,128
    1042:	0205                	addi	tp,tp,1
    1044:	0306                	slli	t1,t1,0x1
    1046:	0901                	addi	s2,s2,0
    1048:	0004                	0x4
    104a:	0301                	addi	t1,t1,0
    104c:	0902                	c.slli64	s2
    104e:	0004                	0x4
    1050:	0401                	addi	s0,s0,0
    1052:	0502                	c.slli64	a0
    1054:	0309                	addi	t1,t1,2
    1056:	097d                	addi	s2,s2,31
    1058:	0000                	unimp
    105a:	0501                	addi	a0,a0,0
    105c:	00030613          	mv	a2,t1
    1060:	0009                	c.nop	2
    1062:	0100                	addi	s0,sp,128
    1064:	0104                	addi	s1,sp,128
    1066:	0905                	addi	s2,s2,1
    1068:	0306                	slli	t1,t1,0x1
    106a:	090c                	addi	a1,sp,144
    106c:	0008                	0x8
    106e:	0501                	addi	a0,a0,0
    1070:	0003060b          	0x3060b
    1074:	0009                	c.nop	2
    1076:	0100                	addi	s0,sp,128
    1078:	1005                	c.nop	-31
    107a:	04090003          	lb	zero,64(s2)
    107e:	0100                	addi	s0,sp,128
    1080:	0b05                	addi	s6,s6,1
    1082:	04090003          	lb	zero,64(s2)
    1086:	0100                	addi	s0,sp,128
    1088:	0905                	addi	s2,s2,1
    108a:	0306                	slli	t1,t1,0x1
    108c:	0902                	c.slli64	s2
    108e:	0004                	0x4
    1090:	0501                	addi	a0,a0,0
    1092:	060c                	addi	a1,sp,768
    1094:	00090003          	lb	zero,0(s2)
    1098:	0100                	addi	s0,sp,128
    109a:	1505                	addi	a0,a0,-31
    109c:	04090403          	lb	s0,64(s2)
    10a0:	0100                	addi	s0,sp,128
    10a2:	0c05                	addi	s8,s8,1
    10a4:	04097c03          	0x4097c03
    10a8:	0100                	addi	s0,sp,128
    10aa:	0905                	addi	s2,s2,1
    10ac:	0306                	slli	t1,t1,0x1
    10ae:	00040907          	0x40907
    10b2:	0501                	addi	a0,a0,0
    10b4:	060c                	addi	a1,sp,768
    10b6:	00090003          	lb	zero,0(s2)
    10ba:	0100                	addi	s0,sp,128
    10bc:	1205                	addi	tp,tp,-31
    10be:	04090403          	lb	s0,64(s2)
    10c2:	0100                	addi	s0,sp,128
    10c4:	0c05                	addi	s8,s8,1
    10c6:	04097c03          	0x4097c03
    10ca:	0100                	addi	s0,sp,128
    10cc:	0905                	addi	s2,s2,1
    10ce:	0306                	slli	t1,t1,0x1
    10d0:	00040907          	0x40907
    10d4:	0301                	addi	t1,t1,0
    10d6:	0901                	addi	s2,s2,0
    10d8:	0000                	unimp
    10da:	0501                	addi	a0,a0,0
    10dc:	0310                	addi	a2,sp,384
    10de:	0900                	addi	s0,sp,144
    10e0:	0000                	unimp
    10e2:	0501                	addi	a0,a0,0
    10e4:	7f03060f          	0x7f03060f
    10e8:	1009                	c.nop	-30
    10ea:	0100                	addi	s0,sp,128
    10ec:	1005                	c.nop	-31
    10ee:	04090103          	lb	sp,64(s2)
    10f2:	0100                	addi	s0,sp,128
    10f4:	0d05                	addi	s10,s10,1
    10f6:	0306                	slli	t1,t1,0x1
    10f8:	0901                	addi	s2,s2,0
    10fa:	0004                	0x4
    10fc:	0501                	addi	a0,a0,0
    10fe:	0622                	slli	a2,a2,0x8
    1100:	00090003          	lb	zero,0(s2)
    1104:	0100                	addi	s0,sp,128
    1106:	3105                	addiw	sp,sp,-31
    1108:	0c090003          	lb	zero,192(s2)
    110c:	0100                	addi	s0,sp,128
    110e:	1305                	addi	t1,t1,-31
    1110:	04090003          	lb	zero,64(s2)
    1114:	0100                	addi	s0,sp,128
    1116:	0d05                	addi	s10,s10,1
    1118:	0306                	slli	t1,t1,0x1
    111a:	0901                	addi	s2,s2,0
    111c:	0004                	0x4
    111e:	0501                	addi	a0,a0,0
    1120:	0003060f          	0x3060f
    1124:	0009                	c.nop	2
    1126:	0100                	addi	s0,sp,128
    1128:	1405                	addi	s0,s0,-31
    112a:	04090003          	lb	zero,64(s2)
    112e:	0100                	addi	s0,sp,128
    1130:	0f05                	addi	t5,t5,1
    1132:	08090003          	lb	zero,128(s2)
    1136:	0100                	addi	s0,sp,128
    1138:	1005                	c.nop	-31
    113a:	0306                	slli	t1,t1,0x1
    113c:	097e                	slli	s2,s2,0x1f
    113e:	0004                	0x4
    1140:	0501                	addi	a0,a0,0
    1142:	0309                	addi	t1,t1,2
    1144:	0905                	addi	s2,s2,1
    1146:	000c                	0xc
    1148:	0501                	addi	a0,a0,0
    114a:	060c                	addi	a1,sp,768
    114c:	00090003          	lb	zero,0(s2)
    1150:	0100                	addi	s0,sp,128
    1152:	0905                	addi	s2,s2,1
    1154:	0306                	slli	t1,t1,0x1
    1156:	0008090b          	0x8090b
    115a:	0501                	addi	a0,a0,0
    115c:	060c                	addi	a1,sp,768
    115e:	00090003          	lb	zero,0(s2)
    1162:	0100                	addi	s0,sp,128
    1164:	0905                	addi	s2,s2,1
    1166:	0306                	slli	t1,t1,0x1
    1168:	00080907          	0x80907
    116c:	0301                	addi	t1,t1,0
    116e:	0901                	addi	s2,s2,0
    1170:	0000                	unimp
    1172:	0501                	addi	a0,a0,0
    1174:	030d                	addi	t1,t1,3
    1176:	095a                	slli	s2,s2,0x16
    1178:	0034                	addi	a3,sp,8
    117a:	0501                	addi	a0,a0,0
    117c:	0003060f          	0x3060f
    1180:	0009                	c.nop	2
    1182:	0100                	addi	s0,sp,128
    1184:	1405                	addi	s0,s0,-31
    1186:	04090003          	lb	zero,64(s2)
    118a:	0100                	addi	s0,sp,128
    118c:	0f05                	addi	t5,t5,1
    118e:	04090003          	lb	zero,64(s2)
    1192:	0100                	addi	s0,sp,128
    1194:	0d05                	addi	s10,s10,1
    1196:	0306                	slli	t1,t1,0x1
    1198:	0901                	addi	s2,s2,0
    119a:	0004                	0x4
    119c:	0501                	addi	a0,a0,0
    119e:	0615                	addi	a2,a2,5
    11a0:	00090003          	lb	zero,0(s2)
    11a4:	0100                	addi	s0,sp,128
    11a6:	0d05                	addi	s10,s10,1
    11a8:	0306                	slli	t1,t1,0x1
    11aa:	0906                	slli	s2,s2,0x1
    11ac:	0008                	0x8
    11ae:	0501                	addi	a0,a0,0
    11b0:	0003060f          	0x3060f
    11b4:	0009                	c.nop	2
    11b6:	0100                	addi	s0,sp,128
    11b8:	1405                	addi	s0,s0,-31
    11ba:	04090003          	lb	zero,64(s2)
    11be:	0100                	addi	s0,sp,128
    11c0:	0f05                	addi	t5,t5,1
    11c2:	04090003          	lb	zero,64(s2)
    11c6:	0100                	addi	s0,sp,128
    11c8:	0d05                	addi	s10,s10,1
    11ca:	0306                	slli	t1,t1,0x1
    11cc:	0901                	addi	s2,s2,0
    11ce:	0004                	0x4
    11d0:	0501                	addi	a0,a0,0
    11d2:	0612                	slli	a2,a2,0x4
    11d4:	00090003          	lb	zero,0(s2)
    11d8:	0100                	addi	s0,sp,128
    11da:	0f05                	addi	t5,t5,1
    11dc:	08090503          	lb	a0,128(s2)
    11e0:	0100                	addi	s0,sp,128
    11e2:	0d05                	addi	s10,s10,1
    11e4:	0306                	slli	t1,t1,0x1
    11e6:	00080907          	0x80907
    11ea:	0501                	addi	a0,a0,0
    11ec:	0003060f          	0x3060f
    11f0:	0009                	c.nop	2
    11f2:	0100                	addi	s0,sp,128
    11f4:	1405                	addi	s0,s0,-31
    11f6:	04090003          	lb	zero,64(s2)
    11fa:	0100                	addi	s0,sp,128
    11fc:	0d05                	addi	s10,s10,1
    11fe:	0306                	slli	t1,t1,0x1
    1200:	0901                	addi	s2,s2,0
    1202:	0008                	0x8
    1204:	0301                	addi	t1,t1,0
    1206:	0901                	addi	s2,s2,0
    1208:	0000                	unimp
    120a:	0501                	addi	a0,a0,0
    120c:	0314                	addi	a3,sp,384
    120e:	0900                	addi	s0,sp,144
    1210:	0000                	unimp
    1212:	0501                	addi	a0,a0,0
    1214:	7e03060f          	0x7e03060f
    1218:	1009                	c.nop	-30
    121a:	0100                	addi	s0,sp,128
    121c:	1405                	addi	s0,s0,-31
    121e:	08090203          	lb	tp,128(s2)
    1222:	0100                	addi	s0,sp,128
    1224:	1105                	addi	sp,sp,-31
    1226:	0306                	slli	t1,t1,0x1
    1228:	0901                	addi	s2,s2,0
    122a:	0004                	0x4
    122c:	0301                	addi	t1,t1,0
    122e:	0901                	addi	s2,s2,0
    1230:	0000                	unimp
    1232:	0501                	addi	a0,a0,0
    1234:	00030613          	mv	a2,t1
    1238:	0009                	c.nop	2
    123a:	0100                	addi	s0,sp,128
    123c:	1805                	addi	a6,a6,-31
    123e:	04090003          	lb	zero,64(s2)
    1242:	0100                	addi	s0,sp,128
    1244:	1405                	addi	s0,s0,-31
    1246:	0306                	slli	t1,t1,0x1
    1248:	097e                	slli	s2,s2,0x1f
    124a:	0008                	0x8
    124c:	0501                	addi	a0,a0,0
    124e:	02030613          	addi	a2,t1,32
    1252:	0c09                	addi	s8,s8,2
    1254:	0100                	addi	s0,sp,128
    1256:	0d05                	addi	s10,s10,1
    1258:	0306                	slli	t1,t1,0x1
    125a:	00080907          	0x80907
    125e:	0301                	addi	t1,t1,0
    1260:	0901                	addi	s2,s2,0
    1262:	0000                	unimp
    1264:	0501                	addi	a0,a0,0
    1266:	0003060f          	0x3060f
    126a:	0009                	c.nop	2
    126c:	0100                	addi	s0,sp,128
    126e:	1405                	addi	s0,s0,-31
    1270:	04090003          	lb	zero,64(s2)
    1274:	0100                	addi	s0,sp,128
    1276:	0905                	addi	s2,s2,1
    1278:	0306                	slli	t1,t1,0x1
    127a:	0905                	addi	s2,s2,1
    127c:	0008                	0x8
    127e:	0301                	addi	t1,t1,0
    1280:	0901                	addi	s2,s2,0
    1282:	0000                	unimp
    1284:	0501                	addi	a0,a0,0
    1286:	0311                	addi	t1,t1,4
    1288:	0902                	c.slli64	s2
    128a:	0048                	addi	a0,sp,4
    128c:	0501                	addi	a0,a0,0
    128e:	0003061b          	sext.w	a2,t1
    1292:	0009                	c.nop	2
    1294:	0100                	addi	s0,sp,128
    1296:	1505                	addi	a0,a0,-31
    1298:	04090003          	lb	zero,64(s2)
    129c:	0100                	addi	s0,sp,128
    129e:	0e05                	addi	t3,t3,1
    12a0:	0306                	slli	t1,t1,0x1
    12a2:	0901                	addi	s2,s2,0
    12a4:	0004                	0x4
    12a6:	0501                	addi	a0,a0,0
    12a8:	0311                	addi	t1,t1,4
    12aa:	0901                	addi	s2,s2,0
    12ac:	0018                	0x18
    12ae:	0401                	addi	s0,s0,0
    12b0:	0502                	c.slli64	a0
    12b2:	0305                	addi	t1,t1,1
    12b4:	094c                	addi	a1,sp,148
    12b6:	0000                	unimp
    12b8:	0501                	addi	a0,a0,0
    12ba:	0003061b          	sext.w	a2,t1
    12be:	0009                	c.nop	2
    12c0:	0100                	addi	s0,sp,128
    12c2:	1f05                	addi	t5,t5,-31
    12c4:	10090003          	lb	zero,256(s2)
    12c8:	0100                	addi	s0,sp,128
    12ca:	0505                	addi	a0,a0,1
    12cc:	0306                	slli	t1,t1,0x1
    12ce:	0901                	addi	s2,s2,0
    12d0:	0008                	0x8
    12d2:	0501                	addi	a0,a0,0
    12d4:	0309                	addi	t1,t1,2
    12d6:	0901                	addi	s2,s2,0
    12d8:	0000                	unimp
    12da:	0501                	addi	a0,a0,0
    12dc:	0305                	addi	t1,t1,1
    12de:	00000977          	0x977
    12e2:	0401                	addi	s0,s0,0
    12e4:	0501                	addi	a0,a0,0
    12e6:	3903061b          	addiw	a2,t1,912
    12ea:	0009                	c.nop	2
    12ec:	0100                	addi	s0,sp,128
    12ee:	0204                	addi	s1,sp,256
    12f0:	0805                	addi	a6,a6,1
    12f2:	04094703          	lbu	a4,64(s2)
    12f6:	0100                	addi	s0,sp,128
    12f8:	0905                	addi	s2,s2,1
    12fa:	0306                	slli	t1,t1,0x1
    12fc:	0901                	addi	s2,s2,0
    12fe:	0004                	0x4
    1300:	0401                	addi	s0,s0,0
    1302:	03050503          	lb	a0,48(a0)
    1306:	0904                	addi	s1,sp,144
    1308:	0000                	unimp
    130a:	0401                	addi	s0,s0,0
    130c:	0504                	addi	s1,sp,640
    130e:	0302                	c.slli64	t1
    1310:	00000977          	0x977
    1314:	0501                	addi	a0,a0,0
    1316:	0003060f          	0x3060f
    131a:	0009                	c.nop	2
    131c:	0100                	addi	s0,sp,128
    131e:	0205                	addi	tp,tp,1
    1320:	0306                	slli	t1,t1,0x1
    1322:	0901                	addi	s2,s2,0
    1324:	0004                	0x4
    1326:	0501                	addi	a0,a0,0
    1328:	0003060f          	0x3060f
    132c:	0009                	c.nop	2
    132e:	0100                	addi	s0,sp,128
    1330:	0205                	addi	tp,tp,1
    1332:	0306                	slli	t1,t1,0x1
    1334:	0901                	addi	s2,s2,0
    1336:	0004                	0x4
    1338:	0501                	addi	a0,a0,0
    133a:	0003060f          	0x3060f
    133e:	0009                	c.nop	2
    1340:	0100                	addi	s0,sp,128
    1342:	0205                	addi	tp,tp,1
    1344:	0306                	slli	t1,t1,0x1
    1346:	0901                	addi	s2,s2,0
    1348:	0004                	0x4
    134a:	0501                	addi	a0,a0,0
    134c:	0003060f          	0x3060f
    1350:	0009                	c.nop	2
    1352:	0100                	addi	s0,sp,128
    1354:	0205                	addi	tp,tp,1
    1356:	0306                	slli	t1,t1,0x1
    1358:	0901                	addi	s2,s2,0
    135a:	0004                	0x4
    135c:	0501                	addi	a0,a0,0
    135e:	0003060f          	0x3060f
    1362:	0009                	c.nop	2
    1364:	0100                	addi	s0,sp,128
    1366:	0205                	addi	tp,tp,1
    1368:	0306                	slli	t1,t1,0x1
    136a:	0901                	addi	s2,s2,0
    136c:	0004                	0x4
    136e:	0501                	addi	a0,a0,0
    1370:	0003060f          	0x3060f
    1374:	0009                	c.nop	2
    1376:	0100                	addi	s0,sp,128
    1378:	0205                	addi	tp,tp,1
    137a:	0306                	slli	t1,t1,0x1
    137c:	0901                	addi	s2,s2,0
    137e:	0004                	0x4
    1380:	0501                	addi	a0,a0,0
    1382:	0610                	addi	a2,sp,768
    1384:	00090003          	lb	zero,0(s2)
    1388:	0100                	addi	s0,sp,128
    138a:	0205                	addi	tp,tp,1
    138c:	0306                	slli	t1,t1,0x1
    138e:	0901                	addi	s2,s2,0
    1390:	0004                	0x4
    1392:	0301                	addi	t1,t1,0
    1394:	0902                	c.slli64	s2
    1396:	0004                	0x4
    1398:	0401                	addi	s0,s0,0
    139a:	0502                	c.slli64	a0
    139c:	0309                	addi	t1,t1,2
    139e:	097d                	addi	s2,s2,31
    13a0:	0000                	unimp
    13a2:	0501                	addi	a0,a0,0
    13a4:	00030613          	mv	a2,t1
    13a8:	0009                	c.nop	2
    13aa:	0100                	addi	s0,sp,128
    13ac:	0104                	addi	s1,sp,128
    13ae:	1105                	addi	sp,sp,-31
    13b0:	0306                	slli	t1,t1,0x1
    13b2:	093e                	slli	s2,s2,0xf
    13b4:	0008                	0x8
    13b6:	0501                	addi	a0,a0,0
    13b8:	0315                	addi	t1,t1,5
    13ba:	0901                	addi	s2,s2,0
    13bc:	0000                	unimp
    13be:	0501                	addi	a0,a0,0
    13c0:	0619                	addi	a2,a2,6
    13c2:	00090003          	lb	zero,0(s2)
    13c6:	0100                	addi	s0,sp,128
    13c8:	0f05                	addi	t5,t5,1
    13ca:	04097003          	0x4097003
    13ce:	0100                	addi	s0,sp,128
    13d0:	1905                	addi	s2,s2,-31
    13d2:	04091003          	lh	zero,64(s2)
    13d6:	0100                	addi	s0,sp,128
    13d8:	1105                	addi	sp,sp,-31
    13da:	0306                	slli	t1,t1,0x1
    13dc:	0905                	addi	s2,s2,1
    13de:	0004                	0x4
    13e0:	0601                	addi	a2,a2,0
    13e2:	00097003          	0x97003
    13e6:	0100                	addi	s0,sp,128
    13e8:	1405                	addi	s0,s0,-31
    13ea:	04091003          	lh	zero,64(s2)
    13ee:	0100                	addi	s0,sp,128
    13f0:	0e05                	addi	t3,t3,1
    13f2:	0306                	slli	t1,t1,0x1
    13f4:	0905                	addi	s2,s2,1
    13f6:	0004                	0x4
    13f8:	0501                	addi	a0,a0,0
    13fa:	0311                	addi	t1,t1,4
    13fc:	0901                	addi	s2,s2,0
    13fe:	0014                	0x14
    1400:	0401                	addi	s0,s0,0
    1402:	0502                	c.slli64	a0
    1404:	0305                	addi	t1,t1,1
    1406:	0942                	slli	s2,s2,0x10
    1408:	0000                	unimp
    140a:	0501                	addi	a0,a0,0
    140c:	030c                	addi	a1,sp,384
    140e:	0900                	addi	s0,sp,144
    1410:	0000                	unimp
    1412:	0601                	addi	a2,a2,0
    1414:	0c090103          	lb	sp,192(s2)
    1418:	0100                	addi	s0,sp,128
    141a:	1f05                	addi	t5,t5,-31
    141c:	04097803          	0x4097803
    1420:	0100                	addi	s0,sp,128
    1422:	1b05                	addi	s6,s6,-31
    1424:	04090003          	lb	zero,64(s2)
    1428:	0100                	addi	s0,sp,128
    142a:	0104                	addi	s1,sp,128
    142c:	1105                	addi	sp,sp,-31
    142e:	0306                	slli	t1,t1,0x1
    1430:	0939                	addi	s2,s2,14
    1432:	0008                	0x8
    1434:	0501                	addi	a0,a0,0
    1436:	0315                	addi	t1,t1,5
    1438:	00000903          	lb	s2,0(zero) # 0 <_text-0xa00000>
    143c:	0501                	addi	a0,a0,0
    143e:	0619                	addi	a2,a2,6
    1440:	00090003          	lb	zero,0(s2)
    1444:	0100                	addi	s0,sp,128
    1446:	1b05                	addi	s6,s6,-31
    1448:	08090003          	lb	zero,128(s2)
    144c:	0100                	addi	s0,sp,128
    144e:	1505                	addi	a0,a0,-31
    1450:	0306                	slli	t1,t1,0x1
    1452:	0904                	addi	s1,sp,144
    1454:	0008                	0x8
    1456:	0501                	addi	a0,a0,0
    1458:	0619                	addi	a2,a2,6
    145a:	00090003          	lb	zero,0(s2)
    145e:	0100                	addi	s0,sp,128
    1460:	1505                	addi	a0,a0,-31
    1462:	0306                	slli	t1,t1,0x1
    1464:	0901                	addi	s2,s2,0
    1466:	0004                	0x4
    1468:	0501                	addi	a0,a0,0
    146a:	061d                	addi	a2,a2,7
    146c:	00090003          	lb	zero,0(s2)
    1470:	0100                	addi	s0,sp,128
    1472:	0204                	addi	s1,sp,256
    1474:	0905                	addi	s2,s2,1
    1476:	0306                	slli	t1,t1,0x1
    1478:	0949                	addi	s2,s2,18
    147a:	0008                	0x8
    147c:	0501                	addi	a0,a0,0
    147e:	0618                	addi	a4,sp,768
    1480:	00090003          	lb	zero,0(s2)
    1484:	0100                	addi	s0,sp,128
    1486:	0905                	addi	s2,s2,1
    1488:	04090003          	lb	zero,64(s2)
    148c:	0100                	addi	s0,sp,128
    148e:	0505                	addi	a0,a0,1
    1490:	0306                	slli	t1,t1,0x1
    1492:	0976                	slli	s2,s2,0x1d
    1494:	0004                	0x4
    1496:	0501                	addi	a0,a0,0
    1498:	0003061b          	sext.w	a2,t1
    149c:	0009                	c.nop	2
    149e:	0100                	addi	s0,sp,128
    14a0:	1f05                	addi	t5,t5,-31
    14a2:	10090003          	lb	zero,256(s2)
    14a6:	0100                	addi	s0,sp,128
    14a8:	0505                	addi	a0,a0,1
    14aa:	0306                	slli	t1,t1,0x1
    14ac:	0901                	addi	s2,s2,0
    14ae:	0008                	0x8
    14b0:	0501                	addi	a0,a0,0
    14b2:	0309                	addi	t1,t1,2
    14b4:	0901                	addi	s2,s2,0
    14b6:	0000                	unimp
    14b8:	0501                	addi	a0,a0,0
    14ba:	0305                	addi	t1,t1,1
    14bc:	00000977          	0x977
    14c0:	0501                	addi	a0,a0,0
    14c2:	0608                	addi	a0,sp,768
    14c4:	00090003          	lb	zero,0(s2)
    14c8:	0100                	addi	s0,sp,128
    14ca:	0c05                	addi	s8,s8,1
    14cc:	0306                	slli	t1,t1,0x1
    14ce:	090e                	slli	s2,s2,0x3
    14d0:	0004                	0x4
    14d2:	0501                	addi	a0,a0,0
    14d4:	0309                	addi	t1,t1,2
    14d6:	0901                	addi	s2,s2,0
    14d8:	000c                	0xc
    14da:	0501                	addi	a0,a0,0
    14dc:	060c                	addi	a1,sp,768
    14de:	00090003          	lb	zero,0(s2)
    14e2:	0100                	addi	s0,sp,128
    14e4:	0d05                	addi	s10,s10,1
    14e6:	0306                	slli	t1,t1,0x1
    14e8:	0901                	addi	s2,s2,0
    14ea:	0004                	0x4
    14ec:	0501                	addi	a0,a0,0
    14ee:	0305                	addi	t1,t1,1
    14f0:	00000977          	0x977
    14f4:	0501                	addi	a0,a0,0
    14f6:	0003061b          	sext.w	a2,t1
    14fa:	0009                	c.nop	2
    14fc:	0100                	addi	s0,sp,128
    14fe:	1f05                	addi	t5,t5,-31
    1500:	10090003          	lb	zero,256(s2)
    1504:	0100                	addi	s0,sp,128
    1506:	0505                	addi	a0,a0,1
    1508:	0306                	slli	t1,t1,0x1
    150a:	0901                	addi	s2,s2,0
    150c:	0008                	0x8
    150e:	0501                	addi	a0,a0,0
    1510:	0309                	addi	t1,t1,2
    1512:	0901                	addi	s2,s2,0
    1514:	0000                	unimp
    1516:	0501                	addi	a0,a0,0
    1518:	0305                	addi	t1,t1,1
    151a:	00000977          	0x977
    151e:	0501                	addi	a0,a0,0
    1520:	0608                	addi	a0,sp,768
    1522:	00090003          	lb	zero,0(s2)
    1526:	0100                	addi	s0,sp,128
    1528:	0905                	addi	s2,s2,1
    152a:	0306                	slli	t1,t1,0x1
    152c:	0901                	addi	s2,s2,0
    152e:	0004                	0x4
    1530:	0401                	addi	s0,s0,0
    1532:	03050503          	lb	a0,48(a0)
    1536:	0904                	addi	s1,sp,144
    1538:	0000                	unimp
    153a:	0401                	addi	s0,s0,0
    153c:	0504                	addi	s1,sp,640
    153e:	0302                	c.slli64	t1
    1540:	00000977          	0x977
    1544:	0501                	addi	a0,a0,0
    1546:	0003060f          	0x3060f
    154a:	0009                	c.nop	2
    154c:	0100                	addi	s0,sp,128
    154e:	0205                	addi	tp,tp,1
    1550:	0306                	slli	t1,t1,0x1
    1552:	0901                	addi	s2,s2,0
    1554:	0004                	0x4
    1556:	0501                	addi	a0,a0,0
    1558:	0003060f          	0x3060f
    155c:	0009                	c.nop	2
    155e:	0100                	addi	s0,sp,128
    1560:	0205                	addi	tp,tp,1
    1562:	0306                	slli	t1,t1,0x1
    1564:	0901                	addi	s2,s2,0
    1566:	0004                	0x4
    1568:	0501                	addi	a0,a0,0
    156a:	0003060f          	0x3060f
    156e:	0009                	c.nop	2
    1570:	0100                	addi	s0,sp,128
    1572:	0205                	addi	tp,tp,1
    1574:	0306                	slli	t1,t1,0x1
    1576:	0901                	addi	s2,s2,0
    1578:	0004                	0x4
    157a:	0501                	addi	a0,a0,0
    157c:	0003060f          	0x3060f
    1580:	0009                	c.nop	2
    1582:	0100                	addi	s0,sp,128
    1584:	0205                	addi	tp,tp,1
    1586:	0306                	slli	t1,t1,0x1
    1588:	0901                	addi	s2,s2,0
    158a:	0004                	0x4
    158c:	0501                	addi	a0,a0,0
    158e:	0003060f          	0x3060f
    1592:	0009                	c.nop	2
    1594:	0100                	addi	s0,sp,128
    1596:	0205                	addi	tp,tp,1
    1598:	0306                	slli	t1,t1,0x1
    159a:	0901                	addi	s2,s2,0
    159c:	0004                	0x4
    159e:	0501                	addi	a0,a0,0
    15a0:	0003060f          	0x3060f
    15a4:	0009                	c.nop	2
    15a6:	0100                	addi	s0,sp,128
    15a8:	0205                	addi	tp,tp,1
    15aa:	0306                	slli	t1,t1,0x1
    15ac:	0901                	addi	s2,s2,0
    15ae:	0004                	0x4
    15b0:	0501                	addi	a0,a0,0
    15b2:	0610                	addi	a2,sp,768
    15b4:	00090003          	lb	zero,0(s2)
    15b8:	0100                	addi	s0,sp,128
    15ba:	0205                	addi	tp,tp,1
    15bc:	0306                	slli	t1,t1,0x1
    15be:	0901                	addi	s2,s2,0
    15c0:	0004                	0x4
    15c2:	0301                	addi	t1,t1,0
    15c4:	0902                	c.slli64	s2
    15c6:	0004                	0x4
    15c8:	0401                	addi	s0,s0,0
    15ca:	0502                	c.slli64	a0
    15cc:	0309                	addi	t1,t1,2
    15ce:	097d                	addi	s2,s2,31
    15d0:	0000                	unimp
    15d2:	0301                	addi	t1,t1,0
    15d4:	0000090f          	0x90f
    15d8:	0501                	addi	a0,a0,0
    15da:	0618                	addi	a4,sp,768
    15dc:	00090003          	lb	zero,0(s2)
    15e0:	0100                	addi	s0,sp,128
    15e2:	0905                	addi	s2,s2,1
    15e4:	04090003          	lb	zero,64(s2)
    15e8:	0100                	addi	s0,sp,128
    15ea:	0505                	addi	a0,a0,1
    15ec:	0306                	slli	t1,t1,0x1
    15ee:	0976                	slli	s2,s2,0x1d
    15f0:	0004                	0x4
    15f2:	0501                	addi	a0,a0,0
    15f4:	0003061b          	sext.w	a2,t1
    15f8:	0009                	c.nop	2
    15fa:	0100                	addi	s0,sp,128
    15fc:	1f05                	addi	t5,t5,-31
    15fe:	04090003          	lb	zero,64(s2)
    1602:	0100                	addi	s0,sp,128
    1604:	0505                	addi	a0,a0,1
    1606:	0306                	slli	t1,t1,0x1
    1608:	0901                	addi	s2,s2,0
    160a:	0004                	0x4
    160c:	0501                	addi	a0,a0,0
    160e:	0309                	addi	t1,t1,2
    1610:	0901                	addi	s2,s2,0
    1612:	0000                	unimp
    1614:	0501                	addi	a0,a0,0
    1616:	0305                	addi	t1,t1,1
    1618:	00000977          	0x977
    161c:	0501                	addi	a0,a0,0
    161e:	0309                	addi	t1,t1,2
    1620:	0901                	addi	s2,s2,0
    1622:	0004                	0x4
    1624:	0401                	addi	s0,s0,0
    1626:	03050503          	lb	a0,48(a0)
    162a:	0904                	addi	s1,sp,144
    162c:	0000                	unimp
    162e:	0401                	addi	s0,s0,0
    1630:	0504                	addi	s1,sp,640
    1632:	0302                	c.slli64	t1
    1634:	00000977          	0x977
    1638:	0501                	addi	a0,a0,0
    163a:	0003060f          	0x3060f
    163e:	0009                	c.nop	2
    1640:	0100                	addi	s0,sp,128
    1642:	0205                	addi	tp,tp,1
    1644:	0306                	slli	t1,t1,0x1
    1646:	0901                	addi	s2,s2,0
    1648:	0004                	0x4
    164a:	0501                	addi	a0,a0,0
    164c:	0003060f          	0x3060f
    1650:	0009                	c.nop	2
    1652:	0100                	addi	s0,sp,128
    1654:	0205                	addi	tp,tp,1
    1656:	0306                	slli	t1,t1,0x1
    1658:	0901                	addi	s2,s2,0
    165a:	0004                	0x4
    165c:	0501                	addi	a0,a0,0
    165e:	0003060f          	0x3060f
    1662:	0009                	c.nop	2
    1664:	0100                	addi	s0,sp,128
    1666:	0205                	addi	tp,tp,1
    1668:	0306                	slli	t1,t1,0x1
    166a:	0901                	addi	s2,s2,0
    166c:	0004                	0x4
    166e:	0501                	addi	a0,a0,0
    1670:	0003060f          	0x3060f
    1674:	0009                	c.nop	2
    1676:	0100                	addi	s0,sp,128
    1678:	0205                	addi	tp,tp,1
    167a:	0306                	slli	t1,t1,0x1
    167c:	0901                	addi	s2,s2,0
    167e:	0004                	0x4
    1680:	0501                	addi	a0,a0,0
    1682:	0003060f          	0x3060f
    1686:	0009                	c.nop	2
    1688:	0100                	addi	s0,sp,128
    168a:	0205                	addi	tp,tp,1
    168c:	0306                	slli	t1,t1,0x1
    168e:	0901                	addi	s2,s2,0
    1690:	0004                	0x4
    1692:	0501                	addi	a0,a0,0
    1694:	0003060f          	0x3060f
    1698:	0009                	c.nop	2
    169a:	0100                	addi	s0,sp,128
    169c:	0205                	addi	tp,tp,1
    169e:	0306                	slli	t1,t1,0x1
    16a0:	0901                	addi	s2,s2,0
    16a2:	0004                	0x4
    16a4:	0501                	addi	a0,a0,0
    16a6:	0610                	addi	a2,sp,768
    16a8:	00090003          	lb	zero,0(s2)
    16ac:	0100                	addi	s0,sp,128
    16ae:	0205                	addi	tp,tp,1
    16b0:	0306                	slli	t1,t1,0x1
    16b2:	0901                	addi	s2,s2,0
    16b4:	0004                	0x4
    16b6:	0301                	addi	t1,t1,0
    16b8:	0902                	c.slli64	s2
    16ba:	0004                	0x4
    16bc:	0401                	addi	s0,s0,0
    16be:	0502                	c.slli64	a0
    16c0:	0309                	addi	t1,t1,2
    16c2:	097d                	addi	s2,s2,31
    16c4:	0000                	unimp
    16c6:	0501                	addi	a0,a0,0
    16c8:	00030613          	mv	a2,t1
    16cc:	0009                	c.nop	2
    16ce:	0100                	addi	s0,sp,128
    16d0:	0104                	addi	s1,sp,128
    16d2:	0905                	addi	s2,s2,1
    16d4:	08093503          	ld	a0,128(s2)
    16d8:	0100                	addi	s0,sp,128
    16da:	1105                	addi	sp,sp,-31
    16dc:	0306                	slli	t1,t1,0x1
    16de:	091a                	slli	s2,s2,0x6
    16e0:	0014                	0x14
    16e2:	0501                	addi	a0,a0,0
    16e4:	0614                	addi	a3,sp,768
    16e6:	00090003          	lb	zero,0(s2)
    16ea:	0100                	addi	s0,sp,128
    16ec:	1505                	addi	a0,a0,-31
    16ee:	0306                	slli	t1,t1,0x1
    16f0:	0901                	addi	s2,s2,0
    16f2:	0004                	0x4
    16f4:	0501                	addi	a0,a0,0
    16f6:	0619                	addi	a2,a2,6
    16f8:	00090003          	lb	zero,0(s2)
    16fc:	0100                	addi	s0,sp,128
    16fe:	1105                	addi	sp,sp,-31
    1700:	0306                	slli	t1,t1,0x1
    1702:	0905                	addi	s2,s2,1
    1704:	0008                	0x8
    1706:	0301                	addi	t1,t1,0
    1708:	0901                	addi	s2,s2,0
    170a:	0018                	0x18
    170c:	0401                	addi	s0,s0,0
    170e:	0502                	c.slli64	a0
    1710:	0305                	addi	t1,t1,1
    1712:	7fb6                	ld	t6,360(sp)
    1714:	0009                	c.nop	2
    1716:	0100                	addi	s0,sp,128
    1718:	0c05                	addi	s8,s8,1
    171a:	00090003          	lb	zero,0(s2)
    171e:	0100                	addi	s0,sp,128
    1720:	0306                	slli	t1,t1,0x1
    1722:	0901                	addi	s2,s2,0
    1724:	000c                	0xc
    1726:	0501                	addi	a0,a0,0
    1728:	031f 0978 0004      	0x40978031f
    172e:	0501                	addi	a0,a0,0
    1730:	0900031b          	addiw	t1,zero,144
    1734:	0004                	0x4
    1736:	0401                	addi	s0,s0,0
    1738:	0501                	addi	a0,a0,0
    173a:	0615                	addi	a2,a2,5
    173c:	0900cd03          	lbu	s10,144(ra)
    1740:	0008                	0x8
    1742:	0501                	addi	a0,a0,0
    1744:	0619                	addi	a2,a2,6
    1746:	00090003          	lb	zero,0(s2)
    174a:	0100                	addi	s0,sp,128
    174c:	1b05                	addi	s6,s6,-31
    174e:	04090003          	lb	zero,64(s2)
    1752:	0100                	addi	s0,sp,128
    1754:	0204                	addi	s1,sp,256
    1756:	0905                	addi	s2,s2,1
    1758:	0306                	slli	t1,t1,0x1
    175a:	7fbd                	lui	t6,0xfffef
    175c:	0809                	addi	a6,a6,2
    175e:	0100                	addi	s0,sp,128
    1760:	1805                	addi	a6,a6,-31
    1762:	0306                	slli	t1,t1,0x1
    1764:	0900                	addi	s0,sp,144
    1766:	0000                	unimp
    1768:	0501                	addi	a0,a0,0
    176a:	0309                	addi	t1,t1,2
    176c:	0900                	addi	s0,sp,144
    176e:	0004                	0x4
    1770:	0501                	addi	a0,a0,0
    1772:	0605                	addi	a2,a2,1
    1774:	04097603          	0x4097603
    1778:	0100                	addi	s0,sp,128
    177a:	1b05                	addi	s6,s6,-31
    177c:	0306                	slli	t1,t1,0x1
    177e:	0900                	addi	s0,sp,144
    1780:	0000                	unimp
    1782:	0501                	addi	a0,a0,0
    1784:	031f 0900 0010      	0x100900031f
    178a:	0501                	addi	a0,a0,0
    178c:	0605                	addi	a2,a2,1
    178e:	08090103          	lb	sp,128(s2)
    1792:	0100                	addi	s0,sp,128
    1794:	0905                	addi	s2,s2,1
    1796:	00090103          	lb	sp,0(s2)
    179a:	0100                	addi	s0,sp,128
    179c:	0505                	addi	a0,a0,1
    179e:	00097703          	0x97703
    17a2:	0100                	addi	s0,sp,128
    17a4:	0805                	addi	a6,a6,1
    17a6:	0306                	slli	t1,t1,0x1
    17a8:	0900                	addi	s0,sp,144
    17aa:	0000                	unimp
    17ac:	0501                	addi	a0,a0,0
    17ae:	060c                	addi	a1,sp,768
    17b0:	04090e03          	lb	t3,64(s2)
    17b4:	0100                	addi	s0,sp,128
    17b6:	0905                	addi	s2,s2,1
    17b8:	0c090103          	lb	sp,192(s2)
    17bc:	0100                	addi	s0,sp,128
    17be:	0c05                	addi	s8,s8,1
    17c0:	0306                	slli	t1,t1,0x1
    17c2:	0900                	addi	s0,sp,144
    17c4:	0000                	unimp
    17c6:	0501                	addi	a0,a0,0
    17c8:	060d                	addi	a2,a2,3
    17ca:	04090103          	lb	sp,64(s2)
    17ce:	0100                	addi	s0,sp,128
    17d0:	0505                	addi	a0,a0,1
    17d2:	00097703          	0x97703
    17d6:	0100                	addi	s0,sp,128
    17d8:	1b05                	addi	s6,s6,-31
    17da:	0306                	slli	t1,t1,0x1
    17dc:	0900                	addi	s0,sp,144
    17de:	0000                	unimp
    17e0:	0501                	addi	a0,a0,0
    17e2:	031f 0900 0010      	0x100900031f
    17e8:	0501                	addi	a0,a0,0
    17ea:	0605                	addi	a2,a2,1
    17ec:	08090103          	lb	sp,128(s2)
    17f0:	0100                	addi	s0,sp,128
    17f2:	0905                	addi	s2,s2,1
    17f4:	00090103          	lb	sp,0(s2)
    17f8:	0100                	addi	s0,sp,128
    17fa:	0505                	addi	a0,a0,1
    17fc:	00097703          	0x97703
    1800:	0100                	addi	s0,sp,128
    1802:	0805                	addi	a6,a6,1
    1804:	0306                	slli	t1,t1,0x1
    1806:	0900                	addi	s0,sp,144
    1808:	0000                	unimp
    180a:	0501                	addi	a0,a0,0
    180c:	0609                	addi	a2,a2,2
    180e:	04090103          	lb	sp,64(s2)
    1812:	0100                	addi	s0,sp,128
    1814:	0304                	addi	s1,sp,384
    1816:	0505                	addi	a0,a0,1
    1818:	00090403          	lb	s0,0(s2)
    181c:	0100                	addi	s0,sp,128
    181e:	0404                	addi	s1,sp,512
    1820:	0205                	addi	tp,tp,1
    1822:	00097703          	0x97703
    1826:	0100                	addi	s0,sp,128
    1828:	0f05                	addi	t5,t5,1
    182a:	0306                	slli	t1,t1,0x1
    182c:	0900                	addi	s0,sp,144
    182e:	0000                	unimp
    1830:	0501                	addi	a0,a0,0
    1832:	0602                	c.slli64	a2
    1834:	04090103          	lb	sp,64(s2)
    1838:	0100                	addi	s0,sp,128
    183a:	0f05                	addi	t5,t5,1
    183c:	0306                	slli	t1,t1,0x1
    183e:	0900                	addi	s0,sp,144
    1840:	0000                	unimp
    1842:	0501                	addi	a0,a0,0
    1844:	0602                	c.slli64	a2
    1846:	04090103          	lb	sp,64(s2)
    184a:	0100                	addi	s0,sp,128
    184c:	0f05                	addi	t5,t5,1
    184e:	0306                	slli	t1,t1,0x1
    1850:	0900                	addi	s0,sp,144
    1852:	0000                	unimp
    1854:	0501                	addi	a0,a0,0
    1856:	0602                	c.slli64	a2
    1858:	04090103          	lb	sp,64(s2)
    185c:	0100                	addi	s0,sp,128
    185e:	0f05                	addi	t5,t5,1
    1860:	0306                	slli	t1,t1,0x1
    1862:	0900                	addi	s0,sp,144
    1864:	0000                	unimp
    1866:	0501                	addi	a0,a0,0
    1868:	0602                	c.slli64	a2
    186a:	04090103          	lb	sp,64(s2)
    186e:	0100                	addi	s0,sp,128
    1870:	0f05                	addi	t5,t5,1
    1872:	0306                	slli	t1,t1,0x1
    1874:	0900                	addi	s0,sp,144
    1876:	0000                	unimp
    1878:	0501                	addi	a0,a0,0
    187a:	0602                	c.slli64	a2
    187c:	04090103          	lb	sp,64(s2)
    1880:	0100                	addi	s0,sp,128
    1882:	0f05                	addi	t5,t5,1
    1884:	0306                	slli	t1,t1,0x1
    1886:	0900                	addi	s0,sp,144
    1888:	0000                	unimp
    188a:	0501                	addi	a0,a0,0
    188c:	0602                	c.slli64	a2
    188e:	04090103          	lb	sp,64(s2)
    1892:	0100                	addi	s0,sp,128
    1894:	1005                	c.nop	-31
    1896:	0306                	slli	t1,t1,0x1
    1898:	0900                	addi	s0,sp,144
    189a:	0000                	unimp
    189c:	0501                	addi	a0,a0,0
    189e:	0602                	c.slli64	a2
    18a0:	04090103          	lb	sp,64(s2)
    18a4:	0100                	addi	s0,sp,128
    18a6:	04090203          	lb	tp,64(s2)
    18aa:	0100                	addi	s0,sp,128
    18ac:	0204                	addi	s1,sp,256
    18ae:	0905                	addi	s2,s2,1
    18b0:	00097d03          	0x97d03
    18b4:	0100                	addi	s0,sp,128
    18b6:	00090f03          	lb	t5,0(s2)
    18ba:	0100                	addi	s0,sp,128
    18bc:	1805                	addi	a6,a6,-31
    18be:	0306                	slli	t1,t1,0x1
    18c0:	0900                	addi	s0,sp,144
    18c2:	0000                	unimp
    18c4:	0501                	addi	a0,a0,0
    18c6:	0309                	addi	t1,t1,2
    18c8:	0900                	addi	s0,sp,144
    18ca:	0004                	0x4
    18cc:	0501                	addi	a0,a0,0
    18ce:	0605                	addi	a2,a2,1
    18d0:	04097603          	0x4097603
    18d4:	0100                	addi	s0,sp,128
    18d6:	1b05                	addi	s6,s6,-31
    18d8:	0306                	slli	t1,t1,0x1
    18da:	0900                	addi	s0,sp,144
    18dc:	0000                	unimp
    18de:	0501                	addi	a0,a0,0
    18e0:	031f 0900 0004      	0x40900031f
    18e6:	0501                	addi	a0,a0,0
    18e8:	0605                	addi	a2,a2,1
    18ea:	04090103          	lb	sp,64(s2)
    18ee:	0100                	addi	s0,sp,128
    18f0:	0905                	addi	s2,s2,1
    18f2:	00090103          	lb	sp,0(s2)
    18f6:	0100                	addi	s0,sp,128
    18f8:	0505                	addi	a0,a0,1
    18fa:	00097703          	0x97703
    18fe:	0100                	addi	s0,sp,128
    1900:	0905                	addi	s2,s2,1
    1902:	04090103          	lb	sp,64(s2)
    1906:	0100                	addi	s0,sp,128
    1908:	0304                	addi	s1,sp,384
    190a:	0505                	addi	a0,a0,1
    190c:	00090403          	lb	s0,0(s2)
    1910:	0100                	addi	s0,sp,128
    1912:	0404                	addi	s1,sp,512
    1914:	0205                	addi	tp,tp,1
    1916:	00097703          	0x97703
    191a:	0100                	addi	s0,sp,128
    191c:	0f05                	addi	t5,t5,1
    191e:	0306                	slli	t1,t1,0x1
    1920:	0900                	addi	s0,sp,144
    1922:	0000                	unimp
    1924:	0501                	addi	a0,a0,0
    1926:	0602                	c.slli64	a2
    1928:	04090103          	lb	sp,64(s2)
    192c:	0100                	addi	s0,sp,128
    192e:	0f05                	addi	t5,t5,1
    1930:	0306                	slli	t1,t1,0x1
    1932:	0900                	addi	s0,sp,144
    1934:	0000                	unimp
    1936:	0501                	addi	a0,a0,0
    1938:	0602                	c.slli64	a2
    193a:	04090103          	lb	sp,64(s2)
    193e:	0100                	addi	s0,sp,128
    1940:	0f05                	addi	t5,t5,1
    1942:	0306                	slli	t1,t1,0x1
    1944:	0900                	addi	s0,sp,144
    1946:	0000                	unimp
    1948:	0501                	addi	a0,a0,0
    194a:	0602                	c.slli64	a2
    194c:	04090103          	lb	sp,64(s2)
    1950:	0100                	addi	s0,sp,128
    1952:	0f05                	addi	t5,t5,1
    1954:	0306                	slli	t1,t1,0x1
    1956:	0900                	addi	s0,sp,144
    1958:	0000                	unimp
    195a:	0501                	addi	a0,a0,0
    195c:	0602                	c.slli64	a2
    195e:	04090103          	lb	sp,64(s2)
    1962:	0100                	addi	s0,sp,128
    1964:	0f05                	addi	t5,t5,1
    1966:	0306                	slli	t1,t1,0x1
    1968:	0900                	addi	s0,sp,144
    196a:	0000                	unimp
    196c:	0501                	addi	a0,a0,0
    196e:	0602                	c.slli64	a2
    1970:	04090103          	lb	sp,64(s2)
    1974:	0100                	addi	s0,sp,128
    1976:	0f05                	addi	t5,t5,1
    1978:	0306                	slli	t1,t1,0x1
    197a:	0900                	addi	s0,sp,144
    197c:	0000                	unimp
    197e:	0501                	addi	a0,a0,0
    1980:	0602                	c.slli64	a2
    1982:	04090103          	lb	sp,64(s2)
    1986:	0100                	addi	s0,sp,128
    1988:	1005                	c.nop	-31
    198a:	0306                	slli	t1,t1,0x1
    198c:	0900                	addi	s0,sp,144
    198e:	0000                	unimp
    1990:	0501                	addi	a0,a0,0
    1992:	0602                	c.slli64	a2
    1994:	04090103          	lb	sp,64(s2)
    1998:	0100                	addi	s0,sp,128
    199a:	04090203          	lb	tp,64(s2)
    199e:	0100                	addi	s0,sp,128
    19a0:	0204                	addi	s1,sp,256
    19a2:	0905                	addi	s2,s2,1
    19a4:	00097d03          	0x97d03
    19a8:	0100                	addi	s0,sp,128
    19aa:	1305                	addi	t1,t1,-31
    19ac:	0306                	slli	t1,t1,0x1
    19ae:	0900                	addi	s0,sp,144
    19b0:	0000                	unimp
    19b2:	0401                	addi	s0,s0,0
    19b4:	0501                	addi	a0,a0,0
    19b6:	0309                	addi	t1,t1,2
    19b8:	0935                	addi	s2,s2,13
    19ba:	0008                	0x8
    19bc:	0501                	addi	a0,a0,0
    19be:	0611                	addi	a2,a2,4
    19c0:	14092603          	lw	a2,320(s2)
    19c4:	0100                	addi	s0,sp,128
    19c6:	1405                	addi	s0,s0,-31
    19c8:	0306                	slli	t1,t1,0x1
    19ca:	0900                	addi	s0,sp,144
    19cc:	0000                	unimp
    19ce:	0501                	addi	a0,a0,0
    19d0:	0615                	addi	a2,a2,5
    19d2:	04090103          	lb	sp,64(s2)
    19d6:	0100                	addi	s0,sp,128
    19d8:	1905                	addi	s2,s2,-31
    19da:	0306                	slli	t1,t1,0x1
    19dc:	0900                	addi	s0,sp,144
    19de:	0000                	unimp
    19e0:	0501                	addi	a0,a0,0
    19e2:	060e                	slli	a2,a2,0x3
    19e4:	08090503          	lb	a0,128(s2)
    19e8:	0100                	addi	s0,sp,128
    19ea:	1105                	addi	sp,sp,-31
    19ec:	18090103          	lb	sp,384(s2)
    19f0:	0100                	addi	s0,sp,128
    19f2:	0204                	addi	s1,sp,256
    19f4:	0505                	addi	a0,a0,1
    19f6:	097faa03          	lw	s4,151(t6) # fffffffffffef097 <end+0xfffffffffefed097>
    19fa:	0000                	unimp
    19fc:	0501                	addi	a0,a0,0
    19fe:	030c                	addi	a1,sp,384
    1a00:	0900                	addi	s0,sp,144
    1a02:	0000                	unimp
    1a04:	0601                	addi	a2,a2,0
    1a06:	0c090103          	lb	sp,192(s2)
    1a0a:	0100                	addi	s0,sp,128
    1a0c:	1f05                	addi	t5,t5,-31
    1a0e:	04097803          	0x4097803
    1a12:	0100                	addi	s0,sp,128
    1a14:	1b05                	addi	s6,s6,-31
    1a16:	04090003          	lb	zero,64(s2)
    1a1a:	0100                	addi	s0,sp,128
    1a1c:	0104                	addi	s1,sp,128
    1a1e:	1505                	addi	a0,a0,-31
    1a20:	0306                	slli	t1,t1,0x1
    1a22:	00d9                	addi	ra,ra,22
    1a24:	0809                	addi	a6,a6,2
    1a26:	0100                	addi	s0,sp,128
    1a28:	1905                	addi	s2,s2,-31
    1a2a:	0306                	slli	t1,t1,0x1
    1a2c:	0900                	addi	s0,sp,144
    1a2e:	0000                	unimp
    1a30:	0501                	addi	a0,a0,0
    1a32:	0900031b          	addiw	t1,zero,144
    1a36:	0004                	0x4
    1a38:	0401                	addi	s0,s0,0
    1a3a:	0502                	c.slli64	a0
    1a3c:	0609                	addi	a2,a2,2
    1a3e:	097fb103          	ld	sp,151(t6)
    1a42:	0008                	0x8
    1a44:	0501                	addi	a0,a0,0
    1a46:	0618                	addi	a4,sp,768
    1a48:	00090003          	lb	zero,0(s2)
    1a4c:	0100                	addi	s0,sp,128
    1a4e:	0905                	addi	s2,s2,1
    1a50:	04090003          	lb	zero,64(s2)
    1a54:	0100                	addi	s0,sp,128
    1a56:	0505                	addi	a0,a0,1
    1a58:	0306                	slli	t1,t1,0x1
    1a5a:	0976                	slli	s2,s2,0x1d
    1a5c:	0004                	0x4
    1a5e:	0501                	addi	a0,a0,0
    1a60:	0003061b          	sext.w	a2,t1
    1a64:	0009                	c.nop	2
    1a66:	0100                	addi	s0,sp,128
    1a68:	1f05                	addi	t5,t5,-31
    1a6a:	10090003          	lb	zero,256(s2)
    1a6e:	0100                	addi	s0,sp,128
    1a70:	0505                	addi	a0,a0,1
    1a72:	0306                	slli	t1,t1,0x1
    1a74:	0901                	addi	s2,s2,0
    1a76:	0008                	0x8
    1a78:	0501                	addi	a0,a0,0
    1a7a:	0309                	addi	t1,t1,2
    1a7c:	0901                	addi	s2,s2,0
    1a7e:	0000                	unimp
    1a80:	0501                	addi	a0,a0,0
    1a82:	0305                	addi	t1,t1,1
    1a84:	00000977          	0x977
    1a88:	0501                	addi	a0,a0,0
    1a8a:	0608                	addi	a0,sp,768
    1a8c:	00090003          	lb	zero,0(s2)
    1a90:	0100                	addi	s0,sp,128
    1a92:	0c05                	addi	s8,s8,1
    1a94:	0306                	slli	t1,t1,0x1
    1a96:	090e                	slli	s2,s2,0x3
    1a98:	0004                	0x4
    1a9a:	0501                	addi	a0,a0,0
    1a9c:	0309                	addi	t1,t1,2
    1a9e:	0901                	addi	s2,s2,0
    1aa0:	000c                	0xc
    1aa2:	0501                	addi	a0,a0,0
    1aa4:	060c                	addi	a1,sp,768
    1aa6:	00090003          	lb	zero,0(s2)
    1aaa:	0100                	addi	s0,sp,128
    1aac:	0d05                	addi	s10,s10,1
    1aae:	0306                	slli	t1,t1,0x1
    1ab0:	0901                	addi	s2,s2,0
    1ab2:	0004                	0x4
    1ab4:	0501                	addi	a0,a0,0
    1ab6:	0305                	addi	t1,t1,1
    1ab8:	00000977          	0x977
    1abc:	0501                	addi	a0,a0,0
    1abe:	0003061b          	sext.w	a2,t1
    1ac2:	0009                	c.nop	2
    1ac4:	0100                	addi	s0,sp,128
    1ac6:	1f05                	addi	t5,t5,-31
    1ac8:	10090003          	lb	zero,256(s2)
    1acc:	0100                	addi	s0,sp,128
    1ace:	0505                	addi	a0,a0,1
    1ad0:	0306                	slli	t1,t1,0x1
    1ad2:	0901                	addi	s2,s2,0
    1ad4:	0008                	0x8
    1ad6:	0501                	addi	a0,a0,0
    1ad8:	0309                	addi	t1,t1,2
    1ada:	0901                	addi	s2,s2,0
    1adc:	0000                	unimp
    1ade:	0501                	addi	a0,a0,0
    1ae0:	0305                	addi	t1,t1,1
    1ae2:	00000977          	0x977
    1ae6:	0501                	addi	a0,a0,0
    1ae8:	0608                	addi	a0,sp,768
    1aea:	00090003          	lb	zero,0(s2)
    1aee:	0100                	addi	s0,sp,128
    1af0:	0905                	addi	s2,s2,1
    1af2:	0306                	slli	t1,t1,0x1
    1af4:	0901                	addi	s2,s2,0
    1af6:	0004                	0x4
    1af8:	0401                	addi	s0,s0,0
    1afa:	03050503          	lb	a0,48(a0)
    1afe:	0904                	addi	s1,sp,144
    1b00:	0000                	unimp
    1b02:	0401                	addi	s0,s0,0
    1b04:	0504                	addi	s1,sp,640
    1b06:	0302                	c.slli64	t1
    1b08:	00000977          	0x977
    1b0c:	0501                	addi	a0,a0,0
    1b0e:	0003060f          	0x3060f
    1b12:	0009                	c.nop	2
    1b14:	0100                	addi	s0,sp,128
    1b16:	0205                	addi	tp,tp,1
    1b18:	0306                	slli	t1,t1,0x1
    1b1a:	0901                	addi	s2,s2,0
    1b1c:	0004                	0x4
    1b1e:	0501                	addi	a0,a0,0
    1b20:	0003060f          	0x3060f
    1b24:	0009                	c.nop	2
    1b26:	0100                	addi	s0,sp,128
    1b28:	0205                	addi	tp,tp,1
    1b2a:	0306                	slli	t1,t1,0x1
    1b2c:	0901                	addi	s2,s2,0
    1b2e:	0004                	0x4
    1b30:	0501                	addi	a0,a0,0
    1b32:	0003060f          	0x3060f
    1b36:	0009                	c.nop	2
    1b38:	0100                	addi	s0,sp,128
    1b3a:	0205                	addi	tp,tp,1
    1b3c:	0306                	slli	t1,t1,0x1
    1b3e:	0901                	addi	s2,s2,0
    1b40:	0004                	0x4
    1b42:	0501                	addi	a0,a0,0
    1b44:	0003060f          	0x3060f
    1b48:	0009                	c.nop	2
    1b4a:	0100                	addi	s0,sp,128
    1b4c:	0205                	addi	tp,tp,1
    1b4e:	0306                	slli	t1,t1,0x1
    1b50:	0901                	addi	s2,s2,0
    1b52:	0004                	0x4
    1b54:	0501                	addi	a0,a0,0
    1b56:	0003060f          	0x3060f
    1b5a:	0009                	c.nop	2
    1b5c:	0100                	addi	s0,sp,128
    1b5e:	0205                	addi	tp,tp,1
    1b60:	0306                	slli	t1,t1,0x1
    1b62:	0901                	addi	s2,s2,0
    1b64:	0004                	0x4
    1b66:	0501                	addi	a0,a0,0
    1b68:	0003060f          	0x3060f
    1b6c:	0009                	c.nop	2
    1b6e:	0100                	addi	s0,sp,128
    1b70:	0205                	addi	tp,tp,1
    1b72:	0306                	slli	t1,t1,0x1
    1b74:	0901                	addi	s2,s2,0
    1b76:	0004                	0x4
    1b78:	0501                	addi	a0,a0,0
    1b7a:	0610                	addi	a2,sp,768
    1b7c:	00090003          	lb	zero,0(s2)
    1b80:	0100                	addi	s0,sp,128
    1b82:	0205                	addi	tp,tp,1
    1b84:	0306                	slli	t1,t1,0x1
    1b86:	0901                	addi	s2,s2,0
    1b88:	0004                	0x4
    1b8a:	0301                	addi	t1,t1,0
    1b8c:	0902                	c.slli64	s2
    1b8e:	0004                	0x4
    1b90:	0401                	addi	s0,s0,0
    1b92:	0502                	c.slli64	a0
    1b94:	0309                	addi	t1,t1,2
    1b96:	097d                	addi	s2,s2,31
    1b98:	0000                	unimp
    1b9a:	0301                	addi	t1,t1,0
    1b9c:	0000090f          	0x90f
    1ba0:	0501                	addi	a0,a0,0
    1ba2:	0618                	addi	a4,sp,768
    1ba4:	00090003          	lb	zero,0(s2)
    1ba8:	0100                	addi	s0,sp,128
    1baa:	0905                	addi	s2,s2,1
    1bac:	04090003          	lb	zero,64(s2)
    1bb0:	0100                	addi	s0,sp,128
    1bb2:	0505                	addi	a0,a0,1
    1bb4:	0306                	slli	t1,t1,0x1
    1bb6:	0976                	slli	s2,s2,0x1d
    1bb8:	0004                	0x4
    1bba:	0501                	addi	a0,a0,0
    1bbc:	0003061b          	sext.w	a2,t1
    1bc0:	0009                	c.nop	2
    1bc2:	0100                	addi	s0,sp,128
    1bc4:	1f05                	addi	t5,t5,-31
    1bc6:	04090003          	lb	zero,64(s2)
    1bca:	0100                	addi	s0,sp,128
    1bcc:	0505                	addi	a0,a0,1
    1bce:	0306                	slli	t1,t1,0x1
    1bd0:	0901                	addi	s2,s2,0
    1bd2:	0004                	0x4
    1bd4:	0501                	addi	a0,a0,0
    1bd6:	0309                	addi	t1,t1,2
    1bd8:	0901                	addi	s2,s2,0
    1bda:	0000                	unimp
    1bdc:	0501                	addi	a0,a0,0
    1bde:	0305                	addi	t1,t1,1
    1be0:	00000977          	0x977
    1be4:	0501                	addi	a0,a0,0
    1be6:	0309                	addi	t1,t1,2
    1be8:	0901                	addi	s2,s2,0
    1bea:	0004                	0x4
    1bec:	0401                	addi	s0,s0,0
    1bee:	03050503          	lb	a0,48(a0)
    1bf2:	0904                	addi	s1,sp,144
    1bf4:	0000                	unimp
    1bf6:	0401                	addi	s0,s0,0
    1bf8:	0504                	addi	s1,sp,640
    1bfa:	0302                	c.slli64	t1
    1bfc:	00000977          	0x977
    1c00:	0501                	addi	a0,a0,0
    1c02:	0003060f          	0x3060f
    1c06:	0009                	c.nop	2
    1c08:	0100                	addi	s0,sp,128
    1c0a:	0205                	addi	tp,tp,1
    1c0c:	0306                	slli	t1,t1,0x1
    1c0e:	0901                	addi	s2,s2,0
    1c10:	0004                	0x4
    1c12:	0501                	addi	a0,a0,0
    1c14:	0003060f          	0x3060f
    1c18:	0009                	c.nop	2
    1c1a:	0100                	addi	s0,sp,128
    1c1c:	0205                	addi	tp,tp,1
    1c1e:	0306                	slli	t1,t1,0x1
    1c20:	0901                	addi	s2,s2,0
    1c22:	0004                	0x4
    1c24:	0501                	addi	a0,a0,0
    1c26:	0003060f          	0x3060f
    1c2a:	0009                	c.nop	2
    1c2c:	0100                	addi	s0,sp,128
    1c2e:	0205                	addi	tp,tp,1
    1c30:	0306                	slli	t1,t1,0x1
    1c32:	0901                	addi	s2,s2,0
    1c34:	0004                	0x4
    1c36:	0501                	addi	a0,a0,0
    1c38:	0003060f          	0x3060f
    1c3c:	0009                	c.nop	2
    1c3e:	0100                	addi	s0,sp,128
    1c40:	0205                	addi	tp,tp,1
    1c42:	0306                	slli	t1,t1,0x1
    1c44:	0901                	addi	s2,s2,0
    1c46:	0004                	0x4
    1c48:	0501                	addi	a0,a0,0
    1c4a:	0003060f          	0x3060f
    1c4e:	0009                	c.nop	2
    1c50:	0100                	addi	s0,sp,128
    1c52:	0205                	addi	tp,tp,1
    1c54:	0306                	slli	t1,t1,0x1
    1c56:	0901                	addi	s2,s2,0
    1c58:	0004                	0x4
    1c5a:	0501                	addi	a0,a0,0
    1c5c:	0003060f          	0x3060f
    1c60:	0009                	c.nop	2
    1c62:	0100                	addi	s0,sp,128
    1c64:	0205                	addi	tp,tp,1
    1c66:	0306                	slli	t1,t1,0x1
    1c68:	0901                	addi	s2,s2,0
    1c6a:	0004                	0x4
    1c6c:	0501                	addi	a0,a0,0
    1c6e:	0610                	addi	a2,sp,768
    1c70:	00090003          	lb	zero,0(s2)
    1c74:	0100                	addi	s0,sp,128
    1c76:	0205                	addi	tp,tp,1
    1c78:	0306                	slli	t1,t1,0x1
    1c7a:	0901                	addi	s2,s2,0
    1c7c:	0004                	0x4
    1c7e:	0301                	addi	t1,t1,0
    1c80:	0902                	c.slli64	s2
    1c82:	0004                	0x4
    1c84:	0401                	addi	s0,s0,0
    1c86:	0502                	c.slli64	a0
    1c88:	0309                	addi	t1,t1,2
    1c8a:	097d                	addi	s2,s2,31
    1c8c:	0000                	unimp
    1c8e:	0501                	addi	a0,a0,0
    1c90:	00030613          	mv	a2,t1
    1c94:	0009                	c.nop	2
    1c96:	0100                	addi	s0,sp,128
    1c98:	0104                	addi	s1,sp,128
    1c9a:	0905                	addi	s2,s2,1
    1c9c:	08093503          	ld	a0,128(s2)
    1ca0:	0100                	addi	s0,sp,128
    1ca2:	1105                	addi	sp,sp,-31
    1ca4:	0306                	slli	t1,t1,0x1
    1ca6:	0931                	addi	s2,s2,12
    1ca8:	0014                	0x14
    1caa:	0501                	addi	a0,a0,0
    1cac:	0614                	addi	a3,sp,768
    1cae:	00090003          	lb	zero,0(s2)
    1cb2:	0100                	addi	s0,sp,128
    1cb4:	1505                	addi	a0,a0,-31
    1cb6:	0306                	slli	t1,t1,0x1
    1cb8:	0901                	addi	s2,s2,0
    1cba:	0004                	0x4
    1cbc:	0501                	addi	a0,a0,0
    1cbe:	0619                	addi	a2,a2,6
    1cc0:	00090003          	lb	zero,0(s2)
    1cc4:	0100                	addi	s0,sp,128
    1cc6:	1105                	addi	sp,sp,-31
    1cc8:	0306                	slli	t1,t1,0x1
    1cca:	0905                	addi	s2,s2,1
    1ccc:	0008                	0x8
    1cce:	0301                	addi	t1,t1,0
    1cd0:	0901                	addi	s2,s2,0
    1cd2:	0018                	0x18
    1cd4:	0401                	addi	s0,s0,0
    1cd6:	0502                	c.slli64	a0
    1cd8:	0305                	addi	t1,t1,1
    1cda:	7f9f 0009 0100      	0x10000097f9f
    1ce0:	0c05                	addi	s8,s8,1
    1ce2:	00090003          	lb	zero,0(s2)
    1ce6:	0100                	addi	s0,sp,128
    1ce8:	0306                	slli	t1,t1,0x1
    1cea:	0901                	addi	s2,s2,0
    1cec:	000c                	0xc
    1cee:	0501                	addi	a0,a0,0
    1cf0:	031f 0978 0004      	0x40978031f
    1cf6:	0501                	addi	a0,a0,0
    1cf8:	0900031b          	addiw	t1,zero,144
    1cfc:	0004                	0x4
    1cfe:	0401                	addi	s0,s0,0
    1d00:	0501                	addi	a0,a0,0
    1d02:	0615                	addi	a2,a2,5
    1d04:	0900e403          	lwu	s0,144(ra)
    1d08:	0008                	0x8
    1d0a:	0501                	addi	a0,a0,0
    1d0c:	0619                	addi	a2,a2,6
    1d0e:	00090003          	lb	zero,0(s2)
    1d12:	0100                	addi	s0,sp,128
    1d14:	1b05                	addi	s6,s6,-31
    1d16:	04090003          	lb	zero,64(s2)
    1d1a:	0100                	addi	s0,sp,128
    1d1c:	0204                	addi	s1,sp,256
    1d1e:	0905                	addi	s2,s2,1
    1d20:	0306                	slli	t1,t1,0x1
    1d22:	7fa6                	ld	t6,104(sp)
    1d24:	0809                	addi	a6,a6,2
    1d26:	0100                	addi	s0,sp,128
    1d28:	1805                	addi	a6,a6,-31
    1d2a:	0306                	slli	t1,t1,0x1
    1d2c:	0900                	addi	s0,sp,144
    1d2e:	0000                	unimp
    1d30:	0501                	addi	a0,a0,0
    1d32:	0309                	addi	t1,t1,2
    1d34:	0900                	addi	s0,sp,144
    1d36:	0004                	0x4
    1d38:	0501                	addi	a0,a0,0
    1d3a:	0605                	addi	a2,a2,1
    1d3c:	04097603          	0x4097603
    1d40:	0100                	addi	s0,sp,128
    1d42:	1b05                	addi	s6,s6,-31
    1d44:	0306                	slli	t1,t1,0x1
    1d46:	0900                	addi	s0,sp,144
    1d48:	0000                	unimp
    1d4a:	0501                	addi	a0,a0,0
    1d4c:	031f 0900 0010      	0x100900031f
    1d52:	0501                	addi	a0,a0,0
    1d54:	0605                	addi	a2,a2,1
    1d56:	08090103          	lb	sp,128(s2)
    1d5a:	0100                	addi	s0,sp,128
    1d5c:	0905                	addi	s2,s2,1
    1d5e:	00090103          	lb	sp,0(s2)
    1d62:	0100                	addi	s0,sp,128
    1d64:	0505                	addi	a0,a0,1
    1d66:	00097703          	0x97703
    1d6a:	0100                	addi	s0,sp,128
    1d6c:	0805                	addi	a6,a6,1
    1d6e:	0306                	slli	t1,t1,0x1
    1d70:	0900                	addi	s0,sp,144
    1d72:	0000                	unimp
    1d74:	0501                	addi	a0,a0,0
    1d76:	060c                	addi	a1,sp,768
    1d78:	04090e03          	lb	t3,64(s2)
    1d7c:	0100                	addi	s0,sp,128
    1d7e:	0905                	addi	s2,s2,1
    1d80:	0c090103          	lb	sp,192(s2)
    1d84:	0100                	addi	s0,sp,128
    1d86:	0c05                	addi	s8,s8,1
    1d88:	0306                	slli	t1,t1,0x1
    1d8a:	0900                	addi	s0,sp,144
    1d8c:	0000                	unimp
    1d8e:	0501                	addi	a0,a0,0
    1d90:	060d                	addi	a2,a2,3
    1d92:	04090103          	lb	sp,64(s2)
    1d96:	0100                	addi	s0,sp,128
    1d98:	0505                	addi	a0,a0,1
    1d9a:	00097703          	0x97703
    1d9e:	0100                	addi	s0,sp,128
    1da0:	1b05                	addi	s6,s6,-31
    1da2:	0306                	slli	t1,t1,0x1
    1da4:	0900                	addi	s0,sp,144
    1da6:	0000                	unimp
    1da8:	0501                	addi	a0,a0,0
    1daa:	031f 0900 0010      	0x100900031f
    1db0:	0501                	addi	a0,a0,0
    1db2:	0605                	addi	a2,a2,1
    1db4:	08090103          	lb	sp,128(s2)
    1db8:	0100                	addi	s0,sp,128
    1dba:	0905                	addi	s2,s2,1
    1dbc:	00090103          	lb	sp,0(s2)
    1dc0:	0100                	addi	s0,sp,128
    1dc2:	0505                	addi	a0,a0,1
    1dc4:	00097703          	0x97703
    1dc8:	0100                	addi	s0,sp,128
    1dca:	0805                	addi	a6,a6,1
    1dcc:	0306                	slli	t1,t1,0x1
    1dce:	0900                	addi	s0,sp,144
    1dd0:	0000                	unimp
    1dd2:	0501                	addi	a0,a0,0
    1dd4:	0609                	addi	a2,a2,2
    1dd6:	04090103          	lb	sp,64(s2)
    1dda:	0100                	addi	s0,sp,128
    1ddc:	0304                	addi	s1,sp,384
    1dde:	0505                	addi	a0,a0,1
    1de0:	00090403          	lb	s0,0(s2)
    1de4:	0100                	addi	s0,sp,128
    1de6:	0404                	addi	s1,sp,512
    1de8:	0205                	addi	tp,tp,1
    1dea:	00097703          	0x97703
    1dee:	0100                	addi	s0,sp,128
    1df0:	0f05                	addi	t5,t5,1
    1df2:	0306                	slli	t1,t1,0x1
    1df4:	0900                	addi	s0,sp,144
    1df6:	0000                	unimp
    1df8:	0501                	addi	a0,a0,0
    1dfa:	0602                	c.slli64	a2
    1dfc:	04090103          	lb	sp,64(s2)
    1e00:	0100                	addi	s0,sp,128
    1e02:	0f05                	addi	t5,t5,1
    1e04:	0306                	slli	t1,t1,0x1
    1e06:	0900                	addi	s0,sp,144
    1e08:	0000                	unimp
    1e0a:	0501                	addi	a0,a0,0
    1e0c:	0602                	c.slli64	a2
    1e0e:	04090103          	lb	sp,64(s2)
    1e12:	0100                	addi	s0,sp,128
    1e14:	0f05                	addi	t5,t5,1
    1e16:	0306                	slli	t1,t1,0x1
    1e18:	0900                	addi	s0,sp,144
    1e1a:	0000                	unimp
    1e1c:	0501                	addi	a0,a0,0
    1e1e:	0602                	c.slli64	a2
    1e20:	04090103          	lb	sp,64(s2)
    1e24:	0100                	addi	s0,sp,128
    1e26:	0f05                	addi	t5,t5,1
    1e28:	0306                	slli	t1,t1,0x1
    1e2a:	0900                	addi	s0,sp,144
    1e2c:	0000                	unimp
    1e2e:	0501                	addi	a0,a0,0
    1e30:	0602                	c.slli64	a2
    1e32:	04090103          	lb	sp,64(s2)
    1e36:	0100                	addi	s0,sp,128
    1e38:	0f05                	addi	t5,t5,1
    1e3a:	0306                	slli	t1,t1,0x1
    1e3c:	0900                	addi	s0,sp,144
    1e3e:	0000                	unimp
    1e40:	0501                	addi	a0,a0,0
    1e42:	0602                	c.slli64	a2
    1e44:	04090103          	lb	sp,64(s2)
    1e48:	0100                	addi	s0,sp,128
    1e4a:	0f05                	addi	t5,t5,1
    1e4c:	0306                	slli	t1,t1,0x1
    1e4e:	0900                	addi	s0,sp,144
    1e50:	0000                	unimp
    1e52:	0501                	addi	a0,a0,0
    1e54:	0602                	c.slli64	a2
    1e56:	04090103          	lb	sp,64(s2)
    1e5a:	0100                	addi	s0,sp,128
    1e5c:	1005                	c.nop	-31
    1e5e:	0306                	slli	t1,t1,0x1
    1e60:	0900                	addi	s0,sp,144
    1e62:	0000                	unimp
    1e64:	0501                	addi	a0,a0,0
    1e66:	0602                	c.slli64	a2
    1e68:	04090103          	lb	sp,64(s2)
    1e6c:	0100                	addi	s0,sp,128
    1e6e:	04090203          	lb	tp,64(s2)
    1e72:	0100                	addi	s0,sp,128
    1e74:	0204                	addi	s1,sp,256
    1e76:	0905                	addi	s2,s2,1
    1e78:	00097d03          	0x97d03
    1e7c:	0100                	addi	s0,sp,128
    1e7e:	00090f03          	lb	t5,0(s2)
    1e82:	0100                	addi	s0,sp,128
    1e84:	1805                	addi	a6,a6,-31
    1e86:	0306                	slli	t1,t1,0x1
    1e88:	0900                	addi	s0,sp,144
    1e8a:	0000                	unimp
    1e8c:	0501                	addi	a0,a0,0
    1e8e:	0309                	addi	t1,t1,2
    1e90:	0900                	addi	s0,sp,144
    1e92:	0004                	0x4
    1e94:	0501                	addi	a0,a0,0
    1e96:	0605                	addi	a2,a2,1
    1e98:	04097603          	0x4097603
    1e9c:	0100                	addi	s0,sp,128
    1e9e:	1b05                	addi	s6,s6,-31
    1ea0:	0306                	slli	t1,t1,0x1
    1ea2:	0900                	addi	s0,sp,144
    1ea4:	0000                	unimp
    1ea6:	0501                	addi	a0,a0,0
    1ea8:	031f 0900 0004      	0x40900031f
    1eae:	0501                	addi	a0,a0,0
    1eb0:	0605                	addi	a2,a2,1
    1eb2:	04090103          	lb	sp,64(s2)
    1eb6:	0100                	addi	s0,sp,128
    1eb8:	0905                	addi	s2,s2,1
    1eba:	00090103          	lb	sp,0(s2)
    1ebe:	0100                	addi	s0,sp,128
    1ec0:	0505                	addi	a0,a0,1
    1ec2:	00097703          	0x97703
    1ec6:	0100                	addi	s0,sp,128
    1ec8:	0905                	addi	s2,s2,1
    1eca:	04090103          	lb	sp,64(s2)
    1ece:	0100                	addi	s0,sp,128
    1ed0:	0304                	addi	s1,sp,384
    1ed2:	0505                	addi	a0,a0,1
    1ed4:	00090403          	lb	s0,0(s2)
    1ed8:	0100                	addi	s0,sp,128
    1eda:	0404                	addi	s1,sp,512
    1edc:	0205                	addi	tp,tp,1
    1ede:	00097703          	0x97703
    1ee2:	0100                	addi	s0,sp,128
    1ee4:	0f05                	addi	t5,t5,1
    1ee6:	0306                	slli	t1,t1,0x1
    1ee8:	0900                	addi	s0,sp,144
    1eea:	0000                	unimp
    1eec:	0501                	addi	a0,a0,0
    1eee:	0602                	c.slli64	a2
    1ef0:	04090103          	lb	sp,64(s2)
    1ef4:	0100                	addi	s0,sp,128
    1ef6:	0f05                	addi	t5,t5,1
    1ef8:	0306                	slli	t1,t1,0x1
    1efa:	0900                	addi	s0,sp,144
    1efc:	0000                	unimp
    1efe:	0501                	addi	a0,a0,0
    1f00:	0602                	c.slli64	a2
    1f02:	04090103          	lb	sp,64(s2)
    1f06:	0100                	addi	s0,sp,128
    1f08:	0f05                	addi	t5,t5,1
    1f0a:	0306                	slli	t1,t1,0x1
    1f0c:	0900                	addi	s0,sp,144
    1f0e:	0000                	unimp
    1f10:	0501                	addi	a0,a0,0
    1f12:	0602                	c.slli64	a2
    1f14:	04090103          	lb	sp,64(s2)
    1f18:	0100                	addi	s0,sp,128
    1f1a:	0f05                	addi	t5,t5,1
    1f1c:	0306                	slli	t1,t1,0x1
    1f1e:	0900                	addi	s0,sp,144
    1f20:	0000                	unimp
    1f22:	0501                	addi	a0,a0,0
    1f24:	0602                	c.slli64	a2
    1f26:	04090103          	lb	sp,64(s2)
    1f2a:	0100                	addi	s0,sp,128
    1f2c:	0f05                	addi	t5,t5,1
    1f2e:	0306                	slli	t1,t1,0x1
    1f30:	0900                	addi	s0,sp,144
    1f32:	0000                	unimp
    1f34:	0501                	addi	a0,a0,0
    1f36:	0602                	c.slli64	a2
    1f38:	04090103          	lb	sp,64(s2)
    1f3c:	0100                	addi	s0,sp,128
    1f3e:	0f05                	addi	t5,t5,1
    1f40:	0306                	slli	t1,t1,0x1
    1f42:	0900                	addi	s0,sp,144
    1f44:	0000                	unimp
    1f46:	0501                	addi	a0,a0,0
    1f48:	0602                	c.slli64	a2
    1f4a:	04090103          	lb	sp,64(s2)
    1f4e:	0100                	addi	s0,sp,128
    1f50:	1005                	c.nop	-31
    1f52:	0306                	slli	t1,t1,0x1
    1f54:	0900                	addi	s0,sp,144
    1f56:	0000                	unimp
    1f58:	0501                	addi	a0,a0,0
    1f5a:	0602                	c.slli64	a2
    1f5c:	04090103          	lb	sp,64(s2)
    1f60:	0100                	addi	s0,sp,128
    1f62:	04090203          	lb	tp,64(s2)
    1f66:	0100                	addi	s0,sp,128
    1f68:	0204                	addi	s1,sp,256
    1f6a:	0905                	addi	s2,s2,1
    1f6c:	00097d03          	0x97d03
    1f70:	0100                	addi	s0,sp,128
    1f72:	1305                	addi	t1,t1,-31
    1f74:	0306                	slli	t1,t1,0x1
    1f76:	0900                	addi	s0,sp,144
    1f78:	0000                	unimp
    1f7a:	0401                	addi	s0,s0,0
    1f7c:	0501                	addi	a0,a0,0
    1f7e:	0309                	addi	t1,t1,2
    1f80:	0935                	addi	s2,s2,13
    1f82:	0008                	0x8
    1f84:	0501                	addi	a0,a0,0
    1f86:	0611                	addi	a2,a2,4
    1f88:	14093c03          	ld	s8,320(s2)
    1f8c:	0100                	addi	s0,sp,128
    1f8e:	1405                	addi	s0,s0,-31
    1f90:	0306                	slli	t1,t1,0x1
    1f92:	0900                	addi	s0,sp,144
    1f94:	0000                	unimp
    1f96:	0501                	addi	a0,a0,0
    1f98:	0615                	addi	a2,a2,5
    1f9a:	04090103          	lb	sp,64(s2)
    1f9e:	0100                	addi	s0,sp,128
    1fa0:	1905                	addi	s2,s2,-31
    1fa2:	0306                	slli	t1,t1,0x1
    1fa4:	0900                	addi	s0,sp,144
    1fa6:	0000                	unimp
    1fa8:	0501                	addi	a0,a0,0
    1faa:	0611                	addi	a2,a2,4
    1fac:	08090503          	lb	a0,128(s2)
    1fb0:	0100                	addi	s0,sp,128
    1fb2:	18090103          	lb	sp,384(s2)
    1fb6:	0100                	addi	s0,sp,128
    1fb8:	0204                	addi	s1,sp,256
    1fba:	0505                	addi	a0,a0,1
    1fbc:	097f9403          	lh	s0,151(t6)
    1fc0:	0000                	unimp
    1fc2:	0501                	addi	a0,a0,0
    1fc4:	030c                	addi	a1,sp,384
    1fc6:	0900                	addi	s0,sp,144
    1fc8:	0000                	unimp
    1fca:	0601                	addi	a2,a2,0
    1fcc:	0c090103          	lb	sp,192(s2)
    1fd0:	0100                	addi	s0,sp,128
    1fd2:	1f05                	addi	t5,t5,-31
    1fd4:	04097803          	0x4097803
    1fd8:	0100                	addi	s0,sp,128
    1fda:	1b05                	addi	s6,s6,-31
    1fdc:	04090003          	lb	zero,64(s2)
    1fe0:	0100                	addi	s0,sp,128
    1fe2:	0104                	addi	s1,sp,128
    1fe4:	1505                	addi	a0,a0,-31
    1fe6:	0306                	slli	t1,t1,0x1
    1fe8:	080900ef          	jal	ra,92068 <_text-0x96df98>
    1fec:	0100                	addi	s0,sp,128
    1fee:	1905                	addi	s2,s2,-31
    1ff0:	0306                	slli	t1,t1,0x1
    1ff2:	0900                	addi	s0,sp,144
    1ff4:	0000                	unimp
    1ff6:	0501                	addi	a0,a0,0
    1ff8:	0900031b          	addiw	t1,zero,144
    1ffc:	0004                	0x4
    1ffe:	0401                	addi	s0,s0,0
    2000:	0502                	c.slli64	a0
    2002:	0609                	addi	a2,a2,2
    2004:	097f9b03          	lh	s6,151(t6)
    2008:	0008                	0x8
    200a:	0501                	addi	a0,a0,0
    200c:	0618                	addi	a4,sp,768
    200e:	00090003          	lb	zero,0(s2)
    2012:	0100                	addi	s0,sp,128
    2014:	0905                	addi	s2,s2,1
    2016:	04090003          	lb	zero,64(s2)
    201a:	0100                	addi	s0,sp,128
    201c:	0505                	addi	a0,a0,1
    201e:	0306                	slli	t1,t1,0x1
    2020:	0976                	slli	s2,s2,0x1d
    2022:	0004                	0x4
    2024:	0501                	addi	a0,a0,0
    2026:	0003061b          	sext.w	a2,t1
    202a:	0009                	c.nop	2
    202c:	0100                	addi	s0,sp,128
    202e:	1f05                	addi	t5,t5,-31
    2030:	10090003          	lb	zero,256(s2)
    2034:	0100                	addi	s0,sp,128
    2036:	0505                	addi	a0,a0,1
    2038:	0306                	slli	t1,t1,0x1
    203a:	0901                	addi	s2,s2,0
    203c:	0008                	0x8
    203e:	0501                	addi	a0,a0,0
    2040:	0309                	addi	t1,t1,2
    2042:	0901                	addi	s2,s2,0
    2044:	0000                	unimp
    2046:	0501                	addi	a0,a0,0
    2048:	0305                	addi	t1,t1,1
    204a:	00000977          	0x977
    204e:	0501                	addi	a0,a0,0
    2050:	0608                	addi	a0,sp,768
    2052:	00090003          	lb	zero,0(s2)
    2056:	0100                	addi	s0,sp,128
    2058:	0c05                	addi	s8,s8,1
    205a:	0306                	slli	t1,t1,0x1
    205c:	090e                	slli	s2,s2,0x3
    205e:	0004                	0x4
    2060:	0501                	addi	a0,a0,0
    2062:	0309                	addi	t1,t1,2
    2064:	0901                	addi	s2,s2,0
    2066:	000c                	0xc
    2068:	0501                	addi	a0,a0,0
    206a:	060c                	addi	a1,sp,768
    206c:	00090003          	lb	zero,0(s2)
    2070:	0100                	addi	s0,sp,128
    2072:	0d05                	addi	s10,s10,1
    2074:	0306                	slli	t1,t1,0x1
    2076:	0901                	addi	s2,s2,0
    2078:	0004                	0x4
    207a:	0501                	addi	a0,a0,0
    207c:	0305                	addi	t1,t1,1
    207e:	00000977          	0x977
    2082:	0501                	addi	a0,a0,0
    2084:	0003061b          	sext.w	a2,t1
    2088:	0009                	c.nop	2
    208a:	0100                	addi	s0,sp,128
    208c:	1f05                	addi	t5,t5,-31
    208e:	10090003          	lb	zero,256(s2)
    2092:	0100                	addi	s0,sp,128
    2094:	0505                	addi	a0,a0,1
    2096:	0306                	slli	t1,t1,0x1
    2098:	0901                	addi	s2,s2,0
    209a:	0008                	0x8
    209c:	0501                	addi	a0,a0,0
    209e:	0309                	addi	t1,t1,2
    20a0:	0901                	addi	s2,s2,0
    20a2:	0000                	unimp
    20a4:	0501                	addi	a0,a0,0
    20a6:	0305                	addi	t1,t1,1
    20a8:	00000977          	0x977
    20ac:	0501                	addi	a0,a0,0
    20ae:	0608                	addi	a0,sp,768
    20b0:	00090003          	lb	zero,0(s2)
    20b4:	0100                	addi	s0,sp,128
    20b6:	0905                	addi	s2,s2,1
    20b8:	0306                	slli	t1,t1,0x1
    20ba:	0901                	addi	s2,s2,0
    20bc:	0004                	0x4
    20be:	0401                	addi	s0,s0,0
    20c0:	03050503          	lb	a0,48(a0)
    20c4:	0904                	addi	s1,sp,144
    20c6:	0000                	unimp
    20c8:	0401                	addi	s0,s0,0
    20ca:	0504                	addi	s1,sp,640
    20cc:	0302                	c.slli64	t1
    20ce:	00000977          	0x977
    20d2:	0501                	addi	a0,a0,0
    20d4:	0003060f          	0x3060f
    20d8:	0009                	c.nop	2
    20da:	0100                	addi	s0,sp,128
    20dc:	0205                	addi	tp,tp,1
    20de:	0306                	slli	t1,t1,0x1
    20e0:	0901                	addi	s2,s2,0
    20e2:	0004                	0x4
    20e4:	0501                	addi	a0,a0,0
    20e6:	0003060f          	0x3060f
    20ea:	0009                	c.nop	2
    20ec:	0100                	addi	s0,sp,128
    20ee:	0205                	addi	tp,tp,1
    20f0:	0306                	slli	t1,t1,0x1
    20f2:	0901                	addi	s2,s2,0
    20f4:	0004                	0x4
    20f6:	0501                	addi	a0,a0,0
    20f8:	0003060f          	0x3060f
    20fc:	0009                	c.nop	2
    20fe:	0100                	addi	s0,sp,128
    2100:	0205                	addi	tp,tp,1
    2102:	0306                	slli	t1,t1,0x1
    2104:	0901                	addi	s2,s2,0
    2106:	0004                	0x4
    2108:	0501                	addi	a0,a0,0
    210a:	0003060f          	0x3060f
    210e:	0009                	c.nop	2
    2110:	0100                	addi	s0,sp,128
    2112:	0205                	addi	tp,tp,1
    2114:	0306                	slli	t1,t1,0x1
    2116:	0901                	addi	s2,s2,0
    2118:	0004                	0x4
    211a:	0501                	addi	a0,a0,0
    211c:	0003060f          	0x3060f
    2120:	0009                	c.nop	2
    2122:	0100                	addi	s0,sp,128
    2124:	0205                	addi	tp,tp,1
    2126:	0306                	slli	t1,t1,0x1
    2128:	0901                	addi	s2,s2,0
    212a:	0004                	0x4
    212c:	0501                	addi	a0,a0,0
    212e:	0003060f          	0x3060f
    2132:	0009                	c.nop	2
    2134:	0100                	addi	s0,sp,128
    2136:	0205                	addi	tp,tp,1
    2138:	0306                	slli	t1,t1,0x1
    213a:	0901                	addi	s2,s2,0
    213c:	0004                	0x4
    213e:	0501                	addi	a0,a0,0
    2140:	0610                	addi	a2,sp,768
    2142:	00090003          	lb	zero,0(s2)
    2146:	0100                	addi	s0,sp,128
    2148:	0205                	addi	tp,tp,1
    214a:	0306                	slli	t1,t1,0x1
    214c:	0901                	addi	s2,s2,0
    214e:	0004                	0x4
    2150:	0301                	addi	t1,t1,0
    2152:	0902                	c.slli64	s2
    2154:	0004                	0x4
    2156:	0401                	addi	s0,s0,0
    2158:	0502                	c.slli64	a0
    215a:	0309                	addi	t1,t1,2
    215c:	097d                	addi	s2,s2,31
    215e:	0000                	unimp
    2160:	0301                	addi	t1,t1,0
    2162:	0000090f          	0x90f
    2166:	0501                	addi	a0,a0,0
    2168:	0618                	addi	a4,sp,768
    216a:	00090003          	lb	zero,0(s2)
    216e:	0100                	addi	s0,sp,128
    2170:	0905                	addi	s2,s2,1
    2172:	04090003          	lb	zero,64(s2)
    2176:	0100                	addi	s0,sp,128
    2178:	0505                	addi	a0,a0,1
    217a:	0306                	slli	t1,t1,0x1
    217c:	0976                	slli	s2,s2,0x1d
    217e:	0004                	0x4
    2180:	0501                	addi	a0,a0,0
    2182:	0003061b          	sext.w	a2,t1
    2186:	0009                	c.nop	2
    2188:	0100                	addi	s0,sp,128
    218a:	1f05                	addi	t5,t5,-31
    218c:	04090003          	lb	zero,64(s2)
    2190:	0100                	addi	s0,sp,128
    2192:	0505                	addi	a0,a0,1
    2194:	0306                	slli	t1,t1,0x1
    2196:	0901                	addi	s2,s2,0
    2198:	0004                	0x4
    219a:	0501                	addi	a0,a0,0
    219c:	0309                	addi	t1,t1,2
    219e:	0901                	addi	s2,s2,0
    21a0:	0000                	unimp
    21a2:	0501                	addi	a0,a0,0
    21a4:	0305                	addi	t1,t1,1
    21a6:	00000977          	0x977
    21aa:	0501                	addi	a0,a0,0
    21ac:	0309                	addi	t1,t1,2
    21ae:	0901                	addi	s2,s2,0
    21b0:	0004                	0x4
    21b2:	0401                	addi	s0,s0,0
    21b4:	03050503          	lb	a0,48(a0)
    21b8:	0904                	addi	s1,sp,144
    21ba:	0000                	unimp
    21bc:	0401                	addi	s0,s0,0
    21be:	0504                	addi	s1,sp,640
    21c0:	0302                	c.slli64	t1
    21c2:	00000977          	0x977
    21c6:	0501                	addi	a0,a0,0
    21c8:	0003060f          	0x3060f
    21cc:	0009                	c.nop	2
    21ce:	0100                	addi	s0,sp,128
    21d0:	0205                	addi	tp,tp,1
    21d2:	0306                	slli	t1,t1,0x1
    21d4:	0901                	addi	s2,s2,0
    21d6:	0004                	0x4
    21d8:	0501                	addi	a0,a0,0
    21da:	0003060f          	0x3060f
    21de:	0009                	c.nop	2
    21e0:	0100                	addi	s0,sp,128
    21e2:	0205                	addi	tp,tp,1
    21e4:	0306                	slli	t1,t1,0x1
    21e6:	0901                	addi	s2,s2,0
    21e8:	0004                	0x4
    21ea:	0501                	addi	a0,a0,0
    21ec:	0003060f          	0x3060f
    21f0:	0009                	c.nop	2
    21f2:	0100                	addi	s0,sp,128
    21f4:	0205                	addi	tp,tp,1
    21f6:	0306                	slli	t1,t1,0x1
    21f8:	0901                	addi	s2,s2,0
    21fa:	0004                	0x4
    21fc:	0501                	addi	a0,a0,0
    21fe:	0003060f          	0x3060f
    2202:	0009                	c.nop	2
    2204:	0100                	addi	s0,sp,128
    2206:	0205                	addi	tp,tp,1
    2208:	0306                	slli	t1,t1,0x1
    220a:	0901                	addi	s2,s2,0
    220c:	0004                	0x4
    220e:	0501                	addi	a0,a0,0
    2210:	0003060f          	0x3060f
    2214:	0009                	c.nop	2
    2216:	0100                	addi	s0,sp,128
    2218:	0205                	addi	tp,tp,1
    221a:	0306                	slli	t1,t1,0x1
    221c:	0901                	addi	s2,s2,0
    221e:	0004                	0x4
    2220:	0501                	addi	a0,a0,0
    2222:	0003060f          	0x3060f
    2226:	0009                	c.nop	2
    2228:	0100                	addi	s0,sp,128
    222a:	0205                	addi	tp,tp,1
    222c:	0306                	slli	t1,t1,0x1
    222e:	0901                	addi	s2,s2,0
    2230:	0004                	0x4
    2232:	0501                	addi	a0,a0,0
    2234:	0610                	addi	a2,sp,768
    2236:	00090003          	lb	zero,0(s2)
    223a:	0100                	addi	s0,sp,128
    223c:	0205                	addi	tp,tp,1
    223e:	0306                	slli	t1,t1,0x1
    2240:	0901                	addi	s2,s2,0
    2242:	0004                	0x4
    2244:	0301                	addi	t1,t1,0
    2246:	0902                	c.slli64	s2
    2248:	0004                	0x4
    224a:	0401                	addi	s0,s0,0
    224c:	0502                	c.slli64	a0
    224e:	0309                	addi	t1,t1,2
    2250:	097d                	addi	s2,s2,31
    2252:	0000                	unimp
    2254:	0501                	addi	a0,a0,0
    2256:	00030613          	mv	a2,t1
    225a:	0009                	c.nop	2
    225c:	0100                	addi	s0,sp,128
    225e:	0104                	addi	s1,sp,128
    2260:	0905                	addi	s2,s2,1
    2262:	08093503          	ld	a0,128(s2)
    2266:	0100                	addi	s0,sp,128
    2268:	1105                	addi	sp,sp,-31
    226a:	0306                	slli	t1,t1,0x1
    226c:	0c0900c7          	0xc0900c7
    2270:	0100                	addi	s0,sp,128
    2272:	1805                	addi	a6,a6,-31
    2274:	0306                	slli	t1,t1,0x1
    2276:	0900                	addi	s0,sp,144
    2278:	0000                	unimp
    227a:	0501                	addi	a0,a0,0
    227c:	0314                	addi	a3,sp,384
    227e:	0900                	addi	s0,sp,144
    2280:	0008                	0x8
    2282:	0501                	addi	a0,a0,0
    2284:	0611                	addi	a2,a2,4
    2286:	04090403          	lb	s0,64(s2)
    228a:	0100                	addi	s0,sp,128
    228c:	14090103          	lb	sp,320(s2)
    2290:	0100                	addi	s0,sp,128
    2292:	0204                	addi	s1,sp,256
    2294:	0505                	addi	a0,a0,1
    2296:	097f8b03          	lb	s6,151(t6)
    229a:	0000                	unimp
    229c:	0501                	addi	a0,a0,0
    229e:	030c                	addi	a1,sp,384
    22a0:	0900                	addi	s0,sp,144
    22a2:	0000                	unimp
    22a4:	0601                	addi	a2,a2,0
    22a6:	0c090103          	lb	sp,192(s2)
    22aa:	0100                	addi	s0,sp,128
    22ac:	1f05                	addi	t5,t5,-31
    22ae:	04097803          	0x4097803
    22b2:	0100                	addi	s0,sp,128
    22b4:	1b05                	addi	s6,s6,-31
    22b6:	04090003          	lb	zero,64(s2)
    22ba:	0100                	addi	s0,sp,128
    22bc:	0104                	addi	s1,sp,128
    22be:	1705                	addi	a4,a4,-31
    22c0:	0900f803          	0x900f803
    22c4:	0008                	0x8
    22c6:	0401                	addi	s0,s0,0
    22c8:	0502                	c.slli64	a0
    22ca:	0609                	addi	a2,a2,2
    22cc:	097f9203          	lh	tp,151(t6)
    22d0:	000c                	0xc
    22d2:	0501                	addi	a0,a0,0
    22d4:	0618                	addi	a4,sp,768
    22d6:	00090003          	lb	zero,0(s2)
    22da:	0100                	addi	s0,sp,128
    22dc:	0905                	addi	s2,s2,1
    22de:	04090003          	lb	zero,64(s2)
    22e2:	0100                	addi	s0,sp,128
    22e4:	0505                	addi	a0,a0,1
    22e6:	0306                	slli	t1,t1,0x1
    22e8:	0976                	slli	s2,s2,0x1d
    22ea:	0004                	0x4
    22ec:	0501                	addi	a0,a0,0
    22ee:	0003061b          	sext.w	a2,t1
    22f2:	0009                	c.nop	2
    22f4:	0100                	addi	s0,sp,128
    22f6:	1f05                	addi	t5,t5,-31
    22f8:	10090003          	lb	zero,256(s2)
    22fc:	0100                	addi	s0,sp,128
    22fe:	0505                	addi	a0,a0,1
    2300:	0306                	slli	t1,t1,0x1
    2302:	0901                	addi	s2,s2,0
    2304:	0008                	0x8
    2306:	0501                	addi	a0,a0,0
    2308:	0309                	addi	t1,t1,2
    230a:	0901                	addi	s2,s2,0
    230c:	0000                	unimp
    230e:	0501                	addi	a0,a0,0
    2310:	0305                	addi	t1,t1,1
    2312:	00000977          	0x977
    2316:	0501                	addi	a0,a0,0
    2318:	0608                	addi	a0,sp,768
    231a:	00090003          	lb	zero,0(s2)
    231e:	0100                	addi	s0,sp,128
    2320:	0c05                	addi	s8,s8,1
    2322:	0306                	slli	t1,t1,0x1
    2324:	090e                	slli	s2,s2,0x3
    2326:	0004                	0x4
    2328:	0501                	addi	a0,a0,0
    232a:	0309                	addi	t1,t1,2
    232c:	0901                	addi	s2,s2,0
    232e:	000c                	0xc
    2330:	0501                	addi	a0,a0,0
    2332:	060c                	addi	a1,sp,768
    2334:	00090003          	lb	zero,0(s2)
    2338:	0100                	addi	s0,sp,128
    233a:	0d05                	addi	s10,s10,1
    233c:	0306                	slli	t1,t1,0x1
    233e:	0901                	addi	s2,s2,0
    2340:	0004                	0x4
    2342:	0501                	addi	a0,a0,0
    2344:	0305                	addi	t1,t1,1
    2346:	00000977          	0x977
    234a:	0501                	addi	a0,a0,0
    234c:	0003061b          	sext.w	a2,t1
    2350:	0009                	c.nop	2
    2352:	0100                	addi	s0,sp,128
    2354:	1f05                	addi	t5,t5,-31
    2356:	10090003          	lb	zero,256(s2)
    235a:	0100                	addi	s0,sp,128
    235c:	0505                	addi	a0,a0,1
    235e:	0306                	slli	t1,t1,0x1
    2360:	0901                	addi	s2,s2,0
    2362:	0008                	0x8
    2364:	0501                	addi	a0,a0,0
    2366:	0309                	addi	t1,t1,2
    2368:	0901                	addi	s2,s2,0
    236a:	0000                	unimp
    236c:	0501                	addi	a0,a0,0
    236e:	0305                	addi	t1,t1,1
    2370:	00000977          	0x977
    2374:	0501                	addi	a0,a0,0
    2376:	0608                	addi	a0,sp,768
    2378:	00090003          	lb	zero,0(s2)
    237c:	0100                	addi	s0,sp,128
    237e:	0905                	addi	s2,s2,1
    2380:	0306                	slli	t1,t1,0x1
    2382:	0901                	addi	s2,s2,0
    2384:	0004                	0x4
    2386:	0401                	addi	s0,s0,0
    2388:	03050503          	lb	a0,48(a0)
    238c:	0904                	addi	s1,sp,144
    238e:	0000                	unimp
    2390:	0401                	addi	s0,s0,0
    2392:	0504                	addi	s1,sp,640
    2394:	0302                	c.slli64	t1
    2396:	00000977          	0x977
    239a:	0501                	addi	a0,a0,0
    239c:	0003060f          	0x3060f
    23a0:	0009                	c.nop	2
    23a2:	0100                	addi	s0,sp,128
    23a4:	0205                	addi	tp,tp,1
    23a6:	0306                	slli	t1,t1,0x1
    23a8:	0901                	addi	s2,s2,0
    23aa:	0004                	0x4
    23ac:	0501                	addi	a0,a0,0
    23ae:	0003060f          	0x3060f
    23b2:	0009                	c.nop	2
    23b4:	0100                	addi	s0,sp,128
    23b6:	0205                	addi	tp,tp,1
    23b8:	0306                	slli	t1,t1,0x1
    23ba:	0901                	addi	s2,s2,0
    23bc:	0004                	0x4
    23be:	0501                	addi	a0,a0,0
    23c0:	0003060f          	0x3060f
    23c4:	0009                	c.nop	2
    23c6:	0100                	addi	s0,sp,128
    23c8:	0205                	addi	tp,tp,1
    23ca:	0306                	slli	t1,t1,0x1
    23cc:	0901                	addi	s2,s2,0
    23ce:	0004                	0x4
    23d0:	0501                	addi	a0,a0,0
    23d2:	0003060f          	0x3060f
    23d6:	0009                	c.nop	2
    23d8:	0100                	addi	s0,sp,128
    23da:	0205                	addi	tp,tp,1
    23dc:	0306                	slli	t1,t1,0x1
    23de:	0901                	addi	s2,s2,0
    23e0:	0004                	0x4
    23e2:	0501                	addi	a0,a0,0
    23e4:	0003060f          	0x3060f
    23e8:	0009                	c.nop	2
    23ea:	0100                	addi	s0,sp,128
    23ec:	0205                	addi	tp,tp,1
    23ee:	0306                	slli	t1,t1,0x1
    23f0:	0901                	addi	s2,s2,0
    23f2:	0004                	0x4
    23f4:	0501                	addi	a0,a0,0
    23f6:	0003060f          	0x3060f
    23fa:	0009                	c.nop	2
    23fc:	0100                	addi	s0,sp,128
    23fe:	0205                	addi	tp,tp,1
    2400:	0306                	slli	t1,t1,0x1
    2402:	0901                	addi	s2,s2,0
    2404:	0004                	0x4
    2406:	0501                	addi	a0,a0,0
    2408:	0610                	addi	a2,sp,768
    240a:	00090003          	lb	zero,0(s2)
    240e:	0100                	addi	s0,sp,128
    2410:	0205                	addi	tp,tp,1
    2412:	0306                	slli	t1,t1,0x1
    2414:	0901                	addi	s2,s2,0
    2416:	0004                	0x4
    2418:	0301                	addi	t1,t1,0
    241a:	0902                	c.slli64	s2
    241c:	0004                	0x4
    241e:	0401                	addi	s0,s0,0
    2420:	0502                	c.slli64	a0
    2422:	0309                	addi	t1,t1,2
    2424:	097d                	addi	s2,s2,31
    2426:	0000                	unimp
    2428:	0301                	addi	t1,t1,0
    242a:	0000090f          	0x90f
    242e:	0501                	addi	a0,a0,0
    2430:	0618                	addi	a4,sp,768
    2432:	00090003          	lb	zero,0(s2)
    2436:	0100                	addi	s0,sp,128
    2438:	0905                	addi	s2,s2,1
    243a:	04090003          	lb	zero,64(s2)
    243e:	0100                	addi	s0,sp,128
    2440:	0505                	addi	a0,a0,1
    2442:	0306                	slli	t1,t1,0x1
    2444:	0976                	slli	s2,s2,0x1d
    2446:	0004                	0x4
    2448:	0501                	addi	a0,a0,0
    244a:	0003061b          	sext.w	a2,t1
    244e:	0009                	c.nop	2
    2450:	0100                	addi	s0,sp,128
    2452:	1f05                	addi	t5,t5,-31
    2454:	04090003          	lb	zero,64(s2)
    2458:	0100                	addi	s0,sp,128
    245a:	0505                	addi	a0,a0,1
    245c:	0306                	slli	t1,t1,0x1
    245e:	0901                	addi	s2,s2,0
    2460:	0004                	0x4
    2462:	0501                	addi	a0,a0,0
    2464:	0309                	addi	t1,t1,2
    2466:	0901                	addi	s2,s2,0
    2468:	0000                	unimp
    246a:	0501                	addi	a0,a0,0
    246c:	0305                	addi	t1,t1,1
    246e:	00000977          	0x977
    2472:	0501                	addi	a0,a0,0
    2474:	0309                	addi	t1,t1,2
    2476:	0901                	addi	s2,s2,0
    2478:	0004                	0x4
    247a:	0401                	addi	s0,s0,0
    247c:	03050503          	lb	a0,48(a0)
    2480:	0904                	addi	s1,sp,144
    2482:	0000                	unimp
    2484:	0401                	addi	s0,s0,0
    2486:	0504                	addi	s1,sp,640
    2488:	0302                	c.slli64	t1
    248a:	00000977          	0x977
    248e:	0501                	addi	a0,a0,0
    2490:	0003060f          	0x3060f
    2494:	0009                	c.nop	2
    2496:	0100                	addi	s0,sp,128
    2498:	0205                	addi	tp,tp,1
    249a:	0306                	slli	t1,t1,0x1
    249c:	0901                	addi	s2,s2,0
    249e:	0004                	0x4
    24a0:	0501                	addi	a0,a0,0
    24a2:	0003060f          	0x3060f
    24a6:	0009                	c.nop	2
    24a8:	0100                	addi	s0,sp,128
    24aa:	0205                	addi	tp,tp,1
    24ac:	0306                	slli	t1,t1,0x1
    24ae:	0901                	addi	s2,s2,0
    24b0:	0004                	0x4
    24b2:	0501                	addi	a0,a0,0
    24b4:	0003060f          	0x3060f
    24b8:	0009                	c.nop	2
    24ba:	0100                	addi	s0,sp,128
    24bc:	0205                	addi	tp,tp,1
    24be:	0306                	slli	t1,t1,0x1
    24c0:	0901                	addi	s2,s2,0
    24c2:	0004                	0x4
    24c4:	0501                	addi	a0,a0,0
    24c6:	0003060f          	0x3060f
    24ca:	0009                	c.nop	2
    24cc:	0100                	addi	s0,sp,128
    24ce:	0205                	addi	tp,tp,1
    24d0:	0306                	slli	t1,t1,0x1
    24d2:	0901                	addi	s2,s2,0
    24d4:	0004                	0x4
    24d6:	0501                	addi	a0,a0,0
    24d8:	0003060f          	0x3060f
    24dc:	0009                	c.nop	2
    24de:	0100                	addi	s0,sp,128
    24e0:	0205                	addi	tp,tp,1
    24e2:	0306                	slli	t1,t1,0x1
    24e4:	0901                	addi	s2,s2,0
    24e6:	0004                	0x4
    24e8:	0501                	addi	a0,a0,0
    24ea:	0003060f          	0x3060f
    24ee:	0009                	c.nop	2
    24f0:	0100                	addi	s0,sp,128
    24f2:	0205                	addi	tp,tp,1
    24f4:	0306                	slli	t1,t1,0x1
    24f6:	0901                	addi	s2,s2,0
    24f8:	0004                	0x4
    24fa:	0501                	addi	a0,a0,0
    24fc:	0610                	addi	a2,sp,768
    24fe:	00090003          	lb	zero,0(s2)
    2502:	0100                	addi	s0,sp,128
    2504:	0205                	addi	tp,tp,1
    2506:	0306                	slli	t1,t1,0x1
    2508:	0901                	addi	s2,s2,0
    250a:	0004                	0x4
    250c:	0301                	addi	t1,t1,0
    250e:	0902                	c.slli64	s2
    2510:	0004                	0x4
    2512:	0401                	addi	s0,s0,0
    2514:	0502                	c.slli64	a0
    2516:	0309                	addi	t1,t1,2
    2518:	097d                	addi	s2,s2,31
    251a:	0000                	unimp
    251c:	0501                	addi	a0,a0,0
    251e:	00030613          	mv	a2,t1
    2522:	0009                	c.nop	2
    2524:	0100                	addi	s0,sp,128
    2526:	0104                	addi	s1,sp,128
    2528:	1805                	addi	a6,a6,-31
    252a:	0900fc03          	0x900fc03
    252e:	0008                	0x8
    2530:	0501                	addi	a0,a0,0
    2532:	0611                	addi	a2,a2,4
    2534:	08090903          	lb	s2,128(s2)
    2538:	0100                	addi	s0,sp,128
    253a:	1205                	addi	tp,tp,-31
    253c:	0306                	slli	t1,t1,0x1
    253e:	0900                	addi	s0,sp,144
    2540:	0000                	unimp
    2542:	0501                	addi	a0,a0,0
    2544:	0611                	addi	a2,a2,4
    2546:	04090103          	lb	sp,64(s2)
    254a:	0100                	addi	s0,sp,128
    254c:	0f05                	addi	t5,t5,1
    254e:	0306                	slli	t1,t1,0x1
    2550:	7fa9                	lui	t6,0xfffea
    2552:	0409                	addi	s0,s0,2
    2554:	0100                	addi	s0,sp,128
    2556:	1105                	addi	sp,sp,-31
    2558:	0306                	slli	t1,t1,0x1
    255a:	00da                	slli	ra,ra,0x16
    255c:	0409                	addi	s0,s0,2
    255e:	0100                	addi	s0,sp,128
    2560:	0304                	addi	s1,sp,384
    2562:	0505                	addi	a0,a0,1
    2564:	097ef603          	0x97ef603
    2568:	0000                	unimp
    256a:	0401                	addi	s0,s0,0
    256c:	0504                	addi	s1,sp,640
    256e:	0302                	c.slli64	t1
    2570:	0000097b          	0x97b
    2574:	0401                	addi	s0,s0,0
    2576:	06050503          	lb	a0,96(a0)
    257a:	00090503          	lb	a0,0(s2)
    257e:	0100                	addi	s0,sp,128
    2580:	0404                	addi	s1,sp,512
    2582:	0205                	addi	tp,tp,1
    2584:	0306                	slli	t1,t1,0x1
    2586:	097c                	addi	a5,sp,156
    2588:	0004                	0x4
    258a:	0501                	addi	a0,a0,0
    258c:	0003060f          	0x3060f
    2590:	0009                	c.nop	2
    2592:	0100                	addi	s0,sp,128
    2594:	0205                	addi	tp,tp,1
    2596:	0306                	slli	t1,t1,0x1
    2598:	0901                	addi	s2,s2,0
    259a:	0004                	0x4
    259c:	0501                	addi	a0,a0,0
    259e:	0003060f          	0x3060f
    25a2:	0009                	c.nop	2
    25a4:	0100                	addi	s0,sp,128
    25a6:	0205                	addi	tp,tp,1
    25a8:	0306                	slli	t1,t1,0x1
    25aa:	0901                	addi	s2,s2,0
    25ac:	0004                	0x4
    25ae:	0501                	addi	a0,a0,0
    25b0:	0003060f          	0x3060f
    25b4:	0009                	c.nop	2
    25b6:	0100                	addi	s0,sp,128
    25b8:	0205                	addi	tp,tp,1
    25ba:	0306                	slli	t1,t1,0x1
    25bc:	0901                	addi	s2,s2,0
    25be:	0004                	0x4
    25c0:	0501                	addi	a0,a0,0
    25c2:	0003060f          	0x3060f
    25c6:	0009                	c.nop	2
    25c8:	0100                	addi	s0,sp,128
    25ca:	0205                	addi	tp,tp,1
    25cc:	0306                	slli	t1,t1,0x1
    25ce:	0901                	addi	s2,s2,0
    25d0:	0004                	0x4
    25d2:	0501                	addi	a0,a0,0
    25d4:	0003060f          	0x3060f
    25d8:	0009                	c.nop	2
    25da:	0100                	addi	s0,sp,128
    25dc:	0205                	addi	tp,tp,1
    25de:	0306                	slli	t1,t1,0x1
    25e0:	0901                	addi	s2,s2,0
    25e2:	0004                	0x4
    25e4:	0501                	addi	a0,a0,0
    25e6:	0610                	addi	a2,sp,768
    25e8:	00090003          	lb	zero,0(s2)
    25ec:	0100                	addi	s0,sp,128
    25ee:	0205                	addi	tp,tp,1
    25f0:	0306                	slli	t1,t1,0x1
    25f2:	0901                	addi	s2,s2,0
    25f4:	0004                	0x4
    25f6:	0301                	addi	t1,t1,0
    25f8:	0902                	c.slli64	s2
    25fa:	0004                	0x4
    25fc:	0401                	addi	s0,s0,0
    25fe:	06010503          	lb	a0,96(sp)
    2602:	00097d03          	0x97d03
    2606:	0100                	addi	s0,sp,128
    2608:	0104                	addi	s1,sp,128
    260a:	1805                	addi	a6,a6,-31
    260c:	0900fc03          	0x900fc03
    2610:	0008                	0x8
    2612:	0501                	addi	a0,a0,0
    2614:	0301                	addi	t1,t1,0
    2616:	00080913          	mv	s2,a6
    261a:	0501                	addi	a0,a0,0
    261c:	02030623          	sb	zero,44(t1)
    2620:	3409                	addiw	s0,s0,-30
    2622:	0100                	addi	s0,sp,128
    2624:	0505                	addi	a0,a0,1
    2626:	2c090103          	lb	sp,704(s2)
    262a:	0100                	addi	s0,sp,128
    262c:	00090103          	lb	sp,0(s2)
    2630:	0100                	addi	s0,sp,128
    2632:	08090103          	lb	sp,128(s2)
    2636:	0100                	addi	s0,sp,128
    2638:	08090103          	lb	sp,128(s2)
    263c:	0100                	addi	s0,sp,128
    263e:	00090103          	lb	sp,0(s2)
    2642:	0100                	addi	s0,sp,128
    2644:	0204                	addi	s1,sp,256
    2646:	097ee803          	lwu	a6,151(t4)
    264a:	0000                	unimp
    264c:	0501                	addi	a0,a0,0
    264e:	00030613          	mv	a2,t1
    2652:	0009                	c.nop	2
    2654:	0100                	addi	s0,sp,128
    2656:	0805                	addi	a6,a6,1
    2658:	08090003          	lb	zero,128(s2)
    265c:	0100                	addi	s0,sp,128
    265e:	0905                	addi	s2,s2,1
    2660:	0306                	slli	t1,t1,0x1
    2662:	0901                	addi	s2,s2,0
    2664:	0004                	0x4
    2666:	0401                	addi	s0,s0,0
    2668:	03050503          	lb	a0,48(a0)
    266c:	0904                	addi	s1,sp,144
    266e:	0000                	unimp
    2670:	0401                	addi	s0,s0,0
    2672:	0504                	addi	s1,sp,640
    2674:	0302                	c.slli64	t1
    2676:	00000977          	0x977
    267a:	0501                	addi	a0,a0,0
    267c:	0003060f          	0x3060f
    2680:	0009                	c.nop	2
    2682:	0100                	addi	s0,sp,128
    2684:	0205                	addi	tp,tp,1
    2686:	0306                	slli	t1,t1,0x1
    2688:	0901                	addi	s2,s2,0
    268a:	0008                	0x8
    268c:	0301                	addi	t1,t1,0
    268e:	0901                	addi	s2,s2,0
    2690:	0000                	unimp
    2692:	0501                	addi	a0,a0,0
    2694:	0003060f          	0x3060f
    2698:	0009                	c.nop	2
    269a:	0100                	addi	s0,sp,128
    269c:	0205                	addi	tp,tp,1
    269e:	0306                	slli	t1,t1,0x1
    26a0:	0901                	addi	s2,s2,0
    26a2:	0004                	0x4
    26a4:	0501                	addi	a0,a0,0
    26a6:	0003060f          	0x3060f
    26aa:	0009                	c.nop	2
    26ac:	0100                	addi	s0,sp,128
    26ae:	0205                	addi	tp,tp,1
    26b0:	0306                	slli	t1,t1,0x1
    26b2:	0901                	addi	s2,s2,0
    26b4:	0004                	0x4
    26b6:	0501                	addi	a0,a0,0
    26b8:	0003060f          	0x3060f
    26bc:	0009                	c.nop	2
    26be:	0100                	addi	s0,sp,128
    26c0:	0205                	addi	tp,tp,1
    26c2:	0306                	slli	t1,t1,0x1
    26c4:	0901                	addi	s2,s2,0
    26c6:	0004                	0x4
    26c8:	0501                	addi	a0,a0,0
    26ca:	0003060f          	0x3060f
    26ce:	0009                	c.nop	2
    26d0:	0100                	addi	s0,sp,128
    26d2:	0205                	addi	tp,tp,1
    26d4:	0306                	slli	t1,t1,0x1
    26d6:	0901                	addi	s2,s2,0
    26d8:	0004                	0x4
    26da:	0501                	addi	a0,a0,0
    26dc:	0610                	addi	a2,sp,768
    26de:	00090003          	lb	zero,0(s2)
    26e2:	0100                	addi	s0,sp,128
    26e4:	0205                	addi	tp,tp,1
    26e6:	0306                	slli	t1,t1,0x1
    26e8:	0901                	addi	s2,s2,0
    26ea:	0004                	0x4
    26ec:	0301                	addi	t1,t1,0
    26ee:	0902                	c.slli64	s2
    26f0:	0004                	0x4
    26f2:	0401                	addi	s0,s0,0
    26f4:	0502                	c.slli64	a0
    26f6:	0309                	addi	t1,t1,2
    26f8:	097d                	addi	s2,s2,31
    26fa:	0000                	unimp
    26fc:	0501                	addi	a0,a0,0
    26fe:	00030613          	mv	a2,t1
    2702:	0009                	c.nop	2
    2704:	0100                	addi	s0,sp,128
    2706:	0104                	addi	s1,sp,128
    2708:	0105                	addi	sp,sp,1
    270a:	09019703          	lh	a4,144(gp)
    270e:	0008                	0x8
    2710:	0501                	addi	a0,a0,0
    2712:	0640                	addi	s0,sp,772
    2714:	10090203          	lb	tp,256(s2)
    2718:	0100                	addi	s0,sp,128
    271a:	0505                	addi	a0,a0,1
    271c:	2c090103          	lb	sp,704(s2)
    2720:	0100                	addi	s0,sp,128
    2722:	18090103          	lb	sp,384(s2)
    2726:	0100                	addi	s0,sp,128
    2728:	00090103          	lb	sp,0(s2)
    272c:	0100                	addi	s0,sp,128
    272e:	08090103          	lb	sp,128(s2)
    2732:	0100                	addi	s0,sp,128
    2734:	0c090103          	lb	sp,192(s2)
    2738:	0100                	addi	s0,sp,128
    273a:	00090103          	lb	sp,0(s2)
    273e:	0100                	addi	s0,sp,128
    2740:	0304                	addi	s1,sp,384
    2742:	097ee003          	lwu	zero,151(t4)
    2746:	0000                	unimp
    2748:	0401                	addi	s0,s0,0
    274a:	0504                	addi	s1,sp,640
    274c:	0302                	c.slli64	t1
    274e:	0000097b          	0x97b
    2752:	0501                	addi	a0,a0,0
    2754:	0003060f          	0x3060f
    2758:	0009                	c.nop	2
    275a:	0100                	addi	s0,sp,128
    275c:	0205                	addi	tp,tp,1
    275e:	0306                	slli	t1,t1,0x1
    2760:	0901                	addi	s2,s2,0
    2762:	0004                	0x4
    2764:	0501                	addi	a0,a0,0
    2766:	0003060f          	0x3060f
    276a:	0009                	c.nop	2
    276c:	0100                	addi	s0,sp,128
    276e:	0205                	addi	tp,tp,1
    2770:	0306                	slli	t1,t1,0x1
    2772:	0901                	addi	s2,s2,0
    2774:	0004                	0x4
    2776:	0501                	addi	a0,a0,0
    2778:	0003060f          	0x3060f
    277c:	0009                	c.nop	2
    277e:	0100                	addi	s0,sp,128
    2780:	0205                	addi	tp,tp,1
    2782:	0306                	slli	t1,t1,0x1
    2784:	0901                	addi	s2,s2,0
    2786:	0004                	0x4
    2788:	0501                	addi	a0,a0,0
    278a:	0003060f          	0x3060f
    278e:	0009                	c.nop	2
    2790:	0100                	addi	s0,sp,128
    2792:	0205                	addi	tp,tp,1
    2794:	0306                	slli	t1,t1,0x1
    2796:	0901                	addi	s2,s2,0
    2798:	0004                	0x4
    279a:	0501                	addi	a0,a0,0
    279c:	0003060f          	0x3060f
    27a0:	0009                	c.nop	2
    27a2:	0100                	addi	s0,sp,128
    27a4:	0205                	addi	tp,tp,1
    27a6:	0306                	slli	t1,t1,0x1
    27a8:	0901                	addi	s2,s2,0
    27aa:	0004                	0x4
    27ac:	0501                	addi	a0,a0,0
    27ae:	0003060f          	0x3060f
    27b2:	0009                	c.nop	2
    27b4:	0100                	addi	s0,sp,128
    27b6:	0205                	addi	tp,tp,1
    27b8:	0306                	slli	t1,t1,0x1
    27ba:	0901                	addi	s2,s2,0
    27bc:	0004                	0x4
    27be:	0501                	addi	a0,a0,0
    27c0:	0610                	addi	a2,sp,768
    27c2:	00090003          	lb	zero,0(s2)
    27c6:	0100                	addi	s0,sp,128
    27c8:	0205                	addi	tp,tp,1
    27ca:	0306                	slli	t1,t1,0x1
    27cc:	0901                	addi	s2,s2,0
    27ce:	0004                	0x4
    27d0:	0301                	addi	t1,t1,0
    27d2:	0902                	c.slli64	s2
    27d4:	0004                	0x4
    27d6:	0401                	addi	s0,s0,0
    27d8:	0501                	addi	a0,a0,0
    27da:	0005                	c.nop	1
    27dc:	0402                	c.slli64	s0
    27de:	0301                	addi	t1,t1,0
    27e0:	019d                	addi	gp,gp,7
    27e2:	0009                	c.nop	2
    27e4:	0100                	addi	s0,sp,128
    27e6:	0b05                	addi	s6,s6,1
    27e8:	0200                	addi	s0,sp,256
    27ea:	0104                	addi	s1,sp,128
    27ec:	00090003          	lb	zero,0(s2)
    27f0:	0100                	addi	s0,sp,128
    27f2:	4c05                	li	s8,1
    27f4:	04090303          	lb	t1,64(s2)
    27f8:	0100                	addi	s0,sp,128
    27fa:	0505                	addi	a0,a0,1
    27fc:	00090103          	lb	sp,0(s2)
    2800:	0100                	addi	s0,sp,128
    2802:	0805                	addi	a6,a6,1
    2804:	0306                	slli	t1,t1,0x1
    2806:	0900                	addi	s0,sp,144
    2808:	0000                	unimp
    280a:	0501                	addi	a0,a0,0
    280c:	034c                	addi	a1,sp,388
    280e:	097f                	0x97f
    2810:	0008                	0x8
    2812:	0501                	addi	a0,a0,0
    2814:	0609                	addi	a2,a2,2
    2816:	10090203          	lb	tp,256(s2)
    281a:	0100                	addi	s0,sp,128
    281c:	1009                	c.nop	-30
    281e:	0000                	unimp
    2820:	0101                	addi	sp,sp,0
    2822:	099a                	slli	s3,s3,0x6
    2824:	0000                	unimp
    2826:	0005                	c.nop	1
    2828:	0008                	0x8
    282a:	0000004b          	fnmsub.s	ft0,ft0,ft0,ft0,rne
    282e:	0101                	addi	sp,sp,0
    2830:	fb01                	bnez	a4,2740 <_text-0x9fd8c0>
    2832:	0d0e                	slli	s10,s10,0x3
    2834:	0100                	addi	s0,sp,128
    2836:	0101                	addi	sp,sp,0
    2838:	0001                	nop
    283a:	0000                	unimp
    283c:	0001                	nop
    283e:	0100                	addi	s0,sp,128
    2840:	0101                	addi	sp,sp,0
    2842:	031f 0000 0000      	0x31f
    2848:	0000004b          	fnmsub.s	ft0,ft0,ft0,ft0,rne
    284c:	003d                	c.nop	15
    284e:	0000                	unimp
    2850:	0102                	c.slli64	sp
    2852:	021f 070f 00a5      	0xa5070f021f
    2858:	0000                	unimp
    285a:	a500                	fsd	fs0,8(a0)
    285c:	0000                	unimp
    285e:	0000                	unimp
    2860:	0055                	c.nop	21
    2862:	0000                	unimp
    2864:	6201                	0x6201
    2866:	0000                	unimp
    2868:	0100                	addi	s0,sp,128
    286a:	0075                	c.nop	29
    286c:	0000                	unimp
    286e:	ac02                	fsd	ft0,24(sp)
    2870:	0000                	unimp
    2872:	0200                	addi	s0,sp,256
    2874:	006c                	addi	a1,sp,12
    2876:	0000                	unimp
    2878:	0501                	addi	a0,a0,0
    287a:	0026                	c.slli	zero,0x9
    287c:	0209                	addi	tp,tp,2
    287e:	1028                	addi	a0,sp,40
    2880:	00a0                	addi	s0,sp,72
    2882:	0000                	unimp
    2884:	0000                	unimp
    2886:	0515                	addi	a0,a0,5
    2888:	0305                	addi	t1,t1,1
    288a:	0901                	addi	s2,s2,0
    288c:	000c                	0xc
    288e:	0301                	addi	t1,t1,0
    2890:	0902                	c.slli64	s2
    2892:	0000                	unimp
    2894:	0301                	addi	t1,t1,0
    2896:	0901                	addi	s2,s2,0
    2898:	0000                	unimp
    289a:	0501                	addi	a0,a0,0
    289c:	0003060b          	0x3060b
    28a0:	0009                	c.nop	2
    28a2:	0100                	addi	s0,sp,128
    28a4:	1a05                	addi	s4,s4,-31
    28a6:	0200                	addi	s0,sp,256
    28a8:	0104                	addi	s1,sp,128
    28aa:	0306                	slli	t1,t1,0x1
    28ac:	0900                	addi	s0,sp,144
    28ae:	0004                	0x4
    28b0:	0501                	addi	a0,a0,0
    28b2:	0016                	c.slli	zero,0x5
    28b4:	0402                	c.slli64	s0
    28b6:	0601                	addi	a2,a2,0
    28b8:	00090003          	lb	zero,0(s2)
    28bc:	0100                	addi	s0,sp,128
    28be:	0f05                	addi	t5,t5,1
    28c0:	0200                	addi	s0,sp,256
    28c2:	0104                	addi	s1,sp,128
    28c4:	04090003          	lb	zero,64(s2)
    28c8:	0100                	addi	s0,sp,128
    28ca:	1405                	addi	s0,s0,-31
    28cc:	0200                	addi	s0,sp,256
    28ce:	0104                	addi	s1,sp,128
    28d0:	04090003          	lb	zero,64(s2)
    28d4:	0100                	addi	s0,sp,128
    28d6:	1205                	addi	tp,tp,-31
    28d8:	0200                	addi	s0,sp,256
    28da:	0104                	addi	s1,sp,128
    28dc:	04090003          	lb	zero,64(s2)
    28e0:	0100                	addi	s0,sp,128
    28e2:	1a05                	addi	s4,s4,-31
    28e4:	0200                	addi	s0,sp,256
    28e6:	0104                	addi	s1,sp,128
    28e8:	04090003          	lb	zero,64(s2)
    28ec:	0100                	addi	s0,sp,128
    28ee:	0505                	addi	a0,a0,1
    28f0:	0306                	slli	t1,t1,0x1
    28f2:	0902                	c.slli64	s2
    28f4:	0004                	0x4
    28f6:	0501                	addi	a0,a0,0
    28f8:	0601                	addi	a2,a2,0
    28fa:	00090103          	lb	sp,0(s2)
    28fe:	0100                	addi	s0,sp,128
    2900:	2a05                	addiw	s4,s4,1
    2902:	0306                	slli	t1,t1,0x1
    2904:	0902                	c.slli64	s2
    2906:	000c                	0xc
    2908:	0501                	addi	a0,a0,0
    290a:	0305                	addi	t1,t1,1
    290c:	0901                	addi	s2,s2,0
    290e:	000c                	0xc
    2910:	0501                	addi	a0,a0,0
    2912:	0900030f          	0x900030f
    2916:	0000                	unimp
    2918:	0501                	addi	a0,a0,0
    291a:	060c                	addi	a1,sp,768
    291c:	00090003          	lb	zero,0(s2)
    2920:	0100                	addi	s0,sp,128
    2922:	0f05                	addi	t5,t5,1
    2924:	04090003          	lb	zero,64(s2)
    2928:	0100                	addi	s0,sp,128
    292a:	0200                	addi	s0,sp,256
    292c:	0104                	addi	s1,sp,128
    292e:	04090003          	lb	zero,64(s2)
    2932:	0100                	addi	s0,sp,128
    2934:	0905                	addi	s2,s2,1
    2936:	0306                	slli	t1,t1,0x1
    2938:	0901                	addi	s2,s2,0
    293a:	0008                	0x8
    293c:	0501                	addi	a0,a0,0
    293e:	060a                	slli	a2,a2,0x2
    2940:	00090003          	lb	zero,0(s2)
    2944:	0100                	addi	s0,sp,128
    2946:	0f05                	addi	t5,t5,1
    2948:	04090003          	lb	zero,64(s2)
    294c:	0100                	addi	s0,sp,128
    294e:	0306                	slli	t1,t1,0x1
    2950:	097f                	0x97f
    2952:	0004                	0x4
    2954:	0501                	addi	a0,a0,0
    2956:	060c                	addi	a1,sp,768
    2958:	00090003          	lb	zero,0(s2)
    295c:	0100                	addi	s0,sp,128
    295e:	0f05                	addi	t5,t5,1
    2960:	04090003          	lb	zero,64(s2)
    2964:	0100                	addi	s0,sp,128
    2966:	0505                	addi	a0,a0,1
    2968:	0306                	slli	t1,t1,0x1
    296a:	0902                	c.slli64	s2
    296c:	0004                	0x4
    296e:	0501                	addi	a0,a0,0
    2970:	0618                	addi	a4,sp,768
    2972:	00090003          	lb	zero,0(s2)
    2976:	0100                	addi	s0,sp,128
    2978:	0105                	addi	sp,sp,1
    297a:	04090103          	lb	sp,64(s2)
    297e:	0100                	addi	s0,sp,128
    2980:	1c05                	addi	s8,s8,-31
    2982:	0306                	slli	t1,t1,0x1
    2984:	0902                	c.slli64	s2
    2986:	0010                	0x10
    2988:	0501                	addi	a0,a0,0
    298a:	0305                	addi	t1,t1,1
    298c:	0901                	addi	s2,s2,0
    298e:	000c                	0xc
    2990:	0301                	addi	t1,t1,0
    2992:	0902                	c.slli64	s2
    2994:	0000                	unimp
    2996:	0501                	addi	a0,a0,0
    2998:	0311                	addi	t1,t1,4
    299a:	0900                	addi	s0,sp,144
    299c:	0000                	unimp
    299e:	0501                	addi	a0,a0,0
    29a0:	0018                	0x18
    29a2:	0402                	c.slli64	s0
    29a4:	09000303          	lb	t1,144(zero) # 90 <_text-0x9fff70>
    29a8:	0018                	0x18
    29aa:	0501                	addi	a0,a0,0
    29ac:	0011                	c.nop	4
    29ae:	0402                	c.slli64	s0
    29b0:	09000303          	lb	t1,144(zero) # 90 <_text-0x9fff70>
    29b4:	0004                	0x4
    29b6:	0501                	addi	a0,a0,0
    29b8:	0305                	addi	t1,t1,1
    29ba:	0902                	c.slli64	s2
    29bc:	000c                	0xc
    29be:	0501                	addi	a0,a0,0
    29c0:	0601                	addi	a2,a2,0
    29c2:	00090103          	lb	sp,0(s2)
    29c6:	0100                	addi	s0,sp,128
    29c8:	0c05                	addi	s8,s8,1
    29ca:	0c097d03          	0xc097d03
    29ce:	0100                	addi	s0,sp,128
    29d0:	2805                	addiw	a6,a6,1
    29d2:	0306                	slli	t1,t1,0x1
    29d4:	0905                	addi	s2,s2,1
    29d6:	0008                	0x8
    29d8:	0501                	addi	a0,a0,0
    29da:	0305                	addi	t1,t1,1
    29dc:	0901                	addi	s2,s2,0
    29de:	000c                	0xc
    29e0:	0301                	addi	t1,t1,0
    29e2:	0901                	addi	s2,s2,0
    29e4:	0000                	unimp
    29e6:	0301                	addi	t1,t1,0
    29e8:	0901                	addi	s2,s2,0
    29ea:	0000                	unimp
    29ec:	0501                	addi	a0,a0,0
    29ee:	09000313          	li	t1,144
    29f2:	0000                	unimp
    29f4:	0501                	addi	a0,a0,0
    29f6:	0009                	c.nop	2
    29f8:	0402                	c.slli64	s0
    29fa:	09010303          	lb	t1,144(sp)
    29fe:	0014                	0x14
    2a00:	0501                	addi	a0,a0,0
    2a02:	0011                	c.nop	4
    2a04:	0402                	c.slli64	s0
    2a06:	00030603          	lb	a2,0(t1)
    2a0a:	0009                	c.nop	2
    2a0c:	0100                	addi	s0,sp,128
    2a0e:	1905                	addi	s2,s2,-31
    2a10:	0200                	addi	s0,sp,256
    2a12:	0304                	addi	s1,sp,384
    2a14:	0306                	slli	t1,t1,0x1
    2a16:	097f                	0x97f
    2a18:	0004                	0x4
    2a1a:	0501                	addi	a0,a0,0
    2a1c:	04020013          	addi	zero,tp,64 # 40 <_text-0x9fffc0>
    2a20:	09000303          	lb	t1,144(zero) # 90 <_text-0x9fff70>
    2a24:	0000                	unimp
    2a26:	0501                	addi	a0,a0,0
    2a28:	0305                	addi	t1,t1,1
    2a2a:	00080903          	lb	s2,0(a6)
    2a2e:	0501                	addi	a0,a0,0
    2a30:	0601                	addi	a2,a2,0
    2a32:	00090103          	lb	sp,0(s2)
    2a36:	0100                	addi	s0,sp,128
    2a38:	2505                	addiw	a0,a0,1
    2a3a:	0306                	slli	t1,t1,0x1
    2a3c:	0902                	c.slli64	s2
    2a3e:	000c                	0xc
    2a40:	0501                	addi	a0,a0,0
    2a42:	0305                	addi	t1,t1,1
    2a44:	0901                	addi	s2,s2,0
    2a46:	000c                	0xc
    2a48:	0501                	addi	a0,a0,0
    2a4a:	030c                	addi	a1,sp,384
    2a4c:	0900                	addi	s0,sp,144
    2a4e:	0000                	unimp
    2a50:	0501                	addi	a0,a0,0
    2a52:	0309                	addi	t1,t1,2
    2a54:	0901                	addi	s2,s2,0
    2a56:	0008                	0x8
    2a58:	0501                	addi	a0,a0,0
    2a5a:	060c                	addi	a1,sp,768
    2a5c:	00090003          	lb	zero,0(s2)
    2a60:	0100                	addi	s0,sp,128
    2a62:	1105                	addi	sp,sp,-31
    2a64:	0306                	slli	t1,t1,0x1
    2a66:	097f                	0x97f
    2a68:	0004                	0x4
    2a6a:	0501                	addi	a0,a0,0
    2a6c:	030c                	addi	a1,sp,384
    2a6e:	0900                	addi	s0,sp,144
    2a70:	0004                	0x4
    2a72:	0601                	addi	a2,a2,0
    2a74:	08090303          	lb	t1,128(s2)
    2a78:	0100                	addi	s0,sp,128
    2a7a:	0105                	addi	sp,sp,1
    2a7c:	04090103          	lb	sp,64(s2)
    2a80:	0100                	addi	s0,sp,128
    2a82:	0c05                	addi	s8,s8,1
    2a84:	0c097f03          	0xc097f03
    2a88:	0100                	addi	s0,sp,128
    2a8a:	2005                	0x2005
    2a8c:	0306                	slli	t1,t1,0x1
    2a8e:	00080903          	lb	s2,0(a6)
    2a92:	0501                	addi	a0,a0,0
    2a94:	0305                	addi	t1,t1,1
    2a96:	0901                	addi	s2,s2,0
    2a98:	0004                	0x4
    2a9a:	0301                	addi	t1,t1,0
    2a9c:	0901                	addi	s2,s2,0
    2a9e:	0000                	unimp
    2aa0:	0301                	addi	t1,t1,0
    2aa2:	0901                	addi	s2,s2,0
    2aa4:	0000                	unimp
    2aa6:	0301                	addi	t1,t1,0
    2aa8:	0901                	addi	s2,s2,0
    2aaa:	0000                	unimp
    2aac:	0501                	addi	a0,a0,0
    2aae:	09000317          	auipc	t1,0x9000
    2ab2:	0000                	unimp
    2ab4:	0501                	addi	a0,a0,0
    2ab6:	0620                	addi	s0,sp,776
    2ab8:	08097c03          	0x8097c03
    2abc:	0100                	addi	s0,sp,128
    2abe:	0c05                	addi	s8,s8,1
    2ac0:	10090403          	lb	s0,256(s2)
    2ac4:	0100                	addi	s0,sp,128
    2ac6:	1305                	addi	t1,t1,-31
    2ac8:	04090003          	lb	zero,64(s2)
    2acc:	0100                	addi	s0,sp,128
    2ace:	0b05                	addi	s6,s6,1
    2ad0:	04090403          	lb	s0,64(s2)
    2ad4:	0100                	addi	s0,sp,128
    2ad6:	0c05                	addi	s8,s8,1
    2ad8:	04090903          	lb	s2,64(s2)
    2adc:	0100                	addi	s0,sp,128
    2ade:	1705                	addi	a4,a4,-31
    2ae0:	04090003          	lb	zero,64(s2)
    2ae4:	0100                	addi	s0,sp,128
    2ae6:	0204                	addi	s1,sp,256
    2ae8:	0c05                	addi	s8,s8,1
    2aea:	04097a03          	0x4097a03
    2aee:	0100                	addi	s0,sp,128
    2af0:	0104                	addi	s1,sp,128
    2af2:	0d05                	addi	s10,s10,1
    2af4:	0306                	slli	t1,t1,0x1
    2af6:	097e                	slli	s2,s2,0x1f
    2af8:	000c                	0xc
    2afa:	0501                	addi	a0,a0,0
    2afc:	0003060f          	0x3060f
    2b00:	0009                	c.nop	2
    2b02:	0100                	addi	s0,sp,128
    2b04:	1105                	addi	sp,sp,-31
    2b06:	0306                	slli	t1,t1,0x1
    2b08:	0901                	addi	s2,s2,0
    2b0a:	0004                	0x4
    2b0c:	0301                	addi	t1,t1,0
    2b0e:	0901                	addi	s2,s2,0
    2b10:	0004                	0x4
    2b12:	0401                	addi	s0,s0,0
    2b14:	0502                	c.slli64	a0
    2b16:	0305                	addi	t1,t1,1
    2b18:	0900                	addi	s0,sp,144
    2b1a:	0000                	unimp
    2b1c:	0401                	addi	s0,s0,0
    2b1e:	03020503          	lb	a0,48(tp) # 30 <_text-0x9fffd0>
    2b22:	0952                	slli	s2,s2,0x14
    2b24:	0000                	unimp
    2b26:	0501                	addi	a0,a0,0
    2b28:	0003060f          	0x3060f
    2b2c:	0009                	c.nop	2
    2b2e:	0100                	addi	s0,sp,128
    2b30:	0205                	addi	tp,tp,1
    2b32:	0306                	slli	t1,t1,0x1
    2b34:	0901                	addi	s2,s2,0
    2b36:	0004                	0x4
    2b38:	0501                	addi	a0,a0,0
    2b3a:	0003060f          	0x3060f
    2b3e:	0009                	c.nop	2
    2b40:	0100                	addi	s0,sp,128
    2b42:	0205                	addi	tp,tp,1
    2b44:	0306                	slli	t1,t1,0x1
    2b46:	0901                	addi	s2,s2,0
    2b48:	0004                	0x4
    2b4a:	0501                	addi	a0,a0,0
    2b4c:	0003060f          	0x3060f
    2b50:	0009                	c.nop	2
    2b52:	0100                	addi	s0,sp,128
    2b54:	0205                	addi	tp,tp,1
    2b56:	0306                	slli	t1,t1,0x1
    2b58:	0901                	addi	s2,s2,0
    2b5a:	0004                	0x4
    2b5c:	0301                	addi	t1,t1,0
    2b5e:	0901                	addi	s2,s2,0
    2b60:	0000                	unimp
    2b62:	0301                	addi	t1,t1,0
    2b64:	0901                	addi	s2,s2,0
    2b66:	0000                	unimp
    2b68:	0501                	addi	a0,a0,0
    2b6a:	0003060f          	0x3060f
    2b6e:	0009                	c.nop	2
    2b70:	0100                	addi	s0,sp,128
    2b72:	0205                	addi	tp,tp,1
    2b74:	0306                	slli	t1,t1,0x1
    2b76:	0901                	addi	s2,s2,0
    2b78:	0004                	0x4
    2b7a:	0501                	addi	a0,a0,0
    2b7c:	0610                	addi	a2,sp,768
    2b7e:	00090003          	lb	zero,0(s2)
    2b82:	0100                	addi	s0,sp,128
    2b84:	0205                	addi	tp,tp,1
    2b86:	0306                	slli	t1,t1,0x1
    2b88:	0901                	addi	s2,s2,0
    2b8a:	0004                	0x4
    2b8c:	0301                	addi	t1,t1,0
    2b8e:	0902                	c.slli64	s2
    2b90:	0004                	0x4
    2b92:	0401                	addi	s0,s0,0
    2b94:	0501                	addi	a0,a0,0
    2b96:	04020017          	auipc	zero,0x4020
    2b9a:	0301                	addi	t1,t1,0
    2b9c:	091e                	slli	s2,s2,0x7
    2b9e:	0000                	unimp
    2ba0:	0501                	addi	a0,a0,0
    2ba2:	04020013          	addi	zero,tp,64 # 40 <_text-0x9fffc0>
    2ba6:	0601                	addi	a2,a2,0
    2ba8:	00090003          	lb	zero,0(s2)
    2bac:	0100                	addi	s0,sp,128
    2bae:	1705                	addi	a4,a4,-31
    2bb0:	0200                	addi	s0,sp,256
    2bb2:	0104                	addi	s1,sp,128
    2bb4:	04090003          	lb	zero,64(s2)
    2bb8:	0100                	addi	s0,sp,128
    2bba:	0905                	addi	s2,s2,1
    2bbc:	0306                	slli	t1,t1,0x1
    2bbe:	0901                	addi	s2,s2,0
    2bc0:	0004                	0x4
    2bc2:	0401                	addi	s0,s0,0
    2bc4:	0502                	c.slli64	a0
    2bc6:	0305                	addi	t1,t1,1
    2bc8:	092e                	slli	s2,s2,0xb
    2bca:	0000                	unimp
    2bcc:	0401                	addi	s0,s0,0
    2bce:	03020503          	lb	a0,48(tp) # 30 <_text-0x9fffd0>
    2bd2:	7faa                	ld	t6,168(sp)
    2bd4:	0009                	c.nop	2
    2bd6:	0100                	addi	s0,sp,128
    2bd8:	0f05                	addi	t5,t5,1
    2bda:	0306                	slli	t1,t1,0x1
    2bdc:	0900                	addi	s0,sp,144
    2bde:	0000                	unimp
    2be0:	0501                	addi	a0,a0,0
    2be2:	0602                	c.slli64	a2
    2be4:	04090103          	lb	sp,64(s2)
    2be8:	0100                	addi	s0,sp,128
    2bea:	0f05                	addi	t5,t5,1
    2bec:	0306                	slli	t1,t1,0x1
    2bee:	0900                	addi	s0,sp,144
    2bf0:	0000                	unimp
    2bf2:	0501                	addi	a0,a0,0
    2bf4:	0602                	c.slli64	a2
    2bf6:	04090103          	lb	sp,64(s2)
    2bfa:	0100                	addi	s0,sp,128
    2bfc:	0f05                	addi	t5,t5,1
    2bfe:	0306                	slli	t1,t1,0x1
    2c00:	0900                	addi	s0,sp,144
    2c02:	0000                	unimp
    2c04:	0501                	addi	a0,a0,0
    2c06:	0602                	c.slli64	a2
    2c08:	04090103          	lb	sp,64(s2)
    2c0c:	0100                	addi	s0,sp,128
    2c0e:	0f05                	addi	t5,t5,1
    2c10:	0306                	slli	t1,t1,0x1
    2c12:	0900                	addi	s0,sp,144
    2c14:	0000                	unimp
    2c16:	0501                	addi	a0,a0,0
    2c18:	0602                	c.slli64	a2
    2c1a:	04090103          	lb	sp,64(s2)
    2c1e:	0100                	addi	s0,sp,128
    2c20:	0f05                	addi	t5,t5,1
    2c22:	0306                	slli	t1,t1,0x1
    2c24:	0900                	addi	s0,sp,144
    2c26:	0000                	unimp
    2c28:	0501                	addi	a0,a0,0
    2c2a:	0602                	c.slli64	a2
    2c2c:	04090103          	lb	sp,64(s2)
    2c30:	0100                	addi	s0,sp,128
    2c32:	0f05                	addi	t5,t5,1
    2c34:	0306                	slli	t1,t1,0x1
    2c36:	0900                	addi	s0,sp,144
    2c38:	0000                	unimp
    2c3a:	0501                	addi	a0,a0,0
    2c3c:	0602                	c.slli64	a2
    2c3e:	04090103          	lb	sp,64(s2)
    2c42:	0100                	addi	s0,sp,128
    2c44:	1005                	c.nop	-31
    2c46:	0306                	slli	t1,t1,0x1
    2c48:	0900                	addi	s0,sp,144
    2c4a:	0000                	unimp
    2c4c:	0501                	addi	a0,a0,0
    2c4e:	0602                	c.slli64	a2
    2c50:	04090103          	lb	sp,64(s2)
    2c54:	0100                	addi	s0,sp,128
    2c56:	04090203          	lb	tp,64(s2)
    2c5a:	0100                	addi	s0,sp,128
    2c5c:	0104                	addi	s1,sp,128
    2c5e:	0905                	addi	s2,s2,1
    2c60:	00092003          	lw	zero,0(s2)
    2c64:	0100                	addi	s0,sp,128
    2c66:	0c05                	addi	s8,s8,1
    2c68:	0306                	slli	t1,t1,0x1
    2c6a:	0900                	addi	s0,sp,144
    2c6c:	0000                	unimp
    2c6e:	0501                	addi	a0,a0,0
    2c70:	0609                	addi	a2,a2,2
    2c72:	08090203          	lb	tp,128(s2)
    2c76:	0100                	addi	s0,sp,128
    2c78:	0b05                	addi	s6,s6,1
    2c7a:	0306                	slli	t1,t1,0x1
    2c7c:	0900                	addi	s0,sp,144
    2c7e:	0000                	unimp
    2c80:	0501                	addi	a0,a0,0
    2c82:	0609                	addi	a2,a2,2
    2c84:	08090703          	lb	a4,128(s2)
    2c88:	0100                	addi	s0,sp,128
    2c8a:	0204                	addi	s1,sp,256
    2c8c:	0505                	addi	a0,a0,1
    2c8e:	00097c03          	0x97c03
    2c92:	0100                	addi	s0,sp,128
    2c94:	0304                	addi	s1,sp,384
    2c96:	0205                	addi	tp,tp,1
    2c98:	00095203          	lhu	tp,0(s2)
    2c9c:	0100                	addi	s0,sp,128
    2c9e:	0f05                	addi	t5,t5,1
    2ca0:	0306                	slli	t1,t1,0x1
    2ca2:	0900                	addi	s0,sp,144
    2ca4:	0000                	unimp
    2ca6:	0501                	addi	a0,a0,0
    2ca8:	0602                	c.slli64	a2
    2caa:	04090103          	lb	sp,64(s2)
    2cae:	0100                	addi	s0,sp,128
    2cb0:	0f05                	addi	t5,t5,1
    2cb2:	0306                	slli	t1,t1,0x1
    2cb4:	0900                	addi	s0,sp,144
    2cb6:	0000                	unimp
    2cb8:	0501                	addi	a0,a0,0
    2cba:	0602                	c.slli64	a2
    2cbc:	04090103          	lb	sp,64(s2)
    2cc0:	0100                	addi	s0,sp,128
    2cc2:	0f05                	addi	t5,t5,1
    2cc4:	0306                	slli	t1,t1,0x1
    2cc6:	0900                	addi	s0,sp,144
    2cc8:	0000                	unimp
    2cca:	0501                	addi	a0,a0,0
    2ccc:	0602                	c.slli64	a2
    2cce:	04090103          	lb	sp,64(s2)
    2cd2:	0100                	addi	s0,sp,128
    2cd4:	0f05                	addi	t5,t5,1
    2cd6:	0306                	slli	t1,t1,0x1
    2cd8:	0900                	addi	s0,sp,144
    2cda:	0000                	unimp
    2cdc:	0501                	addi	a0,a0,0
    2cde:	0602                	c.slli64	a2
    2ce0:	04090103          	lb	sp,64(s2)
    2ce4:	0100                	addi	s0,sp,128
    2ce6:	0f05                	addi	t5,t5,1
    2ce8:	0306                	slli	t1,t1,0x1
    2cea:	0900                	addi	s0,sp,144
    2cec:	0000                	unimp
    2cee:	0501                	addi	a0,a0,0
    2cf0:	0602                	c.slli64	a2
    2cf2:	04090103          	lb	sp,64(s2)
    2cf6:	0100                	addi	s0,sp,128
    2cf8:	0f05                	addi	t5,t5,1
    2cfa:	0306                	slli	t1,t1,0x1
    2cfc:	0900                	addi	s0,sp,144
    2cfe:	0000                	unimp
    2d00:	0501                	addi	a0,a0,0
    2d02:	0602                	c.slli64	a2
    2d04:	04090103          	lb	sp,64(s2)
    2d08:	0100                	addi	s0,sp,128
    2d0a:	1005                	c.nop	-31
    2d0c:	0306                	slli	t1,t1,0x1
    2d0e:	0900                	addi	s0,sp,144
    2d10:	0000                	unimp
    2d12:	0501                	addi	a0,a0,0
    2d14:	0602                	c.slli64	a2
    2d16:	04090103          	lb	sp,64(s2)
    2d1a:	0100                	addi	s0,sp,128
    2d1c:	04090203          	lb	tp,64(s2)
    2d20:	0100                	addi	s0,sp,128
    2d22:	0104                	addi	s1,sp,128
    2d24:	0905                	addi	s2,s2,1
    2d26:	00092a03          	lw	s4,0(s2)
    2d2a:	0100                	addi	s0,sp,128
    2d2c:	1205                	addi	tp,tp,-31
    2d2e:	0306                	slli	t1,t1,0x1
    2d30:	0900                	addi	s0,sp,144
    2d32:	0000                	unimp
    2d34:	0501                	addi	a0,a0,0
    2d36:	0609                	addi	a2,a2,2
    2d38:	0c090103          	lb	sp,192(s2)
    2d3c:	0100                	addi	s0,sp,128
    2d3e:	0c05                	addi	s8,s8,1
    2d40:	0306                	slli	t1,t1,0x1
    2d42:	0900                	addi	s0,sp,144
    2d44:	0000                	unimp
    2d46:	0501                	addi	a0,a0,0
    2d48:	04020017          	auipc	zero,0x4020
    2d4c:	0301                	addi	t1,t1,0
    2d4e:	0900                	addi	s0,sp,144
    2d50:	0004                	0x4
    2d52:	0501                	addi	a0,a0,0
    2d54:	030c                	addi	a1,sp,384
    2d56:	00140973          	0x140973
    2d5a:	0501                	addi	a0,a0,0
    2d5c:	0605                	addi	a2,a2,1
    2d5e:	04091003          	lh	zero,64(s2)
    2d62:	0100                	addi	s0,sp,128
    2d64:	0c05                	addi	s8,s8,1
    2d66:	0306                	slli	t1,t1,0x1
    2d68:	0900                	addi	s0,sp,144
    2d6a:	0000                	unimp
    2d6c:	0501                	addi	a0,a0,0
    2d6e:	0605                	addi	a2,a2,1
    2d70:	08090103          	lb	sp,128(s2)
    2d74:	0100                	addi	s0,sp,128
    2d76:	0105                	addi	sp,sp,1
    2d78:	0306                	slli	t1,t1,0x1
    2d7a:	0901                	addi	s2,s2,0
    2d7c:	0000                	unimp
    2d7e:	0501                	addi	a0,a0,0
    2d80:	0605                	addi	a2,a2,1
    2d82:	08097e03          	0x8097e03
    2d86:	0100                	addi	s0,sp,128
    2d88:	0c05                	addi	s8,s8,1
    2d8a:	0306                	slli	t1,t1,0x1
    2d8c:	0900                	addi	s0,sp,144
    2d8e:	0000                	unimp
    2d90:	0501                	addi	a0,a0,0
    2d92:	0605                	addi	a2,a2,1
    2d94:	08090103          	lb	sp,128(s2)
    2d98:	0100                	addi	s0,sp,128
    2d9a:	0105                	addi	sp,sp,1
    2d9c:	0306                	slli	t1,t1,0x1
    2d9e:	0901                	addi	s2,s2,0
    2da0:	0000                	unimp
    2da2:	0501                	addi	a0,a0,0
    2da4:	062a                	slli	a2,a2,0xa
    2da6:	10090203          	lb	tp,256(s2)
    2daa:	0100                	addi	s0,sp,128
    2dac:	0505                	addi	a0,a0,1
    2dae:	14090103          	lb	sp,320(s2)
    2db2:	0100                	addi	s0,sp,128
    2db4:	00090103          	lb	sp,0(s2)
    2db8:	0100                	addi	s0,sp,128
    2dba:	00090203          	lb	tp,0(s2)
    2dbe:	0100                	addi	s0,sp,128
    2dc0:	0204                	addi	s1,sp,256
    2dc2:	00090303          	lb	t1,0(s2)
    2dc6:	0100                	addi	s0,sp,128
    2dc8:	0304                	addi	s1,sp,384
    2dca:	0205                	addi	tp,tp,1
    2dcc:	097fbe03          	ld	t3,151(t6) # fffffffffffea097 <end+0xfffffffffefe8097>
    2dd0:	0000                	unimp
    2dd2:	0501                	addi	a0,a0,0
    2dd4:	0003060f          	0x3060f
    2dd8:	0009                	c.nop	2
    2dda:	0100                	addi	s0,sp,128
    2ddc:	0205                	addi	tp,tp,1
    2dde:	0306                	slli	t1,t1,0x1
    2de0:	0901                	addi	s2,s2,0
    2de2:	0004                	0x4
    2de4:	0501                	addi	a0,a0,0
    2de6:	0003060f          	0x3060f
    2dea:	0009                	c.nop	2
    2dec:	0100                	addi	s0,sp,128
    2dee:	0205                	addi	tp,tp,1
    2df0:	0306                	slli	t1,t1,0x1
    2df2:	0901                	addi	s2,s2,0
    2df4:	0004                	0x4
    2df6:	0501                	addi	a0,a0,0
    2df8:	0003060f          	0x3060f
    2dfc:	0009                	c.nop	2
    2dfe:	0100                	addi	s0,sp,128
    2e00:	0205                	addi	tp,tp,1
    2e02:	0306                	slli	t1,t1,0x1
    2e04:	0901                	addi	s2,s2,0
    2e06:	0004                	0x4
    2e08:	0501                	addi	a0,a0,0
    2e0a:	0003060f          	0x3060f
    2e0e:	0009                	c.nop	2
    2e10:	0100                	addi	s0,sp,128
    2e12:	0205                	addi	tp,tp,1
    2e14:	0306                	slli	t1,t1,0x1
    2e16:	0901                	addi	s2,s2,0
    2e18:	0004                	0x4
    2e1a:	0501                	addi	a0,a0,0
    2e1c:	0003060f          	0x3060f
    2e20:	0009                	c.nop	2
    2e22:	0100                	addi	s0,sp,128
    2e24:	0205                	addi	tp,tp,1
    2e26:	0306                	slli	t1,t1,0x1
    2e28:	0901                	addi	s2,s2,0
    2e2a:	0004                	0x4
    2e2c:	0501                	addi	a0,a0,0
    2e2e:	0003060f          	0x3060f
    2e32:	0009                	c.nop	2
    2e34:	0100                	addi	s0,sp,128
    2e36:	0205                	addi	tp,tp,1
    2e38:	0306                	slli	t1,t1,0x1
    2e3a:	0901                	addi	s2,s2,0
    2e3c:	0004                	0x4
    2e3e:	0501                	addi	a0,a0,0
    2e40:	0610                	addi	a2,sp,768
    2e42:	00090003          	lb	zero,0(s2)
    2e46:	0100                	addi	s0,sp,128
    2e48:	0205                	addi	tp,tp,1
    2e4a:	0306                	slli	t1,t1,0x1
    2e4c:	0901                	addi	s2,s2,0
    2e4e:	0004                	0x4
    2e50:	0301                	addi	t1,t1,0
    2e52:	0902                	c.slli64	s2
    2e54:	0004                	0x4
    2e56:	0401                	addi	s0,s0,0
    2e58:	0502                	c.slli64	a0
    2e5a:	060c                	addi	a1,sp,768
    2e5c:	00093903          	ld	s2,0(s2)
    2e60:	0100                	addi	s0,sp,128
    2e62:	0104                	addi	s1,sp,128
    2e64:	0505                	addi	a0,a0,1
    2e66:	0306                	slli	t1,t1,0x1
    2e68:	097e                	slli	s2,s2,0x1f
    2e6a:	0004                	0x4
    2e6c:	0501                	addi	a0,a0,0
    2e6e:	0608                	addi	a0,sp,768
    2e70:	00090003          	lb	zero,0(s2)
    2e74:	0100                	addi	s0,sp,128
    2e76:	0505                	addi	a0,a0,1
    2e78:	0306                	slli	t1,t1,0x1
    2e7a:	0902                	c.slli64	s2
    2e7c:	0004                	0x4
    2e7e:	0401                	addi	s0,s0,0
    2e80:	0302                	c.slli64	t1
    2e82:	0920                	addi	s0,sp,152
    2e84:	0000                	unimp
    2e86:	0401                	addi	s0,s0,0
    2e88:	03020503          	lb	a0,48(tp) # 30 <_text-0x9fffd0>
    2e8c:	7f9e                	ld	t6,480(sp)
    2e8e:	0009                	c.nop	2
    2e90:	0100                	addi	s0,sp,128
    2e92:	0f05                	addi	t5,t5,1
    2e94:	0306                	slli	t1,t1,0x1
    2e96:	0900                	addi	s0,sp,144
    2e98:	0000                	unimp
    2e9a:	0501                	addi	a0,a0,0
    2e9c:	0602                	c.slli64	a2
    2e9e:	04090103          	lb	sp,64(s2)
    2ea2:	0100                	addi	s0,sp,128
    2ea4:	0f05                	addi	t5,t5,1
    2ea6:	0306                	slli	t1,t1,0x1
    2ea8:	0900                	addi	s0,sp,144
    2eaa:	0000                	unimp
    2eac:	0501                	addi	a0,a0,0
    2eae:	0602                	c.slli64	a2
    2eb0:	04090103          	lb	sp,64(s2)
    2eb4:	0100                	addi	s0,sp,128
    2eb6:	00090103          	lb	sp,0(s2)
    2eba:	0100                	addi	s0,sp,128
    2ebc:	0f05                	addi	t5,t5,1
    2ebe:	0306                	slli	t1,t1,0x1
    2ec0:	0900                	addi	s0,sp,144
    2ec2:	0000                	unimp
    2ec4:	0501                	addi	a0,a0,0
    2ec6:	0602                	c.slli64	a2
    2ec8:	04090103          	lb	sp,64(s2)
    2ecc:	0100                	addi	s0,sp,128
    2ece:	00090103          	lb	sp,0(s2)
    2ed2:	0100                	addi	s0,sp,128
    2ed4:	00090103          	lb	sp,0(s2)
    2ed8:	0100                	addi	s0,sp,128
    2eda:	1005                	c.nop	-31
    2edc:	0306                	slli	t1,t1,0x1
    2ede:	0900                	addi	s0,sp,144
    2ee0:	0000                	unimp
    2ee2:	0501                	addi	a0,a0,0
    2ee4:	0602                	c.slli64	a2
    2ee6:	04090103          	lb	sp,64(s2)
    2eea:	0100                	addi	s0,sp,128
    2eec:	04090203          	lb	tp,64(s2)
    2ef0:	0100                	addi	s0,sp,128
    2ef2:	0204                	addi	s1,sp,256
    2ef4:	0c05                	addi	s8,s8,1
    2ef6:	0306                	slli	t1,t1,0x1
    2ef8:	00d9                	addi	ra,ra,22
    2efa:	0009                	c.nop	2
    2efc:	0100                	addi	s0,sp,128
    2efe:	0104                	addi	s1,sp,128
    2f00:	0505                	addi	a0,a0,1
    2f02:	0306                	slli	t1,t1,0x1
    2f04:	0961                	addi	s2,s2,24
    2f06:	0004                	0x4
    2f08:	0401                	addi	s0,s0,0
    2f0a:	0302                	c.slli64	t1
    2f0c:	0000097b          	0x97b
    2f10:	0401                	addi	s0,s0,0
    2f12:	03020503          	lb	a0,48(tp) # 30 <_text-0x9fffd0>
    2f16:	0942                	slli	s2,s2,0x10
    2f18:	0000                	unimp
    2f1a:	0501                	addi	a0,a0,0
    2f1c:	0003060f          	0x3060f
    2f20:	0009                	c.nop	2
    2f22:	0100                	addi	s0,sp,128
    2f24:	0205                	addi	tp,tp,1
    2f26:	0306                	slli	t1,t1,0x1
    2f28:	0901                	addi	s2,s2,0
    2f2a:	0004                	0x4
    2f2c:	0501                	addi	a0,a0,0
    2f2e:	0003060f          	0x3060f
    2f32:	0009                	c.nop	2
    2f34:	0100                	addi	s0,sp,128
    2f36:	0205                	addi	tp,tp,1
    2f38:	0306                	slli	t1,t1,0x1
    2f3a:	0901                	addi	s2,s2,0
    2f3c:	0004                	0x4
    2f3e:	0301                	addi	t1,t1,0
    2f40:	0901                	addi	s2,s2,0
    2f42:	0000                	unimp
    2f44:	0301                	addi	t1,t1,0
    2f46:	0901                	addi	s2,s2,0
    2f48:	0000                	unimp
    2f4a:	0301                	addi	t1,t1,0
    2f4c:	0901                	addi	s2,s2,0
    2f4e:	0000                	unimp
    2f50:	0301                	addi	t1,t1,0
    2f52:	0901                	addi	s2,s2,0
    2f54:	0000                	unimp
    2f56:	0501                	addi	a0,a0,0
    2f58:	0610                	addi	a2,sp,768
    2f5a:	00090003          	lb	zero,0(s2)
    2f5e:	0100                	addi	s0,sp,128
    2f60:	0205                	addi	tp,tp,1
    2f62:	0306                	slli	t1,t1,0x1
    2f64:	0901                	addi	s2,s2,0
    2f66:	0004                	0x4
    2f68:	0301                	addi	t1,t1,0
    2f6a:	0902                	c.slli64	s2
    2f6c:	0004                	0x4
    2f6e:	0401                	addi	s0,s0,0
    2f70:	0501                	addi	a0,a0,0
    2f72:	0601                	addi	a2,a2,0
    2f74:	00093c03          	ld	s8,0(s2)
    2f78:	0100                	addi	s0,sp,128
    2f7a:	1005                	c.nop	-31
    2f7c:	10097c03          	0x10097c03
    2f80:	0100                	addi	s0,sp,128
    2f82:	1905                	addi	s2,s2,-31
    2f84:	0306                	slli	t1,t1,0x1
    2f86:	0906                	slli	s2,s2,0x1
    2f88:	0008                	0x8
    2f8a:	0501                	addi	a0,a0,0
    2f8c:	0305                	addi	t1,t1,1
    2f8e:	0901                	addi	s2,s2,0
    2f90:	000c                	0xc
    2f92:	0301                	addi	t1,t1,0
    2f94:	0902                	c.slli64	s2
    2f96:	0000                	unimp
    2f98:	0301                	addi	t1,t1,0
    2f9a:	0901                	addi	s2,s2,0
    2f9c:	0000                	unimp
    2f9e:	0501                	addi	a0,a0,0
    2fa0:	0316                	slli	t1,t1,0x5
    2fa2:	0900                	addi	s0,sp,144
    2fa4:	0000                	unimp
    2fa6:	0501                	addi	a0,a0,0
    2fa8:	00030613          	mv	a2,t1
    2fac:	0009                	c.nop	2
    2fae:	0100                	addi	s0,sp,128
    2fb0:	1605                	addi	a2,a2,-31
    2fb2:	04090003          	lb	zero,64(s2)
    2fb6:	0100                	addi	s0,sp,128
    2fb8:	0705                	addi	a4,a4,1
    2fba:	14097f03          	0x14097f03
    2fbe:	0100                	addi	s0,sp,128
    2fc0:	0905                	addi	s2,s2,1
    2fc2:	0306                	slli	t1,t1,0x1
    2fc4:	0902                	c.slli64	s2
    2fc6:	0004                	0x4
    2fc8:	0501                	addi	a0,a0,0
    2fca:	0618                	addi	a4,sp,768
    2fcc:	00090003          	lb	zero,0(s2)
    2fd0:	0100                	addi	s0,sp,128
    2fd2:	0f05                	addi	t5,t5,1
    2fd4:	04090003          	lb	zero,64(s2)
    2fd8:	0100                	addi	s0,sp,128
    2fda:	1405                	addi	s0,s0,-31
    2fdc:	0c090003          	lb	zero,192(s2)
    2fe0:	0100                	addi	s0,sp,128
    2fe2:	0b05                	addi	s6,s6,1
    2fe4:	04090003          	lb	zero,64(s2)
    2fe8:	0100                	addi	s0,sp,128
    2fea:	1605                	addi	a2,a2,-31
    2fec:	0306                	slli	t1,t1,0x1
    2fee:	097f                	0x97f
    2ff0:	0004                	0x4
    2ff2:	0501                	addi	a0,a0,0
    2ff4:	00030613          	mv	a2,t1
    2ff8:	0009                	c.nop	2
    2ffa:	0100                	addi	s0,sp,128
    2ffc:	1605                	addi	a2,a2,-31
    2ffe:	04090003          	lb	zero,64(s2)
    3002:	0100                	addi	s0,sp,128
    3004:	0505                	addi	a0,a0,1
    3006:	0306                	slli	t1,t1,0x1
    3008:	0902                	c.slli64	s2
    300a:	000c                	0xc
    300c:	0501                	addi	a0,a0,0
    300e:	0601                	addi	a2,a2,0
    3010:	00090103          	lb	sp,0(s2)
    3014:	0100                	addi	s0,sp,128
    3016:	0705                	addi	a4,a4,1
    3018:	0c097c03          	0xc097c03
    301c:	0100                	addi	s0,sp,128
    301e:	3405                	addiw	s0,s0,-31
    3020:	0306                	slli	t1,t1,0x1
    3022:	0906                	slli	s2,s2,0x1
    3024:	0008                	0x8
    3026:	0501                	addi	a0,a0,0
    3028:	0305                	addi	t1,t1,1
    302a:	0901                	addi	s2,s2,0
    302c:	000c                	0xc
    302e:	0301                	addi	t1,t1,0
    3030:	0901                	addi	s2,s2,0
    3032:	0000                	unimp
    3034:	0301                	addi	t1,t1,0
    3036:	0902                	c.slli64	s2
    3038:	0000                	unimp
    303a:	0301                	addi	t1,t1,0
    303c:	0901                	addi	s2,s2,0
    303e:	0000                	unimp
    3040:	0301                	addi	t1,t1,0
    3042:	0901                	addi	s2,s2,0
    3044:	0000                	unimp
    3046:	0501                	addi	a0,a0,0
    3048:	0608                	addi	a0,sp,768
    304a:	00090003          	lb	zero,0(s2)
    304e:	0100                	addi	s0,sp,128
    3050:	1405                	addi	s0,s0,-31
    3052:	0306                	slli	t1,t1,0x1
    3054:	0901                	addi	s2,s2,0
    3056:	0004                	0x4
    3058:	0501                	addi	a0,a0,0
    305a:	0609                	addi	a2,a2,2
    305c:	10097d03          	0x10097d03
    3060:	0100                	addi	s0,sp,128
    3062:	0d05                	addi	s10,s10,1
    3064:	0306                	slli	t1,t1,0x1
    3066:	0904                	addi	s1,sp,144
    3068:	0004                	0x4
    306a:	0501                	addi	a0,a0,0
    306c:	061a                	slli	a2,a2,0x6
    306e:	00090003          	lb	zero,0(s2)
    3072:	0100                	addi	s0,sp,128
    3074:	1105                	addi	sp,sp,-31
    3076:	04090003          	lb	zero,64(s2)
    307a:	0100                	addi	s0,sp,128
    307c:	1605                	addi	a2,a2,-31
    307e:	04090003          	lb	zero,64(s2)
    3082:	0100                	addi	s0,sp,128
    3084:	1405                	addi	s0,s0,-31
    3086:	04090003          	lb	zero,64(s2)
    308a:	0100                	addi	s0,sp,128
    308c:	0306                	slli	t1,t1,0x1
    308e:	097f                	0x97f
    3090:	0004                	0x4
    3092:	0501                	addi	a0,a0,0
    3094:	0305                	addi	t1,t1,1
    3096:	0908                	addi	a0,sp,144
    3098:	0004                	0x4
    309a:	0501                	addi	a0,a0,0
    309c:	0601                	addi	a2,a2,0
    309e:	00090103          	lb	sp,0(s2)
    30a2:	0100                	addi	s0,sp,128
    30a4:	0905                	addi	s2,s2,1
    30a6:	0306                	slli	t1,t1,0x1
    30a8:	097a                	slli	s2,s2,0x1e
    30aa:	000c                	0xc
    30ac:	0501                	addi	a0,a0,0
    30ae:	060d                	addi	a2,a2,3
    30b0:	00090003          	lb	zero,0(s2)
    30b4:	0100                	addi	s0,sp,128
    30b6:	0905                	addi	s2,s2,1
    30b8:	0306                	slli	t1,t1,0x1
    30ba:	0901                	addi	s2,s2,0
    30bc:	0004                	0x4
    30be:	0501                	addi	a0,a0,0
    30c0:	060d                	addi	a2,a2,3
    30c2:	00090003          	lb	zero,0(s2)
    30c6:	0100                	addi	s0,sp,128
    30c8:	0905                	addi	s2,s2,1
    30ca:	0306                	slli	t1,t1,0x1
    30cc:	0901                	addi	s2,s2,0
    30ce:	0004                	0x4
    30d0:	0501                	addi	a0,a0,0
    30d2:	0314                	addi	a3,sp,384
    30d4:	0900                	addi	s0,sp,144
    30d6:	0000                	unimp
    30d8:	0501                	addi	a0,a0,0
    30da:	030d                	addi	t1,t1,3
    30dc:	0901                	addi	s2,s2,0
    30de:	0018                	0x18
    30e0:	0501                	addi	a0,a0,0
    30e2:	0614                	addi	a3,sp,768
    30e4:	00090003          	lb	zero,0(s2)
    30e8:	0100                	addi	s0,sp,128
    30ea:	1605                	addi	a2,a2,-31
    30ec:	08090003          	lb	zero,128(s2)
    30f0:	0100                	addi	s0,sp,128
    30f2:	1405                	addi	s0,s0,-31
    30f4:	04090003          	lb	zero,64(s2)
    30f8:	0100                	addi	s0,sp,128
    30fa:	0306                	slli	t1,t1,0x1
    30fc:	097f                	0x97f
    30fe:	0004                	0x4
    3100:	0501                	addi	a0,a0,0
    3102:	0334                	addi	a3,sp,392
    3104:	0906                	slli	s2,s2,0x1
    3106:	0008                	0x8
    3108:	0501                	addi	a0,a0,0
    310a:	0305                	addi	t1,t1,1
    310c:	0901                	addi	s2,s2,0
    310e:	000c                	0xc
    3110:	0301                	addi	t1,t1,0
    3112:	0901                	addi	s2,s2,0
    3114:	0000                	unimp
    3116:	0501                	addi	a0,a0,0
    3118:	0310                	addi	a2,sp,384
    311a:	0900                	addi	s0,sp,144
    311c:	0000                	unimp
    311e:	0501                	addi	a0,a0,0
    3120:	0309                	addi	t1,t1,2
    3122:	0901                	addi	s2,s2,0
    3124:	0018                	0x18
    3126:	0501                	addi	a0,a0,0
    3128:	060d                	addi	a2,a2,3
    312a:	00090003          	lb	zero,0(s2)
    312e:	0100                	addi	s0,sp,128
    3130:	1405                	addi	s0,s0,-31
    3132:	04090003          	lb	zero,64(s2)
    3136:	0100                	addi	s0,sp,128
    3138:	0c05                	addi	s8,s8,1
    313a:	04090003          	lb	zero,64(s2)
    313e:	0100                	addi	s0,sp,128
    3140:	0905                	addi	s2,s2,1
    3142:	0306                	slli	t1,t1,0x1
    3144:	00040903          	lb	s2,0(s0) # 9000 <_text-0x9f7000>
    3148:	0501                	addi	a0,a0,0
    314a:	0003060b          	0x3060b
    314e:	0009                	c.nop	2
    3150:	0100                	addi	s0,sp,128
    3152:	0905                	addi	s2,s2,1
    3154:	0306                	slli	t1,t1,0x1
    3156:	0901                	addi	s2,s2,0
    3158:	0004                	0x4
    315a:	0501                	addi	a0,a0,0
    315c:	0003060b          	0x3060b
    3160:	0009                	c.nop	2
    3162:	0100                	addi	s0,sp,128
    3164:	1005                	c.nop	-31
    3166:	0306                	slli	t1,t1,0x1
    3168:	0004097b          	0x4097b
    316c:	0501                	addi	a0,a0,0
    316e:	060c                	addi	a1,sp,768
    3170:	04090703          	lb	a4,64(s2)
    3174:	0100                	addi	s0,sp,128
    3176:	0d05                	addi	s10,s10,1
    3178:	0306                	slli	t1,t1,0x1
    317a:	0008097b          	0x8097b
    317e:	0501                	addi	a0,a0,0
    3180:	0618                	addi	a4,sp,768
    3182:	00090003          	lb	zero,0(s2)
    3186:	0100                	addi	s0,sp,128
    3188:	0105                	addi	sp,sp,1
    318a:	04090603          	lb	a2,64(s2)
    318e:	0100                	addi	s0,sp,128
    3190:	0c05                	addi	s8,s8,1
    3192:	0c097f03          	0xc097f03
    3196:	0100                	addi	s0,sp,128
    3198:	3205                	addiw	tp,tp,-31
    319a:	0306                	slli	t1,t1,0x1
    319c:	00080903          	lb	s2,0(a6)
    31a0:	0501                	addi	a0,a0,0
    31a2:	0305                	addi	t1,t1,1
    31a4:	0901                	addi	s2,s2,0
    31a6:	0010                	0x10
    31a8:	0501                	addi	a0,a0,0
    31aa:	060c                	addi	a1,sp,768
    31ac:	00090003          	lb	zero,0(s2)
    31b0:	0100                	addi	s0,sp,128
    31b2:	0105                	addi	sp,sp,1
    31b4:	08090103          	lb	sp,128(s2)
    31b8:	0100                	addi	s0,sp,128
    31ba:	1009                	c.nop	-30
    31bc:	0000                	unimp
    31be:	0101                	addi	sp,sp,0
    31c0:	0472                	slli	s0,s0,0x1c
    31c2:	0000                	unimp
    31c4:	0005                	c.nop	1
    31c6:	0008                	0x8
    31c8:	004a                	c.slli	zero,0x12
    31ca:	0000                	unimp
    31cc:	0101                	addi	sp,sp,0
    31ce:	fb01                	bnez	a4,30de <_text-0x9fcf22>
    31d0:	0d0e                	slli	s10,s10,0x3
    31d2:	0100                	addi	s0,sp,128
    31d4:	0101                	addi	sp,sp,0
    31d6:	0001                	nop
    31d8:	0000                	unimp
    31da:	0001                	nop
    31dc:	0100                	addi	s0,sp,128
    31de:	0101                	addi	sp,sp,0
    31e0:	041f 0000 0000      	0x41f
    31e6:	0000004b          	fnmsub.s	ft0,ft0,ft0,ft0,rne
    31ea:	0086                	slli	ra,ra,0x1
    31ec:	0000                	unimp
    31ee:	003d                	c.nop	15
    31f0:	0000                	unimp
    31f2:	0102                	c.slli64	sp
    31f4:	021f 060f 00b3      	0xb3060f021f
    31fa:	0000                	unimp
    31fc:	b300                	fsd	fs0,32(a4)
    31fe:	0000                	unimp
    3200:	0000                	unimp
    3202:	0055                	c.nop	21
    3204:	0000                	unimp
    3206:	6201                	0x6201
    3208:	0000                	unimp
    320a:	0200                	addi	s0,sp,256
    320c:	0075                	c.nop	29
    320e:	0000                	unimp
    3210:	00006c03          	lwu	s8,0(zero) # 0 <_text-0xa00000>
    3214:	0100                	addi	s0,sp,128
    3216:	1505                	addi	a0,a0,-31
    3218:	0900                	addi	s0,sp,144
    321a:	3802                	fld	fa6,32(sp)
    321c:	a014                	fsd	fa3,0(s0)
    321e:	0000                	unimp
    3220:	0000                	unimp
    3222:	0300                	addi	s0,sp,384
    3224:	0119                	addi	sp,sp,6
    3226:	0505                	addi	a0,a0,1
    3228:	0c090103          	lb	sp,192(s2)
    322c:	0100                	addi	s0,sp,128
    322e:	00090203          	lb	tp,0(s2)
    3232:	0100                	addi	s0,sp,128
    3234:	0805                	addi	a6,a6,1
    3236:	0306                	slli	t1,t1,0x1
    3238:	0900                	addi	s0,sp,144
    323a:	0000                	unimp
    323c:	0501                	addi	a0,a0,0
    323e:	0605                	addi	a2,a2,1
    3240:	04090103          	lb	sp,64(s2)
    3244:	0100                	addi	s0,sp,128
    3246:	0c05                	addi	s8,s8,1
    3248:	0306                	slli	t1,t1,0x1
    324a:	0900                	addi	s0,sp,144
    324c:	0000                	unimp
    324e:	0501                	addi	a0,a0,0
    3250:	0305                	addi	t1,t1,1
    3252:	0900                	addi	s0,sp,144
    3254:	0008                	0x8
    3256:	0501                	addi	a0,a0,0
    3258:	0609                	addi	a2,a2,2
    325a:	04090403          	lb	s0,64(s2)
    325e:	0100                	addi	s0,sp,128
    3260:	1405                	addi	s0,s0,-31
    3262:	0306                	slli	t1,t1,0x1
    3264:	0900                	addi	s0,sp,144
    3266:	0000                	unimp
    3268:	0501                	addi	a0,a0,0
    326a:	0609                	addi	a2,a2,2
    326c:	0c090103          	lb	sp,192(s2)
    3270:	0100                	addi	s0,sp,128
    3272:	2005                	0x2005
    3274:	0306                	slli	t1,t1,0x1
    3276:	0900                	addi	s0,sp,144
    3278:	0000                	unimp
    327a:	0501                	addi	a0,a0,0
    327c:	0609                	addi	a2,a2,2
    327e:	0c090403          	lb	s0,192(s2)
    3282:	0100                	addi	s0,sp,128
    3284:	1305                	addi	t1,t1,-31
    3286:	0306                	slli	t1,t1,0x1
    3288:	0900                	addi	s0,sp,144
    328a:	0000                	unimp
    328c:	0501                	addi	a0,a0,0
    328e:	0609                	addi	a2,a2,2
    3290:	0c090103          	lb	sp,192(s2)
    3294:	0100                	addi	s0,sp,128
    3296:	1905                	addi	s2,s2,-31
    3298:	0306                	slli	t1,t1,0x1
    329a:	0900                	addi	s0,sp,144
    329c:	0000                	unimp
    329e:	0501                	addi	a0,a0,0
    32a0:	0609                	addi	a2,a2,2
    32a2:	08097703          	0x8097703
    32a6:	0100                	addi	s0,sp,128
    32a8:	1605                	addi	a2,a2,-31
    32aa:	0306                	slli	t1,t1,0x1
    32ac:	0900                	addi	s0,sp,144
    32ae:	0000                	unimp
    32b0:	0501                	addi	a0,a0,0
    32b2:	030c                	addi	a1,sp,384
    32b4:	0900                	addi	s0,sp,144
    32b6:	0004                	0x4
    32b8:	0501                	addi	a0,a0,0
    32ba:	0026                	c.slli	zero,0x9
    32bc:	0402                	c.slli64	s0
    32be:	0302                	c.slli64	t1
    32c0:	0900                	addi	s0,sp,144
    32c2:	0004                	0x4
    32c4:	0501                	addi	a0,a0,0
    32c6:	0015                	c.nop	5
    32c8:	0402                	c.slli64	s0
    32ca:	0301                	addi	t1,t1,0
    32cc:	0004097b          	0x4097b
    32d0:	0001                	nop
    32d2:	0402                	c.slli64	s0
    32d4:	0601                	addi	a2,a2,0
    32d6:	04090403          	lb	s0,64(s2)
    32da:	0100                	addi	s0,sp,128
    32dc:	2a05                	addiw	s4,s4,1
    32de:	0200                	addi	s0,sp,256
    32e0:	0304                	addi	s1,sp,384
    32e2:	0306                	slli	t1,t1,0x1
    32e4:	0900                	addi	s0,sp,144
    32e6:	0004                	0x4
    32e8:	0501                	addi	a0,a0,0
    32ea:	0015                	c.nop	5
    32ec:	0402                	c.slli64	s0
    32ee:	09000303          	lb	t1,144(zero) # 90 <_text-0x9fff70>
    32f2:	0004                	0x4
    32f4:	0501                	addi	a0,a0,0
    32f6:	0609                	addi	a2,a2,2
    32f8:	04090103          	lb	sp,64(s2)
    32fc:	0100                	addi	s0,sp,128
    32fe:	0c05                	addi	s8,s8,1
    3300:	0306                	slli	t1,t1,0x1
    3302:	0900                	addi	s0,sp,144
    3304:	0000                	unimp
    3306:	0501                	addi	a0,a0,0
    3308:	0605                	addi	a2,a2,1
    330a:	04090203          	lb	tp,64(s2)
    330e:	0100                	addi	s0,sp,128
    3310:	1305                	addi	t1,t1,-31
    3312:	0306                	slli	t1,t1,0x1
    3314:	0900                	addi	s0,sp,144
    3316:	0000                	unimp
    3318:	0501                	addi	a0,a0,0
    331a:	0320                	addi	s0,sp,392
    331c:	0900                	addi	s0,sp,144
    331e:	0004                	0x4
    3320:	0501                	addi	a0,a0,0
    3322:	030c                	addi	a1,sp,384
    3324:	0900                	addi	s0,sp,144
    3326:	0004                	0x4
    3328:	0501                	addi	a0,a0,0
    332a:	0308                	addi	a0,sp,384
    332c:	0900                	addi	s0,sp,144
    332e:	000c                	0xc
    3330:	0501                	addi	a0,a0,0
    3332:	09020313          	addi	t1,tp,144 # 90 <_text-0x9fff70>
    3336:	0004                	0x4
    3338:	0501                	addi	a0,a0,0
    333a:	0605                	addi	a2,a2,1
    333c:	04090303          	lb	t1,64(s2)
    3340:	0100                	addi	s0,sp,128
    3342:	1105                	addi	sp,sp,-31
    3344:	0306                	slli	t1,t1,0x1
    3346:	0900                	addi	s0,sp,144
    3348:	0000                	unimp
    334a:	0501                	addi	a0,a0,0
    334c:	0900030b          	0x900030b
    3350:	0004                	0x4
    3352:	0501                	addi	a0,a0,0
    3354:	0308                	addi	a0,sp,384
    3356:	0900                	addi	s0,sp,144
    3358:	000c                	0xc
    335a:	0501                	addi	a0,a0,0
    335c:	0312                	slli	t1,t1,0x4
    335e:	0902                	c.slli64	s2
    3360:	0004                	0x4
    3362:	0501                	addi	a0,a0,0
    3364:	0605                	addi	a2,a2,1
    3366:	04090303          	lb	t1,64(s2)
    336a:	0100                	addi	s0,sp,128
    336c:	0b05                	addi	s6,s6,1
    336e:	0306                	slli	t1,t1,0x1
    3370:	0900                	addi	s0,sp,144
    3372:	0000                	unimp
    3374:	0501                	addi	a0,a0,0
    3376:	0301                	addi	t1,t1,0
    3378:	0901                	addi	s2,s2,0
    337a:	0008                	0x8
    337c:	0501                	addi	a0,a0,0
    337e:	1103061b          	addiw	a2,t1,272
    3382:	0c09                	addi	s8,s8,2
    3384:	0100                	addi	s0,sp,128
    3386:	0505                	addi	a0,a0,1
    3388:	28090103          	lb	sp,640(s2)
    338c:	0100                	addi	s0,sp,128
    338e:	00090103          	lb	sp,0(s2)
    3392:	0100                	addi	s0,sp,128
    3394:	00090203          	lb	tp,0(s2)
    3398:	0100                	addi	s0,sp,128
    339a:	2705                	addiw	a4,a4,1
    339c:	0306                	slli	t1,t1,0x1
    339e:	0900                	addi	s0,sp,144
    33a0:	0000                	unimp
    33a2:	0501                	addi	a0,a0,0
    33a4:	032c                	addi	a1,sp,392
    33a6:	0900                	addi	s0,sp,144
    33a8:	000c                	0xc
    33aa:	0501                	addi	a0,a0,0
    33ac:	030c                	addi	a1,sp,384
    33ae:	0900                	addi	s0,sp,144
    33b0:	0004                	0x4
    33b2:	0501                	addi	a0,a0,0
    33b4:	0605                	addi	a2,a2,1
    33b6:	08090103          	lb	sp,128(s2)
    33ba:	0100                	addi	s0,sp,128
    33bc:	1005                	c.nop	-31
    33be:	0306                	slli	t1,t1,0x1
    33c0:	0900                	addi	s0,sp,144
    33c2:	0000                	unimp
    33c4:	0501                	addi	a0,a0,0
    33c6:	0308                	addi	a0,sp,384
    33c8:	0900                	addi	s0,sp,144
    33ca:	0008                	0x8
    33cc:	0501                	addi	a0,a0,0
    33ce:	0605                	addi	a2,a2,1
    33d0:	04090403          	lb	s0,64(s2)
    33d4:	0100                	addi	s0,sp,128
    33d6:	0c05                	addi	s8,s8,1
    33d8:	0306                	slli	t1,t1,0x1
    33da:	0900                	addi	s0,sp,144
    33dc:	0000                	unimp
    33de:	0501                	addi	a0,a0,0
    33e0:	0609                	addi	a2,a2,2
    33e2:	04090103          	lb	sp,64(s2)
    33e6:	0100                	addi	s0,sp,128
    33e8:	1105                	addi	sp,sp,-31
    33ea:	0306                	slli	t1,t1,0x1
    33ec:	0900                	addi	s0,sp,144
    33ee:	0000                	unimp
    33f0:	0501                	addi	a0,a0,0
    33f2:	030c                	addi	a1,sp,384
    33f4:	0900                	addi	s0,sp,144
    33f6:	0004                	0x4
    33f8:	0401                	addi	s0,s0,0
    33fa:	0302                	c.slli64	t1
    33fc:	0928                	addi	a0,sp,152
    33fe:	001c                	0x1c
    3400:	0401                	addi	s0,s0,0
    3402:	0501                	addi	a0,a0,0
    3404:	0963030f          	0x963030f
    3408:	0004                	0x4
    340a:	0501                	addi	a0,a0,0
    340c:	0308                	addi	a0,sp,384
    340e:	00080963          	beqz	a6,3420 <_text-0x9fcbe0>
    3412:	0501                	addi	a0,a0,0
    3414:	0609                	addi	a2,a2,2
    3416:	08090e03          	lb	t3,128(s2)
    341a:	0100                	addi	s0,sp,128
    341c:	1c05                	addi	s8,s8,-31
    341e:	0306                	slli	t1,t1,0x1
    3420:	0900                	addi	s0,sp,144
    3422:	0000                	unimp
    3424:	0501                	addi	a0,a0,0
    3426:	0314                	addi	a3,sp,384
    3428:	0900                	addi	s0,sp,144
    342a:	0010                	0x10
    342c:	0501                	addi	a0,a0,0
    342e:	0609                	addi	a2,a2,2
    3430:	04090103          	lb	sp,64(s2)
    3434:	0100                	addi	s0,sp,128
    3436:	1505                	addi	a0,a0,-31
    3438:	0306                	slli	t1,t1,0x1
    343a:	0900                	addi	s0,sp,144
    343c:	0000                	unimp
    343e:	0501                	addi	a0,a0,0
    3440:	0605                	addi	a2,a2,1
    3442:	04090203          	lb	tp,64(s2)
    3446:	0100                	addi	s0,sp,128
    3448:	0905                	addi	s2,s2,1
    344a:	00090103          	lb	sp,0(s2)
    344e:	0100                	addi	s0,sp,128
    3450:	0d05                	addi	s10,s10,1
    3452:	04090103          	lb	sp,64(s2)
    3456:	0100                	addi	s0,sp,128
    3458:	1005                	c.nop	-31
    345a:	0306                	slli	t1,t1,0x1
    345c:	0900                	addi	s0,sp,144
    345e:	0000                	unimp
    3460:	0501                	addi	a0,a0,0
    3462:	0611                	addi	a2,a2,4
    3464:	04090303          	lb	t1,64(s2)
    3468:	0100                	addi	s0,sp,128
    346a:	1b05                	addi	s6,s6,-31
    346c:	0306                	slli	t1,t1,0x1
    346e:	0900                	addi	s0,sp,144
    3470:	0000                	unimp
    3472:	0501                	addi	a0,a0,0
    3474:	0611                	addi	a2,a2,4
    3476:	08090103          	lb	sp,128(s2)
    347a:	0100                	addi	s0,sp,128
    347c:	1305                	addi	t1,t1,-31
    347e:	0306                	slli	t1,t1,0x1
    3480:	0900                	addi	s0,sp,144
    3482:	0000                	unimp
    3484:	0501                	addi	a0,a0,0
    3486:	0611                	addi	a2,a2,4
    3488:	0c090103          	lb	sp,192(s2)
    348c:	0100                	addi	s0,sp,128
    348e:	1b05                	addi	s6,s6,-31
    3490:	0306                	slli	t1,t1,0x1
    3492:	0900                	addi	s0,sp,144
    3494:	0000                	unimp
    3496:	0501                	addi	a0,a0,0
    3498:	060d                	addi	a2,a2,3
    349a:	04090203          	lb	tp,64(s2)
    349e:	0100                	addi	s0,sp,128
    34a0:	1305                	addi	t1,t1,-31
    34a2:	0306                	slli	t1,t1,0x1
    34a4:	0900                	addi	s0,sp,144
    34a6:	0000                	unimp
    34a8:	0501                	addi	a0,a0,0
    34aa:	060d                	addi	a2,a2,3
    34ac:	08090103          	lb	sp,128(s2)
    34b0:	0100                	addi	s0,sp,128
    34b2:	1405                	addi	s0,s0,-31
    34b4:	0306                	slli	t1,t1,0x1
    34b6:	0900                	addi	s0,sp,144
    34b8:	0000                	unimp
    34ba:	0501                	addi	a0,a0,0
    34bc:	0301                	addi	t1,t1,0
    34be:	0906                	slli	s2,s2,0x1
    34c0:	0004                	0x4
    34c2:	0501                	addi	a0,a0,0
    34c4:	0611                	addi	a2,a2,4
    34c6:	28097303          	0x28097303
    34ca:	0100                	addi	s0,sp,128
    34cc:	2405                	addiw	s0,s0,1
    34ce:	0306                	slli	t1,t1,0x1
    34d0:	0900                	addi	s0,sp,144
    34d2:	0000                	unimp
    34d4:	0501                	addi	a0,a0,0
    34d6:	031e                	slli	t1,t1,0x7
    34d8:	0900                	addi	s0,sp,144
    34da:	0004                	0x4
    34dc:	0501                	addi	a0,a0,0
    34de:	0605                	addi	a2,a2,1
    34e0:	08096e03          	lwu	t3,128(s2)
    34e4:	0100                	addi	s0,sp,128
    34e6:	00090103          	lb	sp,0(s2)
    34ea:	0100                	addi	s0,sp,128
    34ec:	1005                	c.nop	-31
    34ee:	0306                	slli	t1,t1,0x1
    34f0:	0900                	addi	s0,sp,144
    34f2:	0000                	unimp
    34f4:	0501                	addi	a0,a0,0
    34f6:	0605                	addi	a2,a2,1
    34f8:	04090103          	lb	sp,64(s2)
    34fc:	0100                	addi	s0,sp,128
    34fe:	0c090103          	lb	sp,192(s2)
    3502:	0100                	addi	s0,sp,128
    3504:	0c05                	addi	s8,s8,1
    3506:	0306                	slli	t1,t1,0x1
    3508:	0900                	addi	s0,sp,144
    350a:	0000                	unimp
    350c:	0501                	addi	a0,a0,0
    350e:	0310                	addi	a2,sp,384
    3510:	0919                	addi	s2,s2,6
    3512:	0004                	0x4
    3514:	0501                	addi	a0,a0,0
    3516:	0626                	slli	a2,a2,0x9
    3518:	04097303          	0x4097303
    351c:	0100                	addi	s0,sp,128
    351e:	2a05                	addiw	s4,s4,1
    3520:	0306                	slli	t1,t1,0x1
    3522:	0900                	addi	s0,sp,144
    3524:	0000                	unimp
    3526:	0501                	addi	a0,a0,0
    3528:	0605                	addi	a2,a2,1
    352a:	04090003          	lb	zero,64(s2)
    352e:	0100                	addi	s0,sp,128
    3530:	0905                	addi	s2,s2,1
    3532:	00090103          	lb	sp,0(s2)
    3536:	0100                	addi	s0,sp,128
    3538:	1105                	addi	sp,sp,-31
    353a:	0306                	slli	t1,t1,0x1
    353c:	0900                	addi	s0,sp,144
    353e:	0000                	unimp
    3540:	0501                	addi	a0,a0,0
    3542:	030c                	addi	a1,sp,384
    3544:	0900                	addi	s0,sp,144
    3546:	0004                	0x4
    3548:	0501                	addi	a0,a0,0
    354a:	0609                	addi	a2,a2,2
    354c:	04090b03          	lb	s6,64(s2)
    3550:	0100                	addi	s0,sp,128
    3552:	0c05                	addi	s8,s8,1
    3554:	0306                	slli	t1,t1,0x1
    3556:	0900                	addi	s0,sp,144
    3558:	0000                	unimp
    355a:	0501                	addi	a0,a0,0
    355c:	060d                	addi	a2,a2,3
    355e:	0c090103          	lb	sp,192(s2)
    3562:	0100                	addi	s0,sp,128
    3564:	0505                	addi	a0,a0,1
    3566:	00095c03          	lhu	s8,0(s2)
    356a:	0100                	addi	s0,sp,128
    356c:	00090103          	lb	sp,0(s2)
    3570:	0100                	addi	s0,sp,128
    3572:	00090203          	lb	tp,0(s2)
    3576:	0100                	addi	s0,sp,128
    3578:	00090203          	lb	tp,0(s2)
    357c:	0100                	addi	s0,sp,128
    357e:	0204                	addi	s1,sp,256
    3580:	00093b03          	ld	s6,0(s2)
    3584:	0100                	addi	s0,sp,128
    3586:	0304                	addi	s1,sp,384
    3588:	0205                	addi	tp,tp,1
    358a:	097f9903          	lh	s2,151(t6)
    358e:	0000                	unimp
    3590:	0501                	addi	a0,a0,0
    3592:	0003060f          	0x3060f
    3596:	0009                	c.nop	2
    3598:	0100                	addi	s0,sp,128
    359a:	0205                	addi	tp,tp,1
    359c:	0306                	slli	t1,t1,0x1
    359e:	0901                	addi	s2,s2,0
    35a0:	0004                	0x4
    35a2:	0501                	addi	a0,a0,0
    35a4:	0003060f          	0x3060f
    35a8:	0009                	c.nop	2
    35aa:	0100                	addi	s0,sp,128
    35ac:	0205                	addi	tp,tp,1
    35ae:	0306                	slli	t1,t1,0x1
    35b0:	0901                	addi	s2,s2,0
    35b2:	0004                	0x4
    35b4:	0501                	addi	a0,a0,0
    35b6:	0003060f          	0x3060f
    35ba:	0009                	c.nop	2
    35bc:	0100                	addi	s0,sp,128
    35be:	0205                	addi	tp,tp,1
    35c0:	0306                	slli	t1,t1,0x1
    35c2:	0901                	addi	s2,s2,0
    35c4:	0004                	0x4
    35c6:	0501                	addi	a0,a0,0
    35c8:	0003060f          	0x3060f
    35cc:	0009                	c.nop	2
    35ce:	0100                	addi	s0,sp,128
    35d0:	0205                	addi	tp,tp,1
    35d2:	0306                	slli	t1,t1,0x1
    35d4:	0901                	addi	s2,s2,0
    35d6:	0004                	0x4
    35d8:	0501                	addi	a0,a0,0
    35da:	0003060f          	0x3060f
    35de:	0009                	c.nop	2
    35e0:	0100                	addi	s0,sp,128
    35e2:	0205                	addi	tp,tp,1
    35e4:	0306                	slli	t1,t1,0x1
    35e6:	0901                	addi	s2,s2,0
    35e8:	0004                	0x4
    35ea:	0501                	addi	a0,a0,0
    35ec:	0003060f          	0x3060f
    35f0:	0009                	c.nop	2
    35f2:	0100                	addi	s0,sp,128
    35f4:	0205                	addi	tp,tp,1
    35f6:	0306                	slli	t1,t1,0x1
    35f8:	0901                	addi	s2,s2,0
    35fa:	0004                	0x4
    35fc:	0501                	addi	a0,a0,0
    35fe:	0610                	addi	a2,sp,768
    3600:	00090003          	lb	zero,0(s2)
    3604:	0100                	addi	s0,sp,128
    3606:	0205                	addi	tp,tp,1
    3608:	0306                	slli	t1,t1,0x1
    360a:	0901                	addi	s2,s2,0
    360c:	0004                	0x4
    360e:	0301                	addi	t1,t1,0
    3610:	0902                	c.slli64	s2
    3612:	0004                	0x4
    3614:	0401                	addi	s0,s0,0
    3616:	0501                	addi	a0,a0,0
    3618:	0305                	addi	t1,t1,1
    361a:	0924                	addi	s1,sp,152
    361c:	0000                	unimp
    361e:	0501                	addi	a0,a0,0
    3620:	0608                	addi	a0,sp,768
    3622:	00090003          	lb	zero,0(s2)
    3626:	0100                	addi	s0,sp,128
    3628:	1805                	addi	a6,a6,-31
    362a:	04091f03          	lh	t5,64(s2)
    362e:	0100                	addi	s0,sp,128
    3630:	0809                	addi	a6,a6,2
    3632:	0000                	unimp
    3634:	0101                	addi	sp,sp,0

Disassembly of section .debug_line_str:

0000000000000000 <.debug_line_str>:
   0:	6d6f682f          	0x6d6f682f
   4:	2f65                	addiw	t5,t5,25
   6:	6e656863          	bltu	a0,t1,6f6 <_text-0x9ff90a>
   a:	696a                	ld	s2,152(sp)
   c:	7579                	lui	a0,0xffffe
   e:	6e61                	lui	t3,0x18
  10:	7365442f          	0x7365442f
  14:	706f746b          	0x706f746b
  18:	2d534f2f          	0x2d534f2f
  1c:	4952                	lw	s2,20(sp)
  1e:	2f564353          	0x2f564353
  22:	7375                	lui	t1,0xffffd
  24:	7265                	lui	tp,0xffff9
  26:	4500                	lw	s0,8(a0)
  28:	746e                	ld	s0,248(sp)
  2a:	7972                	ld	s2,312(sp)
  2c:	532e                	lw	t1,232(sp)
  2e:	5300                	lw	s0,32(a4)
  30:	7379                	lui	t1,0xffffe
  32:	6966                	ld	s2,88(sp)
  34:	656c                	ld	a1,200(a0)
  36:	6554                	ld	a3,136(a0)
  38:	632e7473          	csrrci	s0,0x632,28
  3c:	2e00                	fld	fs0,24(a2)
  3e:	636e692f          	0x636e692f
  42:	756c                	ld	a1,232(a0)
  44:	6564                	ld	s1,200(a0)
  46:	2f2e2e2f          	0x2f2e2e2f
  4a:	2e2e                	fld	ft8,200(sp)
  4c:	636e692f          	0x636e692f
  50:	756c                	ld	a1,232(a0)
  52:	6564                	ld	s1,200(a0)
  54:	5300                	lw	s0,32(a4)
  56:	7379                	lui	t1,0xffffe
  58:	6c6c6163          	bltu	s8,t1,71a <_text-0x9ff8e6>
  5c:	694c                	ld	a1,144(a0)
  5e:	2e62                	fld	ft8,24(sp)
  60:	0068                	addi	a0,sp,12
  62:	63737953          	0x63737953
  66:	6c61                	lui	s8,0x18
  68:	2e6c                	fld	fa1,216(a2)
  6a:	0068                	addi	a0,sp,12
  6c:	7250                	ld	a2,160(a2)
  6e:	6e69                	lui	t3,0x1a
  70:	6674                	ld	a3,200(a2)
  72:	682e                	ld	a6,200(sp)
  74:	5400                	lw	s0,40(s0)
  76:	7079                	c.lui	zero,0xffffe
  78:	2e65                	addiw	t3,t3,25
  7a:	0068                	addi	a0,sp,12
  7c:	694c                	ld	a1,144(a0)
  7e:	4d62                	lw	s10,24(sp)
  80:	6961                	lui	s2,0x18
  82:	2e6e                	fld	ft8,216(sp)
  84:	2f2e0063          	beq	t3,s2,364 <_text-0x9ffc9c>
  88:	2f2e                	fld	ft10,200(sp)
  8a:	6e69                	lui	t3,0x1a
  8c:	64756c63          	bltu	a0,t2,6e4 <_text-0x9ff91c>
  90:	0065                	c.nop	25
  92:	694c                	ld	a1,144(a0)
  94:	4d62                	lw	s10,24(sp)
  96:	6961                	lui	s2,0x18
  98:	2e6e                	fld	ft8,216(sp)
  9a:	0068                	addi	a0,sp,12
  9c:	7250                	ld	a2,160(a2)
  9e:	6e69                	lui	t3,0x1a
  a0:	6674                	ld	a3,200(a2)
  a2:	632e                	ld	t1,200(sp)
  a4:	7500                	ld	s0,40(a0)
  a6:	694c                	ld	a1,144(a0)
  a8:	2e62                	fld	ft8,24(sp)
  aa:	74730063          	beq	t1,t2,7ea <_text-0x9ff816>
  ae:	7461                	lui	s0,0xffff8
  b0:	682e                	ld	a6,200(sp)
  b2:	7500                	ld	s0,40(a0)
  b4:	48726573          	csrrsi	a0,0x487,4
  b8:	6165                	addi	sp,sp,112
  ba:	2e70                	fld	fa2,216(a2)
  bc:	          	beqz	zero,bc <_text-0x9fff44>

Disassembly of section .debug_info:

0000000000000000 <.debug_info>:
       0:	0024                	addi	s1,sp,8
       2:	0000                	unimp
       4:	0005                	c.nop	1
       6:	0801                	addi	a6,a6,0
       8:	0000                	unimp
       a:	0000                	unimp
       c:	0001                	nop
       e:	0000                	unimp
      10:	0000                	unimp
      12:	a000                	fsd	fs0,0(s0)
      14:	0000                	unimp
      16:	0000                	unimp
      18:	2800                	fld	fs0,16(s0)
      1a:	0000                	unimp
      1c:	0000                	unimp
      1e:	0008                	0x8
      20:	0000                	unimp
      22:	0000002f          	0x2f
      26:	8001                	c.srli64	s0
      28:	0894                	addi	a3,sp,80
      2a:	0000                	unimp
      2c:	0005                	c.nop	1
      2e:	0801                	addi	a6,a6,0
      30:	0014                	0x14
      32:	0000                	unimp
      34:	f114                	sd	a3,32(a0)
      36:	0000                	unimp
      38:	1d00                	addi	s0,sp,688
      3a:	0000002f          	0x2f
      3e:	0000                	unimp
      40:	0000                	unimp
      42:	0020                	addi	s0,sp,8
      44:	00a0                	addi	s0,sp,72
      46:	0000                	unimp
      48:	0000                	unimp
      4a:	0174                	addi	a3,sp,140
      4c:	0000                	unimp
      4e:	0000                	unimp
      50:	0000                	unimp
      52:	0072                	c.slli	zero,0x1c
      54:	0000                	unimp
      56:	0105                	addi	sp,sp,1
      58:	a908                	fsd	fa0,16(a0)
      5a:	0000                	unimp
      5c:	0500                	addi	s0,sp,640
      5e:	0702                	c.slli64	a4
      60:	000000c7          	fmsub.s	ft1,ft0,ft0,ft0,rne
      64:	0405                	addi	s0,s0,1
      66:	0000df07          	0xdf07
      6a:	1500                	addi	s0,sp,672
      6c:	3675                	addiw	a2,a2,-3
      6e:	0034                	addi	a3,sp,8
      70:	0705                	addi	a4,a4,1
      72:	4f30                	lw	a2,88(a4)
      74:	0000                	unimp
      76:	0500                	addi	s0,sp,640
      78:	0708                	addi	a0,sp,896
      7a:	00da                	slli	ra,ra,0x16
      7c:	0000                	unimp
      7e:	0105                	addi	sp,sp,1
      80:	ab06                	fsd	ft1,400(sp)
      82:	0000                	unimp
      84:	0500                	addi	s0,sp,640
      86:	0502                	c.slli64	a0
      88:	0041                	c.nop	16
      8a:	0000                	unimp
      8c:	0416                	slli	s0,s0,0x5
      8e:	6905                	lui	s2,0x1
      90:	746e                	ld	s0,248(sp)
      92:	0500                	addi	s0,sp,640
      94:	0508                	addi	a0,sp,640
      96:	0081                	addi	ra,ra,0
      98:	0000                	unimp
      9a:	7709                	lui	a4,0xfffe2
      9c:	0000                	unimp
      9e:	0500                	addi	s0,sp,640
      a0:	0801                	addi	a6,a6,0
      a2:	00b2                	slli	ra,ra,0xc
      a4:	0000                	unimp
      a6:	00007717          	auipc	a4,0x7
      aa:	0a00                	addi	s0,sp,272
      ac:	00000077          	0x77
      b0:	00000093          	li	ra,0
      b4:	00004f0b          	0x4f0b
      b8:	1000                	addi	s0,sp,32
      ba:	1800                	addi	s0,sp,48
      bc:	00a2                	slli	ra,ra,0x8
      be:	0000                	unimp
      c0:	2104                	fld	fs1,0(a0)
      c2:	830d                	srli	a4,a4,0x3
      c4:	0000                	unimp
      c6:	9100                	0x9100
      c8:	0000                	unimp
      ca:	0a00                	addi	s0,sp,272
      cc:	00000077          	0x77
      d0:	000000b3          	add	ra,zero,zero
      d4:	00004f0b          	0x4f0b
      d8:	0900                	addi	s0,sp,144
      da:	1900                	addi	s0,sp,176
      dc:	00000067          	jr	zero # 0 <_text-0xa00000>
      e0:	0501                	addi	a0,a0,0
      e2:	a306                	fsd	ft1,384(sp)
      e4:	0000                	unimp
      e6:	0900                	addi	s0,sp,144
      e8:	a0300003          	lb	zero,-1533(zero) # fffffffffffffa03 <end+0xfffffffffeffda03>
      ec:	0000                	unimp
      ee:	0000                	unimp
      f0:	1a00                	addi	s0,sp,304
      f2:	008a                	slli	ra,ra,0x2
      f4:	0000                	unimp
      f6:	4004                	lw	s1,0(s0)
      f8:	dc06                	sw	ra,56(sp)
      fa:	0000                	unimp
      fc:	1b00                	addi	s0,sp,432
      fe:	00dc                	addi	a5,sp,68
     100:	0000                	unimp
     102:	001c                	0x1c
     104:	7e09                	lui	t3,0xfffe2
     106:	0000                	unimp
     108:	1d00                	addi	s0,sp,688
     10a:	0078                	addi	a4,sp,12
     10c:	0000                	unimp
     10e:	0601                	addi	a2,a2,0
     110:	6405                	lui	s0,0x1
     112:	0000                	unimp
     114:	2000                	fld	fs0,0(s0)
     116:	a000                	fsd	fs0,0(s0)
     118:	0000                	unimp
     11a:	0000                	unimp
     11c:	7400                	ld	s0,40(s0)
     11e:	0001                	nop
     120:	0000                	unimp
     122:	0000                	unimp
     124:	0100                	addi	s0,sp,128
     126:	299c                	fld	fa5,16(a1)
     128:	0f000007          	0xf000007
     12c:	000000b7          	lui	ra,0x0
     130:	6412                	ld	s0,256(sp)
     132:	0000                	unimp
     134:	0c00                	addi	s0,sp,528
     136:	0000                	unimp
     138:	0f00                	addi	s0,sp,912
     13a:	00c2                	slli	ra,ra,0x10
     13c:	0000                	unimp
     13e:	291f 0007 3600      	0x36000007291f
     144:	0000                	unimp
     146:	0e00                	addi	s0,sp,784
     148:	6466                	ld	s0,88(sp)
     14a:	0700                	addi	s0,sp,896
     14c:	0064                	addi	s1,sp,12
     14e:	0000                	unimp
     150:	0060                	addi	s0,sp,12
     152:	0000                	unimp
     154:	621e                	ld	tp,448(sp)
     156:	6675                	lui	a2,0x1d
     158:	0100                	addi	s0,sp,128
     15a:	0a09                	addi	s4,s4,2
     15c:	000000a3          	sb	zero,1(zero) # 1 <_text-0x9fffff>
     160:	9102                	jalr	sp
     162:	0e50                	addi	a2,sp,788
     164:	006e                	c.slli	zero,0x1b
     166:	640a                	ld	s0,128(sp)
     168:	0000                	unimp
     16a:	7400                	ld	s0,40(s0)
     16c:	0000                	unimp
     16e:	0e00                	addi	s0,sp,784
     170:	6466                	ld	s0,88(sp)
     172:	0032                	c.slli	zero,0xc
     174:	640d                	lui	s0,0x3
     176:	0000                	unimp
     178:	e700                	sd	s0,8(a4)
     17a:	0000                	unimp
     17c:	1000                	addi	s0,sp,32
     17e:	0000004b          	fnmsub.s	ft0,ft0,ft0,ft0,rne
     182:	0f01                	addi	t5,t5,0
     184:	2e0a                	fld	ft8,128(sp)
     186:	1f000007          	0x1f000007
     18a:	005f 0000 1601      	0x16010000005f
     190:	3e0a                	fld	ft8,160(sp)
     192:	02000007          	0x2000007
     196:	4091                	li	ra,4
     198:	7e06                	ld	t3,96(sp)
     19a:	38000007          	0x38000007
     19e:	a000                	fsd	fs0,0(s0)
     1a0:	0000                	unimp
     1a2:	0000                	unimp
     1a4:	2800                	fld	fs0,16(s0)
     1a6:	0000                	unimp
     1a8:	0000                	unimp
     1aa:	0000                	unimp
     1ac:	0700                	addi	s0,sp,896
     1ae:	250e                	fld	fa0,192(sp)
     1b0:	0002                	c.slli64	zero
     1b2:	0100                	addi	s0,sp,128
     1b4:	00000797          	auipc	a5,0x0
     1b8:	010e                	slli	sp,sp,0x3
     1ba:	0000                	unimp
     1bc:	8c01                	sub	s0,s0,s0
     1be:	23000007          	0x23000007
     1c2:	0001                	nop
     1c4:	0800                	addi	s0,sp,16
     1c6:	07f5                	addi	a5,a5,29
     1c8:	0000                	unimp
     1ca:	0038                	addi	a4,sp,8
     1cc:	00a0                	addi	s0,sp,72
     1ce:	0000                	unimp
     1d0:	0000                	unimp
     1d2:	0024                	addi	s1,sp,8
     1d4:	0000                	unimp
     1d6:	0000                	unimp
     1d8:	0000                	unimp
     1da:	014a                	slli	sp,sp,0x12
     1dc:	0848                	addi	a0,sp,20
     1de:	0000                	unimp
     1e0:	0140                	addi	s0,sp,132
     1e2:	0000                	unimp
     1e4:	3c01                	addiw	s8,s8,-32
     1e6:	0008                	0x8
     1e8:	4000                	lw	s0,0(s0)
     1ea:	0001                	nop
     1ec:	0100                	addi	s0,sp,128
     1ee:	0830                	addi	a2,sp,24
     1f0:	0000                	unimp
     1f2:	0155                	addi	sp,sp,21
     1f4:	0000                	unimp
     1f6:	2401                	sext.w	s0,s0
     1f8:	0008                	0x8
     1fa:	4000                	lw	s0,0(s0)
     1fc:	0001                	nop
     1fe:	0100                	addi	s0,sp,128
     200:	0818                	addi	a4,sp,16
     202:	0000                	unimp
     204:	016a                	slli	sp,sp,0x1a
     206:	0000                	unimp
     208:	0c01                	addi	s8,s8,0
     20a:	0008                	0x8
     20c:	8700                	0x8700
     20e:	0001                	nop
     210:	0100                	addi	s0,sp,128
     212:	0802                	c.slli64	a6
     214:	0000                	unimp
     216:	019d                	addi	gp,gp,7
     218:	0000                	unimp
     21a:	5402                	lw	s0,32(sp)
     21c:	0008                	0x8
     21e:	0100                	addi	s0,sp,128
     220:	025a                	slli	tp,tp,0x16
     222:	085d                	addi	a6,a6,23
     224:	0000                	unimp
     226:	5b01                	li	s6,-32
     228:	6602                	ld	a2,0(sp)
     22a:	0008                	0x8
     22c:	0100                	addi	s0,sp,128
     22e:	025c                	addi	a5,sp,260
     230:	0000086f          	jal	a6,230 <_text-0x9ffdd0>
     234:	5d01                	li	s10,-32
     236:	7802                	ld	a6,32(sp)
     238:	0008                	0x8
     23a:	0100                	addi	s0,sp,128
     23c:	025e                	slli	tp,tp,0x17
     23e:	0881                	addi	a7,a7,0
     240:	0000                	unimp
     242:	5f01                	li	t5,-32
     244:	8a02                	jr	s4
     246:	0008                	0x8
     248:	0100                	addi	s0,sp,128
     24a:	0061                	c.nop	24
     24c:	0600                	addi	s0,sp,768
     24e:	074e                	slli	a4,a4,0x13
     250:	0000                	unimp
     252:	007c                	addi	a5,sp,12
     254:	00a0                	addi	s0,sp,72
     256:	0000                	unimp
     258:	0000                	unimp
     25a:	0020                	addi	s0,sp,8
     25c:	0000                	unimp
     25e:	0000                	unimp
     260:	0000                	unimp
     262:	0d0a                	slli	s10,s10,0x2
     264:	02e5                	addi	t0,t0,25
     266:	0000                	unimp
     268:	7301                	lui	t1,0xfffe0
     26a:	b3000007          	0xb3000007
     26e:	0001                	nop
     270:	0100                	addi	s0,sp,128
     272:	00000767          	jalr	a4,zero # 0 <_text-0xa00000>
     276:	01c8                	addi	a0,sp,196
     278:	0000                	unimp
     27a:	5c01                	li	s8,-32
     27c:	f1000007          	0xf1000007
     280:	0001                	nop
     282:	1100                	addi	s0,sp,160
     284:	07f5                	addi	a5,a5,29
     286:	0000                	unimp
     288:	007c                	addi	a5,sp,12
     28a:	00a0                	addi	s0,sp,72
     28c:	0000                	unimp
     28e:	0000                	unimp
     290:	000c                	0xc
     292:	0000                	unimp
     294:	015e                	slli	sp,sp,0x17
     296:	0848                	addi	a0,sp,20
     298:	0000                	unimp
     29a:	0205                	addi	tp,tp,1
     29c:	0000                	unimp
     29e:	3c01                	addiw	s8,s8,-32
     2a0:	0008                	0x8
     2a2:	0500                	addi	s0,sp,640
     2a4:	0002                	c.slli64	zero
     2a6:	0100                	addi	s0,sp,128
     2a8:	0830                	addi	a2,sp,24
     2aa:	0000                	unimp
     2ac:	0205                	addi	tp,tp,1
     2ae:	0000                	unimp
     2b0:	2401                	sext.w	s0,s0
     2b2:	0008                	0x8
     2b4:	b300                	fsd	fs0,32(a4)
     2b6:	0001                	nop
     2b8:	0100                	addi	s0,sp,128
     2ba:	0818                	addi	a4,sp,16
     2bc:	0000                	unimp
     2be:	01c8                	addi	a0,sp,196
     2c0:	0000                	unimp
     2c2:	0c01                	addi	s8,s8,0
     2c4:	0008                	0x8
     2c6:	1a00                	addi	s0,sp,304
     2c8:	0002                	c.slli64	zero
     2ca:	0100                	addi	s0,sp,128
     2cc:	0802                	c.slli64	a6
     2ce:	0000                	unimp
     2d0:	0236                	slli	tp,tp,0xd
     2d2:	0000                	unimp
     2d4:	0c12                	slli	s8,s8,0x4
     2d6:	0000                	unimp
     2d8:	0200                	addi	s0,sp,256
     2da:	0854                	addi	a3,sp,20
     2dc:	0000                	unimp
     2de:	5a01                	li	s4,-32
     2e0:	5d02                	lw	s10,32(sp)
     2e2:	0008                	0x8
     2e4:	0100                	addi	s0,sp,128
     2e6:	0866025b          	0x866025b
     2ea:	0000                	unimp
     2ec:	5c01                	li	s8,-32
     2ee:	6f02                	ld	t5,0(sp)
     2f0:	0008                	0x8
     2f2:	0100                	addi	s0,sp,128
     2f4:	025d                	addi	tp,tp,23
     2f6:	0878                	addi	a4,sp,28
     2f8:	0000                	unimp
     2fa:	5e01                	li	t3,-32
     2fc:	8102                	jr	sp
     2fe:	0008                	0x8
     300:	0100                	addi	s0,sp,128
     302:	025f 088a 0000      	0x88a025f
     308:	6101                	addi	sp,sp,0
     30a:	0000                	unimp
     30c:	0600                	addi	s0,sp,768
     30e:	077e                	slli	a4,a4,0x1f
     310:	0000                	unimp
     312:	00b4                	addi	a3,sp,72
     314:	00a0                	addi	s0,sp,72
     316:	0000                	unimp
     318:	0000                	unimp
     31a:	002c                	addi	a1,sp,8
     31c:	0000                	unimp
     31e:	0000                	unimp
     320:	0000                	unimp
     322:	0f0d                	addi	t5,t5,3
     324:	039a                	slli	t2,t2,0x6
     326:	0000                	unimp
     328:	9701                	srai	a4,a4,0x20
     32a:	4c000007          	0x4c000007
     32e:	0002                	c.slli64	zero
     330:	0100                	addi	s0,sp,128
     332:	078c                	addi	a1,sp,960
     334:	0000                	unimp
     336:	0262                	slli	tp,tp,0x18
     338:	0000                	unimp
     33a:	f508                	sd	a0,40(a0)
     33c:	bc000007          	0xbc000007
     340:	a000                	fsd	fs0,0(s0)
     342:	0000                	unimp
     344:	0000                	unimp
     346:	2000                	fld	fs0,0(s0)
     348:	0000                	unimp
     34a:	0000                	unimp
     34c:	0000                	unimp
     34e:	4a00                	lw	s0,16(a2)
     350:	4801                	li	a6,0
     352:	0008                	0x8
     354:	7f00                	ld	s0,56(a4)
     356:	0002                	c.slli64	zero
     358:	0100                	addi	s0,sp,128
     35a:	083c                	addi	a5,sp,24
     35c:	0000                	unimp
     35e:	027f                	0x27f
     360:	0000                	unimp
     362:	3001                	0x3001
     364:	0008                	0x8
     366:	9400                	0x9400
     368:	0002                	c.slli64	zero
     36a:	0100                	addi	s0,sp,128
     36c:	0824                	addi	s1,sp,24
     36e:	0000                	unimp
     370:	02a9                	addi	t0,t0,10
     372:	0000                	unimp
     374:	1801                	addi	a6,a6,-32
     376:	0008                	0x8
     378:	bf00                	fsd	fs0,56(a4)
     37a:	0002                	c.slli64	zero
     37c:	0100                	addi	s0,sp,128
     37e:	080c                	addi	a1,sp,16
     380:	0000                	unimp
     382:	02dc                	addi	a5,sp,324
     384:	0000                	unimp
     386:	0201                	addi	tp,tp,0
     388:	0008                	0x8
     38a:	f200                	sd	s0,32(a2)
     38c:	0002                	c.slli64	zero
     38e:	0200                	addi	s0,sp,256
     390:	0854                	addi	a3,sp,20
     392:	0000                	unimp
     394:	5a01                	li	s4,-32
     396:	5d02                	lw	s10,32(sp)
     398:	0008                	0x8
     39a:	0100                	addi	s0,sp,128
     39c:	0866025b          	0x866025b
     3a0:	0000                	unimp
     3a2:	5c01                	li	s8,-32
     3a4:	6f02                	ld	t5,0(sp)
     3a6:	0008                	0x8
     3a8:	0100                	addi	s0,sp,128
     3aa:	025d                	addi	tp,tp,23
     3ac:	0878                	addi	a4,sp,28
     3ae:	0000                	unimp
     3b0:	5e01                	li	t3,-32
     3b2:	8102                	jr	sp
     3b4:	0008                	0x8
     3b6:	0100                	addi	s0,sp,128
     3b8:	025f 088a 0000      	0x88a025f
     3be:	6101                	addi	sp,sp,0
     3c0:	0000                	unimp
     3c2:	bd06                	fsd	ft1,184(sp)
     3c4:	f4000007          	0xf4000007
     3c8:	a000                	fsd	fs0,0(s0)
     3ca:	0000                	unimp
     3cc:	0000                	unimp
     3ce:	2400                	fld	fs0,8(s0)
     3d0:	0000                	unimp
     3d2:	0000                	unimp
     3d4:	0000                	unimp
     3d6:	1000                	addi	s0,sp,32
     3d8:	5809                	li	a6,-30
     3da:	0004                	0x4
     3dc:	0100                	addi	s0,sp,128
     3de:	07e2                	slli	a5,a5,0x18
     3e0:	0000                	unimp
     3e2:	0308                	addi	a0,sp,384
     3e4:	0000                	unimp
     3e6:	d601                	beqz	a2,2ee <_text-0x9ffd12>
     3e8:	1d000007          	0x1d000007
     3ec:	01000003          	lb	zero,16(zero) # 10 <_text-0x9ffff0>
     3f0:	000007cb          	fnmsub.s	fa5,ft0,ft0,ft0,rne
     3f4:	033a                	slli	t1,t1,0xe
     3f6:	0000                	unimp
     3f8:	f508                	sd	a0,40(a0)
     3fa:	f4000007          	0xf4000007
     3fe:	a000                	fsd	fs0,0(s0)
     400:	0000                	unimp
     402:	0000                	unimp
     404:	2400                	fld	fs0,8(s0)
     406:	0000                	unimp
     408:	0000                	unimp
     40a:	0000                	unimp
     40c:	3600                	fld	fs0,40(a2)
     40e:	4801                	li	a6,0
     410:	0008                	0x8
     412:	4e00                	lw	s0,24(a2)
     414:	01000003          	lb	zero,16(zero) # 10 <_text-0x9ffff0>
     418:	083c                	addi	a5,sp,24
     41a:	0000                	unimp
     41c:	034e                	slli	t1,t1,0x13
     41e:	0000                	unimp
     420:	3001                	0x3001
     422:	0008                	0x8
     424:	4e00                	lw	s0,24(a2)
     426:	01000003          	lb	zero,16(zero) # 10 <_text-0x9ffff0>
     42a:	0824                	addi	s1,sp,24
     42c:	0000                	unimp
     42e:	0308                	addi	a0,sp,384
     430:	0000                	unimp
     432:	1801                	addi	a6,a6,-32
     434:	0008                	0x8
     436:	1d00                	addi	s0,sp,688
     438:	01000003          	lb	zero,16(zero) # 10 <_text-0x9ffff0>
     43c:	080c                	addi	a1,sp,16
     43e:	0000                	unimp
     440:	033a                	slli	t1,t1,0xe
     442:	0000                	unimp
     444:	0201                	addi	tp,tp,0
     446:	0008                	0x8
     448:	6300                	ld	s0,0(a4)
     44a:	02000003          	lb	zero,32(zero) # 20 <_text-0x9fffe0>
     44e:	0854                	addi	a3,sp,20
     450:	0000                	unimp
     452:	5a01                	li	s4,-32
     454:	5d02                	lw	s10,32(sp)
     456:	0008                	0x8
     458:	0100                	addi	s0,sp,128
     45a:	0866025b          	0x866025b
     45e:	0000                	unimp
     460:	5c01                	li	s8,-32
     462:	6f02                	ld	t5,0(sp)
     464:	0008                	0x8
     466:	0100                	addi	s0,sp,128
     468:	025d                	addi	tp,tp,23
     46a:	0878                	addi	a4,sp,28
     46c:	0000                	unimp
     46e:	5e01                	li	t3,-32
     470:	8102                	jr	sp
     472:	0008                	0x8
     474:	0100                	addi	s0,sp,128
     476:	025f 088a 0000      	0x88a025f
     47c:	6101                	addi	sp,sp,0
     47e:	0000                	unimp
     480:	a306                	fsd	ft1,384(sp)
     482:	2c000007          	0x2c000007
     486:	a001                	j	486 <_text-0x9ffb7a>
     488:	0000                	unimp
     48a:	0000                	unimp
     48c:	2000                	fld	fs0,0(s0)
     48e:	0000                	unimp
     490:	0000                	unimp
     492:	0000                	unimp
     494:	1300                	addi	s0,sp,416
     496:	0405                	addi	s0,s0,1
     498:	0005                	c.nop	1
     49a:	0100                	addi	s0,sp,128
     49c:	07b1                	addi	a5,a5,12
     49e:	0000                	unimp
     4a0:	0379                	addi	t1,t1,30
     4a2:	0000                	unimp
     4a4:	f508                	sd	a0,40(a0)
     4a6:	2c000007          	0x2c000007
     4aa:	a001                	j	4aa <_text-0x9ffb56>
     4ac:	0000                	unimp
     4ae:	0000                	unimp
     4b0:	2000                	fld	fs0,0(s0)
     4b2:	0000                	unimp
     4b4:	0000                	unimp
     4b6:	0000                	unimp
     4b8:	4600                	lw	s0,8(a2)
     4ba:	4801                	li	a6,0
     4bc:	0008                	0x8
     4be:	8d00                	0x8d00
     4c0:	01000003          	lb	zero,16(zero) # 10 <_text-0x9ffff0>
     4c4:	083c                	addi	a5,sp,24
     4c6:	0000                	unimp
     4c8:	038d                	addi	t2,t2,3
     4ca:	0000                	unimp
     4cc:	3001                	0x3001
     4ce:	0008                	0x8
     4d0:	8d00                	0x8d00
     4d2:	01000003          	lb	zero,16(zero) # 10 <_text-0x9ffff0>
     4d6:	0824                	addi	s1,sp,24
     4d8:	0000                	unimp
     4da:	038d                	addi	t2,t2,3
     4dc:	0000                	unimp
     4de:	1801                	addi	a6,a6,-32
     4e0:	0008                	0x8
     4e2:	8d00                	0x8d00
     4e4:	01000003          	lb	zero,16(zero) # 10 <_text-0x9ffff0>
     4e8:	080c                	addi	a1,sp,16
     4ea:	0000                	unimp
     4ec:	0379                	addi	t1,t1,30
     4ee:	0000                	unimp
     4f0:	0201                	addi	tp,tp,0
     4f2:	0008                	0x8
     4f4:	a200                	fsd	fs0,0(a2)
     4f6:	02000003          	lb	zero,32(zero) # 20 <_text-0x9fffe0>
     4fa:	0854                	addi	a3,sp,20
     4fc:	0000                	unimp
     4fe:	5a01                	li	s4,-32
     500:	5d02                	lw	s10,32(sp)
     502:	0008                	0x8
     504:	0100                	addi	s0,sp,128
     506:	0866025b          	0x866025b
     50a:	0000                	unimp
     50c:	5c01                	li	s8,-32
     50e:	6f02                	ld	t5,0(sp)
     510:	0008                	0x8
     512:	0100                	addi	s0,sp,128
     514:	025d                	addi	tp,tp,23
     516:	0878                	addi	a4,sp,28
     518:	0000                	unimp
     51a:	5e01                	li	t3,-32
     51c:	8102                	jr	sp
     51e:	0008                	0x8
     520:	0100                	addi	s0,sp,128
     522:	025f 088a 0000      	0x88a025f
     528:	6101                	addi	sp,sp,0
     52a:	0000                	unimp
     52c:	7e06                	ld	t3,96(sp)
     52e:	4c000007          	0x4c000007
     532:	a001                	j	532 <_text-0x9fface>
     534:	0000                	unimp
     536:	0000                	unimp
     538:	1400                	addi	s0,sp,544
     53a:	0000                	unimp
     53c:	0000                	unimp
     53e:	0000                	unimp
     540:	1500                	addi	s0,sp,672
     542:	0005b90b          	0x5b90b
     546:	0100                	addi	s0,sp,128
     548:	00000797          	auipc	a5,0x0
     54c:	03b8                	addi	a4,sp,456
     54e:	0000                	unimp
     550:	8c01                	sub	s0,s0,s0
     552:	cd000007          	0xcd000007
     556:	08000003          	lb	zero,128(zero) # 80 <_text-0x9fff80>
     55a:	07f5                	addi	a5,a5,29
     55c:	0000                	unimp
     55e:	014c                	addi	a1,sp,132
     560:	00a0                	addi	s0,sp,72
     562:	0000                	unimp
     564:	0000                	unimp
     566:	0014                	0x14
     568:	0000                	unimp
     56a:	0000                	unimp
     56c:	0000                	unimp
     56e:	014a                	slli	sp,sp,0x12
     570:	0848                	addi	a0,sp,20
     572:	0000                	unimp
     574:	03b8                	addi	a4,sp,456
     576:	0000                	unimp
     578:	3c01                	addiw	s8,s8,-32
     57a:	0008                	0x8
     57c:	b800                	fsd	fs0,48(s0)
     57e:	01000003          	lb	zero,16(zero) # 10 <_text-0x9ffff0>
     582:	0830                	addi	a2,sp,24
     584:	0000                	unimp
     586:	03ea                	slli	t2,t2,0x1a
     588:	0000                	unimp
     58a:	2401                	sext.w	s0,s0
     58c:	0008                	0x8
     58e:	b800                	fsd	fs0,48(s0)
     590:	01000003          	lb	zero,16(zero) # 10 <_text-0x9ffff0>
     594:	0818                	addi	a4,sp,16
     596:	0000                	unimp
     598:	03cd                	addi	t2,t2,19
     59a:	0000                	unimp
     59c:	0c01                	addi	s8,s8,0
     59e:	0008                	0x8
     5a0:	ff00                	sd	s0,56(a4)
     5a2:	01000003          	lb	zero,16(zero) # 10 <_text-0x9ffff0>
     5a6:	0802                	c.slli64	a6
     5a8:	0000                	unimp
     5aa:	0415                	addi	s0,s0,5
     5ac:	0000                	unimp
     5ae:	5402                	lw	s0,32(sp)
     5b0:	0008                	0x8
     5b2:	0100                	addi	s0,sp,128
     5b4:	025a                	slli	tp,tp,0x16
     5b6:	085d                	addi	a6,a6,23
     5b8:	0000                	unimp
     5ba:	5b01                	li	s6,-32
     5bc:	6602                	ld	a2,0(sp)
     5be:	0008                	0x8
     5c0:	0100                	addi	s0,sp,128
     5c2:	025c                	addi	a5,sp,260
     5c4:	0000086f          	jal	a6,5c4 <_text-0x9ffa3c>
     5c8:	5d01                	li	s10,-32
     5ca:	7802                	ld	a6,32(sp)
     5cc:	0008                	0x8
     5ce:	0100                	addi	s0,sp,128
     5d0:	025e                	slli	tp,tp,0x17
     5d2:	0881                	addi	a7,a7,0
     5d4:	0000                	unimp
     5d6:	5f01                	li	t5,-32
     5d8:	8a02                	jr	s4
     5da:	0008                	0x8
     5dc:	0100                	addi	s0,sp,128
     5de:	0061                	c.nop	24
     5e0:	0600                	addi	s0,sp,768
     5e2:	074e                	slli	a4,a4,0x13
     5e4:	0000                	unimp
     5e6:	0160                	addi	s0,sp,140
     5e8:	00a0                	addi	s0,sp,72
     5ea:	0000                	unimp
     5ec:	0000                	unimp
     5ee:	0018                	0x18
     5f0:	0000                	unimp
     5f2:	0000                	unimp
     5f4:	0000                	unimp
     5f6:	06790a17          	auipc	s4,0x6790
     5fa:	0000                	unimp
     5fc:	7301                	lui	t1,0xfffe0
     5fe:	2b000007          	0x2b000007
     602:	0004                	0x4
     604:	0100                	addi	s0,sp,128
     606:	00000767          	jalr	a4,zero # 0 <_text-0xa00000>
     60a:	0440                	addi	s0,sp,516
     60c:	0000                	unimp
     60e:	5c01                	li	s8,-32
     610:	69000007          	0x69000007
     614:	0004                	0x4
     616:	1100                	addi	s0,sp,160
     618:	07f5                	addi	a5,a5,29
     61a:	0000                	unimp
     61c:	0160                	addi	s0,sp,140
     61e:	00a0                	addi	s0,sp,72
     620:	0000                	unimp
     622:	0000                	unimp
     624:	0000002f          	0x2f
     628:	015e                	slli	sp,sp,0x17
     62a:	0848                	addi	a0,sp,20
     62c:	0000                	unimp
     62e:	047d                	addi	s0,s0,31
     630:	0000                	unimp
     632:	3c01                	addiw	s8,s8,-32
     634:	0008                	0x8
     636:	7d00                	ld	s0,56(a0)
     638:	0004                	0x4
     63a:	0100                	addi	s0,sp,128
     63c:	0830                	addi	a2,sp,24
     63e:	0000                	unimp
     640:	047d                	addi	s0,s0,31
     642:	0000                	unimp
     644:	2401                	sext.w	s0,s0
     646:	0008                	0x8
     648:	2b00                	fld	fs0,16(a4)
     64a:	0004                	0x4
     64c:	0100                	addi	s0,sp,128
     64e:	0818                	addi	a4,sp,16
     650:	0000                	unimp
     652:	0440                	addi	s0,sp,516
     654:	0000                	unimp
     656:	0c01                	addi	s8,s8,0
     658:	0008                	0x8
     65a:	9200                	0x9200
     65c:	0004                	0x4
     65e:	0100                	addi	s0,sp,128
     660:	0802                	c.slli64	a6
     662:	0000                	unimp
     664:	04c1                	addi	s1,s1,16
     666:	0000                	unimp
     668:	2f12                	fld	ft10,256(sp)
     66a:	0000                	unimp
     66c:	0200                	addi	s0,sp,256
     66e:	0854                	addi	a3,sp,20
     670:	0000                	unimp
     672:	5a01                	li	s4,-32
     674:	5d02                	lw	s10,32(sp)
     676:	0008                	0x8
     678:	0100                	addi	s0,sp,128
     67a:	0866025b          	0x866025b
     67e:	0000                	unimp
     680:	5c01                	li	s8,-32
     682:	6f02                	ld	t5,0(sp)
     684:	0008                	0x8
     686:	0100                	addi	s0,sp,128
     688:	025d                	addi	tp,tp,23
     68a:	0878                	addi	a4,sp,28
     68c:	0000                	unimp
     68e:	5e01                	li	t3,-32
     690:	8102                	jr	sp
     692:	0008                	0x8
     694:	0100                	addi	s0,sp,128
     696:	025f 088a 0000      	0x88a025f
     69c:	6101                	addi	sp,sp,0
     69e:	0000                	unimp
     6a0:	0c00                	addi	s0,sp,528
     6a2:	0074                	addi	a3,sp,12
     6a4:	00a0                	addi	s0,sp,72
     6a6:	0000                	unimp
     6a8:	0000                	unimp
     6aa:	00c9                	addi	ra,ra,18
     6ac:	0000                	unimp
     6ae:	069e                	slli	a3,a3,0x7
     6b0:	0000                	unimp
     6b2:	0104                	addi	s1,sp,128
     6b4:	095a                	slli	s2,s2,0x16
     6b6:	a021b803          	ld	a6,-1534(gp)
     6ba:	0000                	unimp
     6bc:	0000                	unimp
     6be:	0400                	addi	s0,sp,512
     6c0:	5b01                	li	s6,-32
     6c2:	7902                	ld	s2,32(sp)
     6c4:	0000                	unimp
     6c6:	b40c                	fsd	fa1,40(s0)
     6c8:	a000                	fsd	fs0,0(s0)
     6ca:	0000                	unimp
     6cc:	0000                	unimp
     6ce:	c900                	sw	s0,16(a0)
     6d0:	0000                	unimp
     6d2:	c300                	sw	s0,0(a4)
     6d4:	0006                	c.slli	zero,0x1
     6d6:	0400                	addi	s0,sp,512
     6d8:	5a01                	li	s4,-32
     6da:	0309                	addi	t1,t1,2
     6dc:	21c0                	fld	fs0,128(a1)
     6de:	00a0                	addi	s0,sp,72
     6e0:	0000                	unimp
     6e2:	0000                	unimp
     6e4:	0104                	addi	s1,sp,128
     6e6:	025c                	addi	a5,sp,260
     6e8:	5078                	lw	a4,100(s0)
     6ea:	0c00                	addi	s0,sp,528
     6ec:	00f4                	addi	a3,sp,76
     6ee:	00a0                	addi	s0,sp,72
     6f0:	0000                	unimp
     6f2:	0000                	unimp
     6f4:	00c9                	addi	ra,ra,18
     6f6:	0000                	unimp
     6f8:	06e8                	addi	a0,sp,844
     6fa:	0000                	unimp
     6fc:	0104                	addi	s1,sp,128
     6fe:	095a                	slli	s2,s2,0x16
     700:	a021f003          	0xa021f003
     704:	0000                	unimp
     706:	0000                	unimp
     708:	0400                	addi	s0,sp,512
     70a:	5b01                	li	s6,-32
     70c:	7902                	ld	s2,32(sp)
     70e:	0000                	unimp
     710:	2c0c                	fld	fa1,24(s0)
     712:	a001                	j	712 <_text-0x9ff8ee>
     714:	0000                	unimp
     716:	0000                	unimp
     718:	c900                	sw	s0,16(a0)
     71a:	0000                	unimp
     71c:	0700                	addi	s0,sp,896
     71e:	04000007          	0x4000007
     722:	5a01                	li	s4,-32
     724:	0309                	addi	t1,t1,2
     726:	2208                	fld	fa0,0(a2)
     728:	00a0                	addi	s0,sp,72
     72a:	0000                	unimp
     72c:	0000                	unimp
     72e:	2000                	fld	fs0,0(s0)
     730:	0190                	addi	a2,sp,192
     732:	00a0                	addi	s0,sp,72
     734:	0000                	unimp
     736:	0000                	unimp
     738:	00c9                	addi	ra,ra,18
     73a:	0000                	unimp
     73c:	0104                	addi	s1,sp,128
     73e:	095a                	slli	s2,s2,0x16
     740:	a021c003          	lbu	zero,-1534(gp)
     744:	0000                	unimp
     746:	0000                	unimp
     748:	0400                	addi	s0,sp,512
     74a:	5c01                	li	s8,-32
     74c:	7802                	ld	a6,32(sp)
     74e:	0040                	addi	s0,sp,4
     750:	0900                	addi	s0,sp,144
     752:	0072                	c.slli	zero,0x1c
     754:	0000                	unimp
     756:	770a                	ld	a4,160(sp)
     758:	0000                	unimp
     75a:	3e00                	fld	fs0,56(a2)
     75c:	0b000007          	0xb000007
     760:	0000004f          	fnmadd.s	ft0,ft0,ft0,ft0,rne
     764:	000e                	c.slli	zero,0x3
     766:	770a                	ld	a4,160(sp)
     768:	0000                	unimp
     76a:	4e00                	lw	s0,24(a2)
     76c:	0b000007          	0xb000007
     770:	0000004f          	fnmadd.s	ft0,ft0,ft0,ft0,rne
     774:	620d000f          	0x620d000f
     778:	0000                	unimp
     77a:	5d00                	lw	s0,56(a0)
     77c:	0064                	addi	s1,sp,12
     77e:	0000                	unimp
     780:	077e                	slli	a4,a4,0x1f
     782:	0000                	unimp
     784:	00646603          	lwu	a2,6(s0) # 3006 <_text-0x9fcffa>
     788:	5d02                	lw	s10,32(sp)
     78a:	641c                	ld	a5,8(s0)
     78c:	0000                	unimp
     78e:	0300                	addi	s0,sp,384
     790:	7562                	ld	a0,56(sp)
     792:	0066                	c.slli	zero,0x19
     794:	5d02                	lw	s10,32(sp)
     796:	dc2c                	sw	a1,120(s0)
     798:	0000                	unimp
     79a:	0300                	addi	s0,sp,384
     79c:	006e                	c.slli	zero,0x1b
     79e:	5d02                	lw	s10,32(sp)
     7a0:	6435                	lui	s0,0xd
     7a2:	0000                	unimp
     7a4:	0000                	unimp
     7a6:	a70d                	j	ec8 <_text-0x9ff138>
     7a8:	0001                	nop
     7aa:	4900                	lw	s0,16(a0)
     7ac:	0064                	addi	s1,sp,12
     7ae:	0000                	unimp
     7b0:	000007a3          	sb	zero,15(zero) # f <_text-0x9ffff1>
     7b4:	0000ec13          	ori	s8,ra,0
     7b8:	4900                	lw	s0,16(a0)
     7ba:	dc24                	sw	s1,120(s0)
     7bc:	0000                	unimp
     7be:	1300                	addi	s0,sp,416
     7c0:	00bc                	addi	a5,sp,72
     7c2:	0000                	unimp
     7c4:	2e49                	addiw	t3,t3,18
     7c6:	0064                	addi	s1,sp,12
     7c8:	0000                	unimp
     7ca:	0d00                	addi	s0,sp,656
     7cc:	0000003b          	addw	zero,zero,zero
     7d0:	6445                	lui	s0,0x11
     7d2:	0000                	unimp
     7d4:	bd00                	fsd	fs0,56(a0)
     7d6:	03000007          	0x3000007
     7da:	6466                	ld	s0,88(sp)
     7dc:	0200                	addi	s0,sp,256
     7de:	1d45                	addi	s10,s10,-15
     7e0:	0064                	addi	s1,sp,12
     7e2:	0000                	unimp
     7e4:	0d00                	addi	s0,sp,656
     7e6:	004e                	c.slli	zero,0x13
     7e8:	0000                	unimp
     7ea:	6435                	lui	s0,0xd
     7ec:	0000                	unimp
     7ee:	ef00                	sd	s0,24(a4)
     7f0:	03000007          	0x3000007
     7f4:	6466                	ld	s0,88(sp)
     7f6:	0200                	addi	s0,sp,256
     7f8:	1d35                	addi	s10,s10,-19
     7fa:	0064                	addi	s1,sp,12
     7fc:	0000                	unimp
     7fe:	63727303          	0x63727303
     802:	0200                	addi	s0,sp,256
     804:	2d35                	addiw	s10,s10,13
     806:	000007ef          	jal	a5,806 <_text-0x9ff7fa>
     80a:	6e656c03          	lwu	s8,1766(a0) # ffffffffffffe6e6 <end+0xfffffffffeffc6e6>
     80e:	0200                	addi	s0,sp,256
     810:	3635                	addiw	a2,a2,-19
     812:	0064                	addi	s1,sp,12
     814:	0000                	unimp
     816:	0900                	addi	s0,sp,144
     818:	07f4                	addi	a3,sp,972
     81a:	0000                	unimp
     81c:	2221                	addiw	tp,tp,8
     81e:	0000006f          	j	81e <_text-0x9ff7e2>
     822:	43130603          	lb	a2,1073(t1) # fffffffffffe0431 <end+0xfffffffffefde431>
     826:	0000                	unimp
     828:	0300                	addi	s0,sp,384
     82a:	03006e03          	lwu	t3,48(zero) # 30 <_text-0x9fffd0>
     82e:	2106                	fld	ft2,64(sp)
     830:	0000006b          	0x6b
     834:	30615f03          	lhu	t5,774(sp)
     838:	0300                	addi	s0,sp,384
     83a:	2806                	fld	fa6,64(sp)
     83c:	00000043          	fmadd.s	ft0,ft0,ft0,ft0,rne
     840:	31615f03          	lhu	t5,790(sp)
     844:	0300                	addi	s0,sp,384
     846:	3106                	fld	ft2,96(sp)
     848:	00000043          	fmadd.s	ft0,ft0,ft0,ft0,rne
     84c:	32615f03          	lhu	t5,806(sp)
     850:	0300                	addi	s0,sp,384
     852:	3a06                	fld	fs4,96(sp)
     854:	00000043          	fmadd.s	ft0,ft0,ft0,ft0,rne
     858:	33615f03          	lhu	t5,822(sp)
     85c:	0300                	addi	s0,sp,384
     85e:	00430307          	0x430307
     862:	0000                	unimp
     864:	34615f03          	lhu	t5,838(sp)
     868:	0300                	addi	s0,sp,384
     86a:	00430c07          	0x430c07
     86e:	0000                	unimp
     870:	35615f03          	lhu	t5,854(sp)
     874:	0300                	addi	s0,sp,384
     876:	00431507          	0x431507
     87a:	0000                	unimp
     87c:	00306107          	0x306107
     880:	4308                	lw	a0,0(a4)
     882:	0000                	unimp
     884:	0700                	addi	s0,sp,896
     886:	3161                	addiw	sp,sp,-8
     888:	0900                	addi	s0,sp,144
     88a:	00000043          	fmadd.s	ft0,ft0,ft0,ft0,rne
     88e:	00326107          	0x326107
     892:	430a                	lw	t1,128(sp)
     894:	0000                	unimp
     896:	0700                	addi	s0,sp,896
     898:	3361                	addiw	t1,t1,-8
     89a:	0b00                	addi	s0,sp,400
     89c:	00000043          	fmadd.s	ft0,ft0,ft0,ft0,rne
     8a0:	00346107          	0x346107
     8a4:	430c                	lw	a1,0(a4)
     8a6:	0000                	unimp
     8a8:	0700                	addi	s0,sp,896
     8aa:	3561                	addiw	a0,a0,-8
     8ac:	0d00                	addi	s0,sp,656
     8ae:	00000043          	fmadd.s	ft0,ft0,ft0,ft0,rne
     8b2:	5410                	lw	a2,40(s0)
     8b4:	0000                	unimp
     8b6:	0300                	addi	s0,sp,384
     8b8:	100e                	c.slli	zero,0x23
     8ba:	0000006b          	0x6b
     8be:	0000                	unimp
     8c0:	00000297          	auipc	t0,0x0
     8c4:	0005                	c.nop	1
     8c6:	0801                	addi	a6,a6,0
     8c8:	000001fb          	0x1fb
     8cc:	f109                	bnez	a0,7ce <_text-0x9ff832>
     8ce:	0000                	unimp
     8d0:	1d00                	addi	s0,sp,688
     8d2:	007c                	addi	a5,sp,12
     8d4:	0000                	unimp
     8d6:	0000                	unimp
     8d8:	0000                	unimp
     8da:	0194                	addi	a3,sp,192
     8dc:	00a0                	addi	s0,sp,72
     8de:	0000                	unimp
     8e0:	0000                	unimp
     8e2:	0044                	addi	s1,sp,4
     8e4:	0000                	unimp
     8e6:	0000                	unimp
     8e8:	0000                	unimp
     8ea:	0585                	addi	a1,a1,1
     8ec:	0000                	unimp
     8ee:	0101                	addi	sp,sp,0
     8f0:	a908                	fsd	fa0,16(a0)
     8f2:	0000                	unimp
     8f4:	0100                	addi	s0,sp,128
     8f6:	0702                	c.slli64	a4
     8f8:	000000c7          	fmsub.s	ft1,ft0,ft0,ft0,rne
     8fc:	0401                	addi	s0,s0,0
     8fe:	0000df07          	0xdf07
     902:	0a00                	addi	s0,sp,272
     904:	3675                	addiw	a2,a2,-3
     906:	0034                	addi	a3,sp,8
     908:	0704                	addi	s1,sp,896
     90a:	4f30                	lw	a2,88(a4)
     90c:	0000                	unimp
     90e:	0100                	addi	s0,sp,128
     910:	0708                	addi	a0,sp,896
     912:	00da                	slli	ra,ra,0x16
     914:	0000                	unimp
     916:	0101                	addi	sp,sp,0
     918:	ab06                	fsd	ft1,400(sp)
     91a:	0000                	unimp
     91c:	0100                	addi	s0,sp,128
     91e:	0502                	c.slli64	a0
     920:	0041                	c.nop	16
     922:	0000                	unimp
     924:	6905040b          	0x6905040b
     928:	746e                	ld	s0,248(sp)
     92a:	0100                	addi	s0,sp,128
     92c:	0508                	addi	a0,sp,640
     92e:	0081                	addi	ra,ra,0
     930:	0000                	unimp
     932:	00007707          	0x7707
     936:	0100                	addi	s0,sp,128
     938:	0801                	addi	a6,a6,0
     93a:	00b2                	slli	ra,ra,0xc
     93c:	0000                	unimp
     93e:	770c                	ld	a1,40(a4)
     940:	0000                	unimp
     942:	8e00                	0x8e00
     944:	0000                	unimp
     946:	0d00                	addi	s0,sp,656
     948:	0000004f          	fnmadd.s	ft0,ft0,ft0,ft0,rne
     94c:	0010                	0x10
     94e:	a20e                	fsd	ft3,256(sp)
     950:	0000                	unimp
     952:	0500                	addi	s0,sp,640
     954:	0d21                	addi	s10,s10,8
     956:	007e                	c.slli	zero,0x1f
     958:	0000                	unimp
     95a:	0091                	addi	ra,ra,4
     95c:	0000                	unimp
     95e:	0000780f          	0x780f
     962:	0600                	addi	s0,sp,768
     964:	0504                	addi	s1,sp,640
     966:	0064                	addi	s1,sp,12
     968:	0000                	unimp
     96a:	00b9                	addi	ra,ra,14
     96c:	0000                	unimp
     96e:	6408                	ld	a0,8(s0)
     970:	0000                	unimp
     972:	0800                	addi	s0,sp,16
     974:	00b9                	addi	ra,ra,14
     976:	0000                	unimp
     978:	0700                	addi	s0,sp,896
     97a:	0072                	c.slli	zero,0x1c
     97c:	0000                	unimp
     97e:	b610                	fsd	fa2,40(a2)
     980:	0001                	nop
     982:	0100                	addi	s0,sp,128
     984:	0606                	slli	a2,a2,0x1
     986:	0194                	addi	a3,sp,192
     988:	00a0                	addi	s0,sp,72
     98a:	0000                	unimp
     98c:	0000                	unimp
     98e:	0044                	addi	s1,sp,4
     990:	0000                	unimp
     992:	0000                	unimp
     994:	0000                	unimp
     996:	9c01                	subw	s0,s0,s0
     998:	000001db          	0x1db
     99c:	b706                	fsd	ft1,424(sp)
     99e:	0000                	unimp
     9a0:	1200                	addi	s0,sp,288
     9a2:	0064                	addi	s1,sp,12
     9a4:	0000                	unimp
     9a6:	000004e3          	beqz	zero,11ae <_text-0x9fee52>
     9aa:	c206                	sw	ra,4(sp)
     9ac:	0000                	unimp
     9ae:	1f00                	addi	s0,sp,944
     9b0:	00b9                	addi	ra,ra,14
     9b2:	0000                	unimp
     9b4:	050d                	addi	a0,a0,3
     9b6:	0000                	unimp
     9b8:	ac06                	fsd	ft1,24(sp)
     9ba:	0001                	nop
     9bc:	2c00                	fld	fs0,24(s0)
     9be:	00b9                	addi	ra,ra,14
     9c0:	0000                	unimp
     9c2:	00000537          	lui	a0,0x0
     9c6:	7211                	lui	tp,0xfffe4
     9c8:	7465                	lui	s0,0xffff9
     9ca:	0100                	addi	s0,sp,128
     9cc:	00640907          	0x640907
     9d0:	0000                	unimp
     9d2:	0561                	addi	a0,a0,24
     9d4:	0000                	unimp
     9d6:	db12                	sw	tp,180(sp)
     9d8:	0001                	nop
     9da:	ac00                	fsd	fs0,24(s0)
     9dc:	a001                	j	9dc <_text-0x9ff624>
     9de:	0000                	unimp
     9e0:	0000                	unimp
     9e2:	1c00                	addi	s0,sp,560
     9e4:	0000                	unimp
     9e6:	0000                	unimp
     9e8:	0000                	unimp
     9ea:	0100                	addi	s0,sp,128
     9ec:	0508                	addi	a0,sp,640
     9ee:	01c5                	addi	gp,gp,17
     9f0:	0000                	unimp
     9f2:	ec02                	sd	zero,24(sp)
     9f4:	0001                	nop
     9f6:	6100                	ld	s0,0(a0)
     9f8:	0005                	c.nop	1
     9fa:	1300                	addi	s0,sp,416
     9fc:	01f8                	addi	a4,sp,204
     9fe:	0000                	unimp
     a00:	01ac                	addi	a1,sp,200
     a02:	00a0                	addi	s0,sp,72
     a04:	0000                	unimp
     a06:	0000                	unimp
     a08:	001c                	0x1c
     a0a:	0000                	unimp
     a0c:	0000                	unimp
     a0e:	0000                	unimp
     a10:	3e02                	fld	ft8,32(sp)
     a12:	020c                	addi	a1,sp,256
     a14:	0000024b          	fnmsub.s	ft4,ft0,ft0,ft0,rne
     a18:	0575                	addi	a0,a0,29
     a1a:	0000                	unimp
     a1c:	3f02                	fld	ft10,32(sp)
     a1e:	0002                	c.slli64	zero
     a20:	7500                	ld	s0,40(a0)
     a22:	0005                	c.nop	1
     a24:	0200                	addi	s0,sp,256
     a26:	00000233          	add	tp,zero,zero
     a2a:	0575                	addi	a0,a0,29
     a2c:	0000                	unimp
     a2e:	2702                	fld	fa4,0(sp)
     a30:	0002                	c.slli64	zero
     a32:	7500                	ld	s0,40(a0)
     a34:	0005                	c.nop	1
     a36:	0200                	addi	s0,sp,256
     a38:	0000021b          	sext.w	tp,zero
     a3c:	0575                	addi	a0,a0,29
     a3e:	0000                	unimp
     a40:	0f02                	c.slli64	t5
     a42:	0002                	c.slli64	zero
     a44:	8a00                	0x8a00
     a46:	0005                	c.nop	1
     a48:	0200                	addi	s0,sp,256
     a4a:	0205                	addi	tp,tp,1
     a4c:	0000                	unimp
     a4e:	05a6                	slli	a1,a1,0x9
     a50:	0000                	unimp
     a52:	5704                	lw	s1,40(a4)
     a54:	0002                	c.slli64	zero
     a56:	0100                	addi	s0,sp,128
     a58:	045a                	slli	s0,s0,0x16
     a5a:	0260                	addi	s0,sp,268
     a5c:	0000                	unimp
     a5e:	5b01                	li	s6,-32
     a60:	6904                	ld	s1,16(a0)
     a62:	0002                	c.slli64	zero
     a64:	0100                	addi	s0,sp,128
     a66:	045c                	addi	a5,sp,516
     a68:	0272                	slli	tp,tp,0x1c
     a6a:	0000                	unimp
     a6c:	5d01                	li	s10,-32
     a6e:	7b04                	ld	s1,48(a4)
     a70:	0002                	c.slli64	zero
     a72:	0100                	addi	s0,sp,128
     a74:	045e                	slli	s0,s0,0x17
     a76:	0284                	addi	s1,sp,320
     a78:	0000                	unimp
     a7a:	5f01                	li	t5,-32
     a7c:	8d04                	0x8d04
     a7e:	0002                	c.slli64	zero
     a80:	0100                	addi	s0,sp,128
     a82:	0061                	c.nop	24
     a84:	1400                	addi	s0,sp,544
     a86:	01ac                	addi	a1,sp,200
     a88:	00a0                	addi	s0,sp,72
     a8a:	0000                	unimp
     a8c:	0000                	unimp
     a8e:	009e                	slli	ra,ra,0x7
     a90:	0000                	unimp
     a92:	0115                	addi	sp,sp,5
     a94:	01a3035b          	0x1a3035b
     a98:	1600005b          	0x1600005b
     a9c:	01b1                	addi	gp,gp,12
     a9e:	0000                	unimp
     aa0:	3d02                	fld	fs10,32(sp)
     aa2:	00006413          	ori	s0,zero,0
     aa6:	0300                	addi	s0,sp,384
     aa8:	01f8                	addi	a4,sp,204
     aaa:	0000                	unimp
     aac:	00636503          	lwu	a0,6(t1)
     ab0:	3d02                	fld	fs10,32(sp)
     ab2:	641c                	ld	a5,8(s0)
     ab4:	0000                	unimp
     ab6:	0000                	unimp
     ab8:	00006f17          	auipc	t5,0x6
     abc:	0300                	addi	s0,sp,384
     abe:	1306                	slli	t1,t1,0x21
     ac0:	00000043          	fmadd.s	ft0,ft0,ft0,ft0,rne
     ac4:	006e0303          	lb	t1,6(t3) # fffffffffffe2006 <end+0xfffffffffefe0006>
     ac8:	6b210603          	lb	a2,1714(sp)
     acc:	0000                	unimp
     ace:	0300                	addi	s0,sp,384
     ad0:	615f 0030 0603      	0x6030030615f
     ad6:	4328                	lw	a0,64(a4)
     ad8:	0000                	unimp
     ada:	0300                	addi	s0,sp,384
     adc:	615f 0031 0603      	0x6030031615f
     ae2:	4331                	li	t1,12
     ae4:	0000                	unimp
     ae6:	0300                	addi	s0,sp,384
     ae8:	615f 0032 0603      	0x6030032615f
     aee:	433a                	lw	t1,140(sp)
     af0:	0000                	unimp
     af2:	0300                	addi	s0,sp,384
     af4:	615f 0033 0703      	0x7030033615f
     afa:	00004303          	lbu	t1,0(zero) # 0 <_text-0xa00000>
     afe:	0300                	addi	s0,sp,384
     b00:	615f 0034 0703      	0x7030034615f
     b06:	430c                	lw	a1,0(a4)
     b08:	0000                	unimp
     b0a:	0300                	addi	s0,sp,384
     b0c:	615f 0035 0703      	0x7030035615f
     b12:	4315                	li	t1,5
     b14:	0000                	unimp
     b16:	0500                	addi	s0,sp,640
     b18:	3061                	0x3061
     b1a:	0800                	addi	s0,sp,16
     b1c:	00000043          	fmadd.s	ft0,ft0,ft0,ft0,rne
     b20:	6105                	addi	sp,sp,32
     b22:	0031                	c.nop	12
     b24:	4309                	li	t1,2
     b26:	0000                	unimp
     b28:	0500                	addi	s0,sp,640
     b2a:	3261                	addiw	tp,tp,-8
     b2c:	0a00                	addi	s0,sp,272
     b2e:	00000043          	fmadd.s	ft0,ft0,ft0,ft0,rne
     b32:	6105                	addi	sp,sp,32
     b34:	430b0033          	0x430b0033
     b38:	0000                	unimp
     b3a:	0500                	addi	s0,sp,640
     b3c:	3461                	addiw	s0,s0,-8
     b3e:	0c00                	addi	s0,sp,528
     b40:	00000043          	fmadd.s	ft0,ft0,ft0,ft0,rne
     b44:	6105                	addi	sp,sp,32
     b46:	0035                	c.nop	13
     b48:	430d                	li	t1,3
     b4a:	0000                	unimp
     b4c:	1800                	addi	s0,sp,48
     b4e:	0054                	addi	a3,sp,4
     b50:	0000                	unimp
     b52:	6b100e03          	lb	t3,1713(zero) # 6b1 <_text-0x9ff94f>
     b56:	0000                	unimp
     b58:	0000                	unimp
     b5a:	6a00                	ld	s0,16(a2)
     b5c:	05000017          	auipc	zero,0x5000
     b60:	0100                	addi	s0,sp,128
     b62:	5f08                	lw	a0,56(a4)
     b64:	1e000003          	lb	zero,480(zero) # 1e0 <_text-0x9ffe20>
     b68:	00f1                	addi	ra,ra,28
     b6a:	0000                	unimp
     b6c:	9c1d                	subw	s0,s0,a5
     b6e:	0000                	unimp
     b70:	0000                	unimp
     b72:	0000                	unimp
     b74:	d800                	sw	s0,48(s0)
     b76:	a001                	j	b76 <_text-0x9ff48a>
     b78:	0000                	unimp
     b7a:	0000                	unimp
     b7c:	5000                	lw	s0,32(s0)
     b7e:	000e                	c.slli	zero,0x3
     b80:	0000                	unimp
     b82:	0000                	unimp
     b84:	a300                	fsd	fs0,0(a4)
     b86:	0006                	c.slli	zero,0x1
     b88:	0b00                	addi	s0,sp,400
     b8a:	0801                	addi	a6,a6,0
     b8c:	00a9                	addi	ra,ra,10
     b8e:	0000                	unimp
     b90:	c707020b          	0xc707020b
     b94:	0000                	unimp
     b96:	0b00                	addi	s0,sp,400
     b98:	0704                	addi	s1,sp,896
     b9a:	00df 0000 751f      	0x751f000000df
     ba0:	3436                	fld	fs0,360(sp)
     ba2:	0500                	addi	s0,sp,640
     ba4:	004f3007          	fld	ft0,4(t5) # 6abc <_text-0x9f9544>
     ba8:	0000                	unimp
     baa:	da07080b          	0xda07080b
     bae:	0000                	unimp
     bb0:	0b00                	addi	s0,sp,400
     bb2:	0601                	addi	a2,a2,0
     bb4:	000000ab          	0xab
     bb8:	4105020b          	0x4105020b
     bbc:	0000                	unimp
     bbe:	2000                	fld	fs0,0(s0)
     bc0:	0504                	addi	s1,sp,640
     bc2:	6e69                	lui	t3,0x1a
     bc4:	0074                	addi	a3,sp,12
     bc6:	8105080b          	0x8105080b
     bca:	0000                	unimp
     bcc:	2100                	fld	fs0,0(a0)
     bce:	028e                	slli	t0,t0,0x3
     bd0:	0000                	unimp
     bd2:	1205                	addi	tp,tp,-31
     bd4:	00007e1b          	0x7e1b
     bd8:	2200                	fld	fs0,0(a2)
     bda:	8408                	0x8408
     bdc:	0002                	c.slli64	zero
     bde:	1700                	addi	s0,sp,928
     be0:	0089                	addi	ra,ra,2
     be2:	0000                	unimp
     be4:	b208010b          	0xb208010b
     be8:	0000                	unimp
     bea:	2300                	fld	fs0,0(a4)
     bec:	0089                	addi	ra,ra,2
     bee:	0000                	unimp
     bf0:	8915                	andi	a0,a0,5
     bf2:	0000                	unimp
     bf4:	a000                	fsd	fs0,0(s0)
     bf6:	0000                	unimp
     bf8:	2400                	fld	fs0,8(s0)
     bfa:	1800                	addi	s0,sp,48
     bfc:	000001cb          	fnmsub.s	ft3,ft0,ft0,ft0,rne
     c00:	0d09                	addi	s10,s10,2
     c02:	0095                	addi	ra,ra,5
     c04:	0000                	unimp
     c06:	5d18                	lw	a4,56(a0)
     c08:	0002                	c.slli64	zero
     c0a:	0a00                	addi	s0,sp,272
     c0c:	640c                	ld	a1,8(s0)
     c0e:	0000                	unimp
     c10:	1500                	addi	s0,sp,672
     c12:	0089                	addi	ra,ra,2
     c14:	0000                	unimp
     c16:	00c6                	slli	ra,ra,0x11
     c18:	0000                	unimp
     c1a:	4f19                	li	t5,6
     c1c:	0000                	unimp
     c1e:	7f00                	ld	s0,56(a4)
     c20:	1500                	addi	s0,sp,672
     c22:	0089                	addi	ra,ra,2
     c24:	0000                	unimp
     c26:	00d6                	slli	ra,ra,0x15
     c28:	0000                	unimp
     c2a:	4f19                	li	t5,6
     c2c:	0000                	unimp
     c2e:	1000                	addi	s0,sp,32
     c30:	2500                	fld	fs0,8(a0)
     c32:	00a2                	slli	ra,ra,0x8
     c34:	0000                	unimp
     c36:	2102                	fld	ft2,0(sp)
     c38:	c60d                	beqz	a2,c62 <_text-0x9ff39e>
     c3a:	0000                	unimp
     c3c:	9100                	0x9100
     c3e:	0000                	unimp
     c40:	0d00                	addi	s0,sp,656
     c42:	00000267          	jalr	tp,zero # 0 <_text-0xa00000>
     c46:	a8e5                	j	d3e <_text-0x9ff2c2>
     c48:	0000a003          	lw	zero,0(ra) # 0 <_text-0xa00000>
     c4c:	0000                	unimp
     c4e:	9c00                	0x9c00
     c50:	0001                	nop
     c52:	0000                	unimp
     c54:	0000                	unimp
     c56:	0100                	addi	s0,sp,128
     c58:	029c                	addi	a5,sp,320
     c5a:	0002                	c.slli64	zero
     c5c:	1100                	addi	s0,sp,160
     c5e:	7562                	ld	a0,56(sp)
     c60:	0066                	c.slli	zero,0x19
     c62:	16e5                	addi	a3,a3,-7
     c64:	0084                	addi	s1,sp,64
     c66:	0000                	unimp
     c68:	5a01                	li	s4,-32
     c6a:	750e                	ld	a0,224(sp)
     c6c:	e500                	sd	s0,8(a0)
     c6e:	4f29                	li	t5,10
     c70:	0000                	unimp
     c72:	c800                	sw	s0,16(s0)
     c74:	0005                	c.nop	1
     c76:	0600                	addi	s0,sp,768
     c78:	000002bf 006430e5 	0x6430e5000002bf
     c80:	0000                	unimp
     c82:	0615                	addi	a2,a2,5
     c84:	0000                	unimp
     c86:	4a06                	lw	s4,64(sp)
     c88:	0002                	c.slli64	zero
     c8a:	e500                	sd	s0,8(a0)
     c8c:	643a                	ld	s0,392(sp)
     c8e:	0000                	unimp
     c90:	6800                	ld	s0,16(s0)
     c92:	0006                	c.slli	zero,0x1
     c94:	0600                	addi	s0,sp,768
     c96:	021a                	slli	tp,tp,0x6
     c98:	0000                	unimp
     c9a:	07e6                	slli	a5,a5,0x19
     c9c:	0064                	addi	s1,sp,12
     c9e:	0000                	unimp
     ca0:	000006bb          	addw	a3,zero,zero
     ca4:	e206                	sd	ra,256(sp)
     ca6:	0001                	nop
     ca8:	e600                	sd	s0,8(a2)
     caa:	00006413          	ori	s0,zero,0
     cae:	0800                	addi	s0,sp,16
     cb0:	06000007          	0x6000007
     cb4:	0221                	addi	tp,tp,8
     cb6:	0000                	unimp
     cb8:	21e6                	fld	ft3,88(sp)
     cba:	0089                	addi	ra,ra,2
     cbc:	0000                	unimp
     cbe:	0000075b          	0x75b
     cc2:	a706                	fsd	ft1,392(sp)
     cc4:	0002                	c.slli64	zero
     cc6:	e600                	sd	s0,8(a2)
     cc8:	0000642b          	0x642b
     ccc:	9700                	0x9700
     cce:	0f000007          	0xf000007
     cd2:	01be                	slli	gp,gp,0xf
     cd4:	0000                	unimp
     cd6:	09e8                	addi	a0,sp,220
     cd8:	0064                	addi	s1,sp,12
     cda:	0000                	unimp
     cdc:	07ea                	slli	a5,a5,0x1a
     cde:	0000                	unimp
     ce0:	7009                	c.lui	zero,0xfffe2
     ce2:	e900                	sd	s0,16(a0)
     ce4:	0000840b          	0x840b
     ce8:	4c00                	lw	s0,24(s0)
     cea:	0008                	0x8
     cec:	0900                	addi	s0,sp,144
     cee:	0069                	c.nop	26
     cf0:	09ea                	slli	s3,s3,0x1a
     cf2:	0064                	addi	s1,sp,12
     cf4:	0000                	unimp
     cf6:	0961                	addi	s2,s2,24
     cf8:	0000                	unimp
     cfa:	5e26                	lw	t3,104(sp)
     cfc:	0000                	unimp
     cfe:	b800                	fsd	fs0,48(s0)
     d00:	0001                	nop
     d02:	0900                	addi	s0,sp,144
     d04:	6d74                	ld	a3,216(a0)
     d06:	0070                	addi	a2,sp,12
     d08:	0dee                	slli	s11,s11,0x1b
     d0a:	0064                	addi	s1,sp,12
     d0c:	0000                	unimp
     d0e:	00000a17          	auipc	s4,0x0
     d12:	1a00                	addi	s0,sp,304
     d14:	0092                	slli	ra,ra,0x4
     d16:	0000                	unimp
     d18:	0001f227          	0x1f227
     d1c:	0100                	addi	s0,sp,128
     d1e:	640d011b          	addiw	sp,s10,1600
     d22:	0000                	unimp
     d24:	0900                	addi	s0,sp,144
     d26:	1b00000b          	0x1b00000b
     d2a:	6e65                	lui	t3,0x19
     d2c:	0064                	addi	s1,sp,12
     d2e:	011c                	addi	a5,sp,128
     d30:	640d                	lui	s0,0x3
     d32:	0000                	unimp
     d34:	6b00                	ld	s0,16(a4)
     d36:	2800000b          	0x2800000b
     d3a:	04b0                	addi	a2,sp,584
     d3c:	00a0                	addi	s0,sp,72
     d3e:	0000                	unimp
     d40:	0000                	unimp
     d42:	0018                	0x18
     d44:	0000                	unimp
     d46:	0000                	unimp
     d48:	0000                	unimp
     d4a:	706d741b          	0x706d741b
     d4e:	2800                	fld	fs0,16(s0)
     d50:	1201                	addi	tp,tp,-32
     d52:	0089                	addi	ra,ra,2
     d54:	0000                	unimp
     d56:	0bdc                	addi	a5,sp,468
     d58:	0000                	unimp
     d5a:	0000                	unimp
     d5c:	0d00                	addi	s0,sp,656
     d5e:	023e                	slli	tp,tp,0xf
     d60:	0000                	unimp
     d62:	a00270cb          	fnmsub.s	ft1,ft4,ft0,fs4
     d66:	0000                	unimp
     d68:	0000                	unimp
     d6a:	3800                	fld	fs0,48(s0)
     d6c:	0001                	nop
     d6e:	0000                	unimp
     d70:	0000                	unimp
     d72:	0100                	addi	s0,sp,128
     d74:	7f9c                	ld	a5,56(a5)
     d76:	0002                	c.slli64	zero
     d78:	1100                	addi	s0,sp,160
     d7a:	7562                	ld	a0,56(sp)
     d7c:	0066                	c.slli	zero,0x19
     d7e:	008419cb          	fnmsub.s	fs3,fs0,fs0,ft0,rtz
     d82:	0000                	unimp
     d84:	5a01                	li	s4,-32
     d86:	7311                	lui	t1,0xfffe4
     d88:	cb00                	sw	s0,16(a4)
     d8a:	8424                	0x8424
     d8c:	0000                	unimp
     d8e:	0100                	addi	s0,sp,128
     d90:	021a065b          	0x21a065b
     d94:	0000                	unimp
     d96:	00642bcb          	fnmsub.s	fs7,fs0,ft6,ft0,rdn
     d9a:	0000                	unimp
     d9c:	0c04                	addi	s1,sp,528
     d9e:	0000                	unimp
     da0:	e206                	sd	ra,256(sp)
     da2:	0001                	nop
     da4:	cb00                	sw	s0,16(a4)
     da6:	00006437          	lui	s0,0x6
     daa:	7700                	ld	s0,40(a4)
     dac:	000c                	0xc
     dae:	0900                	addi	s0,sp,144
     db0:	0069                	c.nop	26
     db2:	09cc                	addi	a1,sp,212
     db4:	0064                	addi	s1,sp,12
     db6:	0000                	unimp
     db8:	0cdd                	addi	s9,s9,23
     dba:	0000                	unimp
     dbc:	6c09                	lui	s8,0x2
     dbe:	6e65                	lui	t3,0x19
     dc0:	cd00                	sw	s0,24(a0)
     dc2:	6409                	lui	s0,0x2
     dc4:	0000                	unimp
     dc6:	a600                	fsd	fs0,8(a2)
     dc8:	000d                	c.nop	3
     dca:	0900                	addi	s0,sp,144
     dcc:	ce003173          	csrrc	sp,0xce0,zero
     dd0:	0000840b          	0x840b
     dd4:	0a00                	addi	s0,sp,272
     dd6:	000e                	c.slli	zero,0x3
     dd8:	0000                	unimp
     dda:	340d                	addiw	s0,s0,-29
     ddc:	0002                	c.slli64	zero
     dde:	b700                	fsd	fs0,40(a4)
     de0:	01d8                	addi	a4,sp,196
     de2:	00a0                	addi	s0,sp,72
     de4:	0000                	unimp
     de6:	0000                	unimp
     de8:	0098                	addi	a4,sp,64
     dea:	0000                	unimp
     dec:	0000                	unimp
     dee:	0000                	unimp
     df0:	9c01                	subw	s0,s0,s0
     df2:	02e1                	addi	t0,t0,24
     df4:	0000                	unimp
     df6:	620e                	ld	tp,192(sp)
     df8:	6675                	lui	a2,0x1d
     dfa:	b700                	fsd	fs0,40(a4)
     dfc:	8416                	mv	s0,t0
     dfe:	0000                	unimp
     e00:	7000                	ld	s0,32(s0)
     e02:	000e                	c.slli	zero,0x3
     e04:	1100                	addi	s0,sp,160
     e06:	20b70063          	beq	a4,a1,1006 <_text-0x9feffa>
     e0a:	0089                	addi	ra,ra,2
     e0c:	0000                	unimp
     e0e:	5b01                	li	s6,-32
     e10:	1a06                	slli	s4,s4,0x21
     e12:	0002                	c.slli64	zero
     e14:	b700                	fsd	fs0,40(a4)
     e16:	00006427          	0x6427
     e1a:	ad00                	fsd	fs0,24(a0)
     e1c:	000e                	c.slli	zero,0x3
     e1e:	0600                	addi	s0,sp,768
     e20:	01e2                	slli	gp,gp,0x18
     e22:	0000                	unimp
     e24:	006433b7          	lui	t2,0x643
     e28:	0000                	unimp
     e2a:	0ed4                	addi	a3,sp,852
     e2c:	0000                	unimp
     e2e:	6909                	lui	s2,0x2
     e30:	b800                	fsd	fs0,48(s0)
     e32:	6409                	lui	s0,0x2
     e34:	0000                	unimp
     e36:	2700                	fld	fs0,8(a4)
     e38:	0000000f          	fence	unknown,unknown
     e3c:	9e0d                	subw	a2,a2,a1
     e3e:	0002                	c.slli64	zero
     e40:	b100                	fsd	fs0,32(a0)
     e42:	1000                	addi	s0,sp,32
     e44:	00a0                	addi	s0,sp,72
     e46:	0000                	unimp
     e48:	0000                	unimp
     e4a:	0028                	addi	a0,sp,8
     e4c:	0000                	unimp
     e4e:	0000                	unimp
     e50:	0000                	unimp
     e52:	9c01                	subw	s0,s0,s0
     e54:	0355                	addi	t1,t1,21
     e56:	0000                	unimp
     e58:	5206                	lw	tp,96(sp)
     e5a:	0002                	c.slli64	zero
     e5c:	b100                	fsd	fs0,32(a0)
     e5e:	0003551b          	srliw	a0,t1,0x0
     e62:	aa00                	fsd	fs0,16(a2)
     e64:	0600000f          	fence	or,unknown
     e68:	0000020f          	0x20f
     e6c:	25b1                	addiw	a1,a1,12
     e6e:	0064                	addi	s1,sp,12
     e70:	0000                	unimp
     e72:	0fd4                	addi	a3,sp,980
     e74:	0000                	unimp
     e76:	2606                	fld	fa2,64(sp)
     e78:	0002                	c.slli64	zero
     e7a:	b100                	fsd	fs0,32(a0)
     e7c:	00035537          	lui	a0,0x35
     e80:	fe00                	sd	s0,56(a2)
     e82:	0600000f          	fence	or,unknown
     e86:	0205                	addi	tp,tp,1
     e88:	0000                	unimp
     e8a:	41b1                	li	gp,12
     e8c:	00000043          	fmadd.s	ft0,ft0,ft0,ft0,rne
     e90:	1028                	addi	a0,sp,40
     e92:	0000                	unimp
     e94:	2812                	fld	fa6,256(sp)
     e96:	a010                	fsd	fa2,0(s0)
     e98:	0000                	unimp
     e9a:	0000                	unimp
     e9c:	5a00                	lw	s0,48(a2)
     e9e:	05000003          	lb	zero,80(zero) # 50 <_text-0x9fffb0>
     ea2:	5d01                	li	s10,-32
     ea4:	0309                	addi	t1,t1,2
     ea6:	2248                	fld	fa0,128(a2)
     ea8:	00a0                	addi	s0,sp,72
     eaa:	0000                	unimp
     eac:	0000                	unimp
     eae:	0000                	unimp
     eb0:	00009017          	auipc	zero,0x9
     eb4:	0d00                	addi	s0,sp,656
     eb6:	0296                	slli	t0,t0,0x5
     eb8:	0000                	unimp
     eba:	a00f84a7          	0xa00f84a7
     ebe:	0000                	unimp
     ec0:	0000                	unimp
     ec2:	7c00                	ld	s0,56(s0)
     ec4:	0000                	unimp
     ec6:	0000                	unimp
     ec8:	0000                	unimp
     eca:	0100                	addi	s0,sp,128
     ecc:	a19c                	fsd	fa5,0(a1)
     ece:	0004                	0x4
     ed0:	0600                	addi	s0,sp,768
     ed2:	0252                	slli	tp,tp,0x14
     ed4:	0000                	unimp
     ed6:	03551aa7          	0x3551aa7
     eda:	0000                	unimp
     edc:	1052                	c.slli	zero,0x34
     ede:	0000                	unimp
     ee0:	0f06                	slli	t5,t5,0x1
     ee2:	0002                	c.slli64	zero
     ee4:	a700                	fsd	fs0,8(a4)
     ee6:	6424                	ld	s1,72(s0)
     ee8:	0000                	unimp
     eea:	8f00                	0x8f00
     eec:	0010                	0x10
     eee:	0e00                	addi	s0,sp,784
     ef0:	6d66                	ld	s10,88(sp)
     ef2:	0074                	addi	a3,sp,12
     ef4:	035536a7          	fsd	fs5,45(a0) # 3502d <_text-0x9cafd3>
     ef8:	0000                	unimp
     efa:	10b9                	addi	ra,ra,-18
     efc:	0000                	unimp
     efe:	161c                	addi	a5,sp,800
     f00:	7061                	c.lui	zero,0xffff8
     f02:	a900                	fsd	fs0,16(a0)
     f04:	720d                	lui	tp,0xfffe3
     f06:	0000                	unimp
     f08:	0300                	addi	s0,sp,384
     f0a:	a891                	j	f5e <_text-0x9ff0a2>
     f0c:	137f                	0x137f
     f0e:	16b6                	slli	a3,a3,0x2d
     f10:	0000                	unimp
     f12:	0fdc                	addi	a5,sp,980
     f14:	00a0                	addi	s0,sp,72
     f16:	0000                	unimp
     f18:	0000                	unimp
     f1a:	0020                	addi	s0,sp,8
     f1c:	0000                	unimp
     f1e:	0000                	unimp
     f20:	0000                	unimp
     f22:	05ad                	addi	a1,a1,11
     f24:	0460                	addi	s0,sp,524
     f26:	0000                	unimp
     f28:	c101                	beqz	a0,f28 <_text-0x9ff0d8>
     f2a:	0016                	c.slli	zero,0x5
     f2c:	e000                	sd	s0,0(s0)
     f2e:	0010                	0x10
     f30:	0300                	addi	s0,sp,384
     f32:	16cc                	addi	a1,sp,868
     f34:	0000                	unimp
     f36:	0fdc                	addi	a5,sp,980
     f38:	00a0                	addi	s0,sp,72
     f3a:	0000                	unimp
     f3c:	0000                	unimp
     f3e:	0020                	addi	s0,sp,8
     f40:	0000                	unimp
     f42:	0000                	unimp
     f44:	0000                	unimp
     f46:	01050d03          	lb	s10,16(a0)
     f4a:	171f 0000 10f5      	0x10f50000171f
     f50:	0000                	unimp
     f52:	1301                	addi	t1,t1,-32
     f54:	f5000017          	auipc	zero,0xf5000
     f58:	0010                	0x10
     f5a:	0100                	addi	s0,sp,128
     f5c:	00001707          	0x1707
     f60:	10f5                	addi	ra,ra,-3
     f62:	0000                	unimp
     f64:	fb01                	bnez	a4,e74 <_text-0x9ff18c>
     f66:	0016                	c.slli	zero,0x5
     f68:	f500                	sd	s0,40(a0)
     f6a:	0010                	0x10
     f6c:	0100                	addi	s0,sp,128
     f6e:	000016ef          	jal	a3,1f6e <_text-0x9fe092>
     f72:	10f5                	addi	ra,ra,-3
     f74:	0000                	unimp
     f76:	e301                	bnez	a4,f76 <_text-0x9ff08a>
     f78:	0016                	c.slli	zero,0x5
     f7a:	e000                	sd	s0,0(s0)
     f7c:	0010                	0x10
     f7e:	0100                	addi	s0,sp,128
     f80:	16d9                	addi	a3,a3,-10
     f82:	0000                	unimp
     f84:	110a                	slli	sp,sp,0x22
     f86:	0000                	unimp
     f88:	2b02                	fld	fs6,0(sp)
     f8a:	01000017          	auipc	zero,0x1000
     f8e:	025a                	slli	tp,tp,0x16
     f90:	1734                	addi	a3,sp,936
     f92:	0000                	unimp
     f94:	5b01                	li	s6,-32
     f96:	3d02                	fld	fs10,32(sp)
     f98:	01000017          	auipc	zero,0x1000
     f9c:	025c                	addi	a5,sp,260
     f9e:	1746                	slli	a4,a4,0x31
     fa0:	0000                	unimp
     fa2:	5d01                	li	s10,-32
     fa4:	4f02                	lw	t5,0(sp)
     fa6:	01000017          	auipc	zero,0x1000
     faa:	025e                	slli	tp,tp,0x17
     fac:	1758                	addi	a4,sp,932
     fae:	0000                	unimp
     fb0:	5f01                	li	t5,-32
     fb2:	6102                	ld	sp,0(sp)
     fb4:	01000017          	auipc	zero,0x1000
     fb8:	0061                	c.nop	24
     fba:	0c00                	addi	s0,sp,528
     fbc:	0fc8                	addi	a0,sp,980
     fbe:	00a0                	addi	s0,sp,72
     fc0:	0000                	unimp
     fc2:	0000                	unimp
     fc4:	04a1                	addi	s1,s1,8
     fc6:	0000                	unimp
     fc8:	0486                	slli	s1,s1,0x1
     fca:	0000                	unimp
     fcc:	0105                	addi	sp,sp,1
     fce:	095a                	slli	s2,s2,0x16
     fd0:	a0223003          	ld	zero,-1534(tp) # fffffffffffe2a02 <end+0xfffffffffefe0a02>
     fd4:	0000                	unimp
     fd6:	0000                	unimp
     fd8:	0500                	addi	s0,sp,640
     fda:	5b01                	li	s6,-32
     fdc:	5a01a303          	lw	t1,1440(gp)
     fe0:	1200                	addi	s0,sp,288
     fe2:	0fdc                	addi	a5,sp,980
     fe4:	00a0                	addi	s0,sp,72
     fe6:	0000                	unimp
     fe8:	0000                	unimp
     fea:	000005bf 025a0105 	0x25a0105000005bf
     ff2:	0079                	c.nop	30
     ff4:	0105                	addi	sp,sp,1
     ff6:	5891025b          	0x5891025b
     ffa:	0000                	unimp
     ffc:	8a0d                	andi	a2,a2,3
     ffe:	0000                	unimp
    1000:	9f00                	0x9f00
    1002:	0f04                	addi	s1,sp,912
    1004:	00a0                	addi	s0,sp,72
    1006:	0000                	unimp
    1008:	0000                	unimp
    100a:	0080                	addi	s0,sp,64
    100c:	0000                	unimp
    100e:	0000                	unimp
    1010:	0000                	unimp
    1012:	9c01                	subw	s0,s0,s0
    1014:	000005bf 746d660e 	0x746d660e000005bf
    101c:	9f00                	0x9f00
    101e:	5519                	li	a0,-26
    1020:	1f000003          	lb	zero,496(zero) # 1f0 <_text-0x9ffe10>
    1024:	0011                	c.nop	4
    1026:	1c00                	addi	s0,sp,560
    1028:	6116                	ld	sp,320(sp)
    102a:	0070                	addi	a2,sp,12
    102c:	0da0                	addi	s0,sp,728
    102e:	0072                	c.slli	zero,0x1c
    1030:	0000                	unimp
    1032:	7fa89103          	lh	sp,2042(a7)
    1036:	00168913          	addi	s2,a3,1 # 1001 <_text-0x9fefff>
    103a:	4000                	lw	s0,0(s0)
    103c:	0000a00f          	0xa00f
    1040:	0000                	unimp
    1042:	3400                	fld	fs0,40(s0)
    1044:	0000                	unimp
    1046:	0000                	unimp
    1048:	0000                	unimp
    104a:	a400                	fsd	fs0,8(s0)
    104c:	a305                	j	156c <_text-0x9fea94>
    104e:	0005                	c.nop	1
    1050:	0300                	addi	s0,sp,384
    1052:	1692                	slli	a3,a3,0x24
    1054:	0000                	unimp
    1056:	0f4c                	addi	a1,sp,916
    1058:	00a0                	addi	s0,sp,72
    105a:	0000                	unimp
    105c:	0000                	unimp
    105e:	0020                	addi	s0,sp,8
    1060:	0000                	unimp
    1062:	0000                	unimp
    1064:	0000                	unimp
    1066:	0d02                	c.slli64	s10
    1068:	0109                	addi	sp,sp,2
    106a:	16a9                	addi	a3,a3,-22
    106c:	0000                	unimp
    106e:	1149                	addi	sp,sp,-14
    1070:	0000                	unimp
    1072:	9d04                	0x9d04
    1074:	0016                	c.slli	zero,0x5
    1076:	0300                	addi	s0,sp,384
    1078:	16cc                	addi	a1,sp,868
    107a:	0000                	unimp
    107c:	0f4c                	addi	a1,sp,916
    107e:	00a0                	addi	s0,sp,72
    1080:	0000                	unimp
    1082:	0000                	unimp
    1084:	0020                	addi	s0,sp,8
    1086:	0000                	unimp
    1088:	0000                	unimp
    108a:	0000                	unimp
    108c:	01051103          	lh	sp,16(a0)
    1090:	171f 0000 115d      	0x115d0000171f
    1096:	0000                	unimp
    1098:	1301                	addi	t1,t1,-32
    109a:	5d000017          	auipc	zero,0x5d000
    109e:	0011                	c.nop	4
    10a0:	0100                	addi	s0,sp,128
    10a2:	00001707          	0x1707
    10a6:	115d                	addi	sp,sp,-9
    10a8:	0000                	unimp
    10aa:	fb01                	bnez	a4,fba <_text-0x9ff046>
    10ac:	0016                	c.slli	zero,0x5
    10ae:	5d00                	lw	s0,56(a0)
    10b0:	0011                	c.nop	4
    10b2:	0100                	addi	s0,sp,128
    10b4:	000016ef          	jal	a3,20b4 <_text-0x9fdf4c>
    10b8:	1149                	addi	sp,sp,-14
    10ba:	0000                	unimp
    10bc:	e304                	sd	s1,0(a4)
    10be:	0016                	c.slli	zero,0x5
    10c0:	0100                	addi	s0,sp,128
    10c2:	16d9                	addi	a3,a3,-10
    10c4:	0000                	unimp
    10c6:	1172                	slli	sp,sp,0x3c
    10c8:	0000                	unimp
    10ca:	2b02                	fld	fs6,0(sp)
    10cc:	01000017          	auipc	zero,0x1000
    10d0:	025a                	slli	tp,tp,0x16
    10d2:	1734                	addi	a3,sp,936
    10d4:	0000                	unimp
    10d6:	5b01                	li	s6,-32
    10d8:	3d02                	fld	fs10,32(sp)
    10da:	01000017          	auipc	zero,0x1000
    10de:	025c                	addi	a5,sp,260
    10e0:	1746                	slli	a4,a4,0x31
    10e2:	0000                	unimp
    10e4:	5d01                	li	s10,-32
    10e6:	4f02                	lw	t5,0(sp)
    10e8:	01000017          	auipc	zero,0x1000
    10ec:	025e                	slli	tp,tp,0x17
    10ee:	1758                	addi	a4,sp,932
    10f0:	0000                	unimp
    10f2:	5f01                	li	t5,-32
    10f4:	6102                	ld	sp,0(sp)
    10f6:	01000017          	auipc	zero,0x1000
    10fa:	0061                	c.nop	24
    10fc:	0000                	unimp
    10fe:	4012                	0x4012
    1100:	0000a00f          	0xa00f
    1104:	0000                	unimp
    1106:	bf00                	fsd	fs0,56(a4)
    1108:	0005                	c.nop	1
    110a:	0500                	addi	s0,sp,640
    110c:	5a01                	li	s4,-32
    110e:	5a01a303          	lw	t1,1440(gp)
    1112:	0105                	addi	sp,sp,1
    1114:	4891025b          	0x4891025b
    1118:	0000                	unimp
    111a:	5729                	li	a4,-22
    111c:	0002                	c.slli64	zero
    111e:	0100                	addi	s0,sp,128
    1120:	05440d07          	0x5440d07
    1124:	00a0                	addi	s0,sp,72
    1126:	0000                	unimp
    1128:	0000                	unimp
    112a:	09c0                	addi	s0,sp,212
    112c:	0000                	unimp
    112e:	0000                	unimp
    1130:	0000                	unimp
    1132:	9c01                	subw	s0,s0,s0
    1134:	165d                	addi	a2,a2,-9
    1136:	0000                	unimp
    1138:	660e                	ld	a2,192(sp)
    113a:	746d                	lui	s0,0xffffb
    113c:	0700                	addi	s0,sp,896
    113e:	551f 0003 8700      	0x87000003551f
    1144:	0011                	c.nop	4
    1146:	0e00                	addi	s0,sp,784
    1148:	7061                	c.lui	zero,0xffff8
    114a:	0700                	addi	s0,sp,896
    114c:	722c                	ld	a1,96(a2)
    114e:	0000                	unimp
    1150:	d700                	sw	s0,40(a4)
    1152:	0011                	c.nop	4
    1154:	1600                	addi	s0,sp,800
    1156:	7562                	ld	a0,56(sp)
    1158:	0066                	c.slli	zero,0x19
    115a:	0a08                	addi	a0,sp,272
    115c:	00b6                	slli	ra,ra,0xd
    115e:	0000                	unimp
    1160:	7eb09103          	lh	sp,2027(ra)
    1164:	6909                	lui	s2,0x2
    1166:	0a00                	addi	s0,sp,272
    1168:	6409                	lui	s0,0x2
    116a:	0000                	unimp
    116c:	0000                	unimp
    116e:	0014                	0x14
    1170:	0900                	addi	s0,sp,144
    1172:	0c0a0063          	beqz	s4,1232 <_text-0x9fedce>
    1176:	0064                	addi	s1,sp,12
    1178:	0000                	unimp
    117a:	15c6                	slli	a1,a1,0x31
    117c:	0000                	unimp
    117e:	7309                	lui	t1,0xfffe2
    1180:	0b00                	addi	s0,sp,400
    1182:	0000840b          	0x840b
    1186:	8c00                	0x8c00
    1188:	0018                	0x18
    118a:	0900                	addi	s0,sp,144
    118c:	756e                	ld	a0,248(sp)
    118e:	006d                	c.nop	27
    1190:	0e0c                	addi	a1,sp,784
    1192:	0000006b          	0x6b
    1196:	18a0                	addi	s0,sp,120
    1198:	0000                	unimp
    119a:	00022b0f          	0x22b0f
    119e:	0e00                	addi	s0,sp,784
    11a0:	6409                	lui	s0,0x2
    11a2:	0000                	unimp
    11a4:	5f00                	lw	s0,56(a4)
    11a6:	0019                	c.nop	6
    11a8:	0f00                	addi	s0,sp,912
    11aa:	024a                	slli	tp,tp,0x12
    11ac:	0000                	unimp
    11ae:	130e                	slli	t1,t1,0x23
    11b0:	0064                	addi	s1,sp,12
    11b2:	0000                	unimp
    11b4:	1aa0                	addi	s0,sp,376
    11b6:	0000                	unimp
    11b8:	0002140f          	0x2140f
    11bc:	0e00                	addi	s0,sp,784
    11be:	641c                	ld	a5,8(s0)
    11c0:	0000                	unimp
    11c2:	1800                	addi	s0,sp,48
    11c4:	1d00001b          	addiw	zero,zero,464
    11c8:	02ae                	slli	t0,t0,0xb
    11ca:	0000                	unimp
    11cc:	2301                	sext.w	t1,t1
    11ce:	0064                	addi	s1,sp,12
    11d0:	0000                	unimp
    11d2:	0001e20f          	0x1e20f
    11d6:	0e00                	addi	s0,sp,784
    11d8:	6429                	lui	s0,0xa
    11da:	0000                	unimp
    11dc:	6900                	ld	s0,16(a0)
    11de:	0f00001b          	addiw	zero,zero,240
    11e2:	0221                	addi	tp,tp,8
    11e4:	0000                	unimp
    11e6:	00890a0f          	0x890a0f
    11ea:	0000                	unimp
    11ec:	00001c9b          	slliw	s9,zero,0x0
    11f0:	5d08                	lw	a0,56(a0)
    11f2:	0016                	c.slli	zero,0x5
    11f4:	9400                	0x9400
    11f6:	a005                	j	1216 <_text-0x9fedea>
    11f8:	0000                	unimp
    11fa:	0000                	unimp
    11fc:	b500                	fsd	fs0,40(a0)
    11fe:	0000                	unimp
    1200:	0100                	addi	s0,sp,128
    1202:	087d118f          	0x87d118f
    1206:	0000                	unimp
    1208:	6801                	0x6801
    120a:	0016                	c.slli	zero,0x5
    120c:	ce00                	sw	s0,24(a2)
    120e:	001d                	c.nop	7
    1210:	0800                	addi	s0,sp,16
    1212:	00001673          	csrrw	a2,ustatus,zero
    1216:	0594                	addi	a3,sp,704
    1218:	00a0                	addi	s0,sp,72
    121a:	0000                	unimp
    121c:	0000                	unimp
    121e:	00e9                	addi	ra,ra,26
    1220:	0000                	unimp
    1222:	1d02                	slli	s10,s10,0x20
    1224:	9909                	andi	a0,a0,-30
    1226:	01000007          	0x1000007
    122a:	167e                	slli	a2,a2,0x3f
    122c:	0000                	unimp
    122e:	1e5e                	slli	t3,t3,0x37
    1230:	0000                	unimp
    1232:	00168907          	0x168907
    1236:	a400                	fsd	fs0,8(s0)
    1238:	a005                	j	1258 <_text-0x9feda8>
    123a:	0000                	unimp
    123c:	0000                	unimp
    123e:	2e00                	fld	fs0,24(a2)
    1240:	0001                	nop
    1242:	0200                	addi	s0,sp,256
    1244:	0915                	addi	s2,s2,5
    1246:	00169203          	lh	tp,1(a3)
    124a:	6400                	ld	s0,8(s0)
    124c:	a00e                	fsd	ft3,0(sp)
    124e:	0000                	unimp
    1250:	0000                	unimp
    1252:	2000                	fld	fs0,0(s0)
    1254:	0000                	unimp
    1256:	0000                	unimp
    1258:	0000                	unimp
    125a:	0200                	addi	s0,sp,256
    125c:	090d                	addi	s2,s2,3
    125e:	a901                	j	166e <_text-0x9fe992>
    1260:	0016                	c.slli	zero,0x5
    1262:	9b00                	0x9b00
    1264:	001e                	c.slli	zero,0x7
    1266:	0400                	addi	s0,sp,512
    1268:	169d                	addi	a3,a3,-25
    126a:	0000                	unimp
    126c:	0016cc03          	lbu	s8,1(a3)
    1270:	6400                	ld	s0,8(s0)
    1272:	a00e                	fsd	ft3,0(sp)
    1274:	0000                	unimp
    1276:	0000                	unimp
    1278:	2000                	fld	fs0,0(s0)
    127a:	0000                	unimp
    127c:	0000                	unimp
    127e:	0000                	unimp
    1280:	0300                	addi	s0,sp,384
    1282:	0511                	addi	a0,a0,4
    1284:	1f01                	addi	t5,t5,-32
    1286:	b1000017          	auipc	zero,0xb1000
    128a:	001e                	c.slli	zero,0x7
    128c:	0100                	addi	s0,sp,128
    128e:	00001713          	slli	a4,zero,0x0
    1292:	1eb1                	addi	t4,t4,-20
    1294:	0000                	unimp
    1296:	0701                	addi	a4,a4,0
    1298:	b1000017          	auipc	zero,0xb1000
    129c:	001e                	c.slli	zero,0x7
    129e:	0100                	addi	s0,sp,128
    12a0:	000016fb          	0x16fb
    12a4:	1eb1                	addi	t4,t4,-20
    12a6:	0000                	unimp
    12a8:	ef01                	bnez	a4,12c0 <_text-0x9fed40>
    12aa:	0016                	c.slli	zero,0x5
    12ac:	9b00                	0x9b00
    12ae:	001e                	c.slli	zero,0x7
    12b0:	0400                	addi	s0,sp,512
    12b2:	000016e3          	bnez	zero,1abe <_text-0x9fe542>
    12b6:	d901                	beqz	a0,11c6 <_text-0x9fee3a>
    12b8:	0016                	c.slli	zero,0x5
    12ba:	c600                	sw	s0,8(a2)
    12bc:	001e                	c.slli	zero,0x7
    12be:	0200                	addi	s0,sp,256
    12c0:	0000172b          	0x172b
    12c4:	5a01                	li	s4,-32
    12c6:	3402                	fld	fs0,32(sp)
    12c8:	01000017          	auipc	zero,0x1000
    12cc:	173d025b          	0x173d025b
    12d0:	0000                	unimp
    12d2:	5c01                	li	s8,-32
    12d4:	4602                	lw	a2,0(sp)
    12d6:	01000017          	auipc	zero,0x1000
    12da:	025d                	addi	tp,tp,23
    12dc:	0000174f          	fnmadd.s	fa4,ft0,ft0,ft0,rtz
    12e0:	5e01                	li	t3,-32
    12e2:	5802                	lw	a6,32(sp)
    12e4:	01000017          	auipc	zero,0x1000
    12e8:	025f 1761 0000      	0x1761025f
    12ee:	6101                	addi	sp,sp,0
    12f0:	0000                	unimp
    12f2:	0000                	unimp
    12f4:	00167307          	0x167307
    12f8:	c800                	sw	s0,16(s0)
    12fa:	a00d                	j	131c <_text-0x9fece4>
    12fc:	0000                	unimp
    12fe:	0000                	unimp
    1300:	6200                	ld	s0,0(a2)
    1302:	0001                	nop
    1304:	0200                	addi	s0,sp,256
    1306:	0d1c                	addi	a5,sp,656
    1308:	7e01                	lui	t3,0xfffe0
    130a:	0016                	c.slli	zero,0x5
    130c:	db00                	sw	s0,48(a4)
    130e:	001e                	c.slli	zero,0x7
    1310:	0300                	addi	s0,sp,384
    1312:	1689                	addi	a3,a3,-30
    1314:	0000                	unimp
    1316:	0e2c                	addi	a1,sp,792
    1318:	00a0                	addi	s0,sp,72
    131a:	0000                	unimp
    131c:	0000                	unimp
    131e:	0024                	addi	s1,sp,8
    1320:	0000                	unimp
    1322:	0000                	unimp
    1324:	0000                	unimp
    1326:	1502                	slli	a0,a0,0x20
    1328:	0309                	addi	t1,t1,2
    132a:	1692                	slli	a3,a3,0x24
    132c:	0000                	unimp
    132e:	0e30                	addi	a2,sp,792
    1330:	00a0                	addi	s0,sp,72
    1332:	0000                	unimp
    1334:	0000                	unimp
    1336:	0020                	addi	s0,sp,8
    1338:	0000                	unimp
    133a:	0000                	unimp
    133c:	0000                	unimp
    133e:	0d02                	c.slli64	s10
    1340:	0109                	addi	sp,sp,2
    1342:	16a9                	addi	a3,a3,-22
    1344:	0000                	unimp
    1346:	1ef0                	addi	a2,sp,892
    1348:	0000                	unimp
    134a:	9d04                	0x9d04
    134c:	0016                	c.slli	zero,0x5
    134e:	0300                	addi	s0,sp,384
    1350:	16cc                	addi	a1,sp,868
    1352:	0000                	unimp
    1354:	0e30                	addi	a2,sp,792
    1356:	00a0                	addi	s0,sp,72
    1358:	0000                	unimp
    135a:	0000                	unimp
    135c:	0020                	addi	s0,sp,8
    135e:	0000                	unimp
    1360:	0000                	unimp
    1362:	0000                	unimp
    1364:	01051103          	lh	sp,16(a0)
    1368:	171f 0000 1f06      	0x1f060000171f
    136e:	0000                	unimp
    1370:	1301                	addi	t1,t1,-32
    1372:	06000017          	auipc	zero,0x6000
    1376:	001f 0100 1707      	0x17070100001f
    137c:	0000                	unimp
    137e:	1f06                	slli	t5,t5,0x21
    1380:	0000                	unimp
    1382:	fb01                	bnez	a4,1292 <_text-0x9fed6e>
    1384:	0016                	c.slli	zero,0x5
    1386:	0600                	addi	s0,sp,768
    1388:	001f 0100 16ef      	0x16ef0100001f
    138e:	0000                	unimp
    1390:	1ef0                	addi	a2,sp,892
    1392:	0000                	unimp
    1394:	e304                	sd	s1,0(a4)
    1396:	0016                	c.slli	zero,0x5
    1398:	0100                	addi	s0,sp,128
    139a:	16d9                	addi	a3,a3,-10
    139c:	0000                	unimp
    139e:	00001f1b          	slliw	t5,zero,0x0
    13a2:	2b02                	fld	fs6,0(sp)
    13a4:	01000017          	auipc	zero,0x1000
    13a8:	025a                	slli	tp,tp,0x16
    13aa:	1734                	addi	a3,sp,936
    13ac:	0000                	unimp
    13ae:	5b01                	li	s6,-32
    13b0:	3d02                	fld	fs10,32(sp)
    13b2:	01000017          	auipc	zero,0x1000
    13b6:	025c                	addi	a5,sp,260
    13b8:	1746                	slli	a4,a4,0x31
    13ba:	0000                	unimp
    13bc:	5d01                	li	s10,-32
    13be:	4f02                	lw	t5,0(sp)
    13c0:	01000017          	auipc	zero,0x1000
    13c4:	025e                	slli	tp,tp,0x17
    13c6:	1758                	addi	a4,sp,932
    13c8:	0000                	unimp
    13ca:	5f01                	li	t5,-32
    13cc:	6102                	ld	sp,0(sp)
    13ce:	01000017          	auipc	zero,0x1000
    13d2:	0061                	c.nop	24
    13d4:	0000                	unimp
    13d6:	0000                	unimp
    13d8:	7308                	ld	a0,32(a4)
    13da:	0016                	c.slli	zero,0x5
    13dc:	b000                	fsd	fs0,32(s0)
    13de:	a005                	j	13fe <_text-0x9fec02>
    13e0:	0000                	unimp
    13e2:	0000                	unimp
    13e4:	8500                	0x8500
    13e6:	0001                	nop
    13e8:	0100                	addi	s0,sp,128
    13ea:	0d16                	slli	s10,s10,0x5
    13ec:	0960                	addi	s0,sp,156
    13ee:	0000                	unimp
    13f0:	7e01                	lui	t3,0xfffe0
    13f2:	0016                	c.slli	zero,0x5
    13f4:	3000                	fld	fs0,32(s0)
    13f6:	001f 0700 1689      	0x16890700001f
    13fc:	0000                	unimp
    13fe:	05c8                	addi	a0,sp,708
    1400:	00a0                	addi	s0,sp,72
    1402:	0000                	unimp
    1404:	0000                	unimp
    1406:	01a8                	addi	a0,sp,200
    1408:	0000                	unimp
    140a:	1502                	slli	a0,a0,0x20
    140c:	0309                	addi	t1,t1,2
    140e:	1692                	slli	a3,a3,0x24
    1410:	0000                	unimp
    1412:	0644                	addi	s1,sp,772
    1414:	00a0                	addi	s0,sp,72
    1416:	0000                	unimp
    1418:	0000                	unimp
    141a:	0020                	addi	s0,sp,8
    141c:	0000                	unimp
    141e:	0000                	unimp
    1420:	0000                	unimp
    1422:	0d02                	c.slli64	s10
    1424:	0109                	addi	sp,sp,2
    1426:	16a9                	addi	a3,a3,-22
    1428:	0000                	unimp
    142a:	1f59                	addi	t5,t5,-10
    142c:	0000                	unimp
    142e:	9d04                	0x9d04
    1430:	0016                	c.slli	zero,0x5
    1432:	0300                	addi	s0,sp,384
    1434:	16cc                	addi	a1,sp,868
    1436:	0000                	unimp
    1438:	0644                	addi	s1,sp,772
    143a:	00a0                	addi	s0,sp,72
    143c:	0000                	unimp
    143e:	0000                	unimp
    1440:	0020                	addi	s0,sp,8
    1442:	0000                	unimp
    1444:	0000                	unimp
    1446:	0000                	unimp
    1448:	01051103          	lh	sp,16(a0)
    144c:	171f 0000 1f6f      	0x1f6f0000171f
    1452:	0000                	unimp
    1454:	1301                	addi	t1,t1,-32
    1456:	6f000017          	auipc	zero,0x6f000
    145a:	001f 0100 1707      	0x17070100001f
    1460:	0000                	unimp
    1462:	00001f6f          	jal	t5,2462 <_text-0x9fdb9e>
    1466:	fb01                	bnez	a4,1376 <_text-0x9fec8a>
    1468:	0016                	c.slli	zero,0x5
    146a:	6f00                	ld	s0,24(a4)
    146c:	001f 0100 16ef      	0x16ef0100001f
    1472:	0000                	unimp
    1474:	1f59                	addi	t5,t5,-10
    1476:	0000                	unimp
    1478:	e304                	sd	s1,0(a4)
    147a:	0016                	c.slli	zero,0x5
    147c:	0100                	addi	s0,sp,128
    147e:	16d9                	addi	a3,a3,-10
    1480:	0000                	unimp
    1482:	1f84                	addi	s1,sp,1008
    1484:	0000                	unimp
    1486:	2b02                	fld	fs6,0(sp)
    1488:	01000017          	auipc	zero,0x1000
    148c:	025a                	slli	tp,tp,0x16
    148e:	1734                	addi	a3,sp,936
    1490:	0000                	unimp
    1492:	5b01                	li	s6,-32
    1494:	3d02                	fld	fs10,32(sp)
    1496:	01000017          	auipc	zero,0x1000
    149a:	025c                	addi	a5,sp,260
    149c:	1746                	slli	a4,a4,0x31
    149e:	0000                	unimp
    14a0:	5d01                	li	s10,-32
    14a2:	4f02                	lw	t5,0(sp)
    14a4:	01000017          	auipc	zero,0x1000
    14a8:	025e                	slli	tp,tp,0x17
    14aa:	1758                	addi	a4,sp,932
    14ac:	0000                	unimp
    14ae:	5f01                	li	t5,-32
    14b0:	6102                	ld	sp,0(sp)
    14b2:	01000017          	auipc	zero,0x1000
    14b6:	0061                	c.nop	24
    14b8:	0000                	unimp
    14ba:	1300                	addi	s0,sp,416
    14bc:	00001673          	csrrw	a2,ustatus,zero
    14c0:	05ec                	addi	a1,sp,716
    14c2:	00a0                	addi	s0,sp,72
    14c4:	0000                	unimp
    14c6:	0000                	unimp
    14c8:	0044                	addi	s1,sp,4
    14ca:	0000                	unimp
    14cc:	0000                	unimp
    14ce:	0000                	unimp
    14d0:	1114                	addi	a3,sp,160
    14d2:	0a4a                	slli	s4,s4,0x12
    14d4:	0000                	unimp
    14d6:	7e01                	lui	t3,0xfffe0
    14d8:	0016                	c.slli	zero,0x5
    14da:	9900                	0x9900
    14dc:	001f 0300 1689      	0x16890300001f
    14e2:	0000                	unimp
    14e4:	0608                	addi	a0,sp,768
    14e6:	00a0                	addi	s0,sp,72
    14e8:	0000                	unimp
    14ea:	0000                	unimp
    14ec:	0028                	addi	a0,sp,8
    14ee:	0000                	unimp
    14f0:	0000                	unimp
    14f2:	0000                	unimp
    14f4:	1502                	slli	a0,a0,0x20
    14f6:	0309                	addi	t1,t1,2
    14f8:	1692                	slli	a3,a3,0x24
    14fa:	0000                	unimp
    14fc:	060c                	addi	a1,sp,768
    14fe:	00a0                	addi	s0,sp,72
    1500:	0000                	unimp
    1502:	0000                	unimp
    1504:	0020                	addi	s0,sp,8
    1506:	0000                	unimp
    1508:	0000                	unimp
    150a:	0000                	unimp
    150c:	0d02                	c.slli64	s10
    150e:	0109                	addi	sp,sp,2
    1510:	16a9                	addi	a3,a3,-22
    1512:	0000                	unimp
    1514:	1fae                	slli	t6,t6,0x2b
    1516:	0000                	unimp
    1518:	9d04                	0x9d04
    151a:	0016                	c.slli	zero,0x5
    151c:	0300                	addi	s0,sp,384
    151e:	16cc                	addi	a1,sp,868
    1520:	0000                	unimp
    1522:	060c                	addi	a1,sp,768
    1524:	00a0                	addi	s0,sp,72
    1526:	0000                	unimp
    1528:	0000                	unimp
    152a:	0020                	addi	s0,sp,8
    152c:	0000                	unimp
    152e:	0000                	unimp
    1530:	0000                	unimp
    1532:	01051103          	lh	sp,16(a0)
    1536:	171f 0000 1fc4      	0x1fc40000171f
    153c:	0000                	unimp
    153e:	1301                	addi	t1,t1,-32
    1540:	c4000017          	auipc	zero,0xc4000
    1544:	001f 0100 1707      	0x17070100001f
    154a:	0000                	unimp
    154c:	1fc4                	addi	s1,sp,1012
    154e:	0000                	unimp
    1550:	fb01                	bnez	a4,1460 <_text-0x9feba0>
    1552:	0016                	c.slli	zero,0x5
    1554:	c400                	sw	s0,8(s0)
    1556:	001f 0100 16ef      	0x16ef0100001f
    155c:	0000                	unimp
    155e:	1fae                	slli	t6,t6,0x2b
    1560:	0000                	unimp
    1562:	e304                	sd	s1,0(a4)
    1564:	0016                	c.slli	zero,0x5
    1566:	0100                	addi	s0,sp,128
    1568:	16d9                	addi	a3,a3,-10
    156a:	0000                	unimp
    156c:	1fd9                	addi	t6,t6,-10
    156e:	0000                	unimp
    1570:	2b02                	fld	fs6,0(sp)
    1572:	01000017          	auipc	zero,0x1000
    1576:	025a                	slli	tp,tp,0x16
    1578:	1734                	addi	a3,sp,936
    157a:	0000                	unimp
    157c:	5b01                	li	s6,-32
    157e:	3d02                	fld	fs10,32(sp)
    1580:	01000017          	auipc	zero,0x1000
    1584:	025c                	addi	a5,sp,260
    1586:	1746                	slli	a4,a4,0x31
    1588:	0000                	unimp
    158a:	5d01                	li	s10,-32
    158c:	4f02                	lw	t5,0(sp)
    158e:	01000017          	auipc	zero,0x1000
    1592:	025e                	slli	tp,tp,0x17
    1594:	1758                	addi	a4,sp,932
    1596:	0000                	unimp
    1598:	5f01                	li	t5,-32
    159a:	6102                	ld	sp,0(sp)
    159c:	01000017          	auipc	zero,0x1000
    15a0:	0061                	c.nop	24
    15a2:	0000                	unimp
    15a4:	0800                	addi	s0,sp,16
    15a6:	00001673          	csrrw	a2,ustatus,zero
    15aa:	0808                	addi	a0,sp,16
    15ac:	00a0                	addi	s0,sp,72
    15ae:	0000                	unimp
    15b0:	0000                	unimp
    15b2:	000001cb          	fnmsub.s	ft3,ft0,ft0,ft0,rne
    15b6:	4701                	li	a4,0
    15b8:	2d11                	addiw	s10,s10,4
    15ba:	0100000b          	0x100000b
    15be:	167e                	slli	a2,a2,0x3f
    15c0:	0000                	unimp
    15c2:	1fee                	slli	t6,t6,0x3b
    15c4:	0000                	unimp
    15c6:	00168907          	0x168907
    15ca:	2000                	fld	fs0,0(s0)
    15cc:	a008                	fsd	fa0,0(s0)
    15ce:	0000                	unimp
    15d0:	0000                	unimp
    15d2:	ee00                	sd	s0,24(a2)
    15d4:	0001                	nop
    15d6:	0200                	addi	s0,sp,256
    15d8:	0915                	addi	s2,s2,5
    15da:	00169203          	lh	tp,1(a3)
    15de:	2800                	fld	fs0,16(s0)
    15e0:	a008                	fsd	fa0,0(s0)
    15e2:	0000                	unimp
    15e4:	0000                	unimp
    15e6:	2000                	fld	fs0,0(s0)
    15e8:	0000                	unimp
    15ea:	0000                	unimp
    15ec:	0000                	unimp
    15ee:	0200                	addi	s0,sp,256
    15f0:	090d                	addi	s2,s2,3
    15f2:	a901                	j	1a02 <_text-0x9fe5fe>
    15f4:	0016                	c.slli	zero,0x5
    15f6:	1600                	addi	s0,sp,800
    15f8:	0020                	addi	s0,sp,8
    15fa:	0400                	addi	s0,sp,512
    15fc:	169d                	addi	a3,a3,-25
    15fe:	0000                	unimp
    1600:	0016cc03          	lbu	s8,1(a3)
    1604:	2800                	fld	fs0,16(s0)
    1606:	a008                	fsd	fa0,0(s0)
    1608:	0000                	unimp
    160a:	0000                	unimp
    160c:	2000                	fld	fs0,0(s0)
    160e:	0000                	unimp
    1610:	0000                	unimp
    1612:	0000                	unimp
    1614:	0300                	addi	s0,sp,384
    1616:	0511                	addi	a0,a0,4
    1618:	1f01                	addi	t5,t5,-32
    161a:	2c000017          	auipc	zero,0x2c000
    161e:	0020                	addi	s0,sp,8
    1620:	0100                	addi	s0,sp,128
    1622:	00001713          	slli	a4,zero,0x0
    1626:	202c                	fld	fa1,64(s0)
    1628:	0000                	unimp
    162a:	0701                	addi	a4,a4,0
    162c:	2c000017          	auipc	zero,0x2c000
    1630:	0020                	addi	s0,sp,8
    1632:	0100                	addi	s0,sp,128
    1634:	000016fb          	0x16fb
    1638:	202c                	fld	fa1,64(s0)
    163a:	0000                	unimp
    163c:	ef01                	bnez	a4,1654 <_text-0x9fe9ac>
    163e:	0016                	c.slli	zero,0x5
    1640:	1600                	addi	s0,sp,800
    1642:	0020                	addi	s0,sp,8
    1644:	0400                	addi	s0,sp,512
    1646:	000016e3          	bnez	zero,1e52 <_text-0x9fe1ae>
    164a:	d901                	beqz	a0,155a <_text-0x9feaa6>
    164c:	0016                	c.slli	zero,0x5
    164e:	4100                	lw	s0,0(a0)
    1650:	0020                	addi	s0,sp,8
    1652:	0200                	addi	s0,sp,256
    1654:	0000172b          	0x172b
    1658:	5a01                	li	s4,-32
    165a:	3402                	fld	fs0,32(sp)
    165c:	01000017          	auipc	zero,0x1000
    1660:	173d025b          	0x173d025b
    1664:	0000                	unimp
    1666:	5c01                	li	s8,-32
    1668:	4602                	lw	a2,0(sp)
    166a:	01000017          	auipc	zero,0x1000
    166e:	025d                	addi	tp,tp,23
    1670:	0000174f          	fnmadd.s	fa4,ft0,ft0,ft0,rtz
    1674:	5e01                	li	t3,-32
    1676:	5802                	lw	a6,32(sp)
    1678:	01000017          	auipc	zero,0x1000
    167c:	025f 1761 0000      	0x1761025f
    1682:	6101                	addi	sp,sp,0
    1684:	0000                	unimp
    1686:	0000                	unimp
    1688:	5d08                	lw	a0,56(a0)
    168a:	0016                	c.slli	zero,0x5
    168c:	7800                	ld	s0,48(s0)
    168e:	a008                	fsd	fa0,0(s0)
    1690:	0000                	unimp
    1692:	0000                	unimp
    1694:	1100                	addi	s0,sp,160
    1696:	0002                	c.slli64	zero
    1698:	0100                	addi	s0,sp,128
    169a:	1158                	addi	a4,sp,164
    169c:	0d15                	addi	s10,s10,5
    169e:	0000                	unimp
    16a0:	6801                	0x6801
    16a2:	0016                	c.slli	zero,0x5
    16a4:	5600                	lw	s0,40(a2)
    16a6:	0020                	addi	s0,sp,8
    16a8:	0800                	addi	s0,sp,16
    16aa:	00001673          	csrrw	a2,ustatus,zero
    16ae:	0888                	addi	a0,sp,80
    16b0:	00a0                	addi	s0,sp,72
    16b2:	0000                	unimp
    16b4:	0000                	unimp
    16b6:	0234                	addi	a3,sp,264
    16b8:	0000                	unimp
    16ba:	1c02                	slli	s8,s8,0x20
    16bc:	350d                	addiw	a0,a0,-29
    16be:	000c                	0xc
    16c0:	0100                	addi	s0,sp,128
    16c2:	167e                	slli	a2,a2,0x3f
    16c4:	0000                	unimp
    16c6:	20d0                	fld	fa2,128(s1)
    16c8:	0000                	unimp
    16ca:	00168903          	lb	s2,1(a3)
    16ce:	fc00                	sd	s0,56(s0)
    16d0:	a008                	fsd	fa0,0(s0)
    16d2:	0000                	unimp
    16d4:	0000                	unimp
    16d6:	2400                	fld	fs0,8(s0)
    16d8:	0000                	unimp
    16da:	0000                	unimp
    16dc:	0000                	unimp
    16de:	0200                	addi	s0,sp,256
    16e0:	0915                	addi	s2,s2,5
    16e2:	00169203          	lh	tp,1(a3)
    16e6:	0000                	unimp
    16e8:	a009                	j	16ea <_text-0x9fe916>
    16ea:	0000                	unimp
    16ec:	0000                	unimp
    16ee:	2000                	fld	fs0,0(s0)
    16f0:	0000                	unimp
    16f2:	0000                	unimp
    16f4:	0000                	unimp
    16f6:	0200                	addi	s0,sp,256
    16f8:	090d                	addi	s2,s2,3
    16fa:	a901                	j	1b0a <_text-0x9fe4f6>
    16fc:	0016                	c.slli	zero,0x5
    16fe:	e500                	sd	s0,8(a0)
    1700:	0020                	addi	s0,sp,8
    1702:	0400                	addi	s0,sp,512
    1704:	169d                	addi	a3,a3,-25
    1706:	0000                	unimp
    1708:	0016cc03          	lbu	s8,1(a3)
    170c:	0000                	unimp
    170e:	a009                	j	1710 <_text-0x9fe8f0>
    1710:	0000                	unimp
    1712:	0000                	unimp
    1714:	2000                	fld	fs0,0(s0)
    1716:	0000                	unimp
    1718:	0000                	unimp
    171a:	0000                	unimp
    171c:	0300                	addi	s0,sp,384
    171e:	0511                	addi	a0,a0,4
    1720:	1f01                	addi	t5,t5,-32
    1722:	fb000017          	auipc	zero,0xfb000
    1726:	0020                	addi	s0,sp,8
    1728:	0100                	addi	s0,sp,128
    172a:	00001713          	slli	a4,zero,0x0
    172e:	000020fb          	0x20fb
    1732:	0701                	addi	a4,a4,0
    1734:	fb000017          	auipc	zero,0xfb000
    1738:	0020                	addi	s0,sp,8
    173a:	0100                	addi	s0,sp,128
    173c:	000016fb          	0x16fb
    1740:	000020fb          	0x20fb
    1744:	ef01                	bnez	a4,175c <_text-0x9fe8a4>
    1746:	0016                	c.slli	zero,0x5
    1748:	e500                	sd	s0,8(a0)
    174a:	0020                	addi	s0,sp,8
    174c:	0400                	addi	s0,sp,512
    174e:	000016e3          	bnez	zero,1f5a <_text-0x9fe0a6>
    1752:	d901                	beqz	a0,1662 <_text-0x9fe99e>
    1754:	0016                	c.slli	zero,0x5
    1756:	1000                	addi	s0,sp,32
    1758:	0021                	c.nop	8
    175a:	0200                	addi	s0,sp,256
    175c:	0000172b          	0x172b
    1760:	5a01                	li	s4,-32
    1762:	3402                	fld	fs0,32(sp)
    1764:	01000017          	auipc	zero,0x1000
    1768:	173d025b          	0x173d025b
    176c:	0000                	unimp
    176e:	5c01                	li	s8,-32
    1770:	4602                	lw	a2,0(sp)
    1772:	01000017          	auipc	zero,0x1000
    1776:	025d                	addi	tp,tp,23
    1778:	0000174f          	fnmadd.s	fa4,ft0,ft0,ft0,rtz
    177c:	5e01                	li	t3,-32
    177e:	5802                	lw	a6,32(sp)
    1780:	01000017          	auipc	zero,0x1000
    1784:	025f 1761 0000      	0x1761025f
    178a:	6101                	addi	sp,sp,0
    178c:	0000                	unimp
    178e:	0000                	unimp
    1790:	00167307          	0x167307
    1794:	8c00                	0x8c00
    1796:	a008                	fsd	fa0,0(s0)
    1798:	0000                	unimp
    179a:	0000                	unimp
    179c:	5700                	lw	s0,40(a4)
    179e:	0002                	c.slli64	zero
    17a0:	0200                	addi	s0,sp,256
    17a2:	091d                	addi	s2,s2,7
    17a4:	7e01                	lui	t3,0xfffe0
    17a6:	0016                	c.slli	zero,0x5
    17a8:	2500                	fld	fs0,8(a0)
    17aa:	0021                	c.nop	8
    17ac:	0700                	addi	s0,sp,896
    17ae:	1689                	addi	a3,a3,-30
    17b0:	0000                	unimp
    17b2:	08d0                	addi	a2,sp,84
    17b4:	00a0                	addi	s0,sp,72
    17b6:	0000                	unimp
    17b8:	0000                	unimp
    17ba:	0000028b          	0x28b
    17be:	1502                	slli	a0,a0,0x20
    17c0:	0309                	addi	t1,t1,2
    17c2:	1692                	slli	a3,a3,0x24
    17c4:	0000                	unimp
    17c6:	0934                	addi	a3,sp,152
    17c8:	00a0                	addi	s0,sp,72
    17ca:	0000                	unimp
    17cc:	0000                	unimp
    17ce:	0020                	addi	s0,sp,8
    17d0:	0000                	unimp
    17d2:	0000                	unimp
    17d4:	0000                	unimp
    17d6:	0d02                	c.slli64	s10
    17d8:	0109                	addi	sp,sp,2
    17da:	16a9                	addi	a3,a3,-22
    17dc:	0000                	unimp
    17de:	2162                	fld	ft2,24(sp)
    17e0:	0000                	unimp
    17e2:	9d04                	0x9d04
    17e4:	0016                	c.slli	zero,0x5
    17e6:	0300                	addi	s0,sp,384
    17e8:	16cc                	addi	a1,sp,868
    17ea:	0000                	unimp
    17ec:	0934                	addi	a3,sp,152
    17ee:	00a0                	addi	s0,sp,72
    17f0:	0000                	unimp
    17f2:	0000                	unimp
    17f4:	0020                	addi	s0,sp,8
    17f6:	0000                	unimp
    17f8:	0000                	unimp
    17fa:	0000                	unimp
    17fc:	01051103          	lh	sp,16(a0)
    1800:	171f 0000 2178      	0x21780000171f
    1806:	0000                	unimp
    1808:	1301                	addi	t1,t1,-32
    180a:	78000017          	auipc	zero,0x78000
    180e:	0021                	c.nop	8
    1810:	0100                	addi	s0,sp,128
    1812:	00001707          	0x1707
    1816:	2178                	fld	fa4,192(a0)
    1818:	0000                	unimp
    181a:	fb01                	bnez	a4,172a <_text-0x9fe8d6>
    181c:	0016                	c.slli	zero,0x5
    181e:	7800                	ld	s0,48(s0)
    1820:	0021                	c.nop	8
    1822:	0100                	addi	s0,sp,128
    1824:	000016ef          	jal	a3,2824 <_text-0x9fd7dc>
    1828:	2162                	fld	ft2,24(sp)
    182a:	0000                	unimp
    182c:	e304                	sd	s1,0(a4)
    182e:	0016                	c.slli	zero,0x5
    1830:	0100                	addi	s0,sp,128
    1832:	16d9                	addi	a3,a3,-10
    1834:	0000                	unimp
    1836:	218d                	addiw	gp,gp,3
    1838:	0000                	unimp
    183a:	2b02                	fld	fs6,0(sp)
    183c:	01000017          	auipc	zero,0x1000
    1840:	025a                	slli	tp,tp,0x16
    1842:	1734                	addi	a3,sp,936
    1844:	0000                	unimp
    1846:	5b01                	li	s6,-32
    1848:	3d02                	fld	fs10,32(sp)
    184a:	01000017          	auipc	zero,0x1000
    184e:	025c                	addi	a5,sp,260
    1850:	1746                	slli	a4,a4,0x31
    1852:	0000                	unimp
    1854:	5d01                	li	s10,-32
    1856:	4f02                	lw	t5,0(sp)
    1858:	01000017          	auipc	zero,0x1000
    185c:	025e                	slli	tp,tp,0x17
    185e:	1758                	addi	a4,sp,932
    1860:	0000                	unimp
    1862:	5f01                	li	t5,-32
    1864:	6102                	ld	sp,0(sp)
    1866:	01000017          	auipc	zero,0x1000
    186a:	0061                	c.nop	24
    186c:	0000                	unimp
    186e:	0000                	unimp
    1870:	5d08                	lw	a0,56(a0)
    1872:	0016                	c.slli	zero,0x5
    1874:	9400                	0x9400
    1876:	a009                	j	1878 <_text-0x9fe788>
    1878:	0000                	unimp
    187a:	0000                	unimp
    187c:	ae00                	fsd	fs0,24(a2)
    187e:	0002                	c.slli64	zero
    1880:	0100                	addi	s0,sp,128
    1882:	1164                	addi	s1,sp,172
    1884:	0efd                	addi	t4,t4,31
    1886:	0000                	unimp
    1888:	6801                	0x6801
    188a:	0016                	c.slli	zero,0x5
    188c:	a200                	fsd	fs0,0(a2)
    188e:	0021                	c.nop	8
    1890:	0800                	addi	s0,sp,16
    1892:	00001673          	csrrw	a2,ustatus,zero
    1896:	09a4                	addi	s1,sp,216
    1898:	00a0                	addi	s0,sp,72
    189a:	0000                	unimp
    189c:	0000                	unimp
    189e:	02d1                	addi	t0,t0,20
    18a0:	0000                	unimp
    18a2:	1c02                	slli	s8,s8,0x20
    18a4:	1d0d                	addi	s10,s10,-29
    18a6:	000e                	c.slli	zero,0x3
    18a8:	0100                	addi	s0,sp,128
    18aa:	167e                	slli	a2,a2,0x3f
    18ac:	0000                	unimp
    18ae:	221c                	fld	fa5,0(a2)
    18b0:	0000                	unimp
    18b2:	00168903          	lb	s2,1(a3)
    18b6:	0800                	addi	s0,sp,16
    18b8:	a00a                	fsd	ft2,0(sp)
    18ba:	0000                	unimp
    18bc:	0000                	unimp
    18be:	2400                	fld	fs0,8(s0)
    18c0:	0000                	unimp
    18c2:	0000                	unimp
    18c4:	0000                	unimp
    18c6:	0200                	addi	s0,sp,256
    18c8:	0915                	addi	s2,s2,5
    18ca:	00169203          	lh	tp,1(a3)
    18ce:	0c00                	addi	s0,sp,528
    18d0:	a00a                	fsd	ft2,0(sp)
    18d2:	0000                	unimp
    18d4:	0000                	unimp
    18d6:	2000                	fld	fs0,0(s0)
    18d8:	0000                	unimp
    18da:	0000                	unimp
    18dc:	0000                	unimp
    18de:	0200                	addi	s0,sp,256
    18e0:	090d                	addi	s2,s2,3
    18e2:	a901                	j	1cf2 <_text-0x9fe30e>
    18e4:	0016                	c.slli	zero,0x5
    18e6:	3100                	fld	fs0,32(a0)
    18e8:	0022                	c.slli	zero,0x8
    18ea:	0400                	addi	s0,sp,512
    18ec:	169d                	addi	a3,a3,-25
    18ee:	0000                	unimp
    18f0:	0016cc03          	lbu	s8,1(a3)
    18f4:	0c00                	addi	s0,sp,528
    18f6:	a00a                	fsd	ft2,0(sp)
    18f8:	0000                	unimp
    18fa:	0000                	unimp
    18fc:	2000                	fld	fs0,0(s0)
    18fe:	0000                	unimp
    1900:	0000                	unimp
    1902:	0000                	unimp
    1904:	0300                	addi	s0,sp,384
    1906:	0511                	addi	a0,a0,4
    1908:	1f01                	addi	t5,t5,-32
    190a:	47000017          	auipc	zero,0x47000
    190e:	0022                	c.slli	zero,0x8
    1910:	0100                	addi	s0,sp,128
    1912:	00001713          	slli	a4,zero,0x0
    1916:	00002247          	fmsub.s	ft4,ft0,ft0,ft0,rdn
    191a:	0701                	addi	a4,a4,0
    191c:	47000017          	auipc	zero,0x47000
    1920:	0022                	c.slli	zero,0x8
    1922:	0100                	addi	s0,sp,128
    1924:	000016fb          	0x16fb
    1928:	00002247          	fmsub.s	ft4,ft0,ft0,ft0,rdn
    192c:	ef01                	bnez	a4,1944 <_text-0x9fe6bc>
    192e:	0016                	c.slli	zero,0x5
    1930:	3100                	fld	fs0,32(a0)
    1932:	0022                	c.slli	zero,0x8
    1934:	0400                	addi	s0,sp,512
    1936:	000016e3          	bnez	zero,2142 <_text-0x9fdebe>
    193a:	d901                	beqz	a0,184a <_text-0x9fe7b6>
    193c:	0016                	c.slli	zero,0x5
    193e:	5c00                	lw	s0,56(s0)
    1940:	0022                	c.slli	zero,0x8
    1942:	0200                	addi	s0,sp,256
    1944:	0000172b          	0x172b
    1948:	5a01                	li	s4,-32
    194a:	3402                	fld	fs0,32(sp)
    194c:	01000017          	auipc	zero,0x1000
    1950:	173d025b          	0x173d025b
    1954:	0000                	unimp
    1956:	5c01                	li	s8,-32
    1958:	4602                	lw	a2,0(sp)
    195a:	01000017          	auipc	zero,0x1000
    195e:	025d                	addi	tp,tp,23
    1960:	0000174f          	fnmadd.s	fa4,ft0,ft0,ft0,rtz
    1964:	5e01                	li	t3,-32
    1966:	5802                	lw	a6,32(sp)
    1968:	01000017          	auipc	zero,0x1000
    196c:	025f 1761 0000      	0x1761025f
    1972:	6101                	addi	sp,sp,0
    1974:	0000                	unimp
    1976:	0000                	unimp
    1978:	00167307          	0x167307
    197c:	a800                	fsd	fs0,16(s0)
    197e:	a009                	j	1980 <_text-0x9fe680>
    1980:	0000                	unimp
    1982:	0000                	unimp
    1984:	f400                	sd	s0,40(s0)
    1986:	0002                	c.slli64	zero
    1988:	0200                	addi	s0,sp,256
    198a:	091d                	addi	s2,s2,7
    198c:	7e01                	lui	t3,0xfffe0
    198e:	0016                	c.slli	zero,0x5
    1990:	7100                	ld	s0,32(a0)
    1992:	0022                	c.slli	zero,0x8
    1994:	0700                	addi	s0,sp,896
    1996:	1689                	addi	a3,a3,-30
    1998:	0000                	unimp
    199a:	09dc                	addi	a5,sp,212
    199c:	00a0                	addi	s0,sp,72
    199e:	0000                	unimp
    19a0:	0000                	unimp
    19a2:	0328                	addi	a0,sp,392
    19a4:	0000                	unimp
    19a6:	1502                	slli	a0,a0,0x20
    19a8:	0309                	addi	t1,t1,2
    19aa:	1692                	slli	a3,a3,0x24
    19ac:	0000                	unimp
    19ae:	0a40                	addi	s0,sp,276
    19b0:	00a0                	addi	s0,sp,72
    19b2:	0000                	unimp
    19b4:	0000                	unimp
    19b6:	0020                	addi	s0,sp,8
    19b8:	0000                	unimp
    19ba:	0000                	unimp
    19bc:	0000                	unimp
    19be:	0d02                	c.slli64	s10
    19c0:	0109                	addi	sp,sp,2
    19c2:	16a9                	addi	a3,a3,-22
    19c4:	0000                	unimp
    19c6:	22ae                	fld	ft5,200(sp)
    19c8:	0000                	unimp
    19ca:	9d04                	0x9d04
    19cc:	0016                	c.slli	zero,0x5
    19ce:	0300                	addi	s0,sp,384
    19d0:	16cc                	addi	a1,sp,868
    19d2:	0000                	unimp
    19d4:	0a40                	addi	s0,sp,276
    19d6:	00a0                	addi	s0,sp,72
    19d8:	0000                	unimp
    19da:	0000                	unimp
    19dc:	0020                	addi	s0,sp,8
    19de:	0000                	unimp
    19e0:	0000                	unimp
    19e2:	0000                	unimp
    19e4:	01051103          	lh	sp,16(a0)
    19e8:	171f 0000 22c4      	0x22c40000171f
    19ee:	0000                	unimp
    19f0:	1301                	addi	t1,t1,-32
    19f2:	c4000017          	auipc	zero,0xc4000
    19f6:	0022                	c.slli	zero,0x8
    19f8:	0100                	addi	s0,sp,128
    19fa:	00001707          	0x1707
    19fe:	22c4                	fld	fs1,128(a3)
    1a00:	0000                	unimp
    1a02:	fb01                	bnez	a4,1912 <_text-0x9fe6ee>
    1a04:	0016                	c.slli	zero,0x5
    1a06:	c400                	sw	s0,8(s0)
    1a08:	0022                	c.slli	zero,0x8
    1a0a:	0100                	addi	s0,sp,128
    1a0c:	000016ef          	jal	a3,2a0c <_text-0x9fd5f4>
    1a10:	22ae                	fld	ft5,200(sp)
    1a12:	0000                	unimp
    1a14:	e304                	sd	s1,0(a4)
    1a16:	0016                	c.slli	zero,0x5
    1a18:	0100                	addi	s0,sp,128
    1a1a:	16d9                	addi	a3,a3,-10
    1a1c:	0000                	unimp
    1a1e:	22d9                	addiw	t0,t0,22
    1a20:	0000                	unimp
    1a22:	2b02                	fld	fs6,0(sp)
    1a24:	01000017          	auipc	zero,0x1000
    1a28:	025a                	slli	tp,tp,0x16
    1a2a:	1734                	addi	a3,sp,936
    1a2c:	0000                	unimp
    1a2e:	5b01                	li	s6,-32
    1a30:	3d02                	fld	fs10,32(sp)
    1a32:	01000017          	auipc	zero,0x1000
    1a36:	025c                	addi	a5,sp,260
    1a38:	1746                	slli	a4,a4,0x31
    1a3a:	0000                	unimp
    1a3c:	5d01                	li	s10,-32
    1a3e:	4f02                	lw	t5,0(sp)
    1a40:	01000017          	auipc	zero,0x1000
    1a44:	025e                	slli	tp,tp,0x17
    1a46:	1758                	addi	a4,sp,932
    1a48:	0000                	unimp
    1a4a:	5f01                	li	t5,-32
    1a4c:	6102                	ld	sp,0(sp)
    1a4e:	01000017          	auipc	zero,0x1000
    1a52:	0061                	c.nop	24
    1a54:	0000                	unimp
    1a56:	0000                	unimp
    1a58:	5d08                	lw	a0,56(a0)
    1a5a:	0016                	c.slli	zero,0x5
    1a5c:	a000                	fsd	fs0,0(s0)
    1a5e:	a00a                	fsd	ft2,0(sp)
    1a60:	0000                	unimp
    1a62:	0000                	unimp
    1a64:	4b00                	lw	s0,16(a4)
    1a66:	01000003          	lb	zero,16(zero) # 10 <_text-0x9ffff0>
    1a6a:	1170                	addi	a2,sp,172
    1a6c:	10e5                	addi	ra,ra,-7
    1a6e:	0000                	unimp
    1a70:	6801                	0x6801
    1a72:	0016                	c.slli	zero,0x5
    1a74:	ee00                	sd	s0,24(a2)
    1a76:	0022                	c.slli	zero,0x8
    1a78:	0800                	addi	s0,sp,16
    1a7a:	00001673          	csrrw	a2,ustatus,zero
    1a7e:	0ab0                	addi	a2,sp,344
    1a80:	00a0                	addi	s0,sp,72
    1a82:	0000                	unimp
    1a84:	0000                	unimp
    1a86:	036e                	slli	t1,t1,0x1b
    1a88:	0000                	unimp
    1a8a:	1c02                	slli	s8,s8,0x20
    1a8c:	050d                	addi	a0,a0,3
    1a8e:	0010                	0x10
    1a90:	0100                	addi	s0,sp,128
    1a92:	167e                	slli	a2,a2,0x3f
    1a94:	0000                	unimp
    1a96:	2368                	fld	fa0,192(a4)
    1a98:	0000                	unimp
    1a9a:	00168903          	lb	s2,1(a3)
    1a9e:	1400                	addi	s0,sp,544
    1aa0:	0000a00b          	0xa00b
    1aa4:	0000                	unimp
    1aa6:	2400                	fld	fs0,8(s0)
    1aa8:	0000                	unimp
    1aaa:	0000                	unimp
    1aac:	0000                	unimp
    1aae:	0200                	addi	s0,sp,256
    1ab0:	0915                	addi	s2,s2,5
    1ab2:	00169203          	lh	tp,1(a3)
    1ab6:	1800                	addi	s0,sp,48
    1ab8:	0000a00b          	0xa00b
    1abc:	0000                	unimp
    1abe:	2000                	fld	fs0,0(s0)
    1ac0:	0000                	unimp
    1ac2:	0000                	unimp
    1ac4:	0000                	unimp
    1ac6:	0200                	addi	s0,sp,256
    1ac8:	090d                	addi	s2,s2,3
    1aca:	a901                	j	1eda <_text-0x9fe126>
    1acc:	0016                	c.slli	zero,0x5
    1ace:	7d00                	ld	s0,56(a0)
    1ad0:	04000023          	sb	zero,64(zero) # 40 <_text-0x9fffc0>
    1ad4:	169d                	addi	a3,a3,-25
    1ad6:	0000                	unimp
    1ad8:	0016cc03          	lbu	s8,1(a3)
    1adc:	1800                	addi	s0,sp,48
    1ade:	0000a00b          	0xa00b
    1ae2:	0000                	unimp
    1ae4:	2000                	fld	fs0,0(s0)
    1ae6:	0000                	unimp
    1ae8:	0000                	unimp
    1aea:	0000                	unimp
    1aec:	0300                	addi	s0,sp,384
    1aee:	0511                	addi	a0,a0,4
    1af0:	1f01                	addi	t5,t5,-32
    1af2:	93000017          	auipc	zero,0x93000
    1af6:	01000023          	sb	a6,0(zero) # 0 <_text-0xa00000>
    1afa:	00001713          	slli	a4,zero,0x0
    1afe:	00002393          	slti	t2,zero,0
    1b02:	0701                	addi	a4,a4,0
    1b04:	93000017          	auipc	zero,0x93000
    1b08:	01000023          	sb	a6,0(zero) # 0 <_text-0xa00000>
    1b0c:	000016fb          	0x16fb
    1b10:	00002393          	slti	t2,zero,0
    1b14:	ef01                	bnez	a4,1b2c <_text-0x9fe4d4>
    1b16:	0016                	c.slli	zero,0x5
    1b18:	7d00                	ld	s0,56(a0)
    1b1a:	04000023          	sb	zero,64(zero) # 40 <_text-0x9fffc0>
    1b1e:	000016e3          	bnez	zero,232a <_text-0x9fdcd6>
    1b22:	d901                	beqz	a0,1a32 <_text-0x9fe5ce>
    1b24:	0016                	c.slli	zero,0x5
    1b26:	a800                	fsd	fs0,16(s0)
    1b28:	02000023          	sb	zero,32(zero) # 20 <_text-0x9fffe0>
    1b2c:	0000172b          	0x172b
    1b30:	5a01                	li	s4,-32
    1b32:	3402                	fld	fs0,32(sp)
    1b34:	01000017          	auipc	zero,0x1000
    1b38:	173d025b          	0x173d025b
    1b3c:	0000                	unimp
    1b3e:	5c01                	li	s8,-32
    1b40:	4602                	lw	a2,0(sp)
    1b42:	01000017          	auipc	zero,0x1000
    1b46:	025d                	addi	tp,tp,23
    1b48:	0000174f          	fnmadd.s	fa4,ft0,ft0,ft0,rtz
    1b4c:	5e01                	li	t3,-32
    1b4e:	5802                	lw	a6,32(sp)
    1b50:	01000017          	auipc	zero,0x1000
    1b54:	025f 1761 0000      	0x1761025f
    1b5a:	6101                	addi	sp,sp,0
    1b5c:	0000                	unimp
    1b5e:	0000                	unimp
    1b60:	00167307          	0x167307
    1b64:	b400                	fsd	fs0,40(s0)
    1b66:	a00a                	fsd	ft2,0(sp)
    1b68:	0000                	unimp
    1b6a:	0000                	unimp
    1b6c:	9100                	0x9100
    1b6e:	02000003          	lb	zero,32(zero) # 20 <_text-0x9fffe0>
    1b72:	091d                	addi	s2,s2,7
    1b74:	7e01                	lui	t3,0xfffe0
    1b76:	0016                	c.slli	zero,0x5
    1b78:	bd00                	fsd	fs0,56(a0)
    1b7a:	07000023          	sb	a6,96(zero) # 60 <_text-0x9fffa0>
    1b7e:	1689                	addi	a3,a3,-30
    1b80:	0000                	unimp
    1b82:	0ae8                	addi	a0,sp,348
    1b84:	00a0                	addi	s0,sp,72
    1b86:	0000                	unimp
    1b88:	0000                	unimp
    1b8a:	03c5                	addi	t2,t2,17
    1b8c:	0000                	unimp
    1b8e:	1502                	slli	a0,a0,0x20
    1b90:	0309                	addi	t1,t1,2
    1b92:	1692                	slli	a3,a3,0x24
    1b94:	0000                	unimp
    1b96:	0b4c                	addi	a1,sp,404
    1b98:	00a0                	addi	s0,sp,72
    1b9a:	0000                	unimp
    1b9c:	0000                	unimp
    1b9e:	0020                	addi	s0,sp,8
    1ba0:	0000                	unimp
    1ba2:	0000                	unimp
    1ba4:	0000                	unimp
    1ba6:	0d02                	c.slli64	s10
    1ba8:	0109                	addi	sp,sp,2
    1baa:	16a9                	addi	a3,a3,-22
    1bac:	0000                	unimp
    1bae:	23fa                	fld	ft7,408(sp)
    1bb0:	0000                	unimp
    1bb2:	9d04                	0x9d04
    1bb4:	0016                	c.slli	zero,0x5
    1bb6:	0300                	addi	s0,sp,384
    1bb8:	16cc                	addi	a1,sp,868
    1bba:	0000                	unimp
    1bbc:	0b4c                	addi	a1,sp,404
    1bbe:	00a0                	addi	s0,sp,72
    1bc0:	0000                	unimp
    1bc2:	0000                	unimp
    1bc4:	0020                	addi	s0,sp,8
    1bc6:	0000                	unimp
    1bc8:	0000                	unimp
    1bca:	0000                	unimp
    1bcc:	01051103          	lh	sp,16(a0)
    1bd0:	171f 0000 2410      	0x24100000171f
    1bd6:	0000                	unimp
    1bd8:	1301                	addi	t1,t1,-32
    1bda:	10000017          	auipc	zero,0x10000
    1bde:	0024                	addi	s1,sp,8
    1be0:	0100                	addi	s0,sp,128
    1be2:	00001707          	0x1707
    1be6:	2410                	fld	fa2,8(s0)
    1be8:	0000                	unimp
    1bea:	fb01                	bnez	a4,1afa <_text-0x9fe506>
    1bec:	0016                	c.slli	zero,0x5
    1bee:	1000                	addi	s0,sp,32
    1bf0:	0024                	addi	s1,sp,8
    1bf2:	0100                	addi	s0,sp,128
    1bf4:	000016ef          	jal	a3,2bf4 <_text-0x9fd40c>
    1bf8:	23fa                	fld	ft7,408(sp)
    1bfa:	0000                	unimp
    1bfc:	e304                	sd	s1,0(a4)
    1bfe:	0016                	c.slli	zero,0x5
    1c00:	0100                	addi	s0,sp,128
    1c02:	16d9                	addi	a3,a3,-10
    1c04:	0000                	unimp
    1c06:	2425                	addiw	s0,s0,9
    1c08:	0000                	unimp
    1c0a:	2b02                	fld	fs6,0(sp)
    1c0c:	01000017          	auipc	zero,0x1000
    1c10:	025a                	slli	tp,tp,0x16
    1c12:	1734                	addi	a3,sp,936
    1c14:	0000                	unimp
    1c16:	5b01                	li	s6,-32
    1c18:	3d02                	fld	fs10,32(sp)
    1c1a:	01000017          	auipc	zero,0x1000
    1c1e:	025c                	addi	a5,sp,260
    1c20:	1746                	slli	a4,a4,0x31
    1c22:	0000                	unimp
    1c24:	5d01                	li	s10,-32
    1c26:	4f02                	lw	t5,0(sp)
    1c28:	01000017          	auipc	zero,0x1000
    1c2c:	025e                	slli	tp,tp,0x17
    1c2e:	1758                	addi	a4,sp,932
    1c30:	0000                	unimp
    1c32:	5f01                	li	t5,-32
    1c34:	6102                	ld	sp,0(sp)
    1c36:	01000017          	auipc	zero,0x1000
    1c3a:	0061                	c.nop	24
    1c3c:	0000                	unimp
    1c3e:	0000                	unimp
    1c40:	5d08                	lw	a0,56(a0)
    1c42:	0016                	c.slli	zero,0x5
    1c44:	ac00                	fsd	fs0,24(s0)
    1c46:	0000a00b          	0xa00b
    1c4a:	0000                	unimp
    1c4c:	e800                	sd	s0,16(s0)
    1c4e:	01000003          	lb	zero,16(zero) # 10 <_text-0x9ffff0>
    1c52:	12cd117b          	0x12cd117b
    1c56:	0000                	unimp
    1c58:	6801                	0x6801
    1c5a:	0016                	c.slli	zero,0x5
    1c5c:	3a00                	fld	fs0,48(a2)
    1c5e:	0024                	addi	s1,sp,8
    1c60:	0800                	addi	s0,sp,16
    1c62:	00001673          	csrrw	a2,ustatus,zero
    1c66:	0bbc                	addi	a5,sp,472
    1c68:	00a0                	addi	s0,sp,72
    1c6a:	0000                	unimp
    1c6c:	0000                	unimp
    1c6e:	0000040b          	0x40b
    1c72:	1c02                	slli	s8,s8,0x20
    1c74:	ed0d                	bnez	a0,1cae <_text-0x9fe352>
    1c76:	0011                	c.nop	4
    1c78:	0100                	addi	s0,sp,128
    1c7a:	167e                	slli	a2,a2,0x3f
    1c7c:	0000                	unimp
    1c7e:	24b4                	fld	fa3,72(s1)
    1c80:	0000                	unimp
    1c82:	00168903          	lb	s2,1(a3)
    1c86:	2000                	fld	fs0,0(s0)
    1c88:	a00c                	fsd	fa1,0(s0)
    1c8a:	0000                	unimp
    1c8c:	0000                	unimp
    1c8e:	2400                	fld	fs0,8(s0)
    1c90:	0000                	unimp
    1c92:	0000                	unimp
    1c94:	0000                	unimp
    1c96:	0200                	addi	s0,sp,256
    1c98:	0915                	addi	s2,s2,5
    1c9a:	00169203          	lh	tp,1(a3)
    1c9e:	2400                	fld	fs0,8(s0)
    1ca0:	a00c                	fsd	fa1,0(s0)
    1ca2:	0000                	unimp
    1ca4:	0000                	unimp
    1ca6:	2000                	fld	fs0,0(s0)
    1ca8:	0000                	unimp
    1caa:	0000                	unimp
    1cac:	0000                	unimp
    1cae:	0200                	addi	s0,sp,256
    1cb0:	090d                	addi	s2,s2,3
    1cb2:	a901                	j	20c2 <_text-0x9fdf3e>
    1cb4:	0016                	c.slli	zero,0x5
    1cb6:	c900                	sw	s0,16(a0)
    1cb8:	0024                	addi	s1,sp,8
    1cba:	0400                	addi	s0,sp,512
    1cbc:	169d                	addi	a3,a3,-25
    1cbe:	0000                	unimp
    1cc0:	0016cc03          	lbu	s8,1(a3)
    1cc4:	2400                	fld	fs0,8(s0)
    1cc6:	a00c                	fsd	fa1,0(s0)
    1cc8:	0000                	unimp
    1cca:	0000                	unimp
    1ccc:	2000                	fld	fs0,0(s0)
    1cce:	0000                	unimp
    1cd0:	0000                	unimp
    1cd2:	0000                	unimp
    1cd4:	0300                	addi	s0,sp,384
    1cd6:	0511                	addi	a0,a0,4
    1cd8:	1f01                	addi	t5,t5,-32
    1cda:	df000017          	auipc	zero,0xdf000
    1cde:	0024                	addi	s1,sp,8
    1ce0:	0100                	addi	s0,sp,128
    1ce2:	00001713          	slli	a4,zero,0x0
    1ce6:	24df 0000 0701      	0x701000024df
    1cec:	df000017          	auipc	zero,0xdf000
    1cf0:	0024                	addi	s1,sp,8
    1cf2:	0100                	addi	s0,sp,128
    1cf4:	000016fb          	0x16fb
    1cf8:	24df 0000 ef01      	0xef01000024df
    1cfe:	0016                	c.slli	zero,0x5
    1d00:	c900                	sw	s0,16(a0)
    1d02:	0024                	addi	s1,sp,8
    1d04:	0400                	addi	s0,sp,512
    1d06:	000016e3          	bnez	zero,2512 <_text-0x9fdaee>
    1d0a:	d901                	beqz	a0,1c1a <_text-0x9fe3e6>
    1d0c:	0016                	c.slli	zero,0x5
    1d0e:	f400                	sd	s0,40(s0)
    1d10:	0024                	addi	s1,sp,8
    1d12:	0200                	addi	s0,sp,256
    1d14:	0000172b          	0x172b
    1d18:	5a01                	li	s4,-32
    1d1a:	3402                	fld	fs0,32(sp)
    1d1c:	01000017          	auipc	zero,0x1000
    1d20:	173d025b          	0x173d025b
    1d24:	0000                	unimp
    1d26:	5c01                	li	s8,-32
    1d28:	4602                	lw	a2,0(sp)
    1d2a:	01000017          	auipc	zero,0x1000
    1d2e:	025d                	addi	tp,tp,23
    1d30:	0000174f          	fnmadd.s	fa4,ft0,ft0,ft0,rtz
    1d34:	5e01                	li	t3,-32
    1d36:	5802                	lw	a6,32(sp)
    1d38:	01000017          	auipc	zero,0x1000
    1d3c:	025f 1761 0000      	0x1761025f
    1d42:	6101                	addi	sp,sp,0
    1d44:	0000                	unimp
    1d46:	0000                	unimp
    1d48:	00167307          	0x167307
    1d4c:	c000                	sw	s0,0(s0)
    1d4e:	0000a00b          	0xa00b
    1d52:	0000                	unimp
    1d54:	2e00                	fld	fs0,24(a2)
    1d56:	0004                	0x4
    1d58:	0200                	addi	s0,sp,256
    1d5a:	091d                	addi	s2,s2,7
    1d5c:	7e01                	lui	t3,0xfffe0
    1d5e:	0016                	c.slli	zero,0x5
    1d60:	0900                	addi	s0,sp,144
    1d62:	0025                	c.nop	9
    1d64:	0700                	addi	s0,sp,896
    1d66:	1689                	addi	a3,a3,-30
    1d68:	0000                	unimp
    1d6a:	0bf4                	addi	a3,sp,476
    1d6c:	00a0                	addi	s0,sp,72
    1d6e:	0000                	unimp
    1d70:	0000                	unimp
    1d72:	0462                	slli	s0,s0,0x18
    1d74:	0000                	unimp
    1d76:	1502                	slli	a0,a0,0x20
    1d78:	0309                	addi	t1,t1,2
    1d7a:	1692                	slli	a3,a3,0x24
    1d7c:	0000                	unimp
    1d7e:	0c58                	addi	a4,sp,532
    1d80:	00a0                	addi	s0,sp,72
    1d82:	0000                	unimp
    1d84:	0000                	unimp
    1d86:	0020                	addi	s0,sp,8
    1d88:	0000                	unimp
    1d8a:	0000                	unimp
    1d8c:	0000                	unimp
    1d8e:	0d02                	c.slli64	s10
    1d90:	0109                	addi	sp,sp,2
    1d92:	16a9                	addi	a3,a3,-22
    1d94:	0000                	unimp
    1d96:	2546                	fld	fa0,80(sp)
    1d98:	0000                	unimp
    1d9a:	9d04                	0x9d04
    1d9c:	0016                	c.slli	zero,0x5
    1d9e:	0300                	addi	s0,sp,384
    1da0:	16cc                	addi	a1,sp,868
    1da2:	0000                	unimp
    1da4:	0c58                	addi	a4,sp,532
    1da6:	00a0                	addi	s0,sp,72
    1da8:	0000                	unimp
    1daa:	0000                	unimp
    1dac:	0020                	addi	s0,sp,8
    1dae:	0000                	unimp
    1db0:	0000                	unimp
    1db2:	0000                	unimp
    1db4:	01051103          	lh	sp,16(a0)
    1db8:	171f 0000 255c      	0x255c0000171f
    1dbe:	0000                	unimp
    1dc0:	1301                	addi	t1,t1,-32
    1dc2:	5c000017          	auipc	zero,0x5c000
    1dc6:	0025                	c.nop	9
    1dc8:	0100                	addi	s0,sp,128
    1dca:	00001707          	0x1707
    1dce:	255c                	fld	fa5,136(a0)
    1dd0:	0000                	unimp
    1dd2:	fb01                	bnez	a4,1ce2 <_text-0x9fe31e>
    1dd4:	0016                	c.slli	zero,0x5
    1dd6:	5c00                	lw	s0,56(s0)
    1dd8:	0025                	c.nop	9
    1dda:	0100                	addi	s0,sp,128
    1ddc:	000016ef          	jal	a3,2ddc <_text-0x9fd224>
    1de0:	2546                	fld	fa0,80(sp)
    1de2:	0000                	unimp
    1de4:	e304                	sd	s1,0(a4)
    1de6:	0016                	c.slli	zero,0x5
    1de8:	0100                	addi	s0,sp,128
    1dea:	16d9                	addi	a3,a3,-10
    1dec:	0000                	unimp
    1dee:	2571                	addiw	a0,a0,28
    1df0:	0000                	unimp
    1df2:	2b02                	fld	fs6,0(sp)
    1df4:	01000017          	auipc	zero,0x1000
    1df8:	025a                	slli	tp,tp,0x16
    1dfa:	1734                	addi	a3,sp,936
    1dfc:	0000                	unimp
    1dfe:	5b01                	li	s6,-32
    1e00:	3d02                	fld	fs10,32(sp)
    1e02:	01000017          	auipc	zero,0x1000
    1e06:	025c                	addi	a5,sp,260
    1e08:	1746                	slli	a4,a4,0x31
    1e0a:	0000                	unimp
    1e0c:	5d01                	li	s10,-32
    1e0e:	4f02                	lw	t5,0(sp)
    1e10:	01000017          	auipc	zero,0x1000
    1e14:	025e                	slli	tp,tp,0x17
    1e16:	1758                	addi	a4,sp,932
    1e18:	0000                	unimp
    1e1a:	5f01                	li	t5,-32
    1e1c:	6102                	ld	sp,0(sp)
    1e1e:	01000017          	auipc	zero,0x1000
    1e22:	0061                	c.nop	24
    1e24:	0000                	unimp
    1e26:	0000                	unimp
    1e28:	5d08                	lw	a0,56(a0)
    1e2a:	0016                	c.slli	zero,0x5
    1e2c:	b800                	fsd	fs0,48(s0)
    1e2e:	a00c                	fsd	fa1,0(s0)
    1e30:	0000                	unimp
    1e32:	0000                	unimp
    1e34:	8500                	0x8500
    1e36:	0004                	0x4
    1e38:	0100                	addi	s0,sp,128
    1e3a:	1186                	slli	gp,gp,0x21
    1e3c:	14b5                	addi	s1,s1,-19
    1e3e:	0000                	unimp
    1e40:	6801                	0x6801
    1e42:	0016                	c.slli	zero,0x5
    1e44:	8600                	0x8600
    1e46:	0025                	c.nop	9
    1e48:	0800                	addi	s0,sp,16
    1e4a:	00001673          	csrrw	a2,ustatus,zero
    1e4e:	0cc8                	addi	a0,sp,596
    1e50:	00a0                	addi	s0,sp,72
    1e52:	0000                	unimp
    1e54:	0000                	unimp
    1e56:	04a8                	addi	a0,sp,584
    1e58:	0000                	unimp
    1e5a:	1c02                	slli	s8,s8,0x20
    1e5c:	d50d                	beqz	a0,1d86 <_text-0x9fe27a>
    1e5e:	01000013          	li	zero,16
    1e62:	167e                	slli	a2,a2,0x3f
    1e64:	0000                	unimp
    1e66:	2600                	fld	fs0,8(a2)
    1e68:	0000                	unimp
    1e6a:	00168903          	lb	s2,1(a3)
    1e6e:	2c00                	fld	fs0,24(s0)
    1e70:	a00d                	j	1e92 <_text-0x9fe16e>
    1e72:	0000                	unimp
    1e74:	0000                	unimp
    1e76:	2400                	fld	fs0,8(s0)
    1e78:	0000                	unimp
    1e7a:	0000                	unimp
    1e7c:	0000                	unimp
    1e7e:	0200                	addi	s0,sp,256
    1e80:	0915                	addi	s2,s2,5
    1e82:	00169203          	lh	tp,1(a3)
    1e86:	3000                	fld	fs0,32(s0)
    1e88:	a00d                	j	1eaa <_text-0x9fe156>
    1e8a:	0000                	unimp
    1e8c:	0000                	unimp
    1e8e:	2000                	fld	fs0,0(s0)
    1e90:	0000                	unimp
    1e92:	0000                	unimp
    1e94:	0000                	unimp
    1e96:	0200                	addi	s0,sp,256
    1e98:	090d                	addi	s2,s2,3
    1e9a:	a901                	j	22aa <_text-0x9fdd56>
    1e9c:	0016                	c.slli	zero,0x5
    1e9e:	1500                	addi	s0,sp,672
    1ea0:	0026                	c.slli	zero,0x9
    1ea2:	0400                	addi	s0,sp,512
    1ea4:	169d                	addi	a3,a3,-25
    1ea6:	0000                	unimp
    1ea8:	0016cc03          	lbu	s8,1(a3)
    1eac:	3000                	fld	fs0,32(s0)
    1eae:	a00d                	j	1ed0 <_text-0x9fe130>
    1eb0:	0000                	unimp
    1eb2:	0000                	unimp
    1eb4:	2000                	fld	fs0,0(s0)
    1eb6:	0000                	unimp
    1eb8:	0000                	unimp
    1eba:	0000                	unimp
    1ebc:	0300                	addi	s0,sp,384
    1ebe:	0511                	addi	a0,a0,4
    1ec0:	1f01                	addi	t5,t5,-32
    1ec2:	2b000017          	auipc	zero,0x2b000
    1ec6:	0026                	c.slli	zero,0x9
    1ec8:	0100                	addi	s0,sp,128
    1eca:	00001713          	slli	a4,zero,0x0
    1ece:	0000262b          	0x262b
    1ed2:	0701                	addi	a4,a4,0
    1ed4:	2b000017          	auipc	zero,0x2b000
    1ed8:	0026                	c.slli	zero,0x9
    1eda:	0100                	addi	s0,sp,128
    1edc:	000016fb          	0x16fb
    1ee0:	0000262b          	0x262b
    1ee4:	ef01                	bnez	a4,1efc <_text-0x9fe104>
    1ee6:	0016                	c.slli	zero,0x5
    1ee8:	1500                	addi	s0,sp,672
    1eea:	0026                	c.slli	zero,0x9
    1eec:	0400                	addi	s0,sp,512
    1eee:	000016e3          	bnez	zero,26fa <_text-0x9fd906>
    1ef2:	d901                	beqz	a0,1e02 <_text-0x9fe1fe>
    1ef4:	0016                	c.slli	zero,0x5
    1ef6:	4000                	lw	s0,0(s0)
    1ef8:	0026                	c.slli	zero,0x9
    1efa:	0200                	addi	s0,sp,256
    1efc:	0000172b          	0x172b
    1f00:	5a01                	li	s4,-32
    1f02:	3402                	fld	fs0,32(sp)
    1f04:	01000017          	auipc	zero,0x1000
    1f08:	173d025b          	0x173d025b
    1f0c:	0000                	unimp
    1f0e:	5c01                	li	s8,-32
    1f10:	4602                	lw	a2,0(sp)
    1f12:	01000017          	auipc	zero,0x1000
    1f16:	025d                	addi	tp,tp,23
    1f18:	0000174f          	fnmadd.s	fa4,ft0,ft0,ft0,rtz
    1f1c:	5e01                	li	t3,-32
    1f1e:	5802                	lw	a6,32(sp)
    1f20:	01000017          	auipc	zero,0x1000
    1f24:	025f 1761 0000      	0x1761025f
    1f2a:	6101                	addi	sp,sp,0
    1f2c:	0000                	unimp
    1f2e:	0000                	unimp
    1f30:	00167307          	0x167307
    1f34:	cc00                	sw	s0,24(s0)
    1f36:	a00c                	fsd	fa1,0(s0)
    1f38:	0000                	unimp
    1f3a:	0000                	unimp
    1f3c:	cb00                	sw	s0,16(a4)
    1f3e:	0004                	0x4
    1f40:	0200                	addi	s0,sp,256
    1f42:	091d                	addi	s2,s2,7
    1f44:	7e01                	lui	t3,0xfffe0
    1f46:	0016                	c.slli	zero,0x5
    1f48:	5500                	lw	s0,40(a0)
    1f4a:	0026                	c.slli	zero,0x9
    1f4c:	0700                	addi	s0,sp,896
    1f4e:	1689                	addi	a3,a3,-30
    1f50:	0000                	unimp
    1f52:	0d00                	addi	s0,sp,656
    1f54:	00a0                	addi	s0,sp,72
    1f56:	0000                	unimp
    1f58:	0000                	unimp
    1f5a:	04ff                	0x4ff
    1f5c:	0000                	unimp
    1f5e:	1502                	slli	a0,a0,0x20
    1f60:	0309                	addi	t1,t1,2
    1f62:	1692                	slli	a3,a3,0x24
    1f64:	0000                	unimp
    1f66:	0d64                	addi	s1,sp,668
    1f68:	00a0                	addi	s0,sp,72
    1f6a:	0000                	unimp
    1f6c:	0000                	unimp
    1f6e:	0020                	addi	s0,sp,8
    1f70:	0000                	unimp
    1f72:	0000                	unimp
    1f74:	0000                	unimp
    1f76:	0d02                	c.slli64	s10
    1f78:	0109                	addi	sp,sp,2
    1f7a:	16a9                	addi	a3,a3,-22
    1f7c:	0000                	unimp
    1f7e:	2692                	fld	fa3,256(sp)
    1f80:	0000                	unimp
    1f82:	9d04                	0x9d04
    1f84:	0016                	c.slli	zero,0x5
    1f86:	0300                	addi	s0,sp,384
    1f88:	16cc                	addi	a1,sp,868
    1f8a:	0000                	unimp
    1f8c:	0d64                	addi	s1,sp,668
    1f8e:	00a0                	addi	s0,sp,72
    1f90:	0000                	unimp
    1f92:	0000                	unimp
    1f94:	0020                	addi	s0,sp,8
    1f96:	0000                	unimp
    1f98:	0000                	unimp
    1f9a:	0000                	unimp
    1f9c:	01051103          	lh	sp,16(a0)
    1fa0:	171f 0000 26a8      	0x26a80000171f
    1fa6:	0000                	unimp
    1fa8:	1301                	addi	t1,t1,-32
    1faa:	a8000017          	auipc	zero,0xa8000
    1fae:	0026                	c.slli	zero,0x9
    1fb0:	0100                	addi	s0,sp,128
    1fb2:	00001707          	0x1707
    1fb6:	26a8                	fld	fa0,72(a3)
    1fb8:	0000                	unimp
    1fba:	fb01                	bnez	a4,1eca <_text-0x9fe136>
    1fbc:	0016                	c.slli	zero,0x5
    1fbe:	a800                	fsd	fs0,16(s0)
    1fc0:	0026                	c.slli	zero,0x9
    1fc2:	0100                	addi	s0,sp,128
    1fc4:	000016ef          	jal	a3,2fc4 <_text-0x9fd03c>
    1fc8:	2692                	fld	fa3,256(sp)
    1fca:	0000                	unimp
    1fcc:	e304                	sd	s1,0(a4)
    1fce:	0016                	c.slli	zero,0x5
    1fd0:	0100                	addi	s0,sp,128
    1fd2:	16d9                	addi	a3,a3,-10
    1fd4:	0000                	unimp
    1fd6:	26bd                	addiw	a3,a3,15
    1fd8:	0000                	unimp
    1fda:	2b02                	fld	fs6,0(sp)
    1fdc:	01000017          	auipc	zero,0x1000
    1fe0:	025a                	slli	tp,tp,0x16
    1fe2:	1734                	addi	a3,sp,936
    1fe4:	0000                	unimp
    1fe6:	5b01                	li	s6,-32
    1fe8:	3d02                	fld	fs10,32(sp)
    1fea:	01000017          	auipc	zero,0x1000
    1fee:	025c                	addi	a5,sp,260
    1ff0:	1746                	slli	a4,a4,0x31
    1ff2:	0000                	unimp
    1ff4:	5d01                	li	s10,-32
    1ff6:	4f02                	lw	t5,0(sp)
    1ff8:	01000017          	auipc	zero,0x1000
    1ffc:	025e                	slli	tp,tp,0x17
    1ffe:	1758                	addi	a4,sp,932
    2000:	0000                	unimp
    2002:	5f01                	li	t5,-32
    2004:	6102                	ld	sp,0(sp)
    2006:	01000017          	auipc	zero,0x1000
    200a:	0061                	c.nop	24
    200c:	0000                	unimp
    200e:	0000                	unimp
    2010:	0016b613          	seqz	a2,a3
    2014:	a000                	fsd	fs0,0(s0)
    2016:	a00e                	fsd	ft3,0(sp)
    2018:	0000                	unimp
    201a:	0000                	unimp
    201c:	2800                	fld	fs0,16(s0)
    201e:	0000                	unimp
    2020:	0000                	unimp
    2022:	0000                	unimp
    2024:	9700                	0x9700
    2026:	6511                	lui	a0,0x4
    2028:	0015                	c.nop	5
    202a:	0100                	addi	s0,sp,128
    202c:	16c1                	addi	a3,a3,-16
    202e:	0000                	unimp
    2030:	26d2                	fld	fa3,272(sp)
    2032:	0000                	unimp
    2034:	0016cc07          	flq	fs8,1(a3)
    2038:	a000                	fsd	fs0,0(s0)
    203a:	a00e                	fsd	ft3,0(sp)
    203c:	0000                	unimp
    203e:	0000                	unimp
    2040:	2200                	fld	fs0,0(a2)
    2042:	0005                	c.nop	1
    2044:	0300                	addi	s0,sp,384
    2046:	050d                	addi	a0,a0,3
    2048:	1f01                	addi	t5,t5,-32
    204a:	e6000017          	auipc	zero,0xe6000
    204e:	0026                	c.slli	zero,0x9
    2050:	0100                	addi	s0,sp,128
    2052:	00001713          	slli	a4,zero,0x0
    2056:	26e6                	fld	fa3,88(sp)
    2058:	0000                	unimp
    205a:	0701                	addi	a4,a4,0
    205c:	e6000017          	auipc	zero,0xe6000
    2060:	0026                	c.slli	zero,0x9
    2062:	0100                	addi	s0,sp,128
    2064:	000016fb          	0x16fb
    2068:	26e6                	fld	fa3,88(sp)
    206a:	0000                	unimp
    206c:	ef01                	bnez	a4,2084 <_text-0x9fdf7c>
    206e:	0016                	c.slli	zero,0x5
    2070:	e600                	sd	s0,8(a2)
    2072:	0026                	c.slli	zero,0x9
    2074:	0100                	addi	s0,sp,128
    2076:	000016e3          	bnez	zero,2882 <_text-0x9fd77e>
    207a:	000026fb          	0x26fb
    207e:	d901                	beqz	a0,1f8e <_text-0x9fe072>
    2080:	0016                	c.slli	zero,0x5
    2082:	2700                	fld	fs0,8(a4)
    2084:	1a000027          	0x1a000027
    2088:	0522                	slli	a0,a0,0x8
    208a:	0000                	unimp
    208c:	2b02                	fld	fs6,0(sp)
    208e:	01000017          	auipc	zero,0x1000
    2092:	025a                	slli	tp,tp,0x16
    2094:	1734                	addi	a3,sp,936
    2096:	0000                	unimp
    2098:	5b01                	li	s6,-32
    209a:	3d02                	fld	fs10,32(sp)
    209c:	01000017          	auipc	zero,0x1000
    20a0:	025c                	addi	a5,sp,260
    20a2:	1746                	slli	a4,a4,0x31
    20a4:	0000                	unimp
    20a6:	5d01                	li	s10,-32
    20a8:	4f02                	lw	t5,0(sp)
    20aa:	01000017          	auipc	zero,0x1000
    20ae:	025e                	slli	tp,tp,0x17
    20b0:	1758                	addi	a4,sp,932
    20b2:	0000                	unimp
    20b4:	5f01                	li	t5,-32
    20b6:	6102                	ld	sp,0(sp)
    20b8:	01000017          	auipc	zero,0x1000
    20bc:	0061                	c.nop	24
    20be:	0000                	unimp
    20c0:	080c                	addi	a1,sp,16
    20c2:	a008                	fsd	fa0,0(s0)
    20c4:	0000                	unimp
    20c6:	0000                	unimp
    20c8:	7f00                	ld	s0,56(a4)
    20ca:	0002                	c.slli64	zero
    20cc:	8400                	0x8400
    20ce:	0015                	c.nop	5
    20d0:	0500                	addi	s0,sp,640
    20d2:	5a01                	li	s4,-32
    20d4:	7eb07803          	0x7eb07803
    20d8:	0105                	addi	sp,sp,1
    20da:	0085025b          	0x85025b
    20de:	0c00                	addi	s0,sp,528
    20e0:	0878                	addi	a4,sp,28
    20e2:	00a0                	addi	s0,sp,72
    20e4:	0000                	unimp
    20e6:	0000                	unimp
    20e8:	00e6                	slli	ra,ra,0x19
    20ea:	0000                	unimp
    20ec:	000015a7          	0x15a7
    20f0:	0105                	addi	sp,sp,1
    20f2:	035a                	slli	t1,t1,0x16
    20f4:	b078                	fsd	fa4,224(s0)
    20f6:	057e                	slli	a0,a0,0x1f
    20f8:	5c01                	li	s8,-32
    20fa:	3a01                	addiw	s4,s4,-32
    20fc:	0105                	addi	sp,sp,1
    20fe:	0161                	addi	sp,sp,24
    2100:	0030                	addi	a2,sp,8
    2102:	940c                	0x940c
    2104:	a009                	j	2106 <_text-0x9fdefa>
    2106:	0000                	unimp
    2108:	0000                	unimp
    210a:	e600                	sd	s0,8(a2)
    210c:	0000                	unimp
    210e:	cf00                	sw	s0,24(a4)
    2110:	0015                	c.nop	5
    2112:	0500                	addi	s0,sp,640
    2114:	5a01                	li	s4,-32
    2116:	7eb07803          	0x7eb07803
    211a:	0105                	addi	sp,sp,1
    211c:	015c                	addi	a5,sp,132
    211e:	0538                	addi	a4,sp,648
    2120:	5d01                	li	s10,-32
    2122:	3001                	0x3001
    2124:	0105                	addi	sp,sp,1
    2126:	0161                	addi	sp,sp,24
    2128:	0030                	addi	a2,sp,8
    212a:	a00c                	fsd	fa1,0(s0)
    212c:	a00a                	fsd	ft2,0(sp)
    212e:	0000                	unimp
    2130:	0000                	unimp
    2132:	e600                	sd	s0,8(a2)
    2134:	0000                	unimp
    2136:	f700                	sd	s0,40(a4)
    2138:	0015                	c.nop	5
    213a:	0500                	addi	s0,sp,640
    213c:	5a01                	li	s4,-32
    213e:	7eb07803          	0x7eb07803
    2142:	0105                	addi	sp,sp,1
    2144:	015c                	addi	a5,sp,132
    2146:	053a                	slli	a0,a0,0xe
    2148:	5d01                	li	s10,-32
    214a:	3001                	0x3001
    214c:	0105                	addi	sp,sp,1
    214e:	0161                	addi	sp,sp,24
    2150:	0030                	addi	a2,sp,8
    2152:	ac0c                	fsd	fa1,24(s0)
    2154:	0000a00b          	0xa00b
    2158:	0000                	unimp
    215a:	e600                	sd	s0,8(a2)
    215c:	0000                	unimp
    215e:	1f00                	addi	s0,sp,944
    2160:	0016                	c.slli	zero,0x5
    2162:	0500                	addi	s0,sp,640
    2164:	5a01                	li	s4,-32
    2166:	7eb07803          	0x7eb07803
    216a:	0105                	addi	sp,sp,1
    216c:	015c                	addi	a5,sp,132
    216e:	0540                	addi	s0,sp,644
    2170:	5d01                	li	s10,-32
    2172:	3001                	0x3001
    2174:	0105                	addi	sp,sp,1
    2176:	0161                	addi	sp,sp,24
    2178:	0030                	addi	a2,sp,8
    217a:	b80c                	fsd	fa1,48(s0)
    217c:	a00c                	fsd	fa1,0(s0)
    217e:	0000                	unimp
    2180:	0000                	unimp
    2182:	e600                	sd	s0,8(a2)
    2184:	0000                	unimp
    2186:	4700                	lw	s0,8(a4)
    2188:	0016                	c.slli	zero,0x5
    218a:	0500                	addi	s0,sp,640
    218c:	5a01                	li	s4,-32
    218e:	7eb07803          	0x7eb07803
    2192:	0105                	addi	sp,sp,1
    2194:	015c                	addi	a5,sp,132
    2196:	0540                	addi	s0,sp,644
    2198:	5d01                	li	s10,-32
    219a:	3001                	0x3001
    219c:	0105                	addi	sp,sp,1
    219e:	0161                	addi	sp,sp,24
    21a0:	0031                	c.nop	12
    21a2:	b812                	fsd	ft4,48(sp)
    21a4:	a00d                	j	21c6 <_text-0x9fde3a>
    21a6:	0000                	unimp
    21a8:	0000                	unimp
    21aa:	0200                	addi	s0,sp,256
    21ac:	0002                	c.slli64	zero
    21ae:	0500                	addi	s0,sp,640
    21b0:	5a01                	li	s4,-32
    21b2:	7eb07803          	0x7eb07803
    21b6:	0000                	unimp
    21b8:	f814                	sd	a3,48(s0)
    21ba:	0001                	nop
    21bc:	0200                	addi	s0,sp,256
    21be:	7319                	lui	t1,0xfffe6
    21c0:	0016                	c.slli	zero,0x5
    21c2:	0a00                	addi	s0,sp,272
    21c4:	19020073          	0x19020073
    21c8:	552d                	li	a0,-21
    21ca:	00000003          	lb	zero,0(zero) # 0 <_text-0xa00000>
    21ce:	7014                	ld	a3,32(s0)
    21d0:	0002                	c.slli64	zero
    21d2:	0200                	addi	s0,sp,256
    21d4:	8912                	mv	s2,tp
    21d6:	0016                	c.slli	zero,0x5
    21d8:	0a00                	addi	s0,sp,272
    21da:	12020063          	beqz	tp,22fa <_text-0x9fdd06>
    21de:	8926                	mv	s2,s1
    21e0:	0000                	unimp
    21e2:	0000                	unimp
    21e4:	b32a                	fsd	fa0,416(sp)
    21e6:	0002                	c.slli64	zero
    21e8:	0200                	addi	s0,sp,256
    21ea:	1403140b          	0x1403140b
    21ee:	01d8                	addi	a4,sp,196
    21f0:	0000                	unimp
    21f2:	16b61003          	lh	zero,363(a2) # 1d16b <_text-0x9e2e95>
    21f6:	0000                	unimp
    21f8:	00027d2b          	0x27d2b
    21fc:	0300                	addi	s0,sp,384
    21fe:	2410                	fld	fa2,8(s0)
    2200:	0084                	addi	s1,sp,64
    2202:	0000                	unimp
    2204:	6c0a                	ld	s8,128(sp)
    2206:	6e65                	lui	t3,0x19
    2208:	0300                	addi	s0,sp,384
    220a:	3010                	fld	fa2,32(s0)
    220c:	00000043          	fmadd.s	ft0,ft0,ft0,ft0,rne
    2210:	1400                	addi	s0,sp,544
    2212:	01ea                	slli	gp,gp,0x1a
    2214:	0000                	unimp
    2216:	16cc0c03          	lb	s8,364(s8) # 216c <_text-0x9fde94>
    221a:	0000                	unimp
    221c:	630a                	ld	t1,128(sp)
    221e:	0300                	addi	s0,sp,384
    2220:	210c                	fld	fa1,0(a0)
    2222:	0089                	addi	ra,ra,2
    2224:	0000                	unimp
    2226:	2c00                	fld	fs0,24(s0)
    2228:	0000006f          	j	2228 <_text-0x9fddd8>
    222c:	0604                	addi	s1,sp,768
    222e:	00004313          	xori	t1,zero,0
    2232:	0300                	addi	s0,sp,384
    2234:	6e0a                	ld	t3,128(sp)
    2236:	0400                	addi	s0,sp,512
    2238:	2106                	fld	ft2,64(sp)
    223a:	0000006b          	0x6b
    223e:	5f0a                	lw	t5,160(sp)
    2240:	3061                	0x3061
    2242:	0400                	addi	s0,sp,512
    2244:	2806                	fld	fa6,64(sp)
    2246:	00000043          	fmadd.s	ft0,ft0,ft0,ft0,rne
    224a:	5f0a                	lw	t5,160(sp)
    224c:	3161                	addiw	sp,sp,-8
    224e:	0400                	addi	s0,sp,512
    2250:	3106                	fld	ft2,96(sp)
    2252:	00000043          	fmadd.s	ft0,ft0,ft0,ft0,rne
    2256:	5f0a                	lw	t5,160(sp)
    2258:	3261                	addiw	tp,tp,-8
    225a:	0400                	addi	s0,sp,512
    225c:	3a06                	fld	fs4,96(sp)
    225e:	00000043          	fmadd.s	ft0,ft0,ft0,ft0,rne
    2262:	5f0a                	lw	t5,160(sp)
    2264:	3361                	addiw	t1,t1,-8
    2266:	0400                	addi	s0,sp,512
    2268:	00430307          	0x430307
    226c:	0000                	unimp
    226e:	5f0a                	lw	t5,160(sp)
    2270:	3461                	addiw	s0,s0,-8
    2272:	0400                	addi	s0,sp,512
    2274:	00430c07          	0x430c07
    2278:	0000                	unimp
    227a:	5f0a                	lw	t5,160(sp)
    227c:	3561                	addiw	a0,a0,-8
    227e:	0400                	addi	s0,sp,512
    2280:	00431507          	0x431507
    2284:	0000                	unimp
    2286:	6110                	ld	a2,0(a0)
    2288:	0030                	addi	a2,sp,8
    228a:	4308                	lw	a0,0(a4)
    228c:	0000                	unimp
    228e:	1000                	addi	s0,sp,32
    2290:	3161                	addiw	sp,sp,-8
    2292:	0900                	addi	s0,sp,144
    2294:	00000043          	fmadd.s	ft0,ft0,ft0,ft0,rne
    2298:	6110                	ld	a2,0(a0)
    229a:	0032                	c.slli	zero,0xc
    229c:	430a                	lw	t1,128(sp)
    229e:	0000                	unimp
    22a0:	1000                	addi	s0,sp,32
    22a2:	3361                	addiw	t1,t1,-8
    22a4:	0b00                	addi	s0,sp,400
    22a6:	00000043          	fmadd.s	ft0,ft0,ft0,ft0,rne
    22aa:	6110                	ld	a2,0(a0)
    22ac:	0034                	addi	a3,sp,8
    22ae:	430c                	lw	a1,0(a4)
    22b0:	0000                	unimp
    22b2:	1000                	addi	s0,sp,32
    22b4:	3561                	addiw	a0,a0,-8
    22b6:	0d00                	addi	s0,sp,656
    22b8:	00000043          	fmadd.s	ft0,ft0,ft0,ft0,rne
    22bc:	541d                	li	s0,-25
    22be:	0000                	unimp
    22c0:	0400                	addi	s0,sp,512
    22c2:	6b10                	ld	a2,16(a4)
    22c4:	0000                	unimp
    22c6:	0000                	unimp
    22c8:	2d00                	fld	fs0,24(a0)
    22ca:	0500000b          	0x500000b
    22ce:	0100                	addi	s0,sp,128
    22d0:	d708                	sw	a0,40(a4)
    22d2:	0005                	c.nop	1
    22d4:	1700                	addi	s0,sp,928
    22d6:	00f1                	addi	ra,ra,28
    22d8:	0000                	unimp
    22da:	a51d                	j	2900 <_text-0x9fd700>
    22dc:	0000                	unimp
    22de:	0000                	unimp
    22e0:	0000                	unimp
    22e2:	2800                	fld	fs0,16(s0)
    22e4:	a010                	fsd	fa2,0(s0)
    22e6:	0000                	unimp
    22e8:	0000                	unimp
    22ea:	1000                	addi	s0,sp,32
    22ec:	0004                	0x4
    22ee:	0000                	unimp
    22f0:	0000                	unimp
    22f2:	2200                	fld	fs0,0(a2)
    22f4:	0028                	addi	a0,sp,8
    22f6:	0700                	addi	s0,sp,896
    22f8:	0801                	addi	a6,a6,0
    22fa:	00a9                	addi	ra,ra,10
    22fc:	0000                	unimp
    22fe:	c7070207          	0xc7070207
    2302:	0000                	unimp
    2304:	1000                	addi	s0,sp,32
    2306:	3375                	addiw	t1,t1,-3
    2308:	0032                	c.slli	zero,0xc
    230a:	4606                	lw	a2,64(sp)
    230c:	0000                	unimp
    230e:	0700                	addi	s0,sp,896
    2310:	0704                	addi	s1,sp,896
    2312:	00df 0000 7510      	0x7510000000df
    2318:	3436                	fld	fs0,360(sp)
    231a:	0700                	addi	s0,sp,896
    231c:	00000057          	0x57
    2320:	da070807          	0xda070807
    2324:	0000                	unimp
    2326:	0700                	addi	s0,sp,896
    2328:	0601                	addi	a2,a2,0
    232a:	000000ab          	0xab
    232e:	41050207          	0x41050207
    2332:	0000                	unimp
    2334:	1800                	addi	s0,sp,48
    2336:	0504                	addi	s1,sp,640
    2338:	6e69                	lui	t3,0x1a
    233a:	0074                	addi	a3,sp,12
    233c:	81050807          	0x81050807
    2340:	0000                	unimp
    2342:	1100                	addi	s0,sp,160
    2344:	0345                	addi	t1,t1,17
    2346:	0000                	unimp
    2348:	1742                	slli	a4,a4,0x30
    234a:	002e                	c.slli	zero,0xb
    234c:	0000                	unimp
    234e:	dc11                	beqz	s0,226a <_text-0x9fdd96>
    2350:	0002                	c.slli64	zero
    2352:	4500                	lw	s0,8(a0)
    2354:	4616                	lw	a2,68(sp)
    2356:	0000                	unimp
    2358:	1900                	addi	s0,sp,176
    235a:	0375                	addi	t1,t1,29
    235c:	0000                	unimp
    235e:	0580                	addi	s0,sp,704
    2360:	0815                	addi	a6,a6,5
    2362:	0182                	c.slli64	gp
    2364:	0000                	unimp
    2366:	0003a703          	lw	a4,0(t2) # 643000 <_text-0x3bd000>
    236a:	1600                	addi	s0,sp,800
    236c:	4d09                	li	s10,2
    236e:	0000                	unimp
    2370:	0000                	unimp
    2372:	00036603          	lwu	a2,0(t1) # fffffffffffe6000 <end+0xfffffffffefe4000>
    2376:	1700                	addi	s0,sp,928
    2378:	4d09                	li	s10,2
    237a:	0000                	unimp
    237c:	0800                	addi	s0,sp,16
    237e:	0003d403          	lhu	s0,0(t2)
    2382:	1800                	addi	s0,sp,48
    2384:	3c09                	addiw	s8,s8,-30
    2386:	0000                	unimp
    2388:	1000                	addi	s0,sp,32
    238a:	0002e103          	lwu	sp,0(t0) # 8c0 <_text-0x9ff740>
    238e:	1900                	addi	s0,sp,176
    2390:	3c09                	addiw	s8,s8,-30
    2392:	0000                	unimp
    2394:	1400                	addi	s0,sp,544
    2396:	0003ae03          	lw	t3,0(t2)
    239a:	1a00                	addi	s0,sp,304
    239c:	3c09                	addiw	s8,s8,-30
    239e:	0000                	unimp
    23a0:	1800                	addi	s0,sp,48
    23a2:	00031b03          	lh	s6,0(t1)
    23a6:	1b00                	addi	s0,sp,432
    23a8:	3c09                	addiw	s8,s8,-30
    23aa:	0000                	unimp
    23ac:	1c00                	addi	s0,sp,560
    23ae:	0003c203          	lbu	tp,0(t2)
    23b2:	1c00                	addi	s0,sp,560
    23b4:	4d09                	li	s10,2
    23b6:	0000                	unimp
    23b8:	2000                	fld	fs0,0(s0)
    23ba:	00030103          	lb	sp,0(t1)
    23be:	1d00                	addi	s0,sp,688
    23c0:	00005713          	srli	a4,zero,0x0
    23c4:	2800                	fld	fs0,16(s0)
    23c6:	0002cd03          	lbu	s10,0(t0)
    23ca:	1e00                	addi	s0,sp,816
    23cc:	730e                	ld	t1,224(sp)
    23ce:	0000                	unimp
    23d0:	3000                	fld	fs0,32(s0)
    23d2:	0002f103          	0x2f103
    23d6:	1f00                	addi	s0,sp,944
    23d8:	3c09                	addiw	s8,s8,-30
    23da:	0000                	unimp
    23dc:	3800                	fld	fs0,48(s0)
    23de:	0003a003          	lw	zero,0(t2)
    23e2:	2000                	fld	fs0,0(s0)
    23e4:	6c09                	lui	s8,0x2
    23e6:	0000                	unimp
    23e8:	3c00                	fld	fs0,56(s0)
    23ea:	00038f03          	lb	t5,0(t2)
    23ee:	2100                	fld	fs0,0(a0)
    23f0:	4d09                	li	s10,2
    23f2:	0000                	unimp
    23f4:	4000                	lw	s0,0(s0)
    23f6:	00030e03          	lb	t3,0(t1)
    23fa:	2200                	fld	fs0,0(a2)
    23fc:	730a                	ld	t1,160(sp)
    23fe:	0000                	unimp
    2400:	4800                	lw	s0,16(s0)
    2402:	00037a03          	0x37a03
    2406:	2300                	fld	fs0,0(a4)
    2408:	730a                	ld	t1,160(sp)
    240a:	0000                	unimp
    240c:	5000                	lw	s0,32(s0)
    240e:	0003b503          	ld	a0,0(t2)
    2412:	2400                	fld	fs0,8(s0)
    2414:	730a                	ld	t1,160(sp)
    2416:	0000                	unimp
    2418:	5800                	lw	s0,48(s0)
    241a:	0003dc03          	lhu	s8,0(t2)
    241e:	2500                	fld	fs0,8(a0)
    2420:	730a                	ld	t1,160(sp)
    2422:	0000                	unimp
    2424:	6000                	ld	s0,0(s0)
    2426:	00033803          	ld	a6,0(t1)
    242a:	2600                	fld	fs0,8(a2)
    242c:	730a                	ld	t1,160(sp)
    242e:	0000                	unimp
    2430:	6800                	ld	s0,16(s0)
    2432:	00034b03          	lbu	s6,0(t1)
    2436:	2700                	fld	fs0,8(a4)
    2438:	730a                	ld	t1,160(sp)
    243a:	0000                	unimp
    243c:	7000                	ld	s0,32(s0)
    243e:	0002c403          	lbu	s0,0(t0)
    2442:	2800                	fld	fs0,16(s0)
    2444:	820e                	mv	tp,gp
    2446:	0001                	nop
    2448:	7800                	ld	s0,48(s0)
    244a:	1200                	addi	s0,sp,288
    244c:	0046                	c.slli	zero,0x11
    244e:	0000                	unimp
    2450:	0192                	slli	gp,gp,0x4
    2452:	0000                	unimp
    2454:	00005713          	srli	a4,zero,0x0
    2458:	0100                	addi	s0,sp,128
    245a:	0d00                	addi	s0,sp,656
    245c:	00000197          	auipc	gp,0x0
    2460:	b2080107          	0xb2080107
    2464:	0000                	unimp
    2466:	1a00                	addi	s0,sp,304
    2468:	00000197          	auipc	gp,0x0
    246c:	9712                	add	a4,a4,tp
    246e:	0001                	nop
    2470:	b300                	fsd	fs0,32(a4)
    2472:	0001                	nop
    2474:	1300                	addi	s0,sp,416
    2476:	00000057          	0x57
    247a:	0010                	0x10
    247c:	0000a21b          	0xa21b
    2480:	0600                	addi	s0,sp,768
    2482:	0d21                	addi	s10,s10,8
    2484:	000001a3          	sb	zero,3(zero) # 3 <_text-0x9ffffd>
    2488:	0091                	addi	ra,ra,4
    248a:	0000                	unimp
    248c:	d506                	sw	ra,168(sp)
    248e:	0002                	c.slli64	zero
    2490:	7600                	ld	s0,40(a2)
    2492:	00022c07          	flw	fs8,0(tp) # 0 <_text-0xa00000>
    2496:	1000                	addi	s0,sp,32
    2498:	a014                	fsd	fa3,0(s0)
    249a:	0000                	unimp
    249c:	0000                	unimp
    249e:	2800                	fld	fs0,16(s0)
    24a0:	0000                	unimp
    24a2:	0000                	unimp
    24a4:	0000                	unimp
    24a6:	0100                	addi	s0,sp,128
    24a8:	2c9c                	fld	fa5,24(s1)
    24aa:	0002                	c.slli64	zero
    24ac:	0400                	addi	s0,sp,512
    24ae:	7364                	ld	s1,224(a4)
    24b0:	0074                	addi	a3,sp,12
    24b2:	1476                	slli	s0,s0,0x3d
    24b4:	022c                	addi	a1,sp,264
    24b6:	0000                	unimp
    24b8:	2748                	fld	fa0,136(a4)
    24ba:	0000                	unimp
    24bc:	7304                	ld	s1,32(a4)
    24be:	6372                	ld	t1,280(sp)
    24c0:	7600                	ld	s0,40(a2)
    24c2:	2e25                	addiw	t3,t3,9
    24c4:	0002                	c.slli64	zero
    24c6:	7200                	ld	s0,32(a2)
    24c8:	04000027          	0x4000027
    24cc:	006e                	c.slli	zero,0x1b
    24ce:	2f76                	fld	ft10,344(sp)
    24d0:	0085                	addi	ra,ra,1
    24d2:	0000                	unimp
    24d4:	279c                	fld	fa5,8(a5)
    24d6:	0000                	unimp
    24d8:	281c                	fld	fa5,16(s0)
    24da:	a014                	fsd	fa3,0(s0)
    24dc:	0000                	unimp
    24de:	0000                	unimp
    24e0:	9e00                	0x9e00
    24e2:	0002                	c.slli64	zero
    24e4:	1400                	addi	s0,sp,544
    24e6:	5a01                	li	s4,-32
    24e8:	5a01a303          	lw	t1,1440(gp) # 2a08 <_text-0x9fd5f8>
    24ec:	0114                	addi	a3,sp,128
    24ee:	01a3035b          	0x1a3035b
    24f2:	1d00005b          	0x1d00005b
    24f6:	0d08                	addi	a0,sp,656
    24f8:	00000233          	add	tp,zero,zero
    24fc:	061e                	slli	a2,a2,0x7
    24fe:	00000307          	0x307
    2502:	056a                	slli	a0,a0,0x1a
    2504:	006c                	addi	a1,sp,12
    2506:	0000                	unimp
    2508:	13b4                	addi	a3,sp,488
    250a:	00a0                	addi	s0,sp,72
    250c:	0000                	unimp
    250e:	0000                	unimp
    2510:	005c                	addi	a5,sp,4
    2512:	0000                	unimp
    2514:	0000                	unimp
    2516:	0000                	unimp
    2518:	9c01                	subw	s0,s0,s0
    251a:	0299                	addi	t0,t0,6
    251c:	0000                	unimp
    251e:	7304                	ld	s1,32(a4)
    2520:	0031                	c.nop	12
    2522:	186a                	slli	a6,a6,0x3a
    2524:	022e                	slli	tp,tp,0xb
    2526:	0000                	unimp
    2528:	27c6                	fld	fa5,80(sp)
    252a:	0000                	unimp
    252c:	7304                	ld	s1,32(a4)
    252e:	0032                	c.slli	zero,0xc
    2530:	286a                	fld	fa6,152(sp)
    2532:	022e                	slli	tp,tp,0xb
    2534:	0000                	unimp
    2536:	2819                	addiw	a6,a6,6
    2538:	0000                	unimp
    253a:	6e04                	ld	s1,24(a2)
    253c:	6a00                	ld	s0,16(a2)
    253e:	8531                	srai	a0,a0,0xc
    2540:	0000                	unimp
    2542:	5600                	lw	s0,40(a2)
    2544:	0028                	addi	a0,sp,8
    2546:	0800                	addi	s0,sp,16
    2548:	3170                	fld	fa2,224(a0)
    254a:	6b00                	ld	s0,16(a4)
    254c:	9911                	andi	a0,a0,-28
    254e:	0002                	c.slli64	zero
    2550:	bc00                	fsd	fs0,56(s0)
    2552:	0028                	addi	a0,sp,8
    2554:	0b00                	addi	s0,sp,400
    2556:	3270                	fld	fa2,224(a2)
    2558:	6b00                	ld	s0,16(a4)
    255a:	0002991b          	slliw	s2,t0,0x0
    255e:	0100                	addi	s0,sp,128
    2560:	9e0d005b          	0x9e0d005b
    2564:	0001                	nop
    2566:	0600                	addi	s0,sp,768
    2568:	035e                	slli	t1,t1,0x17
    256a:	0000                	unimp
    256c:	0758                	addi	a4,sp,900
    256e:	022c                	addi	a1,sp,264
    2570:	0000                	unimp
    2572:	1338                	addi	a4,sp,424
    2574:	00a0                	addi	s0,sp,72
    2576:	0000                	unimp
    2578:	0000                	unimp
    257a:	007c                	addi	a5,sp,12
    257c:	0000                	unimp
    257e:	0000                	unimp
    2580:	0000                	unimp
    2582:	9c01                	subw	s0,s0,s0
    2584:	00000307          	0x307
    2588:	221f 0003 0100      	0x1000003221f
    258e:	1558                	addi	a4,sp,676
    2590:	022c                	addi	a1,sp,264
    2592:	0000                	unimp
    2594:	5a01                	li	s4,-32
    2596:	fc20                	sd	s0,120(s0)
    2598:	0002                	c.slli64	zero
    259a:	0100                	addi	s0,sp,128
    259c:	2758                	fld	fa4,136(a4)
    259e:	022e                	slli	tp,tp,0xb
    25a0:	0000                	unimp
    25a2:	290c                	fld	fa1,16(a0)
    25a4:	0000                	unimp
    25a6:	6e04                	ld	s1,24(a2)
    25a8:	5800                	lw	s0,48(s0)
    25aa:	6c31                	lui	s8,0xc
    25ac:	0000                	unimp
    25ae:	5f00                	lw	s0,56(a4)
    25b0:	0029                	c.nop	10
    25b2:	0800                	addi	s0,sp,16
    25b4:	7364                	ld	s1,224(a4)
    25b6:	0074                	addi	a3,sp,12
    25b8:	0b59                	addi	s6,s6,22
    25ba:	0192                	slli	gp,gp,0x4
    25bc:	0000                	unimp
    25be:	29b0                	fld	fa2,80(a1)
    25c0:	0000                	unimp
    25c2:	6372730b          	0x6372730b
    25c6:	5a00                	lw	s0,48(a2)
    25c8:	9911                	andi	a0,a0,-28
    25ca:	0002                	c.slli64	zero
    25cc:	0100                	addi	s0,sp,128
    25ce:	5906005b          	0x5906005b
    25d2:	4f000003          	lb	zero,1264(zero) # 4f0 <_text-0x9ffb10>
    25d6:	6c05                	lui	s8,0x1
    25d8:	0000                	unimp
    25da:	d400                	sw	s0,40(s0)
    25dc:	a012                	fsd	ft4,0(sp)
    25de:	0000                	unimp
    25e0:	0000                	unimp
    25e2:	6400                	ld	s0,8(s0)
    25e4:	0000                	unimp
    25e6:	0000                	unimp
    25e8:	0000                	unimp
    25ea:	0100                	addi	s0,sp,128
    25ec:	439c                	lw	a5,0(a5)
    25ee:	04000003          	lb	zero,64(zero) # 40 <_text-0x9fffc0>
    25f2:	164f0073          	0x164f0073
    25f6:	0299                	addi	t0,t0,6
    25f8:	0000                	unimp
    25fa:	29fd                	addiw	s3,s3,31
    25fc:	0000                	unimp
    25fe:	6e08                	ld	a0,24(a2)
    2600:	5000                	lw	s0,32(s0)
    2602:	6c09                	lui	s8,0x2
    2604:	0000                	unimp
    2606:	4d00                	lw	s0,24(a0)
    2608:	002a                	c.slli	zero,0xa
    260a:	0000                	unimp
    260c:	7506                	ld	a0,96(sp)
    260e:	43000003          	lb	zero,1072(zero) # 430 <_text-0x9ffbd0>
    2612:	6c05                	lui	s8,0x1
    2614:	0000                	unimp
    2616:	5800                	lw	s0,48(s0)
    2618:	a012                	fsd	ft4,0(sp)
    261a:	0000                	unimp
    261c:	0000                	unimp
    261e:	7c00                	ld	s0,56(s0)
    2620:	0000                	unimp
    2622:	0000                	unimp
    2624:	0000                	unimp
    2626:	0100                	addi	s0,sp,128
    2628:	b29c                	fsd	fa5,32(a3)
    262a:	0005                	c.nop	1
    262c:	0400                	addi	s0,sp,512
    262e:	006e                	c.slli	zero,0x1b
    2630:	02991643          	fmadd.d	fa2,fs2,fs1,ft0,rtz
    2634:	0000                	unimp
    2636:	2a9e                	fld	fs5,448(sp)
    2638:	0000                	unimp
    263a:	7304                	ld	s1,32(a4)
    263c:	0074                	addi	a3,sp,12
    263e:	05b22643          	0x5b22643
    2642:	0000                	unimp
    2644:	2b01                	sext.w	s6,s6
    2646:	0000                	unimp
    2648:	0064660b          	0x64660b
    264c:	0944                	addi	s1,sp,148
    264e:	006c                	addi	a1,sp,12
    2650:	0000                	unimp
    2652:	6001                	0x6001
    2654:	7208                	ld	a0,32(a2)
    2656:	4500                	lw	s0,8(a0)
    2658:	6c09                	lui	s8,0x2
    265a:	0000                	unimp
    265c:	7a00                	ld	s0,48(a2)
    265e:	0e00002b          	0xe00002b
    2662:	0a1d                	addi	s4,s4,7
    2664:	0000                	unimp
    2666:	126c                	addi	a1,sp,300
    2668:	00a0                	addi	s0,sp,72
    266a:	0000                	unimp
    266c:	0000                	unimp
    266e:	0024                	addi	s1,sp,8
    2670:	0000                	unimp
    2672:	0000                	unimp
    2674:	0000                	unimp
    2676:	044f0a47          	0x44f0a47
    267a:	0000                	unimp
    267c:	3601                	addiw	a2,a2,-32
    267e:	000a                	c.slli	zero,0x2
    2680:	8e00                	0x8e00
    2682:	0100002b          	0x100002b
    2686:	00000a2b          	0xa2b
    268a:	00002ba3          	sw	zero,23(zero) # 17 <_text-0x9fffe9>
    268e:	8e09                	sub	a2,a2,a0
    2690:	000a                	c.slli	zero,0x2
    2692:	6c00                	ld	s0,24(s0)
    2694:	a012                	fsd	ft4,0(sp)
    2696:	0000                	unimp
    2698:	0000                	unimp
    269a:	2000                	fld	fs0,0(s0)
    269c:	0000                	unimp
    269e:	0000                	unimp
    26a0:	0000                	unimp
    26a2:	0200                	addi	s0,sp,256
    26a4:	0c4a                	slli	s8,s8,0x12
    26a6:	e101                	bnez	a0,26a6 <_text-0x9fd95a>
    26a8:	000a                	c.slli	zero,0x2
    26aa:	dd00                	sw	s0,56(a0)
    26ac:	0100002b          	0x100002b
    26b0:	0ad5                	addi	s5,s5,21
    26b2:	0000                	unimp
    26b4:	2bdd                	addiw	s7,s7,23
    26b6:	0000                	unimp
    26b8:	c901                	beqz	a0,26c8 <_text-0x9fd938>
    26ba:	000a                	c.slli	zero,0x2
    26bc:	f200                	sd	s0,32(a2)
    26be:	0100002b          	0x100002b
    26c2:	0abd                	addi	s5,s5,15
    26c4:	0000                	unimp
    26c6:	2bdd                	addiw	s7,s7,23
    26c8:	0000                	unimp
    26ca:	b101                	j	22ca <_text-0x9fdd36>
    26cc:	000a                	c.slli	zero,0x2
    26ce:	0700                	addi	s0,sp,896
    26d0:	002c                	addi	a1,sp,8
    26d2:	0100                	addi	s0,sp,128
    26d4:	0aa5                	addi	s5,s5,9
    26d6:	0000                	unimp
    26d8:	2c41                	addiw	s8,s8,16
    26da:	0000                	unimp
    26dc:	9b01                	andi	a4,a4,-32
    26de:	000a                	c.slli	zero,0x2
    26e0:	5700                	lw	s0,40(a4)
    26e2:	002c                	addi	a1,sp,8
    26e4:	0200                	addi	s0,sp,256
    26e6:	0aed                	addi	s5,s5,27
    26e8:	0000                	unimp
    26ea:	5a01                	li	s4,-32
    26ec:	f602                	sd	zero,296(sp)
    26ee:	000a                	c.slli	zero,0x2
    26f0:	0100                	addi	s0,sp,128
    26f2:	0aff025b          	0xaff025b
    26f6:	0000                	unimp
    26f8:	5c01                	li	s8,-32
    26fa:	0802                	c.slli64	a6
    26fc:	0100000b          	0x100000b
    2700:	025d                	addi	tp,tp,23
    2702:	0b11                	addi	s6,s6,4
    2704:	0000                	unimp
    2706:	5e01                	li	t3,-32
    2708:	1a02                	slli	s4,s4,0x20
    270a:	0100000b          	0x100000b
    270e:	025f 0b23 0000      	0xb23025f
    2714:	6101                	addi	sp,sp,0
    2716:	0000                	unimp
    2718:	c80e                	sw	gp,16(sp)
    271a:	0009                	c.nop	2
    271c:	9400                	0x9400
    271e:	a012                	fsd	ft4,0(sp)
    2720:	0000                	unimp
    2722:	0000                	unimp
    2724:	1800                	addi	s0,sp,48
    2726:	0000                	unimp
    2728:	0000                	unimp
    272a:	0000                	unimp
    272c:	4a00                	lw	s0,16(a2)
    272e:	0609                	addi	a2,a2,2
    2730:	0005                	c.nop	1
    2732:	0100                	addi	s0,sp,128
    2734:	09e1                	addi	s3,s3,24
    2736:	0000                	unimp
    2738:	2c6d                	addiw	s8,s8,27
    273a:	0000                	unimp
    273c:	d601                	beqz	a2,2644 <_text-0x9fd9bc>
    273e:	0009                	c.nop	2
    2740:	8100                	0x8100
    2742:	002c                	addi	a1,sp,8
    2744:	0900                	addi	s0,sp,144
    2746:	0a8e                	slli	s5,s5,0x3
    2748:	0000                	unimp
    274a:	1294                	addi	a3,sp,352
    274c:	00a0                	addi	s0,sp,72
    274e:	0000                	unimp
    2750:	0000                	unimp
    2752:	0014                	0x14
    2754:	0000                	unimp
    2756:	0000                	unimp
    2758:	0000                	unimp
    275a:	6a02                	ld	s4,0(sp)
    275c:	010c                	addi	a1,sp,128
    275e:	0ae1                	addi	s5,s5,24
    2760:	0000                	unimp
    2762:	2c95                	addiw	s9,s9,5
    2764:	0000                	unimp
    2766:	d501                	beqz	a0,266e <_text-0x9fd992>
    2768:	000a                	c.slli	zero,0x2
    276a:	9500                	0x9500
    276c:	002c                	addi	a1,sp,8
    276e:	0100                	addi	s0,sp,128
    2770:	0ac9                	addi	s5,s5,18
    2772:	0000                	unimp
    2774:	2c95                	addiw	s9,s9,5
    2776:	0000                	unimp
    2778:	bd01                	j	2588 <_text-0x9fda78>
    277a:	000a                	c.slli	zero,0x2
    277c:	9500                	0x9500
    277e:	002c                	addi	a1,sp,8
    2780:	0100                	addi	s0,sp,128
    2782:	0ab1                	addi	s5,s5,12
    2784:	0000                	unimp
    2786:	2caa                	fld	fs9,136(sp)
    2788:	0000                	unimp
    278a:	a501                	j	2d8a <_text-0x9fd276>
    278c:	000a                	c.slli	zero,0x2
    278e:	be00                	fsd	fs0,56(a2)
    2790:	002c                	addi	a1,sp,8
    2792:	0100                	addi	s0,sp,128
    2794:	00000a9b          	sext.w	s5,zero
    2798:	2cd2                	fld	fs9,272(sp)
    279a:	0000                	unimp
    279c:	ed02                	sd	zero,152(sp)
    279e:	000a                	c.slli	zero,0x2
    27a0:	0100                	addi	s0,sp,128
    27a2:	025a                	slli	tp,tp,0x16
    27a4:	0af6                	slli	s5,s5,0x1d
    27a6:	0000                	unimp
    27a8:	5b01                	li	s6,-32
    27aa:	ff02                	sd	zero,440(sp)
    27ac:	000a                	c.slli	zero,0x2
    27ae:	0100                	addi	s0,sp,128
    27b0:	025c                	addi	a5,sp,260
    27b2:	0b08                	addi	a0,sp,400
    27b4:	0000                	unimp
    27b6:	5d01                	li	s10,-32
    27b8:	1102                	slli	sp,sp,0x20
    27ba:	0100000b          	0x100000b
    27be:	025e                	slli	tp,tp,0x17
    27c0:	0b1a                	slli	s6,s6,0x6
    27c2:	0000                	unimp
    27c4:	5f01                	li	t5,-32
    27c6:	2302                	fld	ft6,0(sp)
    27c8:	0100000b          	0x100000b
    27cc:	0061                	c.nop	24
    27ce:	0900                	addi	s0,sp,144
    27d0:	0a42                	slli	s4,s4,0x10
    27d2:	0000                	unimp
    27d4:	12ac                	addi	a1,sp,360
    27d6:	00a0                	addi	s0,sp,72
    27d8:	0000                	unimp
    27da:	0000                	unimp
    27dc:	0010                	0x10
    27de:	0000                	unimp
    27e0:	0000                	unimp
    27e2:	0000                	unimp
    27e4:	4b01                	li	s6,0
    27e6:	0105                	addi	sp,sp,1
    27e8:	0a50                	addi	a2,sp,276
    27ea:	0000                	unimp
    27ec:	2ce8                	fld	fa0,216(s1)
    27ee:	0000                	unimp
    27f0:	8e09                	sub	a2,a2,a0
    27f2:	000a                	c.slli	zero,0x2
    27f4:	ac00                	fsd	fs0,24(s0)
    27f6:	a012                	fsd	ft4,0(sp)
    27f8:	0000                	unimp
    27fa:	0000                	unimp
    27fc:	1000                	addi	s0,sp,32
    27fe:	0000                	unimp
    2800:	0000                	unimp
    2802:	0000                	unimp
    2804:	0200                	addi	s0,sp,256
    2806:	0c46                	slli	s8,s8,0x11
    2808:	e101                	bnez	a0,2808 <_text-0x9fd7f8>
    280a:	000a                	c.slli	zero,0x2
    280c:	fc00                	sd	s0,56(s0)
    280e:	002c                	addi	a1,sp,8
    2810:	0100                	addi	s0,sp,128
    2812:	0ad5                	addi	s5,s5,21
    2814:	0000                	unimp
    2816:	2cfc                	fld	fa5,216(s1)
    2818:	0000                	unimp
    281a:	c901                	beqz	a0,282a <_text-0x9fd7d6>
    281c:	000a                	c.slli	zero,0x2
    281e:	fc00                	sd	s0,56(s0)
    2820:	002c                	addi	a1,sp,8
    2822:	0100                	addi	s0,sp,128
    2824:	0abd                	addi	s5,s5,15
    2826:	0000                	unimp
    2828:	2cfc                	fld	fa5,216(s1)
    282a:	0000                	unimp
    282c:	b101                	j	242c <_text-0x9fdbd4>
    282e:	000a                	c.slli	zero,0x2
    2830:	fc00                	sd	s0,56(s0)
    2832:	002c                	addi	a1,sp,8
    2834:	0100                	addi	s0,sp,128
    2836:	0aa5                	addi	s5,s5,9
    2838:	0000                	unimp
    283a:	2ce8                	fld	fa0,216(s1)
    283c:	0000                	unimp
    283e:	9b01                	andi	a4,a4,-32
    2840:	000a                	c.slli	zero,0x2
    2842:	1100                	addi	s0,sp,160
    2844:	002d                	c.nop	11
    2846:	0200                	addi	s0,sp,256
    2848:	0aed                	addi	s5,s5,27
    284a:	0000                	unimp
    284c:	5a01                	li	s4,-32
    284e:	f602                	sd	zero,296(sp)
    2850:	000a                	c.slli	zero,0x2
    2852:	0100                	addi	s0,sp,128
    2854:	0aff025b          	0xaff025b
    2858:	0000                	unimp
    285a:	5c01                	li	s8,-32
    285c:	0802                	c.slli64	a6
    285e:	0100000b          	0x100000b
    2862:	025d                	addi	tp,tp,23
    2864:	0b11                	addi	s6,s6,4
    2866:	0000                	unimp
    2868:	5e01                	li	t3,-32
    286a:	1a02                	slli	s4,s4,0x20
    286c:	0100000b          	0x100000b
    2870:	025f 0b23 0000      	0xb23025f
    2876:	6101                	addi	sp,sp,0
    2878:	0000                	unimp
    287a:	0d00                	addi	s0,sp,656
    287c:	0090                	addi	a2,sp,64
    287e:	0000                	unimp
    2880:	3306                	fld	ft6,96(sp)
    2882:	2b000003          	lb	zero,688(zero) # 2b0 <_text-0x9ffd50>
    2886:	00019207          	0x19207
    288a:	5400                	lw	s0,40(s0)
    288c:	a011                	j	2890 <_text-0x9fd770>
    288e:	0000                	unimp
    2890:	0000                	unimp
    2892:	0400                	addi	s0,sp,512
    2894:	0001                	nop
    2896:	0000                	unimp
    2898:	0000                	unimp
    289a:	0100                	addi	s0,sp,128
    289c:	6d9c                	ld	a5,24(a1)
    289e:	0008                	0x8
    28a0:	0400                	addi	s0,sp,512
    28a2:	7562                	ld	a0,56(sp)
    28a4:	0066                	c.slli	zero,0x19
    28a6:	0192122b          	0x192122b
    28aa:	0000                	unimp
    28ac:	00002d27          	fsw	ft0,26(zero) # 1a <_text-0x9fffe6>
    28b0:	6d04                	ld	s1,24(a0)
    28b2:	7861                	lui	a6,0xffff8
    28b4:	2b00                	fld	fs0,16(a4)
    28b6:	00006c1b          	0x6c1b
    28ba:	7400                	ld	s0,40(s0)
    28bc:	002d                	c.nop	11
    28be:	0800                	addi	s0,sp,16
    28c0:	0069                	c.nop	26
    28c2:	092c                	addi	a1,sp,152
    28c4:	006c                	addi	a1,sp,12
    28c6:	0000                	unimp
    28c8:	00002dc7          	fmsub.s	fs11,ft0,ft0,ft0,rdn
    28cc:	6308                	ld	a0,0(a4)
    28ce:	0c2c0063          	beq	s8,sp,298e <_text-0x9fd672>
    28d2:	006c                	addi	a1,sp,12
    28d4:	0000                	unimp
    28d6:	2e89                	addiw	t4,t4,2
    28d8:	0000                	unimp
    28da:	2d00630b          	0x2d00630b
    28de:	970a                	add	a4,a4,sp
    28e0:	0001                	nop
    28e2:	0200                	addi	s0,sp,256
    28e4:	6f91                	lui	t6,0x4
    28e6:	ca15                	beqz	a2,291a <_text-0x9fd6e6>
    28e8:	2e000003          	lb	zero,736(zero) # 2e0 <_text-0x9ffd20>
    28ec:	6c10                	ld	a2,24(s0)
    28ee:	0000                	unimp
    28f0:	0900                	addi	s0,sp,144
    28f2:	a0225803          	lhu	a6,-1534(tp) # fffffffffffffa02 <end+0xfffffffffeffda02>
    28f6:	0000                	unimp
    28f8:	0000                	unimp
    28fa:	2100                	fld	fs0,0(a0)
    28fc:	0a5c                	addi	a5,sp,276
    28fe:	0000                	unimp
    2900:	1184                	addi	s1,sp,224
    2902:	00a0                	addi	s0,sp,72
    2904:	0000                	unimp
    2906:	0000                	unimp
    2908:	0551                	addi	a0,a0,20
    290a:	0000                	unimp
    290c:	3601                	addiw	a2,a2,-32
    290e:	ef11                	bnez	a4,292a <_text-0x9fd6d6>
    2910:	0006                	c.slli	zero,0x1
    2912:	0100                	addi	s0,sp,128
    2914:	0a81                	addi	s5,s5,0
    2916:	0000                	unimp
    2918:	00002ec3          	fmadd.s	ft9,ft0,ft0,ft0,rdn
    291c:	7501                	lui	a0,0xfffe0
    291e:	000a                	c.slli	zero,0x2
    2920:	d800                	sw	s0,48(s0)
    2922:	002e                	c.slli	zero,0xb
    2924:	0100                	addi	s0,sp,128
    2926:	0a6a                	slli	s4,s4,0x1a
    2928:	0000                	unimp
    292a:	2ef5                	addiw	t4,t4,29
    292c:	0000                	unimp
    292e:	8e09                	sub	a2,a2,a0
    2930:	000a                	c.slli	zero,0x2
    2932:	9800                	0x9800
    2934:	a011                	j	2938 <_text-0x9fd6c8>
    2936:	0000                	unimp
    2938:	0000                	unimp
    293a:	1800                	addi	s0,sp,48
    293c:	0000                	unimp
    293e:	0000                	unimp
    2940:	0000                	unimp
    2942:	0200                	addi	s0,sp,256
    2944:	0c36                	slli	s8,s8,0xd
    2946:	e101                	bnez	a0,2946 <_text-0x9fd6ba>
    2948:	000a                	c.slli	zero,0x2
    294a:	0a00                	addi	s0,sp,272
    294c:	0100002f          	0x100002f
    2950:	0ad5                	addi	s5,s5,21
    2952:	0000                	unimp
    2954:	2f0a                	fld	ft10,128(sp)
    2956:	0000                	unimp
    2958:	c901                	beqz	a0,2968 <_text-0x9fd698>
    295a:	000a                	c.slli	zero,0x2
    295c:	0a00                	addi	s0,sp,272
    295e:	0100002f          	0x100002f
    2962:	0abd                	addi	s5,s5,15
    2964:	0000                	unimp
    2966:	00002ec3          	fmadd.s	ft9,ft0,ft0,ft0,rdn
    296a:	b101                	j	256a <_text-0x9fda96>
    296c:	000a                	c.slli	zero,0x2
    296e:	d800                	sw	s0,48(s0)
    2970:	002e                	c.slli	zero,0xb
    2972:	0100                	addi	s0,sp,128
    2974:	0aa5                	addi	s5,s5,9
    2976:	0000                	unimp
    2978:	2ef5                	addiw	t4,t4,29
    297a:	0000                	unimp
    297c:	9b01                	andi	a4,a4,-32
    297e:	000a                	c.slli	zero,0x2
    2980:	1f00                	addi	s0,sp,944
    2982:	0200002f          	0x200002f
    2986:	0aed                	addi	s5,s5,27
    2988:	0000                	unimp
    298a:	5a01                	li	s4,-32
    298c:	f602                	sd	zero,296(sp)
    298e:	000a                	c.slli	zero,0x2
    2990:	0100                	addi	s0,sp,128
    2992:	0aff025b          	0xaff025b
    2996:	0000                	unimp
    2998:	5c01                	li	s8,-32
    299a:	0802                	c.slli64	a6
    299c:	0100000b          	0x100000b
    29a0:	025d                	addi	tp,tp,23
    29a2:	0b11                	addi	s6,s6,4
    29a4:	0000                	unimp
    29a6:	5e01                	li	t3,-32
    29a8:	1a02                	slli	s4,s4,0x20
    29aa:	0100000b          	0x100000b
    29ae:	025f 0b23 0000      	0xb23025f
    29b4:	6101                	addi	sp,sp,0
    29b6:	0000                	unimp
    29b8:	ed0e                	sd	gp,152(sp)
    29ba:	0009                	c.nop	2
    29bc:	b800                	fsd	fs0,48(s0)
    29be:	a011                	j	29c2 <_text-0x9fd63e>
    29c0:	0000                	unimp
    29c2:	0000                	unimp
    29c4:	2000                	fld	fs0,0(s0)
    29c6:	0000                	unimp
    29c8:	0000                	unimp
    29ca:	0000                	unimp
    29cc:	3000                	fld	fs0,32(s0)
    29ce:	af0e                	fsd	ft3,408(sp)
    29d0:	01000007          	0x1000007
    29d4:	0a12                	slli	s4,s4,0x4
    29d6:	0000                	unimp
    29d8:	2f35                	addiw	t5,t5,13
    29da:	0000                	unimp
    29dc:	0601                	addi	a2,a2,0
    29de:	000a                	c.slli	zero,0x2
    29e0:	4a00                	lw	s0,16(a2)
    29e2:	0100002f          	0x100002f
    29e6:	000009fb          	0x9fb
    29ea:	00002f73          	csrr	t5,ustatus
    29ee:	8e09                	sub	a2,a2,a0
    29f0:	000a                	c.slli	zero,0x2
    29f2:	b800                	fsd	fs0,48(s0)
    29f4:	a011                	j	29f8 <_text-0x9fd608>
    29f6:	0000                	unimp
    29f8:	0000                	unimp
    29fa:	2000                	fld	fs0,0(s0)
    29fc:	0000                	unimp
    29fe:	0000                	unimp
    2a00:	0000                	unimp
    2a02:	0200                	addi	s0,sp,256
    2a04:	0c5e                	slli	s8,s8,0x17
    2a06:	e101                	bnez	a0,2a06 <_text-0x9fd5fa>
    2a08:	000a                	c.slli	zero,0x2
    2a0a:	7300                	ld	s0,32(a4)
    2a0c:	0100002f          	0x100002f
    2a10:	0ad5                	addi	s5,s5,21
    2a12:	0000                	unimp
    2a14:	00002f73          	csrr	t5,ustatus
    2a18:	c901                	beqz	a0,2a28 <_text-0x9fd5d8>
    2a1a:	000a                	c.slli	zero,0x2
    2a1c:	7300                	ld	s0,32(a4)
    2a1e:	0100002f          	0x100002f
    2a22:	0abd                	addi	s5,s5,15
    2a24:	0000                	unimp
    2a26:	2f35                	addiw	t5,t5,13
    2a28:	0000                	unimp
    2a2a:	b101                	j	262a <_text-0x9fd9d6>
    2a2c:	000a                	c.slli	zero,0x2
    2a2e:	4a00                	lw	s0,16(a2)
    2a30:	0100002f          	0x100002f
    2a34:	0aa5                	addi	s5,s5,9
    2a36:	0000                	unimp
    2a38:	00002f73          	csrr	t5,ustatus
    2a3c:	9b01                	andi	a4,a4,-32
    2a3e:	000a                	c.slli	zero,0x2
    2a40:	8800                	0x8800
    2a42:	0200002f          	0x200002f
    2a46:	0aed                	addi	s5,s5,27
    2a48:	0000                	unimp
    2a4a:	5a01                	li	s4,-32
    2a4c:	f602                	sd	zero,296(sp)
    2a4e:	000a                	c.slli	zero,0x2
    2a50:	0100                	addi	s0,sp,128
    2a52:	0aff025b          	0xaff025b
    2a56:	0000                	unimp
    2a58:	5c01                	li	s8,-32
    2a5a:	0802                	c.slli64	a6
    2a5c:	0100000b          	0x100000b
    2a60:	025d                	addi	tp,tp,23
    2a62:	0b11                	addi	s6,s6,4
    2a64:	0000                	unimp
    2a66:	5e01                	li	t3,-32
    2a68:	1a02                	slli	s4,s4,0x20
    2a6a:	0100000b          	0x100000b
    2a6e:	025f 0b23 0000      	0xb23025f
    2a74:	6101                	addi	sp,sp,0
    2a76:	0000                	unimp
    2a78:	5c09                	li	s8,-30
    2a7a:	000a                	c.slli	zero,0x2
    2a7c:	e800                	sd	s0,16(s0)
    2a7e:	a011                	j	2a82 <_text-0x9fd57e>
    2a80:	0000                	unimp
    2a82:	0000                	unimp
    2a84:	2000                	fld	fs0,0(s0)
    2a86:	0000                	unimp
    2a88:	0000                	unimp
    2a8a:	0000                	unimp
    2a8c:	0100                	addi	s0,sp,128
    2a8e:	093a                	slli	s2,s2,0xe
    2a90:	8101                	c.srli64	a0
    2a92:	000a                	c.slli	zero,0x2
    2a94:	9e00                	0x9e00
    2a96:	0100002f          	0x100002f
    2a9a:	0a75                	addi	s4,s4,29
    2a9c:	0000                	unimp
    2a9e:	00002fb3          	sltz	t6,zero
    2aa2:	6a01                	0x6a01
    2aa4:	000a                	c.slli	zero,0x2
    2aa6:	9e00                	0x9e00
    2aa8:	0900002f          	0x900002f
    2aac:	0a8e                	slli	s5,s5,0x3
    2aae:	0000                	unimp
    2ab0:	11e8                	addi	a0,sp,236
    2ab2:	00a0                	addi	s0,sp,72
    2ab4:	0000                	unimp
    2ab6:	0000                	unimp
    2ab8:	0020                	addi	s0,sp,8
    2aba:	0000                	unimp
    2abc:	0000                	unimp
    2abe:	0000                	unimp
    2ac0:	3602                	fld	fa2,32(sp)
    2ac2:	010c                	addi	a1,sp,128
    2ac4:	0ae1                	addi	s5,s5,24
    2ac6:	0000                	unimp
    2ac8:	00002fc7          	fmsub.s	ft11,ft0,ft0,ft0,rdn
    2acc:	d501                	beqz	a0,29d4 <_text-0x9fd62c>
    2ace:	000a                	c.slli	zero,0x2
    2ad0:	c700                	sw	s0,8(a4)
    2ad2:	0100002f          	0x100002f
    2ad6:	0ac9                	addi	s5,s5,18
    2ad8:	0000                	unimp
    2ada:	00002fc7          	fmsub.s	ft11,ft0,ft0,ft0,rdn
    2ade:	bd01                	j	28ee <_text-0x9fd712>
    2ae0:	000a                	c.slli	zero,0x2
    2ae2:	9e00                	0x9e00
    2ae4:	0100002f          	0x100002f
    2ae8:	0ab1                	addi	s5,s5,12
    2aea:	0000                	unimp
    2aec:	00002fb3          	sltz	t6,zero
    2af0:	a501                	j	30f0 <_text-0x9fcf10>
    2af2:	000a                	c.slli	zero,0x2
    2af4:	9e00                	0x9e00
    2af6:	0100002f          	0x100002f
    2afa:	00000a9b          	sext.w	s5,zero
    2afe:	2fdc                	fld	fa5,152(a5)
    2b00:	0000                	unimp
    2b02:	ed02                	sd	zero,152(sp)
    2b04:	000a                	c.slli	zero,0x2
    2b06:	0100                	addi	s0,sp,128
    2b08:	025a                	slli	tp,tp,0x16
    2b0a:	0af6                	slli	s5,s5,0x1d
    2b0c:	0000                	unimp
    2b0e:	5b01                	li	s6,-32
    2b10:	ff02                	sd	zero,440(sp)
    2b12:	000a                	c.slli	zero,0x2
    2b14:	0100                	addi	s0,sp,128
    2b16:	025c                	addi	a5,sp,260
    2b18:	0b08                	addi	a0,sp,400
    2b1a:	0000                	unimp
    2b1c:	5d01                	li	s10,-32
    2b1e:	1102                	slli	sp,sp,0x20
    2b20:	0100000b          	0x100000b
    2b24:	025e                	slli	tp,tp,0x17
    2b26:	0b1a                	slli	s6,s6,0x6
    2b28:	0000                	unimp
    2b2a:	5f01                	li	t5,-32
    2b2c:	2302                	fld	ft6,0(sp)
    2b2e:	0100000b          	0x100000b
    2b32:	0061                	c.nop	24
    2b34:	0000                	unimp
    2b36:	6d06                	ld	s10,64(sp)
    2b38:	24000003          	lb	zero,576(zero) # 240 <_text-0x9ffdc0>
    2b3c:	00019207          	0x19207
    2b40:	1800                	addi	s0,sp,48
    2b42:	a011                	j	2b46 <_text-0x9fd4ba>
    2b44:	0000                	unimp
    2b46:	0000                	unimp
    2b48:	3c00                	fld	fs0,56(s0)
    2b4a:	0000                	unimp
    2b4c:	0000                	unimp
    2b4e:	0000                	unimp
    2b50:	0100                	addi	s0,sp,128
    2b52:	a79c                	fsd	fa5,8(a5)
    2b54:	0008                	0x8
    2b56:	0400                	addi	s0,sp,512
    2b58:	1a240073          	0x1a240073
    2b5c:	0299                	addi	t0,t0,6
    2b5e:	0000                	unimp
    2b60:	2ff2                	fld	ft11,280(sp)
    2b62:	0000                	unimp
    2b64:	2400630f          	0x2400630f
    2b68:	9722                	add	a4,a4,s0
    2b6a:	0001                	nop
    2b6c:	0100                	addi	s0,sp,128
    2b6e:	2706005b          	0x2706005b
    2b72:	1b000003          	lb	zero,432(zero) # 1b0 <_text-0x9ffe50>
    2b76:	00022c07          	flw	fs8,0(tp) # 0 <_text-0xa00000>
    2b7a:	e000                	sd	s0,0(s0)
    2b7c:	a010                	fsd	fa2,0(s0)
    2b7e:	0000                	unimp
    2b80:	0000                	unimp
    2b82:	3800                	fld	fs0,48(s0)
    2b84:	0000                	unimp
    2b86:	0000                	unimp
    2b88:	0000                	unimp
    2b8a:	0100                	addi	s0,sp,128
    2b8c:	089c                	addi	a5,sp,80
    2b8e:	0009                	c.nop	2
    2b90:	0f00                	addi	s0,sp,912
    2b92:	7364                	ld	s1,224(a4)
    2b94:	0074                	addi	a3,sp,12
    2b96:	022c141b          	0x22c141b
    2b9a:	0000                	unimp
    2b9c:	5a01                	li	s4,-32
    2b9e:	1b00630f          	0x1b00630f
    2ba2:	6c1d                	lui	s8,0x7
    2ba4:	0000                	unimp
    2ba6:	0100                	addi	s0,sp,128
    2ba8:	006e045b          	0x6e045b
    2bac:	0085251b          	0x85251b
    2bb0:	0000                	unimp
    2bb2:	3042                	fld	ft0,48(sp)
    2bb4:	0000                	unimp
    2bb6:	2e15                	addiw	t3,t3,5
    2bb8:	1c000003          	lb	zero,448(zero) # 1c0 <_text-0x9ffe40>
    2bbc:	0001920b          	0x1920b
    2bc0:	0100                	addi	s0,sp,128
    2bc2:	085a                	slli	a6,a6,0x16
    2bc4:	0069                	c.nop	26
    2bc6:	091d                	addi	s2,s2,7
    2bc8:	006c                	addi	a1,sp,12
    2bca:	0000                	unimp
    2bcc:	306c                	fld	fa1,224(s0)
    2bce:	0000                	unimp
    2bd0:	0600                	addi	s0,sp,768
    2bd2:	0388                	addi	a0,sp,448
    2bd4:	0000                	unimp
    2bd6:	00850613          	addi	a2,a0,8 # fffffffffffe0008 <end+0xfffffffffefde008>
    2bda:	0000                	unimp
    2bdc:	1098                	addi	a4,sp,96
    2bde:	00a0                	addi	s0,sp,72
    2be0:	0000                	unimp
    2be2:	0000                	unimp
    2be4:	0048                	addi	a0,sp,4
    2be6:	0000                	unimp
    2be8:	0000                	unimp
    2bea:	0000                	unimp
    2bec:	9c01                	subw	s0,s0,s0
    2bee:	0944                	addi	s1,sp,148
    2bf0:	0000                	unimp
    2bf2:	7304                	ld	s1,32(a4)
    2bf4:	1300                	addi	s0,sp,416
    2bf6:	9919                	andi	a0,a0,-26
    2bf8:	0002                	c.slli64	zero
    2bfa:	b300                	fsd	fs0,32(a4)
    2bfc:	0030                	addi	a2,sp,8
    2bfe:	0800                	addi	s0,sp,16
    2c00:	006e                	c.slli	zero,0x1b
    2c02:	0914                	addi	a3,sp,144
    2c04:	006c                	addi	a1,sp,12
    2c06:	0000                	unimp
    2c08:	0000311b          	0x311b
    2c0c:	0600                	addi	s0,sp,768
    2c0e:	02ea                	slli	t0,t0,0x1a
    2c10:	0000                	unimp
    2c12:	050d                	addi	a0,a0,3
    2c14:	006c                	addi	a1,sp,12
    2c16:	0000                	unimp
    2c18:	1058                	addi	a4,sp,36
    2c1a:	00a0                	addi	s0,sp,72
    2c1c:	0000                	unimp
    2c1e:	0000                	unimp
    2c20:	0040                	addi	s0,sp,4
    2c22:	0000                	unimp
    2c24:	0000                	unimp
    2c26:	0000                	unimp
    2c28:	9c01                	subw	s0,s0,s0
    2c2a:	0980                	addi	s0,sp,208
    2c2c:	0000                	unimp
    2c2e:	7004                	ld	s1,32(s0)
    2c30:	0d00                	addi	s0,sp,656
    2c32:	9918                	0x9918
    2c34:	0002                	c.slli64	zero
    2c36:	7700                	ld	s0,40(a4)
    2c38:	0031                	c.nop	12
    2c3a:	0400                	addi	s0,sp,512
    2c3c:	0071                	c.nop	28
    2c3e:	270d                	addiw	a4,a4,3
    2c40:	0299                	addi	t0,t0,6
    2c42:	0000                	unimp
    2c44:	319e                	fld	ft3,480(sp)
    2c46:	0000                	unimp
    2c48:	0600                	addi	s0,sp,768
    2c4a:	0399                	addi	t2,t2,6
    2c4c:	0000                	unimp
    2c4e:	0704                	addi	s1,sp,896
    2c50:	0192                	slli	gp,gp,0x4
    2c52:	0000                	unimp
    2c54:	1028                	addi	a0,sp,40
    2c56:	00a0                	addi	s0,sp,72
    2c58:	0000                	unimp
    2c5a:	0000                	unimp
    2c5c:	0030                	addi	a2,sp,8
    2c5e:	0000                	unimp
    2c60:	0000                	unimp
    2c62:	0000                	unimp
    2c64:	9c01                	subw	s0,s0,s0
    2c66:	09c8                	addi	a0,sp,212
    2c68:	0000                	unimp
    2c6a:	7304                	ld	s1,32(a4)
    2c6c:	0400                	addi	s0,sp,512
    2c6e:	9214                	0x9214
    2c70:	0001                	nop
    2c72:	c500                	sw	s0,8(a0)
    2c74:	0031                	c.nop	12
    2c76:	0400                	addi	s0,sp,512
    2c78:	0074                	addi	a3,sp,12
    2c7a:	2304                	fld	fs1,0(a4)
    2c7c:	0299                	addi	t0,t0,6
    2c7e:	0000                	unimp
    2c80:	31ec                	fld	fa1,224(a1)
    2c82:	0000                	unimp
    2c84:	00736f0b          	0x736f0b
    2c88:	0b05                	addi	s6,s6,1
    2c8a:	0192                	slli	gp,gp,0x4
    2c8c:	0000                	unimp
    2c8e:	5a01                	li	s4,-32
    2c90:	0c00                	addi	s0,sp,528
    2c92:	0374                	addi	a3,sp,396
    2c94:	0000                	unimp
    2c96:	6c69                	lui	s8,0x1a
    2c98:	0000                	unimp
    2c9a:	ed00                	sd	s0,24(a0)
    2c9c:	0009                	c.nop	2
    2c9e:	0500                	addi	s0,sp,640
    2ca0:	6466                	ld	s0,88(sp)
    2ca2:	0200                	addi	s0,sp,256
    2ca4:	1d69                	addi	s10,s10,-6
    2ca6:	006c                	addi	a1,sp,12
    2ca8:	0000                	unimp
    2caa:	7305                	lui	t1,0xfffe1
    2cac:	0074                	addi	a3,sp,12
    2cae:	6902                	ld	s2,0(sp)
    2cb0:	b22e                	fsd	fa1,288(sp)
    2cb2:	0005                	c.nop	1
    2cb4:	0000                	unimp
    2cb6:	620c                	ld	a1,0(a2)
    2cb8:	0000                	unimp
    2cba:	5d00                	lw	s0,56(a0)
    2cbc:	006c                	addi	a1,sp,12
    2cbe:	0000                	unimp
    2cc0:	0a1d                	addi	s4,s4,7
    2cc2:	0000                	unimp
    2cc4:	6605                	lui	a2,0x1
    2cc6:	0064                	addi	s1,sp,12
    2cc8:	5d02                	lw	s10,32(sp)
    2cca:	6c1c                	ld	a5,24(s0)
    2ccc:	0000                	unimp
    2cce:	0500                	addi	s0,sp,640
    2cd0:	7562                	ld	a0,56(sp)
    2cd2:	0066                	c.slli	zero,0x19
    2cd4:	5d02                	lw	s10,32(sp)
    2cd6:	992c                	0x992c
    2cd8:	0002                	c.slli64	zero
    2cda:	0500                	addi	s0,sp,640
    2cdc:	006e                	c.slli	zero,0x1b
    2cde:	5d02                	lw	s10,32(sp)
    2ce0:	6c35                	lui	s8,0xd
    2ce2:	0000                	unimp
    2ce4:	0000                	unimp
    2ce6:	a70c                	fsd	fa1,8(a4)
    2ce8:	0001                	nop
    2cea:	4900                	lw	s0,16(a0)
    2cec:	006c                	addi	a1,sp,12
    2cee:	0000                	unimp
    2cf0:	0a42                	slli	s4,s4,0x10
    2cf2:	0000                	unimp
    2cf4:	ec16                	sd	t0,24(sp)
    2cf6:	0000                	unimp
    2cf8:	4900                	lw	s0,16(a0)
    2cfa:	9924                	0x9924
    2cfc:	0002                	c.slli64	zero
    2cfe:	1600                	addi	s0,sp,800
    2d00:	00bc                	addi	a5,sp,72
    2d02:	0000                	unimp
    2d04:	2e49                	addiw	t3,t3,18
    2d06:	006c                	addi	a1,sp,12
    2d08:	0000                	unimp
    2d0a:	0c00                	addi	s0,sp,528
    2d0c:	0000003b          	addw	zero,zero,zero
    2d10:	6c45                	lui	s8,0x11
    2d12:	0000                	unimp
    2d14:	5c00                	lw	s0,56(s0)
    2d16:	000a                	c.slli	zero,0x2
    2d18:	0500                	addi	s0,sp,640
    2d1a:	6466                	ld	s0,88(sp)
    2d1c:	0200                	addi	s0,sp,256
    2d1e:	1d45                	addi	s10,s10,-15
    2d20:	006c                	addi	a1,sp,12
    2d22:	0000                	unimp
    2d24:	0c00                	addi	s0,sp,528
    2d26:	004e                	c.slli	zero,0x13
    2d28:	0000                	unimp
    2d2a:	6c35                	lui	s8,0xd
    2d2c:	0000                	unimp
    2d2e:	8e00                	0x8e00
    2d30:	000a                	c.slli	zero,0x2
    2d32:	0500                	addi	s0,sp,640
    2d34:	6466                	ld	s0,88(sp)
    2d36:	0200                	addi	s0,sp,256
    2d38:	1d35                	addi	s10,s10,-19
    2d3a:	006c                	addi	a1,sp,12
    2d3c:	0000                	unimp
    2d3e:	7305                	lui	t1,0xfffe1
    2d40:	6372                	ld	t1,280(sp)
    2d42:	0200                	addi	s0,sp,256
    2d44:	2d35                	addiw	s10,s10,13
    2d46:	022e                	slli	tp,tp,0xb
    2d48:	0000                	unimp
    2d4a:	6c05                	lui	s8,0x1
    2d4c:	6e65                	lui	t3,0x19
    2d4e:	0200                	addi	s0,sp,256
    2d50:	3635                	addiw	a2,a2,-19
    2d52:	006c                	addi	a1,sp,12
    2d54:	0000                	unimp
    2d56:	2200                	fld	fs0,0(a2)
    2d58:	0000006f          	j	2d58 <_text-0x9fd2a8>
    2d5c:	4d130603          	lb	a2,1233(t1) # fffffffffffe14d1 <end+0xfffffffffefdf4d1>
    2d60:	0000                	unimp
    2d62:	0300                	addi	s0,sp,384
    2d64:	6e05                	lui	t3,0x1
    2d66:	0300                	addi	s0,sp,384
    2d68:	2106                	fld	ft2,64(sp)
    2d6a:	00000073          	ecall
    2d6e:	5f05                	li	t5,-31
    2d70:	3061                	0x3061
    2d72:	0300                	addi	s0,sp,384
    2d74:	2806                	fld	fa6,64(sp)
    2d76:	004d                	c.nop	19
    2d78:	0000                	unimp
    2d7a:	5f05                	li	t5,-31
    2d7c:	3161                	addiw	sp,sp,-8
    2d7e:	0300                	addi	s0,sp,384
    2d80:	3106                	fld	ft2,96(sp)
    2d82:	004d                	c.nop	19
    2d84:	0000                	unimp
    2d86:	5f05                	li	t5,-31
    2d88:	3261                	addiw	tp,tp,-8
    2d8a:	0300                	addi	s0,sp,384
    2d8c:	3a06                	fld	fs4,96(sp)
    2d8e:	004d                	c.nop	19
    2d90:	0000                	unimp
    2d92:	5f05                	li	t5,-31
    2d94:	3361                	addiw	t1,t1,-8
    2d96:	0300                	addi	s0,sp,384
    2d98:	004d0307          	0x4d0307
    2d9c:	0000                	unimp
    2d9e:	5f05                	li	t5,-31
    2da0:	3461                	addiw	s0,s0,-8
    2da2:	0300                	addi	s0,sp,384
    2da4:	004d0c07          	0x4d0c07
    2da8:	0000                	unimp
    2daa:	5f05                	li	t5,-31
    2dac:	3561                	addiw	a0,a0,-8
    2dae:	0300                	addi	s0,sp,384
    2db0:	004d1507          	0x4d1507
    2db4:	0000                	unimp
    2db6:	610a                	ld	sp,128(sp)
    2db8:	0030                	addi	a2,sp,8
    2dba:	4d08                	lw	a0,24(a0)
    2dbc:	0000                	unimp
    2dbe:	0a00                	addi	s0,sp,272
    2dc0:	3161                	addiw	sp,sp,-8
    2dc2:	0900                	addi	s0,sp,144
    2dc4:	004d                	c.nop	19
    2dc6:	0000                	unimp
    2dc8:	610a                	ld	sp,128(sp)
    2dca:	0032                	c.slli	zero,0xc
    2dcc:	4d0a                	lw	s10,128(sp)
    2dce:	0000                	unimp
    2dd0:	0a00                	addi	s0,sp,272
    2dd2:	3361                	addiw	t1,t1,-8
    2dd4:	0b00                	addi	s0,sp,400
    2dd6:	004d                	c.nop	19
    2dd8:	0000                	unimp
    2dda:	610a                	ld	sp,128(sp)
    2ddc:	0034                	addi	a3,sp,8
    2dde:	4d0c                	lw	a1,24(a0)
    2de0:	0000                	unimp
    2de2:	0a00                	addi	s0,sp,272
    2de4:	3561                	addiw	a0,a0,-8
    2de6:	0d00                	addi	s0,sp,656
    2de8:	004d                	c.nop	19
    2dea:	0000                	unimp
    2dec:	00005423          	0x5423
    2df0:	0300                	addi	s0,sp,384
    2df2:	100e                	c.slli	zero,0x23
    2df4:	00000073          	ecall
    2df8:	0000                	unimp
    2dfa:	000003c7          	fmsub.s	ft7,ft0,ft0,ft0,rne
    2dfe:	0005                	c.nop	1
    2e00:	0801                	addi	a6,a6,0
    2e02:	000007e7          	jalr	a5,zero # 0 <_text-0xa00000>
    2e06:	f10e                	sd	gp,160(sp)
    2e08:	0000                	unimp
    2e0a:	1d00                	addi	s0,sp,688
    2e0c:	000000b3          	add	ra,zero,zero
    2e10:	0000                	unimp
    2e12:	0000                	unimp
    2e14:	1438                	addi	a4,sp,552
    2e16:	00a0                	addi	s0,sp,72
    2e18:	0000                	unimp
    2e1a:	0000                	unimp
    2e1c:	0208                	addi	a0,sp,256
    2e1e:	0000                	unimp
    2e20:	0000                	unimp
    2e22:	0000                	unimp
    2e24:	31c0                	fld	fs0,160(a1)
    2e26:	0000                	unimp
    2e28:	0102                	c.slli64	sp
    2e2a:	a908                	fsd	fa0,16(a0)
    2e2c:	0000                	unimp
    2e2e:	0200                	addi	s0,sp,256
    2e30:	0702                	c.slli64	a4
    2e32:	000000c7          	fmsub.s	ft1,ft0,ft0,ft0,rne
    2e36:	0402                	c.slli64	s0
    2e38:	0000df07          	0xdf07
    2e3c:	0f00                	addi	s0,sp,912
    2e3e:	3675                	addiw	a2,a2,-3
    2e40:	0034                	addi	a3,sp,8
    2e42:	0704                	addi	s1,sp,896
    2e44:	4f30                	lw	a2,88(a4)
    2e46:	0000                	unimp
    2e48:	0200                	addi	s0,sp,256
    2e4a:	0708                	addi	a0,sp,896
    2e4c:	00da                	slli	ra,ra,0x16
    2e4e:	0000                	unimp
    2e50:	0102                	c.slli64	sp
    2e52:	ab06                	fsd	ft1,400(sp)
    2e54:	0000                	unimp
    2e56:	0200                	addi	s0,sp,256
    2e58:	0502                	c.slli64	a0
    2e5a:	0041                	c.nop	16
    2e5c:	0000                	unimp
    2e5e:	0410                	addi	a2,sp,512
    2e60:	6905                	lui	s2,0x1
    2e62:	746e                	ld	s0,248(sp)
    2e64:	0200                	addi	s0,sp,256
    2e66:	0508                	addi	a0,sp,640
    2e68:	0081                	addi	ra,ra,0
    2e6a:	0000                	unimp
    2e6c:	dc06                	sw	ra,56(sp)
    2e6e:	0002                	c.slli64	zero
    2e70:	0400                	addi	s0,sp,512
    2e72:	1645                	addi	a2,a2,-15
    2e74:	003c                	addi	a5,sp,8
    2e76:	0000                	unimp
    2e78:	00008307          	0x8307
    2e7c:	0200                	addi	s0,sp,256
    2e7e:	0801                	addi	a6,a6,0
    2e80:	00b2                	slli	ra,ra,0xc
    2e82:	0000                	unimp
    2e84:	8311                	srli	a4,a4,0x4
    2e86:	0000                	unimp
    2e88:	9a00                	0x9a00
    2e8a:	0000                	unimp
    2e8c:	1200                	addi	s0,sp,288
    2e8e:	0000004f          	fnmadd.s	ft0,ft0,ft0,ft0,rne
    2e92:	0010                	0x10
    2e94:	0000a213          	slti	tp,ra,0
    2e98:	0500                	addi	s0,sp,640
    2e9a:	0d21                	addi	s10,s10,8
    2e9c:	008a                	slli	ra,ra,0x2
    2e9e:	0000                	unimp
    2ea0:	0091                	addi	ra,ra,4
    2ea2:	0000                	unimp
    2ea4:	2006                	fld	ft0,64(sp)
    2ea6:	0004                	0x4
    2ea8:	0100                	addi	s0,sp,128
    2eaa:	006b0e0b          	0x6b0e0b
    2eae:	0000                	unimp
    2eb0:	1014                	addi	a3,sp,32
    2eb2:	0e01                	addi	t3,t3,0
    2eb4:	da05                	beqz	a2,2de4 <_text-0x9fd21c>
    2eb6:	0000                	unimp
    2eb8:	1500                	addi	s0,sp,672
    2eba:	7470                	ld	a2,232(s0)
    2ebc:	0072                	c.slli	zero,0x1c
    2ebe:	0f01                	addi	t5,t5,0
    2ec0:	0000fa17          	auipc	s4,0xf
    2ec4:	0000                	unimp
    2ec6:	d016                	sw	t0,32(sp)
    2ec8:	0002                	c.slli64	zero
    2eca:	0100                	addi	s0,sp,128
    2ecc:	0e10                	addi	a2,sp,784
    2ece:	0072                	c.slli	zero,0x1c
    2ed0:	0000                	unimp
    2ed2:	0008                	0x8
    2ed4:	0003ea17          	auipc	s4,0x3e
    2ed8:	1000                	addi	s0,sp,32
    2eda:	0d01                	addi	s10,s10,0
    2edc:	0000fa07          	0xfa07
    2ee0:	0800                	addi	s0,sp,16
    2ee2:	07110073          	0x7110073
    2ee6:	00b6                	slli	ra,ra,0xd
    2ee8:	0000                	unimp
    2eea:	7808                	ld	a0,48(s0)
    2eec:	1200                	addi	s0,sp,288
    2eee:	0000aa0b          	0xaa0b
    2ef2:	0000                	unimp
    2ef4:	0000da07          	0xda07
    2ef8:	0600                	addi	s0,sp,768
    2efa:	040d                	addi	s0,s0,3
    2efc:	0000                	unimp
    2efe:	1501                	addi	a0,a0,-32
    2f00:	da16                	sw	t0,52(sp)
    2f02:	0000                	unimp
    2f04:	0900                	addi	s0,sp,144
    2f06:	000002bf 00ff0f17 	0xff0f17000002bf
    2f0e:	0000                	unimp
    2f10:	0309                	addi	t1,t1,2
    2f12:	3010                	fld	fa2,32(s0)
    2f14:	00a0                	addi	s0,sp,72
    2f16:	0000                	unimp
    2f18:	0000                	unimp
    2f1a:	f109                	bnez	a0,2e1c <_text-0x9fd1e4>
    2f1c:	18000003          	lb	zero,384(zero) # 180 <_text-0x9ffe80>
    2f20:	3510                	fld	fa2,40(a0)
    2f22:	0001                	nop
    2f24:	0900                	addi	s0,sp,144
    2f26:	00000003          	lb	zero,0(zero) # 0 <_text-0xa00000>
    2f2a:	0001                	nop
    2f2c:	0000                	unimp
    2f2e:	0700                	addi	s0,sp,896
    2f30:	00ff                	0xff
    2f32:	0000                	unimp
    2f34:	f718                	sd	a4,40(a4)
    2f36:	01000003          	lb	zero,16(zero) # 10 <_text-0x9ffff0>
    2f3a:	073d                	addi	a4,a4,15
    2f3c:	0285                	addi	t0,t0,1
    2f3e:	0000                	unimp
    2f40:	14e8                	addi	a0,sp,620
    2f42:	00a0                	addi	s0,sp,72
    2f44:	0000                	unimp
    2f46:	0000                	unimp
    2f48:	0158                	addi	a4,sp,132
    2f4a:	0000                	unimp
    2f4c:	0000                	unimp
    2f4e:	0000                	unimp
    2f50:	9c01                	subw	s0,s0,s0
    2f52:	0285                	addi	t0,t0,1
    2f54:	0000                	unimp
    2f56:	2b19                	addiw	s6,s6,6
    2f58:	0004                	0x4
    2f5a:	0100                	addi	s0,sp,128
    2f5c:	133d                	addi	t1,t1,-17
    2f5e:	0072                	c.slli	zero,0x1c
    2f60:	0000                	unimp
    2f62:	321f 0000 700a      	0x700a0000321f
    2f68:	3e00                	fld	fs0,56(a2)
    2f6a:	0135                	addi	sp,sp,13
    2f6c:	0000                	unimp
    2f6e:	3249                	addiw	tp,tp,-14
    2f70:	0000                	unimp
    2f72:	0003fe0b          	0x3fe0b
    2f76:	3e00                	fld	fs0,56(a2)
    2f78:	3511                	addiw	a0,a0,-28
    2f7a:	0001                	nop
    2f7c:	c500                	sw	s0,8(a0)
    2f7e:	0032                	c.slli	zero,0xc
    2f80:	0b00                	addi	s0,sp,400
    2f82:	0419                	addi	s0,s0,6
    2f84:	0000                	unimp
    2f86:	00720a3f 332e0000 	0x332e000000720a3f
    2f8e:	0000                	unimp
    2f90:	871a                	mv	a4,t1
    2f92:	0002                	c.slli64	zero
    2f94:	5800                	lw	s0,48(s0)
    2f96:	a015                	j	2fba <_text-0x9fd046>
    2f98:	0000                	unimp
    2f9a:	0000                	unimp
    2f9c:	8000                	0x8000
    2f9e:	0005                	c.nop	1
    2fa0:	0100                	addi	s0,sp,128
    2fa2:	98011653          	0x98011653
    2fa6:	0002                	c.slli64	zero
    2fa8:	5500                	lw	s0,40(a0)
    2faa:	1b000033          	0x1b000033
    2fae:	0580                	addi	s0,sp,704
    2fb0:	0000                	unimp
    2fb2:	a30c                	fsd	fa1,0(a4)
    2fb4:	0002                	c.slli64	zero
    2fb6:	b000                	fsd	fs0,32(s0)
    2fb8:	0c000033          	0xc000033
    2fbc:	02ad                	addi	t0,t0,11
    2fbe:	0000                	unimp
    2fc0:	33ec                	fld	fa1,224(a5)
    2fc2:	0000                	unimp
    2fc4:	fe1c                	sd	a5,56(a2)
    2fc6:	0002                	c.slli64	zero
    2fc8:	5800                	lw	s0,48(s0)
    2fca:	a015                	j	2fee <_text-0x9fd012>
    2fcc:	0000                	unimp
    2fce:	0000                	unimp
    2fd0:	c500                	sw	s0,8(a0)
    2fd2:	0005                	c.nop	1
    2fd4:	0100                	addi	s0,sp,128
    2fd6:	1134                	addi	a3,sp,168
    2fd8:	0275                	addi	tp,tp,29
    2fda:	0000                	unimp
    2fdc:	0f01                	addi	t5,t5,0
    2fde:	15000003          	lb	zero,336(zero) # 150 <_text-0x9ffeb0>
    2fe2:	0034                	addi	a3,sp,8
    2fe4:	1d00                	addi	s0,sp,688
    2fe6:	031c                	addi	a5,sp,384
    2fe8:	0000                	unimp
    2fea:	1614                	addi	a3,sp,800
    2fec:	00a0                	addi	s0,sp,72
    2fee:	0000                	unimp
    2ff0:	0000                	unimp
    2ff2:	0020                	addi	s0,sp,8
    2ff4:	0000                	unimp
    2ff6:	0000                	unimp
    2ff8:	0000                	unimp
    2ffa:	6f02                	ld	t5,0(sp)
    2ffc:	010c                	addi	a1,sp,128
    2ffe:	0000036f          	jal	t1,2ffe <_text-0x9fd002>
    3002:	342d                	addiw	s0,s0,-21
    3004:	0000                	unimp
    3006:	6301                	0x6301
    3008:	2d000003          	lb	zero,720(zero) # 2d0 <_text-0x9ffd30>
    300c:	0034                	addi	a3,sp,8
    300e:	0100                	addi	s0,sp,128
    3010:	00000357          	0x357
    3014:	342d                	addiw	s0,s0,-21
    3016:	0000                	unimp
    3018:	4b01                	li	s6,0
    301a:	2d000003          	lb	zero,720(zero) # 2d0 <_text-0x9ffd30>
    301e:	0034                	addi	a3,sp,8
    3020:	0100                	addi	s0,sp,128
    3022:	0000033f 0000342d 	0x342d0000033f
    302a:	3301                	addiw	t1,t1,-32
    302c:	42000003          	lb	zero,1056(zero) # 420 <_text-0x9ffbe0>
    3030:	0034                	addi	a3,sp,8
    3032:	0100                	addi	s0,sp,128
    3034:	0329                	addi	t1,t1,10
    3036:	0000                	unimp
    3038:	3460                	fld	fs0,232(s0)
    303a:	0000                	unimp
    303c:	7b05                	lui	s6,0xfffe1
    303e:	01000003          	lb	zero,16(zero) # 10 <_text-0x9ffff0>
    3042:	055a                	slli	a0,a0,0x16
    3044:	0386                	slli	t2,t2,0x1
    3046:	0000                	unimp
    3048:	5b01                	li	s6,-32
    304a:	9105                	srli	a0,a0,0x21
    304c:	01000003          	lb	zero,16(zero) # 10 <_text-0x9ffff0>
    3050:	055c                	addi	a5,sp,644
    3052:	039c                	addi	a5,sp,448
    3054:	0000                	unimp
    3056:	5d01                	li	s10,-32
    3058:	a705                	j	3778 <_text-0x9fc888>
    305a:	01000003          	lb	zero,16(zero) # 10 <_text-0x9ffff0>
    305e:	055e                	slli	a0,a0,0x17
    3060:	03b2                	slli	t2,t2,0xc
    3062:	0000                	unimp
    3064:	5f01                	li	t5,-32
    3066:	bd05                	j	2e96 <_text-0x9fd16a>
    3068:	01000003          	lb	zero,16(zero) # 10 <_text-0x9ffff0>
    306c:	0061                	c.nop	24
    306e:	1e00                	addi	s0,sp,816
    3070:	15f4                	addi	a3,sp,748
    3072:	00a0                	addi	s0,sp,72
    3074:	0000                	unimp
    3076:	0000                	unimp
    3078:	02b9                	addi	t0,t0,14
    307a:	0000                	unimp
    307c:	0000                	unimp
    307e:	1f00                	addi	s0,sp,944
    3080:	0d08                	addi	a0,sp,656
    3082:	0404                	addi	s1,sp,512
    3084:	0000                	unimp
    3086:	2e01                	sext.w	t3,t3
    3088:	3510                	fld	fa2,40(a0)
    308a:	0001                	nop
    308c:	0100                	addi	s0,sp,128
    308e:	02b9                	addi	t0,t0,14
    3090:	0000                	unimp
    3092:	00756e03          	lwu	t3,7(a0)
    3096:	2e01                	sext.w	t3,t3
    3098:	721e                	ld	tp,480(sp)
    309a:	0000                	unimp
    309c:	0400                	addi	s0,sp,512
    309e:	0070                	addi	a2,sp,12
    30a0:	2f01                	sext.w	t5,t5
    30a2:	00007e0b          	0x7e0b
    30a6:	0400                	addi	s0,sp,512
    30a8:	7068                	ld	a0,224(s0)
    30aa:	0100                	addi	s0,sp,128
    30ac:	0d30                	addi	a2,sp,664
    30ae:	0135                	addi	sp,sp,13
    30b0:	0000                	unimp
    30b2:	2000                	fld	fs0,0(s0)
    30b4:	0414                	addi	a3,sp,512
    30b6:	0000                	unimp
    30b8:	1a01                	addi	s4,s4,-32
    30ba:	3806                	fld	fa6,96(sp)
    30bc:	a014                	fsd	fa3,0(s0)
    30be:	0000                	unimp
    30c0:	0000                	unimp
    30c2:	b000                	fsd	fs0,32(s0)
    30c4:	0000                	unimp
    30c6:	0000                	unimp
    30c8:	0000                	unimp
    30ca:	0100                	addi	s0,sp,128
    30cc:	fe9c                	sd	a5,56(a3)
    30ce:	0002                	c.slli64	zero
    30d0:	2100                	fld	fs0,0(a0)
    30d2:	7061                	c.lui	zero,0xffff8
    30d4:	0100                	addi	s0,sp,128
    30d6:	111a                	slli	sp,sp,0x26
    30d8:	0285                	addi	t0,t0,1
    30da:	0000                	unimp
    30dc:	5a01                	li	s4,-32
    30de:	620a                	ld	tp,128(sp)
    30e0:	0070                	addi	a2,sp,12
    30e2:	0001351b          	0x1351b
    30e6:	7500                	ld	s0,40(a0)
    30e8:	0034                	addi	a3,sp,8
    30ea:	2200                	fld	fs0,0(a2)
    30ec:	0070                	addi	a2,sp,12
    30ee:	1b01                	addi	s6,s6,-32
    30f0:	3512                	fld	fa0,288(sp)
    30f2:	0001                	nop
    30f4:	0100                	addi	s0,sp,128
    30f6:	005f 260d 0004      	0x4260d005f
    30fc:	0200                	addi	s0,sp,256
    30fe:	136d                	addi	t1,t1,-5
    3100:	00000043          	fmadd.s	ft0,ft0,ft0,ft0,rne
    3104:	00031c03          	lh	s8,0(t1)
    3108:	2300                	fld	fs0,0(a4)
    310a:	02d0                	addi	a2,sp,324
    310c:	0000                	unimp
    310e:	6d02                	ld	s10,0(sp)
    3110:	641c                	ld	a5,8(s0)
    3112:	0000                	unimp
    3114:	0000                	unimp
    3116:	6f24                	ld	s1,88(a4)
    3118:	0000                	unimp
    311a:	0300                	addi	s0,sp,384
    311c:	1306                	slli	t1,t1,0x21
    311e:	00000043          	fmadd.s	ft0,ft0,ft0,ft0,rne
    3122:	006e0303          	lb	t1,6(t3) # 1006 <_text-0x9feffa>
    3126:	6b210603          	lb	a2,1714(sp)
    312a:	0000                	unimp
    312c:	0300                	addi	s0,sp,384
    312e:	615f 0030 0603      	0x6030030615f
    3134:	4328                	lw	a0,64(a4)
    3136:	0000                	unimp
    3138:	0300                	addi	s0,sp,384
    313a:	615f 0031 0603      	0x6030031615f
    3140:	4331                	li	t1,12
    3142:	0000                	unimp
    3144:	0300                	addi	s0,sp,384
    3146:	615f 0032 0603      	0x6030032615f
    314c:	433a                	lw	t1,140(sp)
    314e:	0000                	unimp
    3150:	0300                	addi	s0,sp,384
    3152:	615f 0033 0703      	0x7030033615f
    3158:	00004303          	lbu	t1,0(zero) # 0 <_text-0xa00000>
    315c:	0300                	addi	s0,sp,384
    315e:	615f 0034 0703      	0x7030034615f
    3164:	430c                	lw	a1,0(a4)
    3166:	0000                	unimp
    3168:	0300                	addi	s0,sp,384
    316a:	615f 0035 0703      	0x7030035615f
    3170:	4315                	li	t1,5
    3172:	0000                	unimp
    3174:	0400                	addi	s0,sp,512
    3176:	3061                	0x3061
    3178:	0300                	addi	s0,sp,384
    317a:	0f08                	addi	a0,sp,912
    317c:	00000043          	fmadd.s	ft0,ft0,ft0,ft0,rne
    3180:	6104                	ld	s1,0(a0)
    3182:	0031                	c.nop	12
    3184:	430f0903          	lb	s2,1072(t5)
    3188:	0000                	unimp
    318a:	0400                	addi	s0,sp,512
    318c:	3261                	addiw	tp,tp,-8
    318e:	0300                	addi	s0,sp,384
    3190:	0f0a                	slli	t5,t5,0x2
    3192:	00000043          	fmadd.s	ft0,ft0,ft0,ft0,rne
    3196:	6104                	ld	s1,0(a0)
    3198:	0b030033          	0xb030033
    319c:	0000430f          	0x430f
    31a0:	0400                	addi	s0,sp,512
    31a2:	3461                	addiw	s0,s0,-8
    31a4:	0300                	addi	s0,sp,384
    31a6:	0f0c                	addi	a1,sp,912
    31a8:	00000043          	fmadd.s	ft0,ft0,ft0,ft0,rne
    31ac:	6104                	ld	s1,0(a0)
    31ae:	0035                	c.nop	13
    31b0:	430f0d03          	lb	s10,1072(t5)
    31b4:	0000                	unimp
    31b6:	2500                	fld	fs0,8(a0)
    31b8:	0054                	addi	a3,sp,4
    31ba:	0000                	unimp
    31bc:	6b100e03          	lb	t3,1713(zero) # 6b1 <_text-0x9ff94f>
    31c0:	0000                	unimp
    31c2:	0000                	unimp
	...

Disassembly of section .debug_abbrev:

0000000000000000 <.debug_abbrev>:
   0:	1101                	addi	sp,sp,-32
   2:	1000                	addi	s0,sp,32
   4:	12011117          	auipc	sp,0x12011
   8:	1b0e030f          	0x1b0e030f
   c:	250e                	fld	fa0,192(sp)
   e:	130e                	slli	t1,t1,0x23
  10:	0005                	c.nop	1
  12:	0000                	unimp
  14:	0501                	addi	a0,a0,0
  16:	3100                	fld	fs0,32(a0)
  18:	00170213          	addi	tp,a4,1 # 70a7 <_text-0x9f8f59>
  1c:	0200                	addi	s0,sp,256
  1e:	0034                	addi	a3,sp,8
  20:	1331                	addi	t1,t1,-20
  22:	1802                	slli	a6,a6,0x20
  24:	0000                	unimp
  26:	03000503          	lb	a0,48(zero) # 30 <_text-0x9fffd0>
  2a:	3a08                	fld	fa0,48(a2)
  2c:	390b3b0b          	0x390b3b0b
  30:	0013490b          	0x13490b
  34:	0400                	addi	s0,sp,512
  36:	0049                	c.nop	18
  38:	1802                	slli	a6,a6,0x20
  3a:	187e                	slli	a6,a6,0x3f
  3c:	0000                	unimp
  3e:	2405                	addiw	s0,s0,1
  40:	0b00                	addi	s0,sp,400
  42:	030b3e0b          	0x30b3e0b
  46:	000e                	c.slli	zero,0x3
  48:	0600                	addi	s0,sp,768
  4a:	011d                	addi	sp,sp,7
  4c:	1331                	addi	t1,t1,-20
  4e:	0111                	addi	sp,sp,4
  50:	0712                	slli	a4,a4,0x4
  52:	2158                	fld	fa4,128(a0)
  54:	5901                	li	s2,-32
  56:	010b570b          	0x10b570b
  5a:	07000013          	li	zero,112
  5e:	0034                	addi	a3,sp,8
  60:	213a0803          	lb	a6,531(s4) # 410e7 <_text-0x9bef19>
  64:	390b3b03          	ld	s6,912(s6) # fffffffffffe1390 <end+0xfffffffffefdf390>
  68:	0f21                	addi	t5,t5,8
  6a:	1349                	addi	t1,t1,-14
  6c:	0000                	unimp
  6e:	1d08                	addi	a0,sp,688
  70:	3101                	addiw	sp,sp,-32
  72:	12011113          	0x12011113
  76:	02215807          	0x2215807
  7a:	0b59                	addi	s6,s6,22
  7c:	000c2157          	0xc2157
  80:	0900                	addi	s0,sp,144
  82:	210b000f          	0x210b000f
  86:	4908                	lw	a0,16(a0)
  88:	0a000013          	li	zero,160
  8c:	0101                	addi	sp,sp,0
  8e:	1349                	addi	t1,t1,-14
  90:	1301                	addi	t1,t1,-32
  92:	0000                	unimp
  94:	4900210b          	0x4900210b
  98:	000b2f13          	slti	t5,s6,0
  9c:	0c00                	addi	s0,sp,528
  9e:	0148                	addi	a0,sp,132
  a0:	017d                	addi	sp,sp,31
  a2:	137f                	0x137f
  a4:	1301                	addi	t1,t1,-32
  a6:	0000                	unimp
  a8:	2e0d                	addiw	t3,t3,3
  aa:	0301                	addi	t1,t1,0
  ac:	3a0e                	fld	fs4,224(sp)
  ae:	0221                	addi	tp,tp,8
  b0:	21390b3b          	0x21390b3b
  b4:	49192713          	slti	a4,s2,1169
  b8:	03212013          	slti	zero,sp,50
  bc:	1301                	addi	t1,t1,-32
  be:	0000                	unimp
  c0:	340e                	fld	fs0,224(sp)
  c2:	0300                	addi	s0,sp,384
  c4:	3a08                	fld	fa0,48(a2)
  c6:	0121                	addi	sp,sp,8
  c8:	21390b3b          	0x21390b3b
  cc:	4909                	li	s2,2
  ce:	00170213          	addi	tp,a4,1
  d2:	0f00                	addi	s0,sp,912
  d4:	0005                	c.nop	1
  d6:	213a0e03          	lb	t3,531(s4)
  da:	3b01                	addiw	s6,s6,-32
  dc:	0621                	addi	a2,a2,8
  de:	0b39                	addi	s6,s6,14
  e0:	1349                	addi	t1,t1,-14
  e2:	1702                	slli	a4,a4,0x20
  e4:	0000                	unimp
  e6:	3410                	fld	fa2,40(s0)
  e8:	0300                	addi	s0,sp,384
  ea:	3a0e                	fld	fs4,224(sp)
  ec:	390b3b0b          	0x390b3b0b
  f0:	0013490b          	0x13490b
  f4:	1100                	addi	s0,sp,160
  f6:	011d                	addi	sp,sp,7
  f8:	1331                	addi	t1,t1,-20
  fa:	0152                	slli	sp,sp,0x14
  fc:	1755                	addi	a4,a4,-11
  fe:	2158                	fld	fa4,128(a0)
 100:	5902                	lw	s2,32(sp)
 102:	0c21570b          	0xc21570b
 106:	0000                	unimp
 108:	0b12                	slli	s6,s6,0x4
 10a:	5501                	li	a0,-32
 10c:	13000017          	auipc	zero,0x13000
 110:	0005                	c.nop	1
 112:	213a0e03          	lb	t3,531(s4)
 116:	3b02                	fld	fs6,32(sp)
 118:	490b390b          	0x490b390b
 11c:	14000013          	li	zero,320
 120:	0111                	addi	sp,sp,4
 122:	0e25                	addi	t3,t3,9
 124:	1f030b13          	addi	s6,t1,496
 128:	01111f1b          	slliw	t5,sp,0x11
 12c:	0712                	slli	a4,a4,0x4
 12e:	1710                	addi	a2,sp,928
 130:	0000                	unimp
 132:	1615                	addi	a2,a2,-27
 134:	0300                	addi	s0,sp,384
 136:	3a08                	fld	fa0,48(a2)
 138:	390b3b0b          	0x390b3b0b
 13c:	0013490b          	0x13490b
 140:	1600                	addi	s0,sp,800
 142:	0024                	addi	s1,sp,8
 144:	0b3e0b0b          	0xb3e0b0b
 148:	00000803          	lb	a6,0(zero) # 0 <_text-0xa00000>
 14c:	49002617          	auipc	a2,0x49002
 150:	18000013          	li	zero,384
 154:	0034                	addi	a3,sp,8
 156:	0b3a0e03          	lb	t3,179(s4)
 15a:	0b390b3b          	0xb390b3b
 15e:	1349                	addi	t1,t1,-14
 160:	0e1c                	addi	a5,sp,784
 162:	0000                	unimp
 164:	3419                	addiw	s0,s0,-26
 166:	0300                	addi	s0,sp,384
 168:	3a0e                	fld	fs4,224(sp)
 16a:	390b3b0b          	0x390b3b0b
 16e:	3f13490b          	0x3f13490b
 172:	0219                	addi	tp,tp,6
 174:	0018                	0x18
 176:	1a00                	addi	s0,sp,304
 178:	012e                	slli	sp,sp,0xb
 17a:	0e03193f 0b3b0b3a 	0xb3b0b3a0e03193f
 182:	0b39                	addi	s6,s6,14
 184:	193c1927          	0x193c1927
 188:	1301                	addi	t1,t1,-32
 18a:	0000                	unimp
 18c:	4900051b          	addiw	a0,zero,1168
 190:	1c000013          	li	zero,448
 194:	0018                	0x18
 196:	0000                	unimp
 198:	2e1d                	addiw	t3,t3,7
 19a:	3f01                	addiw	t5,t5,-32
 19c:	0319                	addi	t1,t1,6
 19e:	3a0e                	fld	fs4,224(sp)
 1a0:	390b3b0b          	0x390b3b0b
 1a4:	4919270b          	0x4919270b
 1a8:	12011113          	0x12011113
 1ac:	7a184007          	flq	ft0,1953(a6) # ffffffffffff87a1 <end+0xfffffffffeff67a1>
 1b0:	0119                	addi	sp,sp,6
 1b2:	1e000013          	li	zero,480
 1b6:	0034                	addi	a3,sp,8
 1b8:	0b3a0803          	lb	a6,179(s4)
 1bc:	0b390b3b          	0xb390b3b
 1c0:	1349                	addi	t1,t1,-14
 1c2:	1802                	slli	a6,a6,0x20
 1c4:	0000                	unimp
 1c6:	341f 0300 3a0e      	0x3a0e0300341f
 1cc:	390b3b0b          	0x390b3b0b
 1d0:	0213490b          	0x213490b
 1d4:	0018                	0x18
 1d6:	2000                	fld	fs0,0(s0)
 1d8:	0148                	addi	a0,sp,132
 1da:	017d                	addi	sp,sp,31
 1dc:	137f                	0x137f
 1de:	0000                	unimp
 1e0:	2621                	addiw	a2,a2,8
 1e2:	0000                	unimp
 1e4:	2200                	fld	fs0,0(a2)
 1e6:	012e                	slli	sp,sp,0xb
 1e8:	0e03193f 0b3b0b3a 	0xb3b0b3a0e03193f
 1f0:	0b39                	addi	s6,s6,14
 1f2:	13491927          	0x13491927
 1f6:	0b20                	addi	s0,sp,408
 1f8:	0000                	unimp
 1fa:	0100                	addi	s0,sp,128
 1fc:	0024                	addi	s1,sp,8
 1fe:	0b3e0b0b          	0xb3e0b0b
 202:	00000e03          	lb	t3,0(zero) # 0 <_text-0xa00000>
 206:	0502                	c.slli64	a0
 208:	3100                	fld	fs0,32(a0)
 20a:	00170213          	addi	tp,a4,1
 20e:	0300                	addi	s0,sp,384
 210:	0005                	c.nop	1
 212:	0b3a0803          	lb	a6,179(s4)
 216:	0b390b3b          	0xb390b3b
 21a:	1349                	addi	t1,t1,-14
 21c:	0000                	unimp
 21e:	3404                	fld	fs1,40(s0)
 220:	3100                	fld	fs0,32(a0)
 222:	00180213          	addi	tp,a6,1
 226:	0500                	addi	s0,sp,640
 228:	0034                	addi	a3,sp,8
 22a:	213a0803          	lb	a6,531(s4)
 22e:	390b3b03          	ld	s6,912(s6)
 232:	0f21                	addi	t5,t5,8
 234:	1349                	addi	t1,t1,-14
 236:	0000                	unimp
 238:	0506                	slli	a0,a0,0x1
 23a:	0300                	addi	s0,sp,384
 23c:	3a0e                	fld	fs4,224(sp)
 23e:	0121                	addi	sp,sp,8
 240:	3906213b          	0x3906213b
 244:	0213490b          	0x213490b
 248:	07000017          	auipc	zero,0x7000
 24c:	210b000f          	0x210b000f
 250:	4908                	lw	a0,16(a0)
 252:	08000013          	li	zero,128
 256:	0005                	c.nop	1
 258:	1349                	addi	t1,t1,-14
 25a:	0000                	unimp
 25c:	1109                	addi	sp,sp,-30
 25e:	2501                	sext.w	a0,a0
 260:	130e                	slli	t1,t1,0x23
 262:	1b1f030b          	0x1b1f030b
 266:	111f 1201 1007      	0x10071201111f
 26c:	0a000017          	auipc	zero,0xa000
 270:	0016                	c.slli	zero,0x5
 272:	0b3a0803          	lb	a6,179(s4)
 276:	0b390b3b          	0xb390b3b
 27a:	1349                	addi	t1,t1,-14
 27c:	0000                	unimp
 27e:	0b00240b          	0xb00240b
 282:	030b3e0b          	0x30b3e0b
 286:	0008                	0x8
 288:	0c00                	addi	s0,sp,528
 28a:	0101                	addi	sp,sp,0
 28c:	1349                	addi	t1,t1,-14
 28e:	1301                	addi	t1,t1,-32
 290:	0000                	unimp
 292:	210d                	addiw	sp,sp,3
 294:	4900                	lw	s0,16(a0)
 296:	000b2f13          	slti	t5,s6,0
 29a:	0e00                	addi	s0,sp,784
 29c:	0034                	addi	a3,sp,8
 29e:	0b3a0e03          	lb	t3,179(s4)
 2a2:	0b390b3b          	0xb390b3b
 2a6:	1349                	addi	t1,t1,-14
 2a8:	0e1c                	addi	a5,sp,784
 2aa:	0000                	unimp
 2ac:	3f012e0f          	0x3f012e0f
 2b0:	0319                	addi	t1,t1,6
 2b2:	3a0e                	fld	fs4,224(sp)
 2b4:	390b3b0b          	0x390b3b0b
 2b8:	4919270b          	0x4919270b
 2bc:	01193c13          	sltiu	s8,s2,17
 2c0:	10000013          	li	zero,256
 2c4:	012e                	slli	sp,sp,0xb
 2c6:	0e03193f 0b3b0b3a 	0xb3b0b3a0e03193f
 2ce:	0b39                	addi	s6,s6,14
 2d0:	01111927          	0x1111927
 2d4:	0712                	slli	a4,a4,0x4
 2d6:	1840                	addi	s0,sp,52
 2d8:	197a                	slli	s2,s2,0x3e
 2da:	1301                	addi	t1,t1,-32
 2dc:	0000                	unimp
 2de:	3411                	addiw	s0,s0,-28
 2e0:	0300                	addi	s0,sp,384
 2e2:	3a08                	fld	fa0,48(a2)
 2e4:	390b3b0b          	0x390b3b0b
 2e8:	0213490b          	0x213490b
 2ec:	12000017          	auipc	zero,0x12000
 2f0:	011d                	addi	sp,sp,7
 2f2:	1331                	addi	t1,t1,-20
 2f4:	0111                	addi	sp,sp,4
 2f6:	0712                	slli	a4,a4,0x4
 2f8:	0b58                	addi	a4,sp,404
 2fa:	0b59                	addi	s6,s6,22
 2fc:	13010b57          	0x13010b57
 300:	0000                	unimp
 302:	31011d13          	0x31011d13
 306:	12011113          	0x12011113
 30a:	590b5807          	0x590b5807
 30e:	000b570b          	0xb570b
 312:	1400                	addi	s0,sp,544
 314:	0148                	addi	a0,sp,132
 316:	017d                	addi	sp,sp,31
 318:	137f                	0x137f
 31a:	0000                	unimp
 31c:	4915                	li	s2,5
 31e:	0200                	addi	s0,sp,256
 320:	7e18                	ld	a4,56(a2)
 322:	0018                	0x18
 324:	1600                	addi	s0,sp,800
 326:	012e                	slli	sp,sp,0xb
 328:	0b3a0e03          	lb	t3,179(s4)
 32c:	0b390b3b          	0xb390b3b
 330:	13491927          	0x13491927
 334:	0b20                	addi	s0,sp,408
 336:	1301                	addi	t1,t1,-32
 338:	0000                	unimp
 33a:	3f012e17          	auipc	t3,0x3f012
 33e:	0319                	addi	t1,t1,6
 340:	3a0e                	fld	fs4,224(sp)
 342:	390b3b0b          	0x390b3b0b
 346:	4919270b          	0x4919270b
 34a:	000b2013          	slti	zero,s6,0
 34e:	1800                	addi	s0,sp,48
 350:	0034                	addi	a3,sp,8
 352:	0b3a0e03          	lb	t3,179(s4)
 356:	0b390b3b          	0xb390b3b
 35a:	1349                	addi	t1,t1,-14
 35c:	0000                	unimp
 35e:	0100                	addi	s0,sp,128
 360:	0005                	c.nop	1
 362:	1331                	addi	t1,t1,-20
 364:	1702                	slli	a4,a4,0x20
 366:	0000                	unimp
 368:	3402                	fld	fs0,32(sp)
 36a:	3100                	fld	fs0,32(a0)
 36c:	00180213          	addi	tp,a6,1
 370:	0300                	addi	s0,sp,384
 372:	011d                	addi	sp,sp,7
 374:	1331                	addi	t1,t1,-20
 376:	0111                	addi	sp,sp,4
 378:	0712                	slli	a4,a4,0x4
 37a:	0b58                	addi	a4,sp,404
 37c:	0b59                	addi	s6,s6,22
 37e:	00000b57          	0xb57
 382:	0504                	addi	s1,sp,640
 384:	3100                	fld	fs0,32(a0)
 386:	05000013          	li	zero,80
 38a:	0049                	c.nop	18
 38c:	1802                	slli	a6,a6,0x20
 38e:	187e                	slli	a6,a6,0x3f
 390:	0000                	unimp
 392:	0506                	slli	a0,a0,0x1
 394:	0300                	addi	s0,sp,384
 396:	3a0e                	fld	fs4,224(sp)
 398:	0121                	addi	sp,sp,8
 39a:	0b390b3b          	0xb390b3b
 39e:	1349                	addi	t1,t1,-14
 3a0:	1702                	slli	a4,a4,0x20
 3a2:	0000                	unimp
 3a4:	31011d07          	0x31011d07
 3a8:	55015213          	0x55015213
 3ac:	590b5817          	auipc	a6,0x590b5
 3b0:	000b570b          	0xb570b
 3b4:	0800                	addi	s0,sp,16
 3b6:	011d                	addi	sp,sp,7
 3b8:	1331                	addi	t1,t1,-20
 3ba:	0152                	slli	sp,sp,0x14
 3bc:	1755                	addi	a4,a4,-11
 3be:	0b58                	addi	a4,sp,404
 3c0:	0b59                	addi	s6,s6,22
 3c2:	13010b57          	0x13010b57
 3c6:	0000                	unimp
 3c8:	3409                	addiw	s0,s0,-30
 3ca:	0300                	addi	s0,sp,384
 3cc:	3a08                	fld	fa0,48(a2)
 3ce:	0121                	addi	sp,sp,8
 3d0:	0b390b3b          	0xb390b3b
 3d4:	1349                	addi	t1,t1,-14
 3d6:	1702                	slli	a4,a4,0x20
 3d8:	0000                	unimp
 3da:	050a                	slli	a0,a0,0x2
 3dc:	0300                	addi	s0,sp,384
 3de:	3a08                	fld	fa0,48(a2)
 3e0:	390b3b0b          	0x390b3b0b
 3e4:	0013490b          	0x13490b
 3e8:	0b00                	addi	s0,sp,400
 3ea:	0024                	addi	s1,sp,8
 3ec:	0b3e0b0b          	0xb3e0b0b
 3f0:	00000e03          	lb	t3,0(zero) # 0 <_text-0xa00000>
 3f4:	480c                	lw	a1,16(s0)
 3f6:	7d01                	lui	s10,0xfffe0
 3f8:	7f01                	lui	t5,0xfffe0
 3fa:	00130113          	addi	sp,t1,1
 3fe:	0d00                	addi	s0,sp,656
 400:	012e                	slli	sp,sp,0xb
 402:	0e03193f 3b01213a 	0x3b01213a0e03193f
 40a:	0621390b          	0x621390b
 40e:	01111927          	0x1111927
 412:	0712                	slli	a4,a4,0x4
 414:	1840                	addi	s0,sp,52
 416:	197a                	slli	s2,s2,0x3e
 418:	1301                	addi	t1,t1,-32
 41a:	0000                	unimp
 41c:	050e                	slli	a0,a0,0x3
 41e:	0300                	addi	s0,sp,384
 420:	3a08                	fld	fa0,48(a2)
 422:	0121                	addi	sp,sp,8
 424:	0b390b3b          	0xb390b3b
 428:	1349                	addi	t1,t1,-14
 42a:	1702                	slli	a4,a4,0x20
 42c:	0000                	unimp
 42e:	0300340f          	0x300340f
 432:	3a0e                	fld	fs4,224(sp)
 434:	0121                	addi	sp,sp,8
 436:	0b390b3b          	0xb390b3b
 43a:	1349                	addi	t1,t1,-14
 43c:	1702                	slli	a4,a4,0x20
 43e:	0000                	unimp
 440:	3410                	fld	fa2,40(s0)
 442:	0300                	addi	s0,sp,384
 444:	3a08                	fld	fa0,48(a2)
 446:	0421                	addi	s0,s0,8
 448:	21390b3b          	0x21390b3b
 44c:	0013490f          	0x13490f
 450:	1100                	addi	s0,sp,160
 452:	0005                	c.nop	1
 454:	213a0803          	lb	a6,531(s4)
 458:	3b01                	addiw	s6,s6,-32
 45a:	490b390b          	0x490b390b
 45e:	00180213          	addi	tp,a6,1 # 590b53ad <end+0x580b33ad>
 462:	1200                	addi	s0,sp,288
 464:	0148                	addi	a0,sp,132
 466:	017d                	addi	sp,sp,31
 468:	137f                	0x137f
 46a:	0000                	unimp
 46c:	31011d13          	0x31011d13
 470:	12011113          	0x12011113
 474:	01215807          	0x1215807
 478:	0b59                	addi	s6,s6,22
 47a:	13010b57          	0x13010b57
 47e:	0000                	unimp
 480:	2e14                	fld	fa3,24(a2)
 482:	0301                	addi	t1,t1,0
 484:	3a0e                	fld	fs4,224(sp)
 486:	390b3b0b          	0x390b3b0b
 48a:	1421                	addi	s0,s0,-24
 48c:	21201927          	0x21201927
 490:	00130103          	lb	sp,1(t1)
 494:	1500                	addi	s0,sp,672
 496:	0101                	addi	sp,sp,0
 498:	1349                	addi	t1,t1,-14
 49a:	1301                	addi	t1,t1,-32
 49c:	0000                	unimp
 49e:	3416                	fld	fs0,352(sp)
 4a0:	0300                	addi	s0,sp,384
 4a2:	3a08                	fld	fa0,48(a2)
 4a4:	0121                	addi	sp,sp,8
 4a6:	0b390b3b          	0xb390b3b
 4aa:	1349                	addi	t1,t1,-14
 4ac:	1802                	slli	a6,a6,0x20
 4ae:	0000                	unimp
 4b0:	0b000f17          	auipc	t5,0xb000
 4b4:	0821                	addi	a6,a6,8
 4b6:	1349                	addi	t1,t1,-14
 4b8:	0000                	unimp
 4ba:	3418                	fld	fa4,40(s0)
 4bc:	0300                	addi	s0,sp,384
 4be:	3a0e                	fld	fs4,224(sp)
 4c0:	0321                	addi	t1,t1,8
 4c2:	0b390b3b          	0xb390b3b
 4c6:	1349                	addi	t1,t1,-14
 4c8:	193c193f 21190000 	0x21190000193c193f
 4d0:	4900                	lw	s0,16(a0)
 4d2:	000b2f13          	slti	t5,s6,0
 4d6:	1a00                	addi	s0,sp,304
 4d8:	1755010b          	0x1755010b
 4dc:	0000                	unimp
 4de:	0300341b          	0x300341b
 4e2:	3a08                	fld	fa0,48(a2)
 4e4:	0121                	addi	sp,sp,8
 4e6:	0b39053b          	0xb39053b
 4ea:	1349                	addi	t1,t1,-14
 4ec:	1702                	slli	a4,a4,0x20
 4ee:	0000                	unimp
 4f0:	181c                	addi	a5,sp,48
 4f2:	0000                	unimp
 4f4:	1d00                	addi	s0,sp,688
 4f6:	0034                	addi	a3,sp,8
 4f8:	0b3a0e03          	lb	t3,179(s4)
 4fc:	390e213b          	0x390e213b
 500:	0013490b          	0x13490b
 504:	1e00                	addi	s0,sp,816
 506:	0111                	addi	sp,sp,4
 508:	0e25                	addi	t3,t3,9
 50a:	1f030b13          	addi	s6,t1,496
 50e:	01111f1b          	slliw	t5,sp,0x11
 512:	0712                	slli	a4,a4,0x4
 514:	1710                	addi	a2,sp,928
 516:	0000                	unimp
 518:	161f 0300 3a08      	0x3a080300161f
 51e:	390b3b0b          	0x390b3b0b
 522:	0013490b          	0x13490b
 526:	2000                	fld	fs0,0(s0)
 528:	0024                	addi	s1,sp,8
 52a:	0b3e0b0b          	0xb3e0b0b
 52e:	00000803          	lb	a6,0(zero) # 0 <_text-0xa00000>
 532:	1621                	addi	a2,a2,-24
 534:	0300                	addi	s0,sp,384
 536:	3a0e                	fld	fs4,224(sp)
 538:	390b3b0b          	0x390b3b0b
 53c:	0013490b          	0x13490b
 540:	2200                	fld	fs0,0(a2)
 542:	0b0b000f          	0xb0b000f
 546:	00000e03          	lb	t3,0(zero) # 0 <_text-0xa00000>
 54a:	49002623          	sw	a6,1164(zero) # 48c <_text-0x9ffb74>
 54e:	24000013          	li	zero,576
 552:	0021                	c.nop	8
 554:	0000                	unimp
 556:	3425                	addiw	s0,s0,-23
 558:	0300                	addi	s0,sp,384
 55a:	3a0e                	fld	fs4,224(sp)
 55c:	390b3b0b          	0x390b3b0b
 560:	1c13490b          	0x1c13490b
 564:	000e                	c.slli	zero,0x3
 566:	2600                	fld	fs0,8(a2)
 568:	1755010b          	0x1755010b
 56c:	1301                	addi	t1,t1,-32
 56e:	0000                	unimp
 570:	03003427          	fsd	fa6,40(zero) # 28 <_text-0x9fffd8>
 574:	3a0e                	fld	fs4,224(sp)
 576:	39053b0b          	0x39053b0b
 57a:	0213490b          	0x213490b
 57e:	28000017          	auipc	zero,0x28000
 582:	0111010b          	0x111010b
 586:	0712                	slli	a4,a4,0x4
 588:	0000                	unimp
 58a:	2e29                	addiw	t3,t3,10
 58c:	0301                	addi	t1,t1,0
 58e:	3a0e                	fld	fs4,224(sp)
 590:	390b3b0b          	0x390b3b0b
 594:	1119270b          	0x1119270b
 598:	1201                	addi	tp,tp,-32
 59a:	7a184007          	flq	ft0,1953(a6)
 59e:	0119                	addi	sp,sp,6
 5a0:	2a000013          	li	zero,672
 5a4:	002e                	c.slli	zero,0xb
 5a6:	0b3a0e03          	lb	t3,179(s4)
 5aa:	0b390b3b          	0xb390b3b
 5ae:	0b20                	addi	s0,sp,408
 5b0:	0000                	unimp
 5b2:	0300052b          	0x300052b
 5b6:	3a0e                	fld	fs4,224(sp)
 5b8:	390b3b0b          	0x390b3b0b
 5bc:	0013490b          	0x13490b
 5c0:	2c00                	fld	fs0,24(s0)
 5c2:	012e                	slli	sp,sp,0xb
 5c4:	0e03193f 0b3b0b3a 	0xb3b0b3a0e03193f
 5cc:	0b39                	addi	s6,s6,14
 5ce:	13491927          	0x13491927
 5d2:	0b20                	addi	s0,sp,408
 5d4:	0000                	unimp
 5d6:	0100                	addi	s0,sp,128
 5d8:	0005                	c.nop	1
 5da:	1331                	addi	t1,t1,-20
 5dc:	1702                	slli	a4,a4,0x20
 5de:	0000                	unimp
 5e0:	3402                	fld	fs0,32(sp)
 5e2:	3100                	fld	fs0,32(a0)
 5e4:	00180213          	addi	tp,a6,1
 5e8:	0300                	addi	s0,sp,384
 5ea:	000d                	c.nop	3
 5ec:	213a0e03          	lb	t3,531(s4)
 5f0:	3b05                	addiw	s6,s6,-31
 5f2:	490b390b          	0x490b390b
 5f6:	000b3813          	sltiu	a6,s6,0
 5fa:	0400                	addi	s0,sp,512
 5fc:	0005                	c.nop	1
 5fe:	213a0803          	lb	a6,531(s4)
 602:	3b01                	addiw	s6,s6,-32
 604:	490b390b          	0x490b390b
 608:	00170213          	addi	tp,a4,1
 60c:	0500                	addi	s0,sp,640
 60e:	0005                	c.nop	1
 610:	0b3a0803          	lb	a6,179(s4)
 614:	0b390b3b          	0xb390b3b
 618:	1349                	addi	t1,t1,-14
 61a:	0000                	unimp
 61c:	2e06                	fld	ft8,64(sp)
 61e:	3f01                	addiw	t5,t5,-32
 620:	0319                	addi	t1,t1,6
 622:	3a0e                	fld	fs4,224(sp)
 624:	0121                	addi	sp,sp,8
 626:	0b390b3b          	0xb390b3b
 62a:	13491927          	0x13491927
 62e:	0111                	addi	sp,sp,4
 630:	0712                	slli	a4,a4,0x4
 632:	1840                	addi	s0,sp,52
 634:	197a                	slli	s2,s2,0x3e
 636:	1301                	addi	t1,t1,-32
 638:	0000                	unimp
 63a:	0b002407          	flw	fs0,176(zero) # b0 <_text-0x9fff50>
 63e:	030b3e0b          	0x30b3e0b
 642:	000e                	c.slli	zero,0x3
 644:	0800                	addi	s0,sp,16
 646:	0034                	addi	a3,sp,8
 648:	213a0803          	lb	a6,531(s4)
 64c:	3b01                	addiw	s6,s6,-32
 64e:	490b390b          	0x490b390b
 652:	00170213          	addi	tp,a4,1
 656:	0900                	addi	s0,sp,144
 658:	011d                	addi	sp,sp,7
 65a:	1331                	addi	t1,t1,-20
 65c:	0111                	addi	sp,sp,4
 65e:	0712                	slli	a4,a4,0x4
 660:	0b58                	addi	a4,sp,404
 662:	0b59                	addi	s6,s6,22
 664:	00000b57          	0xb57
 668:	340a                	fld	fs0,160(sp)
 66a:	0300                	addi	s0,sp,384
 66c:	3a08                	fld	fa0,48(a2)
 66e:	0321                	addi	t1,t1,8
 670:	21390b3b          	0x21390b3b
 674:	0013490f          	0x13490f
 678:	0b00                	addi	s0,sp,400
 67a:	0034                	addi	a3,sp,8
 67c:	213a0803          	lb	a6,531(s4)
 680:	3b01                	addiw	s6,s6,-32
 682:	490b390b          	0x490b390b
 686:	00180213          	addi	tp,a6,1
 68a:	0c00                	addi	s0,sp,528
 68c:	012e                	slli	sp,sp,0xb
 68e:	213a0e03          	lb	t3,531(s4)
 692:	3b02                	fld	fs6,32(sp)
 694:	1321390b          	0x1321390b
 698:	13491927          	0x13491927
 69c:	2120                	fld	fs0,64(a0)
 69e:	00130103          	lb	sp,1(t1)
 6a2:	0d00                	addi	s0,sp,656
 6a4:	210b000f          	0x210b000f
 6a8:	4908                	lw	a0,16(a0)
 6aa:	0e000013          	li	zero,224
 6ae:	011d                	addi	sp,sp,7
 6b0:	1331                	addi	t1,t1,-20
 6b2:	0111                	addi	sp,sp,4
 6b4:	0712                	slli	a4,a4,0x4
 6b6:	2158                	fld	fa4,128(a0)
 6b8:	5901                	li	s2,-32
 6ba:	010b570b          	0x10b570b
 6be:	0f000013          	li	zero,240
 6c2:	0005                	c.nop	1
 6c4:	213a0803          	lb	a6,531(s4)
 6c8:	3b01                	addiw	s6,s6,-32
 6ca:	490b390b          	0x490b390b
 6ce:	00180213          	addi	tp,a6,1
 6d2:	1000                	addi	s0,sp,32
 6d4:	0016                	c.slli	zero,0x5
 6d6:	213a0803          	lb	a6,531(s4)
 6da:	3b04                	fld	fs1,48(a4)
 6dc:	3021390b          	0x3021390b
 6e0:	1349                	addi	t1,t1,-14
 6e2:	0000                	unimp
 6e4:	1611                	addi	a2,a2,-28
 6e6:	0300                	addi	s0,sp,384
 6e8:	3a0e                	fld	fs4,224(sp)
 6ea:	0421                	addi	s0,s0,8
 6ec:	0b390b3b          	0xb390b3b
 6f0:	1349                	addi	t1,t1,-14
 6f2:	0000                	unimp
 6f4:	0112                	slli	sp,sp,0x4
 6f6:	4901                	li	s2,0
 6f8:	00130113          	addi	sp,t1,1
 6fc:	1300                	addi	s0,sp,416
 6fe:	0021                	c.nop	8
 700:	1349                	addi	t1,t1,-14
 702:	00000b2f          	0xb2f
 706:	4914                	lw	a3,16(a0)
 708:	0200                	addi	s0,sp,256
 70a:	7e18                	ld	a4,56(a2)
 70c:	0018                	0x18
 70e:	1500                	addi	s0,sp,672
 710:	0034                	addi	a3,sp,8
 712:	213a0e03          	lb	t3,531(s4)
 716:	3b01                	addiw	s6,s6,-32
 718:	490b390b          	0x490b390b
 71c:	00180213          	addi	tp,a6,1
 720:	1600                	addi	s0,sp,800
 722:	0005                	c.nop	1
 724:	213a0e03          	lb	t3,531(s4)
 728:	3b02                	fld	fs6,32(sp)
 72a:	490b390b          	0x490b390b
 72e:	17000013          	li	zero,368
 732:	0111                	addi	sp,sp,4
 734:	0e25                	addi	t3,t3,9
 736:	1f030b13          	addi	s6,t1,496
 73a:	01111f1b          	slliw	t5,sp,0x11
 73e:	0712                	slli	a4,a4,0x4
 740:	1710                	addi	a2,sp,928
 742:	0000                	unimp
 744:	2418                	fld	fa4,8(s0)
 746:	0b00                	addi	s0,sp,400
 748:	030b3e0b          	0x30b3e0b
 74c:	0008                	0x8
 74e:	1900                	addi	s0,sp,176
 750:	0e030113          	addi	sp,t1,224
 754:	0b3a0b0b          	0xb3a0b0b
 758:	0b390b3b          	0xb390b3b
 75c:	1301                	addi	t1,t1,-32
 75e:	0000                	unimp
 760:	261a                	fld	fa2,384(sp)
 762:	4900                	lw	s0,16(a0)
 764:	1b000013          	li	zero,432
 768:	0034                	addi	a3,sp,8
 76a:	0b3a0e03          	lb	t3,179(s4)
 76e:	0b390b3b          	0xb390b3b
 772:	1349                	addi	t1,t1,-14
 774:	0e1c                	addi	a5,sp,784
 776:	0000                	unimp
 778:	481c                	lw	a5,16(s0)
 77a:	7d01                	lui	s10,0xfffe0
 77c:	7f01                	lui	t5,0xfffe0
 77e:	1d000013          	li	zero,464
 782:	0b0b000f          	0xb0b000f
 786:	0000                	unimp
 788:	261e                	fld	fa2,448(sp)
 78a:	0000                	unimp
 78c:	1f00                	addi	s0,sp,944
 78e:	0005                	c.nop	1
 790:	0b3a0e03          	lb	t3,179(s4)
 794:	0b390b3b          	0xb390b3b
 798:	1349                	addi	t1,t1,-14
 79a:	1802                	slli	a6,a6,0x20
 79c:	0000                	unimp
 79e:	0520                	addi	s0,sp,648
 7a0:	0300                	addi	s0,sp,384
 7a2:	3a0e                	fld	fs4,224(sp)
 7a4:	390b3b0b          	0x390b3b0b
 7a8:	0213490b          	0x213490b
 7ac:	21000017          	auipc	zero,0x21000
 7b0:	011d                	addi	sp,sp,7
 7b2:	1331                	addi	t1,t1,-20
 7b4:	0152                	slli	sp,sp,0x14
 7b6:	1755                	addi	a4,a4,-11
 7b8:	0b58                	addi	a4,sp,404
 7ba:	0b59                	addi	s6,s6,22
 7bc:	13010b57          	0x13010b57
 7c0:	0000                	unimp
 7c2:	2e22                	fld	ft8,8(sp)
 7c4:	3f01                	addiw	t5,t5,-32
 7c6:	0319                	addi	t1,t1,6
 7c8:	3a0e                	fld	fs4,224(sp)
 7ca:	390b3b0b          	0x390b3b0b
 7ce:	4919270b          	0x4919270b
 7d2:	000b2013          	slti	zero,s6,0
 7d6:	2300                	fld	fs0,0(a4)
 7d8:	0034                	addi	a3,sp,8
 7da:	0b3a0e03          	lb	t3,179(s4)
 7de:	0b390b3b          	0xb390b3b
 7e2:	1349                	addi	t1,t1,-14
 7e4:	0000                	unimp
 7e6:	0100                	addi	s0,sp,128
 7e8:	0005                	c.nop	1
 7ea:	1331                	addi	t1,t1,-20
 7ec:	1702                	slli	a4,a4,0x20
 7ee:	0000                	unimp
 7f0:	2402                	fld	fs0,0(sp)
 7f2:	0b00                	addi	s0,sp,400
 7f4:	030b3e0b          	0x30b3e0b
 7f8:	000e                	c.slli	zero,0x3
 7fa:	0300                	addi	s0,sp,384
 7fc:	0005                	c.nop	1
 7fe:	0b3a0803          	lb	a6,179(s4)
 802:	0b390b3b          	0xb390b3b
 806:	1349                	addi	t1,t1,-14
 808:	0000                	unimp
 80a:	3404                	fld	fs1,40(s0)
 80c:	0300                	addi	s0,sp,384
 80e:	3a08                	fld	fa0,48(a2)
 810:	390b3b0b          	0x390b3b0b
 814:	0013490b          	0x13490b
 818:	0500                	addi	s0,sp,640
 81a:	0034                	addi	a3,sp,8
 81c:	1331                	addi	t1,t1,-20
 81e:	1802                	slli	a6,a6,0x20
 820:	0000                	unimp
 822:	1606                	slli	a2,a2,0x21
 824:	0300                	addi	s0,sp,384
 826:	3a0e                	fld	fs4,224(sp)
 828:	390b3b0b          	0x390b3b0b
 82c:	0013490b          	0x13490b
 830:	0700                	addi	s0,sp,896
 832:	210b000f          	0x210b000f
 836:	4908                	lw	a0,16(a0)
 838:	08000013          	li	zero,128
 83c:	000d                	c.nop	3
 83e:	213a0803          	lb	a6,531(s4)
 842:	3b01                	addiw	s6,s6,-32
 844:	490b390b          	0x490b390b
 848:	09000013          	li	zero,144
 84c:	0034                	addi	a3,sp,8
 84e:	213a0e03          	lb	t3,531(s4)
 852:	3b01                	addiw	s6,s6,-32
 854:	490b390b          	0x490b390b
 858:	00180213          	addi	tp,a6,1
 85c:	0a00                	addi	s0,sp,272
 85e:	0034                	addi	a3,sp,8
 860:	213a0803          	lb	a6,531(s4)
 864:	3b01                	addiw	s6,s6,-32
 866:	0d21390b          	0xd21390b
 86a:	1349                	addi	t1,t1,-14
 86c:	1702                	slli	a4,a4,0x20
 86e:	0000                	unimp
 870:	0300340b          	0x300340b
 874:	3a0e                	fld	fs4,224(sp)
 876:	0121                	addi	sp,sp,8
 878:	0b390b3b          	0xb390b3b
 87c:	1349                	addi	t1,t1,-14
 87e:	1702                	slli	a4,a4,0x20
 880:	0000                	unimp
 882:	340c                	fld	fa1,40(s0)
 884:	3100                	fld	fs0,32(a0)
 886:	00170213          	addi	tp,a4,1
 88a:	0d00                	addi	s0,sp,656
 88c:	012e                	slli	sp,sp,0xb
 88e:	0b3a0e03          	lb	t3,179(s4)
 892:	0b390b3b          	0xb390b3b
 896:	13491927          	0x13491927
 89a:	0b20                	addi	s0,sp,408
 89c:	1301                	addi	t1,t1,-32
 89e:	0000                	unimp
 8a0:	110e                	slli	sp,sp,0x23
 8a2:	2501                	sext.w	a0,a0
 8a4:	130e                	slli	t1,t1,0x23
 8a6:	1b1f030b          	0x1b1f030b
 8aa:	111f 1201 1007      	0x10071201111f
 8b0:	0f000017          	auipc	zero,0xf000
 8b4:	0016                	c.slli	zero,0x5
 8b6:	0b3a0803          	lb	a6,179(s4)
 8ba:	0b390b3b          	0xb390b3b
 8be:	1349                	addi	t1,t1,-14
 8c0:	0000                	unimp
 8c2:	2410                	fld	fa2,8(s0)
 8c4:	0b00                	addi	s0,sp,400
 8c6:	030b3e0b          	0x30b3e0b
 8ca:	0008                	0x8
 8cc:	1100                	addi	s0,sp,160
 8ce:	0101                	addi	sp,sp,0
 8d0:	1349                	addi	t1,t1,-14
 8d2:	1301                	addi	t1,t1,-32
 8d4:	0000                	unimp
 8d6:	2112                	fld	ft2,256(sp)
 8d8:	4900                	lw	s0,16(a0)
 8da:	000b2f13          	slti	t5,s6,0
 8de:	1300                	addi	s0,sp,416
 8e0:	0034                	addi	a3,sp,8
 8e2:	0b3a0e03          	lb	t3,179(s4)
 8e6:	0b390b3b          	0xb390b3b
 8ea:	1349                	addi	t1,t1,-14
 8ec:	0e1c                	addi	a5,sp,784
 8ee:	0000                	unimp
 8f0:	1314                	addi	a3,sp,416
 8f2:	0b01                	addi	s6,s6,0
 8f4:	3b0b3a0b          	0x3b0b3a0b
 8f8:	010b390b          	0x10b390b
 8fc:	15000013          	li	zero,336
 900:	000d                	c.nop	3
 902:	0b3a0803          	lb	a6,179(s4)
 906:	0b390b3b          	0xb390b3b
 90a:	1349                	addi	t1,t1,-14
 90c:	0b38                	addi	a4,sp,408
 90e:	0000                	unimp
 910:	0d16                	slli	s10,s10,0x5
 912:	0300                	addi	s0,sp,384
 914:	3a0e                	fld	fs4,224(sp)
 916:	390b3b0b          	0x390b3b0b
 91a:	3813490b          	0x3813490b
 91e:	1700000b          	0x1700000b
 922:	0e030117          	auipc	sp,0xe030
 926:	0b3a0b0b          	0xb3a0b0b
 92a:	0b390b3b          	0xb390b3b
 92e:	1301                	addi	t1,t1,-32
 930:	0000                	unimp
 932:	2e18                	fld	fa4,24(a2)
 934:	3f01                	addiw	t5,t5,-32
 936:	0319                	addi	t1,t1,6
 938:	3a0e                	fld	fs4,224(sp)
 93a:	390b3b0b          	0x390b3b0b
 93e:	4919270b          	0x4919270b
 942:	12011113          	0x12011113
 946:	7a184007          	flq	ft0,1953(a6)
 94a:	0119                	addi	sp,sp,6
 94c:	19000013          	li	zero,400
 950:	0005                	c.nop	1
 952:	0b3a0e03          	lb	t3,179(s4)
 956:	0b390b3b          	0xb390b3b
 95a:	1349                	addi	t1,t1,-14
 95c:	1702                	slli	a4,a4,0x20
 95e:	0000                	unimp
 960:	1d1a                	slli	s10,s10,0x26
 962:	3101                	addiw	sp,sp,-32
 964:	55015213          	0x55015213
 968:	590b5817          	auipc	a6,0x590b5
 96c:	000b570b          	0xb570b
 970:	1b00                	addi	s0,sp,432
 972:	1755010b          	0x1755010b
 976:	0000                	unimp
 978:	1d1c                	addi	a5,sp,688
 97a:	3101                	addiw	sp,sp,-32
 97c:	55015213          	0x55015213
 980:	590b5817          	auipc	a6,0x590b5
 984:	010b570b          	0x10b570b
 988:	1d000013          	li	zero,464
 98c:	011d                	addi	sp,sp,7
 98e:	1331                	addi	t1,t1,-20
 990:	0111                	addi	sp,sp,4
 992:	0712                	slli	a4,a4,0x4
 994:	0b58                	addi	a4,sp,404
 996:	0b59                	addi	s6,s6,22
 998:	00000b57          	0xb57
 99c:	481e                	lw	a6,196(sp)
 99e:	7d00                	ld	s0,56(a0)
 9a0:	7f01                	lui	t5,0xfffe0
 9a2:	1f000013          	li	zero,496
 9a6:	0b0b000f          	0xb0b000f
 9aa:	0000                	unimp
 9ac:	2e20                	fld	fs0,88(a2)
 9ae:	3f01                	addiw	t5,t5,-32
 9b0:	0319                	addi	t1,t1,6
 9b2:	3a0e                	fld	fs4,224(sp)
 9b4:	390b3b0b          	0x390b3b0b
 9b8:	1119270b          	0x1119270b
 9bc:	1201                	addi	tp,tp,-32
 9be:	7a184007          	flq	ft0,1953(a6) # 590b6121 <end+0x580b4121>
 9c2:	0119                	addi	sp,sp,6
 9c4:	21000013          	li	zero,528
 9c8:	0005                	c.nop	1
 9ca:	0b3a0803          	lb	a6,179(s4)
 9ce:	0b390b3b          	0xb390b3b
 9d2:	1349                	addi	t1,t1,-14
 9d4:	1802                	slli	a6,a6,0x20
 9d6:	0000                	unimp
 9d8:	3422                	fld	fs0,40(sp)
 9da:	0300                	addi	s0,sp,384
 9dc:	3a08                	fld	fa0,48(a2)
 9de:	390b3b0b          	0x390b3b0b
 9e2:	0213490b          	0x213490b
 9e6:	0018                	0x18
 9e8:	2300                	fld	fs0,0(a4)
 9ea:	0005                	c.nop	1
 9ec:	0b3a0e03          	lb	t3,179(s4)
 9f0:	0b390b3b          	0xb390b3b
 9f4:	1349                	addi	t1,t1,-14
 9f6:	0000                	unimp
 9f8:	2e24                	fld	fs1,88(a2)
 9fa:	3f01                	addiw	t5,t5,-32
 9fc:	0319                	addi	t1,t1,6
 9fe:	3a0e                	fld	fs4,224(sp)
 a00:	390b3b0b          	0x390b3b0b
 a04:	4919270b          	0x4919270b
 a08:	000b2013          	slti	zero,s6,0
 a0c:	2500                	fld	fs0,8(a0)
 a0e:	0034                	addi	a3,sp,8
 a10:	0b3a0e03          	lb	t3,179(s4)
 a14:	0b390b3b          	0xb390b3b
 a18:	1349                	addi	t1,t1,-14
 a1a:	0000                	unimp
	...

Disassembly of section .debug_aranges:

0000000000000000 <.debug_aranges>:
   0:	002c                	addi	a1,sp,8
   2:	0000                	unimp
   4:	0002                	c.slli64	zero
   6:	0000                	unimp
   8:	0000                	unimp
   a:	0008                	0x8
   c:	0000                	unimp
   e:	0000                	unimp
  10:	0000                	unimp
  12:	00a0                	addi	s0,sp,72
  14:	0000                	unimp
  16:	0000                	unimp
  18:	0020                	addi	s0,sp,8
	...
  2e:	0000                	unimp
  30:	002c                	addi	a1,sp,8
  32:	0000                	unimp
  34:	0002                	c.slli64	zero
  36:	0028                	addi	a0,sp,8
  38:	0000                	unimp
  3a:	0008                	0x8
  3c:	0000                	unimp
  3e:	0000                	unimp
  40:	0020                	addi	s0,sp,8
  42:	00a0                	addi	s0,sp,72
  44:	0000                	unimp
  46:	0000                	unimp
  48:	0174                	addi	a3,sp,140
	...
  5e:	0000                	unimp
  60:	002c                	addi	a1,sp,8
  62:	0000                	unimp
  64:	0002                	c.slli64	zero
  66:	08c0                	addi	s0,sp,84
  68:	0000                	unimp
  6a:	0008                	0x8
  6c:	0000                	unimp
  6e:	0000                	unimp
  70:	0194                	addi	a3,sp,192
  72:	00a0                	addi	s0,sp,72
  74:	0000                	unimp
  76:	0000                	unimp
  78:	0044                	addi	s1,sp,4
	...
  8e:	0000                	unimp
  90:	002c                	addi	a1,sp,8
  92:	0000                	unimp
  94:	0002                	c.slli64	zero
  96:	00000b5b          	0xb5b
  9a:	0008                	0x8
  9c:	0000                	unimp
  9e:	0000                	unimp
  a0:	01d8                	addi	a4,sp,196
  a2:	00a0                	addi	s0,sp,72
  a4:	0000                	unimp
  a6:	0000                	unimp
  a8:	0e50                	addi	a2,sp,788
	...
  be:	0000                	unimp
  c0:	002c                	addi	a1,sp,8
  c2:	0000                	unimp
  c4:	0002                	c.slli64	zero
  c6:	22c9                	addiw	t0,t0,18
  c8:	0000                	unimp
  ca:	0008                	0x8
  cc:	0000                	unimp
  ce:	0000                	unimp
  d0:	1028                	addi	a0,sp,40
  d2:	00a0                	addi	s0,sp,72
  d4:	0000                	unimp
  d6:	0000                	unimp
  d8:	0410                	addi	a2,sp,512
	...
  ee:	0000                	unimp
  f0:	002c                	addi	a1,sp,8
  f2:	0000                	unimp
  f4:	0002                	c.slli64	zero
  f6:	2dfa                	fld	fs11,408(sp)
  f8:	0000                	unimp
  fa:	0008                	0x8
  fc:	0000                	unimp
  fe:	0000                	unimp
 100:	1438                	addi	a4,sp,552
 102:	00a0                	addi	s0,sp,72
 104:	0000                	unimp
 106:	0000                	unimp
 108:	0208                	addi	a0,sp,256
	...

Disassembly of section .debug_str:

0000000000000000 <.debug_str>:
   0:	6e45                	lui	t3,0x11
   2:	7274                	ld	a3,224(a2)
   4:	2e79                	addiw	t3,t3,30
   6:	682f0053          	0x682f0053
   a:	2f656d6f          	jal	s10,56300 <_text-0x9a9d00>
   e:	6e656863          	bltu	a0,t1,6fe <_text-0x9ff902>
  12:	696a                	ld	s2,152(sp)
  14:	7579                	lui	a0,0xffffe
  16:	6e61                	lui	t3,0x18
  18:	7365442f          	0x7365442f
  1c:	706f746b          	0x706f746b
  20:	2d534f2f          	0x2d534f2f
  24:	4952                	lw	s2,20(sp)
  26:	2f564353          	0x2f564353
  2a:	7375                	lui	t1,0xffffd
  2c:	7265                	lui	tp,0xffff9
  2e:	4700                	lw	s0,8(a4)
  30:	554e                	lw	a0,240(sp)
  32:	4120                	lw	s0,64(a0)
  34:	2e322053          	0x2e322053
  38:	63003733          	0x63003733
  3c:	6f6c                	ld	a1,216(a4)
  3e:	73006573          	csrrsi	a0,0x730,0
  42:	6f68                	ld	a0,216(a4)
  44:	7472                	ld	s0,312(sp)
  46:	6920                	ld	s0,80(a0)
  48:	746e                	ld	s0,248(sp)
  4a:	7400                	ld	s0,40(s0)
  4c:	72775f6f          	jal	t5,75f72 <_text-0x98a08e>
  50:	7469                	lui	s0,0xffffa
  52:	0065                	c.nop	25
  54:	63737973          	csrrci	s2,0x637,6
  58:	6c61                	lui	s8,0x18
  5a:	5f6c                	lw	a1,124(a4)
  5c:	6469                	lui	s0,0x1a
  5e:	7400                	ld	s0,40(s0)
  60:	65725f6f          	jal	t5,25eb6 <_text-0x9da14a>
  64:	6461                	lui	s0,0x18
  66:	6d00                	ld	s0,24(a0)
  68:	7365                	lui	t1,0xffff9
  6a:	65676173          	csrrsi	sp,0x656,14
  6e:	6d00                	ld	s0,24(a0)
  70:	63737973          	csrrci	s2,0x637,6
  74:	6c61                	lui	s8,0x18
  76:	006c                	addi	a1,sp,12
  78:	7375                	lui	t1,0xffffd
  7a:	7265                	lui	tp,0xffff9
  7c:	614d                	addi	sp,sp,176
  7e:	6e69                	lui	t3,0x1a
  80:	6c00                	ld	s0,24(s0)
  82:	20676e6f          	jal	t3,76288 <_text-0x989d78>
  86:	6e69                	lui	t3,0x1a
  88:	0074                	addi	a3,sp,12
  8a:	7270                	ld	a2,224(a2)
  8c:	6e69                	lui	t3,0x1a
  8e:	6674                	ld	a3,200(a2)
  90:	3000                	fld	fs0,32(s0)
  92:	3231                	addiw	tp,tp,-20
  94:	36353433          	0x36353433
  98:	61393837          	lui	a6,0x61393
  9c:	6362                	ld	t1,24(sp)
  9e:	6564                	ld	s1,200(a0)
  a0:	0066                	c.slli	zero,0x19
  a2:	6964                	ld	s1,208(a0)
  a4:	73746967          	0x73746967
  a8:	7500                	ld	s0,40(a0)
  aa:	736e                	ld	t1,248(sp)
  ac:	6769                	lui	a4,0x1a
  ae:	656e                	ld	a0,216(sp)
  b0:	2064                	fld	fs1,192(s0)
  b2:	72616863          	bltu	sp,t1,7e2 <_text-0x9ff81e>
  b6:	6100                	ld	s0,0(a0)
  b8:	6772                	ld	a4,280(sp)
  ba:	6c660063          	beq	a2,t1,77a <_text-0x9ff886>
  be:	6761                	lui	a4,0x18
  c0:	72610073          	0x72610073
  c4:	73007667          	0x73007667
  c8:	6f68                	ld	a0,216(a4)
  ca:	7472                	ld	s0,312(sp)
  cc:	7520                	ld	s0,104(a0)
  ce:	736e                	ld	t1,248(sp)
  d0:	6769                	lui	a4,0x1a
  d2:	656e                	ld	a0,216(sp)
  d4:	2064                	fld	fs1,192(s0)
  d6:	6e69                	lui	t3,0x1a
  d8:	0074                	addi	a3,sp,12
  da:	6f6c                	ld	a1,216(a4)
  dc:	676e                	ld	a4,216(sp)
  de:	7520                	ld	s0,104(a0)
  e0:	736e                	ld	t1,248(sp)
  e2:	6769                	lui	a4,0x1a
  e4:	656e                	ld	a0,216(sp)
  e6:	2064                	fld	fs1,192(s0)
  e8:	6e69                	lui	t3,0x1a
  ea:	0074                	addi	a3,sp,12
  ec:	6170                	ld	a2,192(a0)
  ee:	6874                	ld	a3,208(s0)
  f0:	4700                	lw	s0,8(a4)
  f2:	554e                	lw	a0,240(sp)
  f4:	4320                	lw	s0,64(a4)
  f6:	3731                	addiw	a4,a4,-20
  f8:	3120                	fld	fs0,96(a0)
  fa:	2e31                	addiw	t3,t3,12
  fc:	2e31                	addiw	t3,t3,12
  fe:	2030                	fld	fa2,64(s0)
 100:	6d2d                	lui	s10,0xb
 102:	7261                	lui	tp,0xffff8
 104:	723d6863          	bltu	s10,gp,834 <_text-0x9ff7cc>
 108:	3676                	fld	fa2,376(sp)
 10a:	6734                	ld	a3,72(a4)
 10c:	2d20                	fld	fs0,88(a0)
 10e:	616d                	addi	sp,sp,240
 110:	6962                	ld	s2,24(sp)
 112:	6c3d                	lui	s8,0xf
 114:	3670                	fld	fa2,232(a2)
 116:	6634                	ld	a3,72(a2)
 118:	2d20                	fld	fs0,88(a0)
 11a:	636d                	lui	t1,0x1b
 11c:	6f6d                	lui	t5,0x1b
 11e:	6564                	ld	s1,200(a0)
 120:	3d6c                	fld	fa1,248(a0)
 122:	656d                	lui	a0,0x1b
 124:	6164                	ld	s1,192(a0)
 126:	796e                	ld	s2,248(sp)
 128:	2d20                	fld	fs0,88(a0)
 12a:	6e6d                	lui	t3,0x1b
 12c:	65722d6f          	jal	s10,22f82 <_text-0x9dd07e>
 130:	616c                	ld	a1,192(a0)
 132:	2078                	fld	fa4,192(s0)
 134:	6d2d                	lui	s10,0xb
 136:	7574                	ld	a3,232(a0)
 138:	656e                	ld	a0,216(sp)
 13a:	723d                	lui	tp,0xfffef
 13c:	656b636f          	jal	t1,b6792 <_text-0x94986e>
 140:	2074                	fld	fa3,192(s0)
 142:	6d2d                	lui	s10,0xb
 144:	7261                	lui	tp,0xffff8
 146:	723d6863          	bltu	s10,gp,876 <_text-0x9ff78a>
 14a:	3676                	fld	fa2,376(sp)
 14c:	6934                	ld	a3,80(a0)
 14e:	616d                	addi	sp,sp,240
 150:	6466                	ld	s0,88(sp)
 152:	2d20                	fld	fs0,88(a0)
 154:	62646767          	0x62646767
 158:	2d20                	fld	fs0,88(a0)
 15a:	4f2d2067          	0x4f2d2067
 15e:	2d20                	fld	fs0,88(a0)
 160:	6e66                	ld	t3,88(sp)
 162:	6d6f2d6f          	jal	s10,f2838 <_text-0x90d7c8>
 166:	7469                	lui	s0,0xffffa
 168:	662d                	lui	a2,0xb
 16a:	6172                	ld	sp,280(sp)
 16c:	656d                	lui	a0,0x1b
 16e:	702d                	c.lui	zero,0xfffeb
 170:	746e696f          	jal	s2,e68b6 <_text-0x91974a>
 174:	7265                	lui	tp,0xffff9
 176:	2d20                	fld	fs0,88(a0)
 178:	6666                	ld	a2,88(sp)
 17a:	6572                	ld	a0,280(sp)
 17c:	7365                	lui	t1,0xffff9
 17e:	6174                	ld	a3,192(a0)
 180:	646e                	ld	s0,216(sp)
 182:	6e69                	lui	t3,0x1a
 184:	662d2067          	0x662d2067
 188:	6f6e                	ld	t5,216(sp)
 18a:	632d                	lui	t1,0xb
 18c:	6f6d6d6f          	jal	s10,d6882 <_text-0x92977e>
 190:	206e                	fld	ft0,216(sp)
 192:	662d                	lui	a2,0xb
 194:	6f6e                	ld	t5,216(sp)
 196:	732d                	lui	t1,0xfffeb
 198:	6174                	ld	a3,192(a0)
 19a:	702d6b63          	bltu	s10,sp,8b0 <_text-0x9ff750>
 19e:	6f72                	ld	t5,280(sp)
 1a0:	6574                	ld	a3,200(a0)
 1a2:	726f7463          	bgeu	t5,t1,8ca <_text-0x9ff736>
 1a6:	6f00                	ld	s0,24(a4)
 1a8:	6570                	ld	a2,200(a0)
 1aa:	006e                	c.slli	zero,0x1b
 1ac:	6e65                	lui	t3,0x19
 1ae:	7376                	ld	t1,376(sp)
 1b0:	6500                	ld	s0,8(a0)
 1b2:	6978                	ld	a4,208(a0)
 1b4:	0074                	addi	a3,sp,12
 1b6:	696c                	ld	a1,208(a0)
 1b8:	4d62                	lw	s10,24(sp)
 1ba:	6961                	lui	s2,0x18
 1bc:	006e                	c.slli	zero,0x1b
 1be:	6361                	lui	t1,0x18
 1c0:	7574                	ld	a3,232(a0)
 1c2:	6c61                	lui	s8,0x18
 1c4:	654c                	ld	a1,136(a0)
 1c6:	676e                	ld	a4,216(sp)
 1c8:	6874                	ld	a3,208(s0)
 1ca:	7000                	ld	s0,32(s0)
 1cc:	6972                	ld	s2,280(sp)
 1ce:	746e                	ld	s0,248(sp)
 1d0:	4266                	lw	tp,88(sp)
 1d2:	6675                	lui	a2,0x1d
 1d4:	6566                	ld	a0,88(sp)
 1d6:	0072                	c.slli	zero,0x1c
 1d8:	7570                	ld	a2,232(a0)
 1da:	5374                	lw	a3,100(a4)
 1dc:	7274                	ld	a3,224(a2)
 1de:	6e69                	lui	t3,0x1a
 1e0:	616c0067          	jr	1558(s8) # 18616 <_text-0x9e79ea>
 1e4:	6a64                	ld	s1,208(a2)
 1e6:	7375                	lui	t1,0xffffd
 1e8:	0074                	addi	a3,sp,12
 1ea:	7570                	ld	a2,232(a0)
 1ec:	6374                	ld	a3,192(a4)
 1ee:	6168                	ld	a0,192(a0)
 1f0:	0072                	c.slli	zero,0x1c
 1f2:	6562                	ld	a0,24(sp)
 1f4:	006e6967          	0x6e6967
 1f8:	7061                	c.lui	zero,0xffff8
 1fa:	6570                	ld	a2,200(a0)
 1fc:	646e                	ld	s0,216(sp)
 1fe:	69727453          	0x69727453
 202:	676e                	ld	a4,216(sp)
 204:	7300                	ld	s0,32(a4)
 206:	6174                	ld	a3,192(a0)
 208:	6574                	ld	a3,200(a0)
 20a:	656d                	lui	a0,0x1b
 20c:	746e                	ld	s0,248(sp)
 20e:	6c00                	ld	s0,24(s0)
 210:	6e69                	lui	t3,0x1a
 212:	0065                	c.nop	25
 214:	74646977          	0x74646977
 218:	0068                	addi	a0,sp,12
 21a:	656c                	ld	a1,200(a0)
 21c:	676e                	ld	a4,216(sp)
 21e:	6874                	ld	a3,208(s0)
 220:	7000                	ld	s0,32(s0)
 222:	6461                	lui	s0,0x18
 224:	75660063          	beq	a2,s6,964 <_text-0x9ff69c>
 228:	636e                	ld	t1,216(sp)
 22a:	6c00                	ld	s0,24(s0)
 22c:	46676e6f          	jal	t3,76692 <_text-0x98996e>
 230:	616c                	ld	a1,192(a0)
 232:	72700067          	jr	1831(zero) # 0 <_text-0xa00000>
 236:	6e69                	lui	t3,0x1a
 238:	4374                	lw	a3,68(a4)
 23a:	6168                	ld	a0,192(a0)
 23c:	0072                	c.slli	zero,0x1c
 23e:	7270                	ld	a2,224(a2)
 240:	6e69                	lui	t3,0x1a
 242:	5374                	lw	a3,100(a4)
 244:	7274                	ld	a3,224(a2)
 246:	6e69                	lui	t3,0x1a
 248:	656e0067          	jr	1622(t3) # 1a656 <_text-0x9e59aa>
 24c:	616c4667          	0x616c4667
 250:	69660067          	jr	1686(a2) # 1d696 <_text-0x9e296a>
 254:	656c                	ld	a1,200(a0)
 256:	7000                	ld	s0,32(s0)
 258:	6972                	ld	s2,280(sp)
 25a:	746e                	ld	s0,248(sp)
 25c:	6200                	ld	s0,0(a2)
 25e:	6675                	lui	a2,0x1d
 260:	6566                	ld	a0,88(sp)
 262:	4c72                	lw	s8,28(sp)
 264:	6e65                	lui	t3,0x19
 266:	7000                	ld	s0,32(s0)
 268:	6972                	ld	s2,280(sp)
 26a:	746e                	ld	s0,248(sp)
 26c:	754e                	ld	a0,240(sp)
 26e:	006d                	c.nop	27
 270:	7061                	c.lui	zero,0xffff8
 272:	6570                	ld	a2,200(a0)
 274:	646e                	ld	s0,216(sp)
 276:	7542                	ld	a0,48(sp)
 278:	6666                	ld	a2,88(sp)
 27a:	7265                	lui	tp,0xffff9
 27c:	6200                	ld	s0,0(a2)
 27e:	6675                	lui	a2,0x1d
 280:	6566                	ld	a0,88(sp)
 282:	0072                	c.slli	zero,0x1c
 284:	5f5f 7562 6c69      	0x6c6975625f5f
 28a:	6974                	ld	a3,208(a0)
 28c:	5f6e                	lw	t5,248(sp)
 28e:	6176                	ld	sp,344(sp)
 290:	6c5f 7369 0074      	0x7473696c5f
 296:	705f 6e61 6369      	0x63696e61705f
 29c:	005f 615f 7373      	0x7373615f005f
 2a2:	7265                	lui	tp,0xffff9
 2a4:	5f74                	lw	a3,124(a4)
 2a6:	7500                	ld	s0,40(a0)
 2a8:	6370                	ld	a2,192(a4)
 2aa:	7361                	lui	t1,0xffff8
 2ac:	0065                	c.nop	25
 2ae:	7270                	ld	a2,224(a2)
 2b0:	6365                	lui	t1,0x19
 2b2:	6300                	ld	s0,0(a4)
 2b4:	656c                	ld	a1,200(a0)
 2b6:	7261                	lui	tp,0xffff8
 2b8:	7542                	ld	a0,48(sp)
 2ba:	6666                	ld	a2,88(sp)
 2bc:	7265                	lui	tp,0xffff9
 2be:	6200                	ld	s0,0(a2)
 2c0:	7361                	lui	t1,0xffff8
 2c2:	0065                	c.nop	25
 2c4:	5f5f 6e75 7375      	0x73756e755f5f
 2ca:	6465                	lui	s0,0x19
 2cc:	7300                	ld	s0,32(a4)
 2ce:	5f74                	lw	a3,124(a4)
 2d0:	657a6973          	csrrsi	s2,0x657,20
 2d4:	6d00                	ld	s0,24(a0)
 2d6:	6d65                	lui	s10,0x19
 2d8:	00797063          	bgeu	s2,t2,2d8 <_text-0x9ffd28>
 2dc:	6975                	lui	s2,0x1d
 2de:	746e                	ld	s0,248(sp)
 2e0:	7300                	ld	s0,32(a4)
 2e2:	5f74                	lw	a3,124(a4)
 2e4:	6c6e                	ld	s8,216(sp)
 2e6:	6e69                	lui	t3,0x1a
 2e8:	7473006b          	0x7473006b
 2ec:	6372                	ld	t1,280(sp)
 2ee:	706d                	c.lui	zero,0xffffb
 2f0:	7300                	ld	s0,32(a4)
 2f2:	5f74                	lw	a3,124(a4)
 2f4:	6c62                	ld	s8,24(sp)
 2f6:	7a69736b          	0x7a69736b
 2fa:	0065                	c.nop	25
 2fc:	7376                	ld	t1,376(sp)
 2fe:	6372                	ld	t1,280(sp)
 300:	5f00                	lw	s0,56(a4)
 302:	705f 6461 6d00      	0x6d006461705f
 308:	6d65                	lui	s10,0x19
 30a:	00706d63          	bltu	zero,t2,324 <_text-0x9ffcdc>
 30e:	615f7473          	csrrci	s0,0x615,30
 312:	6974                	ld	a3,208(a0)
 314:	656d                	lui	a0,0x1b
 316:	735f 6365 7300      	0x73006365735f
 31c:	5f74                	lw	a3,124(a4)
 31e:	00646967          	0x646967
 322:	6476                	ld	s0,344(sp)
 324:	6d007473          	csrrci	s0,0x6d0,0
 328:	6d65                	lui	s10,0x19
 32a:	00746573          	csrrsi	a0,0x7,8
 32e:	74736463          	bltu	t1,t2,a76 <_text-0x9ff58a>
 332:	6700                	ld	s0,8(a4)
 334:	7465                	lui	s0,0xffff9
 336:	74730073          	0x74730073
 33a:	635f 6974 656d      	0x656d6974635f
 340:	735f 6365 7500      	0x75006365735f
 346:	72616863          	bltu	sp,t1,a76 <_text-0x9ff58a>
 34a:	7300                	ld	s0,32(a4)
 34c:	5f74                	lw	a3,124(a4)
 34e:	6d697463          	bgeu	s2,s6,a16 <_text-0x9ff5ea>
 352:	5f65                	li	t5,-7
 354:	736e                	ld	t1,248(sp)
 356:	6365                	lui	t1,0x19
 358:	6100                	ld	s0,0(a0)
 35a:	6f74                	ld	a3,216(a4)
 35c:	0069                	c.nop	26
 35e:	656d                	lui	a0,0x1b
 360:	6d6d                	lui	s10,0x1b
 362:	0065766f          	jal	a2,57368 <_text-0x9a8c98>
 366:	695f7473          	csrrci	s0,0x695,30
 36a:	6f6e                	ld	t5,216(sp)
 36c:	7300                	ld	s0,32(a4)
 36e:	7274                	ld	a3,224(a2)
 370:	00726863          	bltu	tp,t2,380 <_text-0x9ffc80>
 374:	7366                	ld	t1,120(sp)
 376:	6174                	ld	a3,192(a0)
 378:	0074                	addi	a3,sp,12
 37a:	615f7473          	csrrci	s0,0x615,30
 37e:	6974                	ld	a3,208(a0)
 380:	656d                	lui	a0,0x1b
 382:	6e5f 6573 0063      	0x6365736e5f
 388:	6c727473          	csrrci	s0,0x6c7,4
 38c:	6e65                	lui	t3,0x19
 38e:	7300                	ld	s0,32(a4)
 390:	5f74                	lw	a3,124(a4)
 392:	6c62                	ld	s8,24(sp)
 394:	736b636f          	jal	t1,b6aca <_text-0x949536>
 398:	7300                	ld	s0,32(a4)
 39a:	7274                	ld	a3,224(a2)
 39c:	00797063          	bgeu	s2,t2,39c <_text-0x9ffc64>
 3a0:	5f5f 6170 3264      	0x326461705f5f
 3a6:	7300                	ld	s0,32(a4)
 3a8:	5f74                	lw	a3,124(a4)
 3aa:	6564                	ld	s1,200(a0)
 3ac:	0076                	c.slli	zero,0x1d
 3ae:	755f7473          	csrrci	s0,0x755,30
 3b2:	6469                	lui	s0,0x1a
 3b4:	7300                	ld	s0,32(a4)
 3b6:	5f74                	lw	a3,124(a4)
 3b8:	746d                	lui	s0,0xffffb
 3ba:	6d69                	lui	s10,0x1a
 3bc:	5f65                	li	t5,-7
 3be:	00636573          	csrrsi	a0,0x6,6
 3c2:	725f7473          	csrrci	s0,0x725,30
 3c6:	6564                	ld	s1,200(a0)
 3c8:	0076                	c.slli	zero,0x1d
 3ca:	6162                	ld	sp,24(sp)
 3cc:	70736b63          	bltu	t1,t2,ae2 <_text-0x9ff51e>
 3d0:	6361                	lui	t1,0x18
 3d2:	0065                	c.nop	25
 3d4:	6d5f7473          	csrrci	s0,0x6d5,30
 3d8:	0065646f          	jal	s0,563de <_text-0x9a9c22>
 3dc:	6d5f7473          	csrrci	s0,0x6d5,30
 3e0:	6974                	ld	a3,208(a0)
 3e2:	656d                	lui	a0,0x1b
 3e4:	6e5f 6573 0063      	0x6365736e5f
 3ea:	6568                	ld	a0,200(a0)
 3ec:	6461                	lui	s0,0x18
 3ee:	7265                	lui	tp,0xffff9
 3f0:	6600                	ld	s0,8(a2)
 3f2:	6572                	ld	a0,280(sp)
 3f4:	7065                	c.lui	zero,0xffff9
 3f6:	6d00                	ld	s0,24(a0)
 3f8:	6c61                	lui	s8,0x18
 3fa:	6f6c                	ld	a1,216(a4)
 3fc:	72700063          	beq	zero,t2,b1c <_text-0x9ff4e4>
 400:	7665                	lui	a2,0xffff9
 402:	0070                	addi	a2,sp,12
 404:	6f6d                	lui	t5,0x1b
 406:	6572                	ld	a0,280(sp)
 408:	65726f63          	bltu	tp,s7,a66 <_text-0x9ff59a>
 40c:	4800                	lw	s0,16(s0)
 40e:	6165                	addi	sp,sp,112
 410:	6564                	ld	s1,200(a0)
 412:	0072                	c.slli	zero,0x1c
 414:	7266                	ld	tp,120(sp)
 416:	6565                	lui	a0,0x19
 418:	6e00                	ld	s0,24(a2)
 41a:	6e75                	lui	t3,0x1d
 41c:	7469                	lui	s0,0xffffa
 41e:	6c410073          	0x6c410073
 422:	6769                	lui	a4,0x1a
 424:	006e                	c.slli	zero,0x1b
 426:	6b726273          	csrrsi	tp,0x6b7,4
 42a:	6e00                	ld	s0,24(a2)
 42c:	7962                	ld	s2,56(sp)
 42e:	6574                	ld	a3,200(a0)
 430:	          	ecall

Disassembly of section .debug_loclists:

0000000000000000 <.debug_loclists>:
       0:	000004d3          	fadd.s	fs1,ft0,ft0,rne
       4:	0005                	c.nop	1
       6:	0008                	0x8
       8:	0000                	unimp
       a:	0000                	unimp
       c:	a0002007          	flw	ft0,-1536(zero) # fffffffffffffa00 <end+0xfffffffffeffda00>
      10:	0000                	unimp
      12:	0000                	unimp
      14:	3c00                	fld	fs0,56(s0)
      16:	a000                	fsd	fs0,0(s0)
      18:	0000                	unimp
      1a:	0000                	unimp
      1c:	0100                	addi	s0,sp,128
      1e:	075a                	slli	a4,a4,0x16
      20:	003c                	addi	a5,sp,8
      22:	00a0                	addi	s0,sp,72
      24:	0000                	unimp
      26:	0000                	unimp
      28:	0194                	addi	a3,sp,192
      2a:	00a0                	addi	s0,sp,72
      2c:	0000                	unimp
      2e:	0000                	unimp
      30:	a304                	fsd	fs1,0(a4)
      32:	5a01                	li	s4,-32
      34:	009f 2007 a000      	0xa0002007009f
      3a:	0000                	unimp
      3c:	0000                	unimp
      3e:	4400                	lw	s0,8(s0)
      40:	a000                	fsd	fs0,0(s0)
      42:	0000                	unimp
      44:	0000                	unimp
      46:	0100                	addi	s0,sp,128
      48:	0044075b          	0x44075b
      4c:	00a0                	addi	s0,sp,72
      4e:	0000                	unimp
      50:	0000                	unimp
      52:	0194                	addi	a3,sp,192
      54:	00a0                	addi	s0,sp,72
      56:	0000                	unimp
      58:	0000                	unimp
      5a:	a304                	fsd	fs1,0(a4)
      5c:	5b01                	li	s6,-32
      5e:	009f 6007 a000      	0xa0006007009f
      64:	0000                	unimp
      66:	0000                	unimp
      68:	e000                	sd	s0,0(s0)
      6a:	a000                	fsd	fs0,0(s0)
      6c:	0000                	unimp
      6e:	0000                	unimp
      70:	0100                	addi	s0,sp,128
      72:	0059                	c.nop	22
      74:	a0009c07          	0xa0009c07
      78:	0000                	unimp
      7a:	0000                	unimp
      7c:	ac00                	fsd	fs0,24(s0)
      7e:	a000                	fsd	fs0,0(s0)
      80:	0000                	unimp
      82:	0000                	unimp
      84:	0100                	addi	s0,sp,128
      86:	075a                	slli	a4,a4,0x16
      88:	00ac                	addi	a1,sp,72
      8a:	00a0                	addi	s0,sp,72
      8c:	0000                	unimp
      8e:	0000                	unimp
      90:	00a000b3          	add	ra,zero,a0
      94:	0000                	unimp
      96:	0000                	unimp
      98:	5b01                	li	s6,-32
      9a:	a0011807          	0xa0011807
      9e:	0000                	unimp
      a0:	0000                	unimp
      a2:	2400                	fld	fs0,8(s0)
      a4:	a001                	j	a4 <_text-0x9fff5c>
      a6:	0000                	unimp
      a8:	0000                	unimp
      aa:	0100                	addi	s0,sp,128
      ac:	075a                	slli	a4,a4,0x16
      ae:	0124                	addi	s1,sp,136
      b0:	00a0                	addi	s0,sp,72
      b2:	0000                	unimp
      b4:	0000                	unimp
      b6:	00a0012b          	0xa0012b
      ba:	0000                	unimp
      bc:	0000                	unimp
      be:	5b01                	li	s6,-32
      c0:	a0017807          	0xa0017807
      c4:	0000                	unimp
      c6:	0000                	unimp
      c8:	8800                	0x8800
      ca:	a001                	j	ca <_text-0x9fff36>
      cc:	0000                	unimp
      ce:	0000                	unimp
      d0:	0100                	addi	s0,sp,128
      d2:	075a                	slli	a4,a4,0x16
      d4:	0188                	addi	a0,sp,192
      d6:	00a0                	addi	s0,sp,72
      d8:	0000                	unimp
      da:	0000                	unimp
      dc:	00a0018f          	0xa0018f
      e0:	0000                	unimp
      e2:	0000                	unimp
      e4:	5b01                	li	s6,-32
      e6:	0700                	addi	s0,sp,896
      e8:	00e0                	addi	s0,sp,76
      ea:	00a0                	addi	s0,sp,72
      ec:	0000                	unimp
      ee:	0000                	unimp
      f0:	0160                	addi	s0,sp,140
      f2:	00a0                	addi	s0,sp,72
      f4:	0000                	unimp
      f6:	0000                	unimp
      f8:	5901                	li	s2,-32
      fa:	a0016007          	0xa0016007
      fe:	0000                	unimp
     100:	0000                	unimp
     102:	7800                	ld	s0,48(s0)
     104:	a001                	j	104 <_text-0x9ffefc>
     106:	0000                	unimp
     108:	0000                	unimp
     10a:	0100                	addi	s0,sp,128
     10c:	005a                	c.slli	zero,0x16
     10e:	a0003807          	fld	fa6,-1536(zero) # fffffffffffffa00 <end+0xfffffffffeffda00>
     112:	0000                	unimp
     114:	0000                	unimp
     116:	6000                	ld	s0,0(s0)
     118:	a000                	fsd	fs0,0(s0)
     11a:	0000                	unimp
     11c:	0000                	unimp
     11e:	0200                	addi	s0,sp,256
     120:	9f30                	0x9f30
     122:	0700                	addi	s0,sp,896
     124:	0038                	addi	a4,sp,8
     126:	00a0                	addi	s0,sp,72
     128:	0000                	unimp
     12a:	0000                	unimp
     12c:	0060                	addi	s0,sp,12
     12e:	00a0                	addi	s0,sp,72
     130:	0000                	unimp
     132:	0000                	unimp
     134:	030a                	slli	t1,t1,0x2
     136:	21a8                	fld	fa0,64(a1)
     138:	00a0                	addi	s0,sp,72
     13a:	0000                	unimp
     13c:	0000                	unimp
     13e:	009f 3807 a000      	0xa0003807009f
     144:	0000                	unimp
     146:	0000                	unimp
     148:	5c00                	lw	s0,56(s0)
     14a:	a000                	fsd	fs0,0(s0)
     14c:	0000                	unimp
     14e:	0000                	unimp
     150:	0200                	addi	s0,sp,256
     152:	9f30                	0x9f30
     154:	0700                	addi	s0,sp,896
     156:	0038                	addi	a4,sp,8
     158:	00a0                	addi	s0,sp,72
     15a:	0000                	unimp
     15c:	0000                	unimp
     15e:	005c                	addi	a5,sp,4
     160:	00a0                	addi	s0,sp,72
     162:	0000                	unimp
     164:	0000                	unimp
     166:	3202                	fld	ft4,32(sp)
     168:	009f 3807 a000      	0xa0003807009f
     16e:	0000                	unimp
     170:	0000                	unimp
     172:	5c00                	lw	s0,56(s0)
     174:	a000                	fsd	fs0,0(s0)
     176:	0000                	unimp
     178:	0000                	unimp
     17a:	0a00                	addi	s0,sp,272
     17c:	a021a803          	lw	a6,-1534(gp)
     180:	0000                	unimp
     182:	0000                	unimp
     184:	9f00                	0x9f00
     186:	0700                	addi	s0,sp,896
     188:	0038                	addi	a4,sp,8
     18a:	00a0                	addi	s0,sp,72
     18c:	0000                	unimp
     18e:	0000                	unimp
     190:	005c                	addi	a5,sp,4
     192:	00a0                	addi	s0,sp,72
     194:	0000                	unimp
     196:	0000                	unimp
     198:	9f9c0903          	lb	s2,-1543(s8) # 179f9 <_text-0x9e8607>
     19c:	0700                	addi	s0,sp,896
     19e:	0038                	addi	a4,sp,8
     1a0:	00a0                	addi	s0,sp,72
     1a2:	0000                	unimp
     1a4:	0000                	unimp
     1a6:	005c                	addi	a5,sp,4
     1a8:	00a0                	addi	s0,sp,72
     1aa:	0000                	unimp
     1ac:	0000                	unimp
     1ae:	9f380803          	lb	a6,-1549(a6) # 613929f3 <end+0x603909f3>
     1b2:	0700                	addi	s0,sp,896
     1b4:	007c                	addi	a5,sp,12
     1b6:	00a0                	addi	s0,sp,72
     1b8:	0000                	unimp
     1ba:	0000                	unimp
     1bc:	009c                	addi	a5,sp,64
     1be:	00a0                	addi	s0,sp,72
     1c0:	0000                	unimp
     1c2:	0000                	unimp
     1c4:	3a02                	fld	fs4,32(sp)
     1c6:	009f 7c07 a000      	0xa0007c07009f
     1cc:	0000                	unimp
     1ce:	0000                	unimp
     1d0:	8400                	0x8400
     1d2:	a000                	fsd	fs0,0(s0)
     1d4:	0000                	unimp
     1d6:	0000                	unimp
     1d8:	0300                	addi	s0,sp,384
     1da:	5078                	lw	a4,100(s0)
     1dc:	079f 0084 00a0      	0xa00084079f
     1e2:	0000                	unimp
     1e4:	0000                	unimp
     1e6:	009c                	addi	a5,sp,64
     1e8:	00a0                	addi	s0,sp,72
     1ea:	0000                	unimp
     1ec:	0000                	unimp
     1ee:	5b01                	li	s6,-32
     1f0:	0700                	addi	s0,sp,896
     1f2:	007c                	addi	a5,sp,12
     1f4:	00a0                	addi	s0,sp,72
     1f6:	0000                	unimp
     1f8:	0000                	unimp
     1fa:	009c                	addi	a5,sp,64
     1fc:	00a0                	addi	s0,sp,72
     1fe:	0000                	unimp
     200:	0000                	unimp
     202:	5901                	li	s2,-32
     204:	0700                	addi	s0,sp,896
     206:	007c                	addi	a5,sp,12
     208:	00a0                	addi	s0,sp,72
     20a:	0000                	unimp
     20c:	0000                	unimp
     20e:	009c                	addi	a5,sp,64
     210:	00a0                	addi	s0,sp,72
     212:	0000                	unimp
     214:	0000                	unimp
     216:	3002                	fld	ft0,32(sp)
     218:	009f 7c07 a000      	0xa0007c07009f
     21e:	0000                	unimp
     220:	0000                	unimp
     222:	9c00                	0x9c00
     224:	a000                	fsd	fs0,0(s0)
     226:	0000                	unimp
     228:	0000                	unimp
     22a:	0900                	addi	s0,sp,144
     22c:	0079                	c.nop	30
     22e:	2008                	fld	fa0,0(s0)
     230:	0824                	addi	s1,sp,24
     232:	2620                	fld	fs0,72(a2)
     234:	009f 7c07 a000      	0xa0007c07009f
     23a:	0000                	unimp
     23c:	0000                	unimp
     23e:	9c00                	0x9c00
     240:	a000                	fsd	fs0,0(s0)
     242:	0000                	unimp
     244:	0000                	unimp
     246:	0300                	addi	s0,sp,384
     248:	3f08                	fld	fa0,56(a4)
     24a:	009f b407 a000      	0xa000b407009f
     250:	0000                	unimp
     252:	0000                	unimp
     254:	e000                	sd	s0,0(s0)
     256:	a000                	fsd	fs0,0(s0)
     258:	0000                	unimp
     25a:	0000                	unimp
     25c:	0300                	addi	s0,sp,384
     25e:	4108                	lw	a0,0(a0)
     260:	009f b407 a000      	0xa000b407009f
     266:	0000                	unimp
     268:	0000                	unimp
     26a:	e000                	sd	s0,0(s0)
     26c:	a000                	fsd	fs0,0(s0)
     26e:	0000                	unimp
     270:	0000                	unimp
     272:	0a00                	addi	s0,sp,272
     274:	a021e003          	lwu	zero,-1534(gp)
     278:	0000                	unimp
     27a:	0000                	unimp
     27c:	9f00                	0x9f00
     27e:	0700                	addi	s0,sp,896
     280:	00bc                	addi	a5,sp,72
     282:	00a0                	addi	s0,sp,72
     284:	0000                	unimp
     286:	0000                	unimp
     288:	00dc                	addi	a5,sp,68
     28a:	00a0                	addi	s0,sp,72
     28c:	0000                	unimp
     28e:	0000                	unimp
     290:	3002                	fld	ft0,32(sp)
     292:	009f bc07 a000      	0xa000bc07009f
     298:	0000                	unimp
     29a:	0000                	unimp
     29c:	dc00                	sw	s0,56(s0)
     29e:	a000                	fsd	fs0,0(s0)
     2a0:	0000                	unimp
     2a2:	0000                	unimp
     2a4:	0200                	addi	s0,sp,256
     2a6:	9f32                	add	t5,t5,a2
     2a8:	0700                	addi	s0,sp,896
     2aa:	00bc                	addi	a5,sp,72
     2ac:	00a0                	addi	s0,sp,72
     2ae:	0000                	unimp
     2b0:	0000                	unimp
     2b2:	00dc                	addi	a5,sp,68
     2b4:	00a0                	addi	s0,sp,72
     2b6:	0000                	unimp
     2b8:	0000                	unimp
     2ba:	9f410803          	lb	a6,-1548(sp) # e030316 <end+0xd02e316>
     2be:	0700                	addi	s0,sp,896
     2c0:	00bc                	addi	a5,sp,72
     2c2:	00a0                	addi	s0,sp,72
     2c4:	0000                	unimp
     2c6:	0000                	unimp
     2c8:	00dc                	addi	a5,sp,68
     2ca:	00a0                	addi	s0,sp,72
     2cc:	0000                	unimp
     2ce:	0000                	unimp
     2d0:	030a                	slli	t1,t1,0x2
     2d2:	21e0                	fld	fs0,192(a1)
     2d4:	00a0                	addi	s0,sp,72
     2d6:	0000                	unimp
     2d8:	0000                	unimp
     2da:	009f bc07 a000      	0xa000bc07009f
     2e0:	0000                	unimp
     2e2:	0000                	unimp
     2e4:	dc00                	sw	s0,56(s0)
     2e6:	a000                	fsd	fs0,0(s0)
     2e8:	0000                	unimp
     2ea:	0000                	unimp
     2ec:	0300                	addi	s0,sp,384
     2ee:	9c09                	subw	s0,s0,a0
     2f0:	009f bc07 a000      	0xa000bc07009f
     2f6:	0000                	unimp
     2f8:	0000                	unimp
     2fa:	dc00                	sw	s0,56(s0)
     2fc:	a000                	fsd	fs0,0(s0)
     2fe:	0000                	unimp
     300:	0000                	unimp
     302:	0300                	addi	s0,sp,384
     304:	3808                	fld	fa0,48(s0)
     306:	009f f407 a000      	0xa000f407009f
     30c:	0000                	unimp
     30e:	0000                	unimp
     310:	1800                	addi	s0,sp,48
     312:	a001                	j	312 <_text-0x9ffcee>
     314:	0000                	unimp
     316:	0000                	unimp
     318:	0200                	addi	s0,sp,256
     31a:	07009f3f 00a000f4 	0xa000f407009f3f
     322:	0000                	unimp
     324:	0000                	unimp
     326:	0118                	addi	a4,sp,128
     328:	00a0                	addi	s0,sp,72
     32a:	0000                	unimp
     32c:	0000                	unimp
     32e:	030a                	slli	t1,t1,0x2
     330:	21f8                	fld	fa4,192(a1)
     332:	00a0                	addi	s0,sp,72
     334:	0000                	unimp
     336:	0000                	unimp
     338:	009f f407 a000      	0xa000f407009f
     33e:	0000                	unimp
     340:	0000                	unimp
     342:	1800                	addi	s0,sp,48
     344:	a001                	j	344 <_text-0x9ffcbc>
     346:	0000                	unimp
     348:	0000                	unimp
     34a:	0100                	addi	s0,sp,128
     34c:	0059                	c.nop	22
     34e:	a000f407          	0xa000f407
     352:	0000                	unimp
     354:	0000                	unimp
     356:	1800                	addi	s0,sp,48
     358:	a001                	j	358 <_text-0x9ffca8>
     35a:	0000                	unimp
     35c:	0000                	unimp
     35e:	0200                	addi	s0,sp,256
     360:	9f30                	0x9f30
     362:	0700                	addi	s0,sp,896
     364:	00f4                	addi	a3,sp,76
     366:	00a0                	addi	s0,sp,72
     368:	0000                	unimp
     36a:	0000                	unimp
     36c:	0118                	addi	a4,sp,128
     36e:	00a0                	addi	s0,sp,72
     370:	0000                	unimp
     372:	0000                	unimp
     374:	9f400803          	lb	a6,-1548(zero) # fffffffffffff9f4 <end+0xfffffffffeffd9f4>
     378:	0700                	addi	s0,sp,896
     37a:	012c                	addi	a1,sp,136
     37c:	00a0                	addi	s0,sp,72
     37e:	0000                	unimp
     380:	0000                	unimp
     382:	014c                	addi	a1,sp,132
     384:	00a0                	addi	s0,sp,72
     386:	0000                	unimp
     388:	0000                	unimp
     38a:	5901                	li	s2,-32
     38c:	0700                	addi	s0,sp,896
     38e:	012c                	addi	a1,sp,136
     390:	00a0                	addi	s0,sp,72
     392:	0000                	unimp
     394:	0000                	unimp
     396:	014c                	addi	a1,sp,132
     398:	00a0                	addi	s0,sp,72
     39a:	0000                	unimp
     39c:	0000                	unimp
     39e:	3002                	fld	ft0,32(sp)
     3a0:	009f 2c07 a001      	0xa0012c07009f
     3a6:	0000                	unimp
     3a8:	0000                	unimp
     3aa:	4c00                	lw	s0,24(s0)
     3ac:	a001                	j	3ac <_text-0x9ffc54>
     3ae:	0000                	unimp
     3b0:	0000                	unimp
     3b2:	0300                	addi	s0,sp,384
     3b4:	3908                	fld	fa0,48(a0)
     3b6:	009f 4c07 a001      	0xa0014c07009f
     3bc:	0000                	unimp
     3be:	0000                	unimp
     3c0:	6000                	ld	s0,0(s0)
     3c2:	a001                	j	3c2 <_text-0x9ffc3e>
     3c4:	0000                	unimp
     3c6:	0000                	unimp
     3c8:	0200                	addi	s0,sp,256
     3ca:	9f30                	0x9f30
     3cc:	0700                	addi	s0,sp,896
     3ce:	014c                	addi	a1,sp,132
     3d0:	00a0                	addi	s0,sp,72
     3d2:	0000                	unimp
     3d4:	0000                	unimp
     3d6:	0160                	addi	s0,sp,140
     3d8:	00a0                	addi	s0,sp,72
     3da:	0000                	unimp
     3dc:	0000                	unimp
     3de:	030a                	slli	t1,t1,0x2
     3e0:	21e0                	fld	fs0,192(a1)
     3e2:	00a0                	addi	s0,sp,72
     3e4:	0000                	unimp
     3e6:	0000                	unimp
     3e8:	009f 4c07 a001      	0xa0014c07009f
     3ee:	0000                	unimp
     3f0:	0000                	unimp
     3f2:	6000                	ld	s0,0(s0)
     3f4:	a001                	j	3f4 <_text-0x9ffc0c>
     3f6:	0000                	unimp
     3f8:	0000                	unimp
     3fa:	0200                	addi	s0,sp,256
     3fc:	9f32                	add	t5,t5,a2
     3fe:	0700                	addi	s0,sp,896
     400:	014c                	addi	a1,sp,132
     402:	00a0                	addi	s0,sp,72
     404:	0000                	unimp
     406:	0000                	unimp
     408:	0160                	addi	s0,sp,140
     40a:	00a0                	addi	s0,sp,72
     40c:	0000                	unimp
     40e:	0000                	unimp
     410:	9f9c0903          	lb	s2,-1543(s8)
     414:	0700                	addi	s0,sp,896
     416:	014c                	addi	a1,sp,132
     418:	00a0                	addi	s0,sp,72
     41a:	0000                	unimp
     41c:	0000                	unimp
     41e:	0160                	addi	s0,sp,140
     420:	00a0                	addi	s0,sp,72
     422:	0000                	unimp
     424:	0000                	unimp
     426:	9f380803          	lb	a6,-1549(a6)
     42a:	0700                	addi	s0,sp,896
     42c:	0160                	addi	s0,sp,140
     42e:	00a0                	addi	s0,sp,72
     430:	0000                	unimp
     432:	0000                	unimp
     434:	0178                	addi	a4,sp,140
     436:	00a0                	addi	s0,sp,72
     438:	0000                	unimp
     43a:	0000                	unimp
     43c:	4002                	0x4002
     43e:	009f 6007 a001      	0xa0016007009f
     444:	0000                	unimp
     446:	0000                	unimp
     448:	6800                	ld	s0,16(s0)
     44a:	a001                	j	44a <_text-0x9ffbb6>
     44c:	0000                	unimp
     44e:	0000                	unimp
     450:	0300                	addi	s0,sp,384
     452:	4078                	lw	a4,68(s0)
     454:	079f 0168 00a0      	0xa00168079f
     45a:	0000                	unimp
     45c:	0000                	unimp
     45e:	0178                	addi	a4,sp,140
     460:	00a0                	addi	s0,sp,72
     462:	0000                	unimp
     464:	0000                	unimp
     466:	5b01                	li	s6,-32
     468:	0700                	addi	s0,sp,896
     46a:	0160                	addi	s0,sp,140
     46c:	00a0                	addi	s0,sp,72
     46e:	0000                	unimp
     470:	0000                	unimp
     472:	0178                	addi	a4,sp,140
     474:	00a0                	addi	s0,sp,72
     476:	0000                	unimp
     478:	0000                	unimp
     47a:	5a01                	li	s4,-32
     47c:	0700                	addi	s0,sp,896
     47e:	0160                	addi	s0,sp,140
     480:	00a0                	addi	s0,sp,72
     482:	0000                	unimp
     484:	0000                	unimp
     486:	0178                	addi	a4,sp,140
     488:	00a0                	addi	s0,sp,72
     48a:	0000                	unimp
     48c:	0000                	unimp
     48e:	3002                	fld	ft0,32(sp)
     490:	009f 6007 a001      	0xa0016007009f
     496:	0000                	unimp
     498:	0000                	unimp
     49a:	6400                	ld	s0,8(s0)
     49c:	a001                	j	49c <_text-0x9ffb64>
     49e:	0000                	unimp
     4a0:	0000                	unimp
     4a2:	0900                	addi	s0,sp,144
     4a4:	007a                	c.slli	zero,0x1e
     4a6:	2008                	fld	fa0,0(s0)
     4a8:	0824                	addi	s1,sp,24
     4aa:	2620                	fld	fs0,72(a2)
     4ac:	079f 0164 00a0      	0xa00164079f
     4b2:	0000                	unimp
     4b4:	0000                	unimp
     4b6:	0178                	addi	a4,sp,140
     4b8:	00a0                	addi	s0,sp,72
     4ba:	0000                	unimp
     4bc:	0000                	unimp
     4be:	5a01                	li	s4,-32
     4c0:	0700                	addi	s0,sp,896
     4c2:	0160                	addi	s0,sp,140
     4c4:	00a0                	addi	s0,sp,72
     4c6:	0000                	unimp
     4c8:	0000                	unimp
     4ca:	0178                	addi	a4,sp,140
     4cc:	00a0                	addi	s0,sp,72
     4ce:	0000                	unimp
     4d0:	0000                	unimp
     4d2:	9f3f0803          	lb	a6,-1549(t5) # 1a9f3 <_text-0x9e560d>
     4d6:	e100                	sd	s0,0(a0)
     4d8:	0000                	unimp
     4da:	0500                	addi	s0,sp,640
     4dc:	0800                	addi	s0,sp,16
     4de:	0000                	unimp
     4e0:	0000                	unimp
     4e2:	0700                	addi	s0,sp,896
     4e4:	0194                	addi	a3,sp,192
     4e6:	00a0                	addi	s0,sp,72
     4e8:	0000                	unimp
     4ea:	0000                	unimp
     4ec:	00a001ab          	0xa001ab
     4f0:	0000                	unimp
     4f2:	0000                	unimp
     4f4:	5a01                	li	s4,-32
     4f6:	a001ab07          	flw	fs6,-1536(gp)
     4fa:	0000                	unimp
     4fc:	0000                	unimp
     4fe:	d800                	sw	s0,48(s0)
     500:	a001                	j	500 <_text-0x9ffb00>
     502:	0000                	unimp
     504:	0000                	unimp
     506:	0400                	addi	s0,sp,512
     508:	9f5a01a3          	sb	s5,-1565(s4)
     50c:	0700                	addi	s0,sp,896
     50e:	0194                	addi	a3,sp,192
     510:	00a0                	addi	s0,sp,72
     512:	0000                	unimp
     514:	0000                	unimp
     516:	00a001ab          	0xa001ab
     51a:	0000                	unimp
     51c:	0000                	unimp
     51e:	5b01                	li	s6,-32
     520:	a001ab07          	flw	fs6,-1536(gp)
     524:	0000                	unimp
     526:	0000                	unimp
     528:	d800                	sw	s0,48(s0)
     52a:	a001                	j	52a <_text-0x9ffad6>
     52c:	0000                	unimp
     52e:	0000                	unimp
     530:	0400                	addi	s0,sp,512
     532:	9f5b01a3          	sb	s5,-1565(s6)
     536:	0700                	addi	s0,sp,896
     538:	0194                	addi	a3,sp,192
     53a:	00a0                	addi	s0,sp,72
     53c:	0000                	unimp
     53e:	0000                	unimp
     540:	00a001ab          	0xa001ab
     544:	0000                	unimp
     546:	0000                	unimp
     548:	5c01                	li	s8,-32
     54a:	a001ab07          	flw	fs6,-1536(gp)
     54e:	0000                	unimp
     550:	0000                	unimp
     552:	d800                	sw	s0,48(s0)
     554:	a001                	j	554 <_text-0x9ffaac>
     556:	0000                	unimp
     558:	0000                	unimp
     55a:	0400                	addi	s0,sp,512
     55c:	9f5c01a3          	sb	s5,-1565(s8)
     560:	0700                	addi	s0,sp,896
     562:	01ac                	addi	a1,sp,200
     564:	00a0                	addi	s0,sp,72
     566:	0000                	unimp
     568:	0000                	unimp
     56a:	01c8                	addi	a0,sp,196
     56c:	00a0                	addi	s0,sp,72
     56e:	0000                	unimp
     570:	0000                	unimp
     572:	5a01                	li	s4,-32
     574:	0700                	addi	s0,sp,896
     576:	01ac                	addi	a1,sp,200
     578:	00a0                	addi	s0,sp,72
     57a:	0000                	unimp
     57c:	0000                	unimp
     57e:	01c8                	addi	a0,sp,196
     580:	00a0                	addi	s0,sp,72
     582:	0000                	unimp
     584:	0000                	unimp
     586:	3002                	fld	ft0,32(sp)
     588:	009f ac07 a001      	0xa001ac07009f
     58e:	0000                	unimp
     590:	0000                	unimp
     592:	c800                	sw	s0,16(s0)
     594:	a001                	j	594 <_text-0x9ffa6c>
     596:	0000                	unimp
     598:	0000                	unimp
     59a:	0900                	addi	s0,sp,144
     59c:	007a                	c.slli	zero,0x1e
     59e:	2008                	fld	fa0,0(s0)
     5a0:	0824                	addi	s1,sp,24
     5a2:	2620                	fld	fs0,72(a2)
     5a4:	009f ac07 a001      	0xa001ac07009f
     5aa:	0000                	unimp
     5ac:	0000                	unimp
     5ae:	c800                	sw	s0,16(s0)
     5b0:	a001                	j	5b0 <_text-0x9ffa50>
     5b2:	0000                	unimp
     5b4:	0000                	unimp
     5b6:	0300                	addi	s0,sp,384
     5b8:	5d08                	lw	a0,56(a0)
     5ba:	009f 217c 0000      	0x217c009f
     5c0:	0005                	c.nop	1
     5c2:	0008                	0x8
     5c4:	0000                	unimp
     5c6:	0000                	unimp
     5c8:	a003a807          	flw	fa6,-1536(t2)
     5cc:	0000                	unimp
     5ce:	0000                	unimp
     5d0:	dc00                	sw	s0,56(s0)
     5d2:	0000a003          	lw	zero,0(ra)
     5d6:	0000                	unimp
     5d8:	0100                	addi	s0,sp,128
     5da:	03dc075b          	0x3dc075b
     5de:	00a0                	addi	s0,sp,72
     5e0:	0000                	unimp
     5e2:	0000                	unimp
     5e4:	03e8                	addi	a0,sp,460
     5e6:	00a0                	addi	s0,sp,72
     5e8:	0000                	unimp
     5ea:	0000                	unimp
     5ec:	5601                	li	a2,-32
     5ee:	a003e807          	0xa003e807
     5f2:	0000                	unimp
     5f4:	0000                	unimp
     5f6:	1400                	addi	s0,sp,544
     5f8:	a004                	fsd	fs1,0(s0)
     5fa:	0000                	unimp
     5fc:	0000                	unimp
     5fe:	0100                	addi	s0,sp,128
     600:	0414075b          	0x414075b
     604:	00a0                	addi	s0,sp,72
     606:	0000                	unimp
     608:	0000                	unimp
     60a:	0544                	addi	s1,sp,644
     60c:	00a0                	addi	s0,sp,72
     60e:	0000                	unimp
     610:	0000                	unimp
     612:	5601                	li	a2,-32
     614:	0700                	addi	s0,sp,896
     616:	03a8                	addi	a0,sp,456
     618:	00a0                	addi	s0,sp,72
     61a:	0000                	unimp
     61c:	0000                	unimp
     61e:	041c                	addi	a5,sp,512
     620:	00a0                	addi	s0,sp,72
     622:	0000                	unimp
     624:	0000                	unimp
     626:	5c01                	li	s8,-32
     628:	a0041c07          	0xa0041c07
     62c:	0000                	unimp
     62e:	0000                	unimp
     630:	4c00                	lw	s0,24(s0)
     632:	a004                	fsd	fs1,0(s0)
     634:	0000                	unimp
     636:	0000                	unimp
     638:	0400                	addi	s0,sp,512
     63a:	9f5c01a3          	sb	s5,-1565(s8)
     63e:	a0044c07          	flq	fs8,-1536(s0) # ffffffffffff9a00 <end+0xfffffffffeff7a00>
     642:	0000                	unimp
     644:	0000                	unimp
     646:	7800                	ld	s0,48(s0)
     648:	a004                	fsd	fs1,0(s0)
     64a:	0000                	unimp
     64c:	0000                	unimp
     64e:	0100                	addi	s0,sp,128
     650:	075c                	addi	a5,sp,900
     652:	0478                	addi	a4,sp,524
     654:	00a0                	addi	s0,sp,72
     656:	0000                	unimp
     658:	0000                	unimp
     65a:	0544                	addi	s1,sp,644
     65c:	00a0                	addi	s0,sp,72
     65e:	0000                	unimp
     660:	0000                	unimp
     662:	a304                	fsd	fs1,0(a4)
     664:	5c01                	li	s8,-32
     666:	009f a807 a003      	0xa003a807009f
     66c:	0000                	unimp
     66e:	0000                	unimp
     670:	8400                	0x8400
     672:	a004                	fsd	fs1,0(s0)
     674:	0000                	unimp
     676:	0000                	unimp
     678:	0100                	addi	s0,sp,128
     67a:	075d                	addi	a4,a4,23
     67c:	0484                	addi	s1,sp,576
     67e:	00a0                	addi	s0,sp,72
     680:	0000                	unimp
     682:	0000                	unimp
     684:	04ec                	addi	a1,sp,588
     686:	00a0                	addi	s0,sp,72
     688:	0000                	unimp
     68a:	0000                	unimp
     68c:	a304                	fsd	fs1,0(a4)
     68e:	5d01                	li	s10,-32
     690:	079f 04ec 00a0      	0xa004ec079f
     696:	0000                	unimp
     698:	0000                	unimp
     69a:	0524                	addi	s1,sp,648
     69c:	00a0                	addi	s0,sp,72
     69e:	0000                	unimp
     6a0:	0000                	unimp
     6a2:	5d01                	li	s10,-32
     6a4:	a0052407          	flw	fs0,-1536(a0) # 18a00 <_text-0x9e7600>
     6a8:	0000                	unimp
     6aa:	0000                	unimp
     6ac:	4400                	lw	s0,8(s0)
     6ae:	a005                	j	6ce <_text-0x9ff932>
     6b0:	0000                	unimp
     6b2:	0000                	unimp
     6b4:	0400                	addi	s0,sp,512
     6b6:	9f5d01a3          	sb	s5,-1565(s10) # 199e3 <_text-0x9e661d>
     6ba:	0700                	addi	s0,sp,896
     6bc:	03a8                	addi	a0,sp,456
     6be:	00a0                	addi	s0,sp,72
     6c0:	0000                	unimp
     6c2:	0000                	unimp
     6c4:	043c                	addi	a5,sp,520
     6c6:	00a0                	addi	s0,sp,72
     6c8:	0000                	unimp
     6ca:	0000                	unimp
     6cc:	5e01                	li	t3,-32
     6ce:	a0043c07          	fld	fs8,-1536(s0)
     6d2:	0000                	unimp
     6d4:	0000                	unimp
     6d6:	4000                	lw	s0,0(s0)
     6d8:	a004                	fsd	fs1,0(s0)
     6da:	0000                	unimp
     6dc:	0000                	unimp
     6de:	0100                	addi	s0,sp,128
     6e0:	0761                	addi	a4,a4,24
     6e2:	044c                	addi	a1,sp,516
     6e4:	00a0                	addi	s0,sp,72
     6e6:	0000                	unimp
     6e8:	0000                	unimp
     6ea:	0464                	addi	s1,sp,524
     6ec:	00a0                	addi	s0,sp,72
     6ee:	0000                	unimp
     6f0:	0000                	unimp
     6f2:	5e01                	li	t3,-32
     6f4:	a0046407          	0xa0046407
     6f8:	0000                	unimp
     6fa:	0000                	unimp
     6fc:	7800                	ld	s0,48(s0)
     6fe:	a004                	fsd	fs1,0(s0)
     700:	0000                	unimp
     702:	0000                	unimp
     704:	0100                	addi	s0,sp,128
     706:	0061                	c.nop	24
     708:	a003a807          	flw	fa6,-1536(t2)
     70c:	0000                	unimp
     70e:	0000                	unimp
     710:	a000                	fsd	fs0,0(s0)
     712:	a004                	fsd	fs1,0(s0)
     714:	0000                	unimp
     716:	0000                	unimp
     718:	0100                	addi	s0,sp,128
     71a:	075f 04a0 00a0      	0xa004a0075f
     720:	0000                	unimp
     722:	0000                	unimp
     724:	04ec                	addi	a1,sp,588
     726:	00a0                	addi	s0,sp,72
     728:	0000                	unimp
     72a:	0000                	unimp
     72c:	a304                	fsd	fs1,0(a4)
     72e:	5f01                	li	t5,-32
     730:	079f 04ec 00a0      	0xa004ec079f
     736:	0000                	unimp
     738:	0000                	unimp
     73a:	050c                	addi	a1,sp,640
     73c:	00a0                	addi	s0,sp,72
     73e:	0000                	unimp
     740:	0000                	unimp
     742:	5f01                	li	t5,-32
     744:	a0050c07          	0xa0050c07
     748:	0000                	unimp
     74a:	0000                	unimp
     74c:	4400                	lw	s0,8(s0)
     74e:	a005                	j	76e <_text-0x9ff892>
     750:	0000                	unimp
     752:	0000                	unimp
     754:	0400                	addi	s0,sp,512
     756:	9f5f01a3          	sb	s5,-1565(t5)
     75a:	0700                	addi	s0,sp,896
     75c:	03a8                	addi	a0,sp,456
     75e:	00a0                	addi	s0,sp,72
     760:	0000                	unimp
     762:	0000                	unimp
     764:	0468                	addi	a0,sp,524
     766:	00a0                	addi	s0,sp,72
     768:	0000                	unimp
     76a:	0000                	unimp
     76c:	6001                	0x6001
     76e:	a0046807          	0xa0046807
     772:	0000                	unimp
     774:	0000                	unimp
     776:	8000                	0x8000
     778:	a004                	fsd	fs1,0(s0)
     77a:	0000                	unimp
     77c:	0000                	unimp
     77e:	0300                	addi	s0,sp,384
     780:	2008                	fld	fa0,0(s0)
     782:	079f 04ec 00a0      	0xa004ec079f
     788:	0000                	unimp
     78a:	0000                	unimp
     78c:	053c                	addi	a5,sp,648
     78e:	00a0                	addi	s0,sp,72
     790:	0000                	unimp
     792:	0000                	unimp
     794:	6001                	0x6001
     796:	0700                	addi	s0,sp,896
     798:	03a8                	addi	a0,sp,456
     79a:	00a0                	addi	s0,sp,72
     79c:	0000                	unimp
     79e:	0000                	unimp
     7a0:	0430                	addi	a2,sp,520
     7a2:	00a0                	addi	s0,sp,72
     7a4:	0000                	unimp
     7a6:	0000                	unimp
     7a8:	6101                	addi	sp,sp,0
     7aa:	a0043007          	fld	ft0,-1536(s0)
     7ae:	0000                	unimp
     7b0:	0000                	unimp
     7b2:	4c00                	lw	s0,24(s0)
     7b4:	a004                	fsd	fs1,0(s0)
     7b6:	0000                	unimp
     7b8:	0000                	unimp
     7ba:	0400                	addi	s0,sp,512
     7bc:	9f6101a3          	sb	s6,-1565(sp)
     7c0:	a0044c07          	flq	fs8,-1536(s0)
     7c4:	0000                	unimp
     7c6:	0000                	unimp
     7c8:	5800                	lw	s0,48(s0)
     7ca:	a004                	fsd	fs1,0(s0)
     7cc:	0000                	unimp
     7ce:	0000                	unimp
     7d0:	0100                	addi	s0,sp,128
     7d2:	0761                	addi	a4,a4,24
     7d4:	0458                	addi	a4,sp,516
     7d6:	00a0                	addi	s0,sp,72
     7d8:	0000                	unimp
     7da:	0000                	unimp
     7dc:	0544                	addi	s1,sp,644
     7de:	00a0                	addi	s0,sp,72
     7e0:	0000                	unimp
     7e2:	0000                	unimp
     7e4:	a304                	fsd	fs1,0(a4)
     7e6:	6101                	addi	sp,sp,0
     7e8:	009f b407 a003      	0xa003b407009f
     7ee:	0000                	unimp
     7f0:	0000                	unimp
     7f2:	2c00                	fld	fs0,24(s0)
     7f4:	a004                	fsd	fs1,0(s0)
     7f6:	0000                	unimp
     7f8:	0000                	unimp
     7fa:	0200                	addi	s0,sp,256
     7fc:	9f30                	0x9f30
     7fe:	a0042c07          	flw	fs8,-1536(s0)
     802:	0000                	unimp
     804:	0000                	unimp
     806:	4c00                	lw	s0,24(s0)
     808:	a004                	fsd	fs1,0(s0)
     80a:	0000                	unimp
     80c:	0000                	unimp
     80e:	0100                	addi	s0,sp,128
     810:	044c075b          	0x44c075b
     814:	00a0                	addi	s0,sp,72
     816:	0000                	unimp
     818:	0000                	unimp
     81a:	0454                	addi	a3,sp,516
     81c:	00a0                	addi	s0,sp,72
     81e:	0000                	unimp
     820:	0000                	unimp
     822:	3002                	fld	ft0,32(sp)
     824:	079f 0454 00a0      	0xa00454079f
     82a:	0000                	unimp
     82c:	0000                	unimp
     82e:	04a0                	addi	s0,sp,584
     830:	00a0                	addi	s0,sp,72
     832:	0000                	unimp
     834:	0000                	unimp
     836:	5b01                	li	s6,-32
     838:	a004ec07          	0xa004ec07
     83c:	0000                	unimp
     83e:	0000                	unimp
     840:	1c00                	addi	s0,sp,560
     842:	a005                	j	862 <_text-0x9ff79e>
     844:	0000                	unimp
     846:	0000                	unimp
     848:	0100                	addi	s0,sp,128
     84a:	b407005b          	0xb407005b
     84e:	0000a003          	lw	zero,0(ra)
     852:	0000                	unimp
     854:	c400                	sw	s0,8(s0)
     856:	0000a003          	lw	zero,0(ra)
     85a:	0000                	unimp
     85c:	0100                	addi	s0,sp,128
     85e:	075a                	slli	a4,a4,0x16
     860:	03c4                	addi	s1,sp,452
     862:	00a0                	addi	s0,sp,72
     864:	0000                	unimp
     866:	0000                	unimp
     868:	03cc                	addi	a1,sp,452
     86a:	00a0                	addi	s0,sp,72
     86c:	0000                	unimp
     86e:	0000                	unimp
     870:	9f7f8c03          	lb	s8,-1545(t6) # 39f7 <_text-0x9fc609>
     874:	a003cc07          	flq	fs8,-1536(t2)
     878:	0000                	unimp
     87a:	0000                	unimp
     87c:	d400                	sw	s0,40(s0)
     87e:	0000a003          	lw	zero,0(ra)
     882:	0000                	unimp
     884:	0100                	addi	s0,sp,128
     886:	076d                	addi	a4,a4,27
     888:	03d4                	addi	a3,sp,452
     88a:	00a0                	addi	s0,sp,72
     88c:	0000                	unimp
     88e:	0000                	unimp
     890:	03e0                	addi	s0,sp,460
     892:	00a0                	addi	s0,sp,72
     894:	0000                	unimp
     896:	0000                	unimp
     898:	6c01                	0x6c01
     89a:	a003e007          	0xa003e007
     89e:	0000                	unimp
     8a0:	0000                	unimp
     8a2:	e800                	sd	s0,16(s0)
     8a4:	0000a003          	lw	zero,0(ra)
     8a8:	0000                	unimp
     8aa:	0100                	addi	s0,sp,128
     8ac:	076d                	addi	a4,a4,27
     8ae:	03e8                	addi	a0,sp,460
     8b0:	00a0                	addi	s0,sp,72
     8b2:	0000                	unimp
     8b4:	0000                	unimp
     8b6:	03f8                	addi	a4,sp,460
     8b8:	00a0                	addi	s0,sp,72
     8ba:	0000                	unimp
     8bc:	0000                	unimp
     8be:	9f7f8c03          	lb	s8,-1545(t6)
     8c2:	a003f807          	0xa003f807
     8c6:	0000                	unimp
     8c8:	0000                	unimp
     8ca:	0400                	addi	s0,sp,512
     8cc:	a004                	fsd	fs1,0(s0)
     8ce:	0000                	unimp
     8d0:	0000                	unimp
     8d2:	0100                	addi	s0,sp,128
     8d4:	076c                	addi	a1,sp,908
     8d6:	0404                	addi	s1,sp,512
     8d8:	00a0                	addi	s0,sp,72
     8da:	0000                	unimp
     8dc:	0000                	unimp
     8de:	0408                	addi	a0,sp,512
     8e0:	00a0                	addi	s0,sp,72
     8e2:	0000                	unimp
     8e4:	0000                	unimp
     8e6:	9f7f8c03          	lb	s8,-1545(t6)
     8ea:	a0040807          	0xa0040807
     8ee:	0000                	unimp
     8f0:	0000                	unimp
     8f2:	1800                	addi	s0,sp,48
     8f4:	a004                	fsd	fs1,0(s0)
     8f6:	0000                	unimp
     8f8:	0000                	unimp
     8fa:	0100                	addi	s0,sp,128
     8fc:	076d                	addi	a4,a4,27
     8fe:	0418                	addi	a4,sp,512
     900:	00a0                	addi	s0,sp,72
     902:	0000                	unimp
     904:	0000                	unimp
     906:	0424                	addi	s1,sp,520
     908:	00a0                	addi	s0,sp,72
     90a:	0000                	unimp
     90c:	0000                	unimp
     90e:	9f018d03          	lb	s10,-1552(gp)
     912:	a0042407          	flw	fs0,-1536(s0)
     916:	0000                	unimp
     918:	0000                	unimp
     91a:	2800                	fld	fs0,16(s0)
     91c:	a004                	fsd	fs1,0(s0)
     91e:	0000                	unimp
     920:	0000                	unimp
     922:	0100                	addi	s0,sp,128
     924:	076d                	addi	a4,a4,27
     926:	0428                	addi	a0,sp,520
     928:	00a0                	addi	s0,sp,72
     92a:	0000                	unimp
     92c:	0000                	unimp
     92e:	0440                	addi	s0,sp,516
     930:	00a0                	addi	s0,sp,72
     932:	0000                	unimp
     934:	0000                	unimp
     936:	6c01                	0x6c01
     938:	a0044c07          	flq	fs8,-1536(s0)
     93c:	0000                	unimp
     93e:	0000                	unimp
     940:	5000                	lw	s0,32(s0)
     942:	a004                	fsd	fs1,0(s0)
     944:	0000                	unimp
     946:	0000                	unimp
     948:	0100                	addi	s0,sp,128
     94a:	076d                	addi	a4,a4,27
     94c:	0450                	addi	a2,sp,516
     94e:	00a0                	addi	s0,sp,72
     950:	0000                	unimp
     952:	0000                	unimp
     954:	0478                	addi	a4,sp,524
     956:	00a0                	addi	s0,sp,72
     958:	0000                	unimp
     95a:	0000                	unimp
     95c:	9f7f8c03          	lb	s8,-1545(t6)
     960:	0700                	addi	s0,sp,896
     962:	0444                	addi	s1,sp,516
     964:	00a0                	addi	s0,sp,72
     966:	0000                	unimp
     968:	0000                	unimp
     96a:	044c                	addi	a1,sp,516
     96c:	00a0                	addi	s0,sp,72
     96e:	0000                	unimp
     970:	0000                	unimp
     972:	5b01                	li	s6,-32
     974:	a0046c07          	0xa0046c07
     978:	0000                	unimp
     97a:	0000                	unimp
     97c:	8400                	0x8400
     97e:	a004                	fsd	fs1,0(s0)
     980:	0000                	unimp
     982:	0000                	unimp
     984:	0100                	addi	s0,sp,128
     986:	0484075b          	0x484075b
     98a:	00a0                	addi	s0,sp,72
     98c:	0000                	unimp
     98e:	0000                	unimp
     990:	048c                	addi	a1,sp,576
     992:	00a0                	addi	s0,sp,72
     994:	0000                	unimp
     996:	0000                	unimp
     998:	5e01                	li	t3,-32
     99a:	a0048c07          	0xa0048c07
     99e:	0000                	unimp
     9a0:	0000                	unimp
     9a2:	9000                	0x9000
     9a4:	a004                	fsd	fs1,0(s0)
     9a6:	0000                	unimp
     9a8:	0000                	unimp
     9aa:	0300                	addi	s0,sp,384
     9ac:	017e                	slli	sp,sp,0x1f
     9ae:	079f 04f4 00a0      	0xa004f4079f
     9b4:	0000                	unimp
     9b6:	0000                	unimp
     9b8:	04fc                	addi	a5,sp,588
     9ba:	00a0                	addi	s0,sp,72
     9bc:	0000                	unimp
     9be:	0000                	unimp
     9c0:	5b01                	li	s6,-32
     9c2:	a0050007          	0xa0050007
     9c6:	0000                	unimp
     9c8:	0000                	unimp
     9ca:	1c00                	addi	s0,sp,560
     9cc:	a005                	j	9ec <_text-0x9ff614>
     9ce:	0000                	unimp
     9d0:	0000                	unimp
     9d2:	0300                	addi	s0,sp,384
     9d4:	079f7f7b          	0x79f7f7b
     9d8:	0524                	addi	s1,sp,648
     9da:	00a0                	addi	s0,sp,72
     9dc:	0000                	unimp
     9de:	0000                	unimp
     9e0:	0528                	addi	a0,sp,648
     9e2:	00a0                	addi	s0,sp,72
     9e4:	0000                	unimp
     9e6:	0000                	unimp
     9e8:	087f8d13          	addi	s10,t6,135
     9ec:	2420                	fld	fs0,72(s0)
     9ee:	2008                	fld	fa0,0(s0)
     9f0:	7a26                	ld	s4,104(sp)
     9f2:	2200                	fld	fs0,0(a2)
     9f4:	7e20                	ld	s0,120(a2)
     9f6:	2200                	fld	fs0,0(a2)
     9f8:	008d                	addi	ra,ra,3
     9fa:	9f22                	add	t5,t5,s0
     9fc:	a0052807          	flw	fa6,-1536(a0)
     a00:	0000                	unimp
     a02:	0000                	unimp
     a04:	2c00                	fld	fs0,24(s0)
     a06:	a005                	j	a26 <_text-0x9ff5da>
     a08:	0000                	unimp
     a0a:	0000                	unimp
     a0c:	0800                	addi	s0,sp,16
     a0e:	007e                	c.slli	zero,0x1f
     a10:	007a                	c.slli	zero,0x1e
     a12:	231c                	fld	fa5,0(a4)
     a14:	9f01                	subw	a4,a4,s0
     a16:	0700                	addi	s0,sp,896
     a18:	03c4                	addi	s1,sp,452
     a1a:	00a0                	addi	s0,sp,72
     a1c:	0000                	unimp
     a1e:	0000                	unimp
     a20:	03d0                	addi	a2,sp,452
     a22:	00a0                	addi	s0,sp,72
     a24:	0000                	unimp
     a26:	0000                	unimp
     a28:	5601                	li	a2,-32
     a2a:	a003d007          	0xa003d007
     a2e:	0000                	unimp
     a30:	0000                	unimp
     a32:	d400                	sw	s0,40(s0)
     a34:	0000a003          	lw	zero,0(ra)
     a38:	0000                	unimp
     a3a:	0300                	addi	s0,sp,384
     a3c:	4976                	lw	s2,92(sp)
     a3e:	079f 03d4 00a0      	0xa003d4079f
     a44:	0000                	unimp
     a46:	0000                	unimp
     a48:	03e8                	addi	a0,sp,460
     a4a:	00a0                	addi	s0,sp,72
     a4c:	0000                	unimp
     a4e:	0000                	unimp
     a50:	7b06                	ld	s6,96(sp)
     a52:	7c00                	ld	s0,56(s0)
     a54:	1d00                	addi	s0,sp,688
     a56:	079f 03ec 00a0      	0xa003ec079f
     a5c:	0000                	unimp
     a5e:	0000                	unimp
     a60:	03fc                	addi	a5,sp,460
     a62:	00a0                	addi	s0,sp,72
     a64:	0000                	unimp
     a66:	0000                	unimp
     a68:	5601                	li	a2,-32
     a6a:	a003fc07          	0xa003fc07
     a6e:	0000                	unimp
     a70:	0000                	unimp
     a72:	0000                	unimp
     a74:	a004                	fsd	fs1,0(s0)
     a76:	0000                	unimp
     a78:	0000                	unimp
     a7a:	0300                	addi	s0,sp,384
     a7c:	5076                	0x5076
     a7e:	079f 0400 00a0      	0xa00400079f
     a84:	0000                	unimp
     a86:	0000                	unimp
     a88:	0404                	addi	s1,sp,512
     a8a:	00a0                	addi	s0,sp,72
     a8c:	0000                	unimp
     a8e:	0000                	unimp
     a90:	7b06                	ld	s6,96(sp)
     a92:	7c00                	ld	s0,56(s0)
     a94:	1d00                	addi	s0,sp,688
     a96:	079f 0404 00a0      	0xa00404079f
     a9c:	0000                	unimp
     a9e:	0000                	unimp
     aa0:	040c                	addi	a1,sp,512
     aa2:	00a0                	addi	s0,sp,72
     aa4:	0000                	unimp
     aa6:	0000                	unimp
     aa8:	5601                	li	a2,-32
     aaa:	a0040c07          	0xa0040c07
     aae:	0000                	unimp
     ab0:	0000                	unimp
     ab2:	1000                	addi	s0,sp,32
     ab4:	a004                	fsd	fs1,0(s0)
     ab6:	0000                	unimp
     ab8:	0000                	unimp
     aba:	0400                	addi	s0,sp,512
     abc:	a976                	fsd	ft9,144(sp)
     abe:	9f7f                	0x9f7f
     ac0:	a0041007          	0xa0041007
     ac4:	0000                	unimp
     ac6:	0000                	unimp
     ac8:	1c00                	addi	s0,sp,560
     aca:	a004                	fsd	fs1,0(s0)
     acc:	0000                	unimp
     ace:	0000                	unimp
     ad0:	0600                	addi	s0,sp,768
     ad2:	007c007b          	0x7c007b
     ad6:	9f1d                	subw	a4,a4,a5
     ad8:	a0041c07          	0xa0041c07
     adc:	0000                	unimp
     ade:	0000                	unimp
     ae0:	2c00                	fld	fs0,24(s0)
     ae2:	a004                	fsd	fs1,0(s0)
     ae4:	0000                	unimp
     ae6:	0000                	unimp
     ae8:	0600                	addi	s0,sp,768
     aea:	008f007b          	0x8f007b
     aee:	9f1d                	subw	a4,a4,a5
     af0:	a0044c07          	flq	fs8,-1536(s0)
     af4:	0000                	unimp
     af6:	0000                	unimp
     af8:	5400                	lw	s0,40(s0)
     afa:	a004                	fsd	fs1,0(s0)
     afc:	0000                	unimp
     afe:	0000                	unimp
     b00:	0600                	addi	s0,sp,768
     b02:	007c007b          	0x7c007b
     b06:	9f1d                	subw	a4,a4,a5
     b08:	0700                	addi	s0,sp,896
     b0a:	0498                	addi	a4,sp,576
     b0c:	00a0                	addi	s0,sp,72
     b0e:	0000                	unimp
     b10:	0000                	unimp
     b12:	04b0                	addi	a2,sp,584
     b14:	00a0                	addi	s0,sp,72
     b16:	0000                	unimp
     b18:	0000                	unimp
     b1a:	3002                	fld	ft0,32(sp)
     b1c:	079f 04b0 00a0      	0xa004b0079f
     b22:	0000                	unimp
     b24:	0000                	unimp
     b26:	04c8                	addi	a0,sp,580
     b28:	00a0                	addi	s0,sp,72
     b2a:	0000                	unimp
     b2c:	0000                	unimp
     b2e:	5c01                	li	s8,-32
     b30:	a004c807          	flq	fa6,-1536(s1)
     b34:	0000                	unimp
     b36:	0000                	unimp
     b38:	d400                	sw	s0,40(s0)
     b3a:	a004                	fsd	fs1,0(s0)
     b3c:	0000                	unimp
     b3e:	0000                	unimp
     b40:	0100                	addi	s0,sp,128
     b42:	075f 04d4 00a0      	0xa004d4075f
     b48:	0000                	unimp
     b4a:	0000                	unimp
     b4c:	04d8                	addi	a4,sp,580
     b4e:	00a0                	addi	s0,sp,72
     b50:	0000                	unimp
     b52:	0000                	unimp
     b54:	5c01                	li	s8,-32
     b56:	a0053c07          	fld	fs8,-1536(a0)
     b5a:	0000                	unimp
     b5c:	0000                	unimp
     b5e:	4400                	lw	s0,8(s0)
     b60:	a005                	j	b80 <_text-0x9ff480>
     b62:	0000                	unimp
     b64:	0000                	unimp
     b66:	0200                	addi	s0,sp,256
     b68:	9f30                	0x9f30
     b6a:	0700                	addi	s0,sp,896
     b6c:	04a0                	addi	s0,sp,584
     b6e:	00a0                	addi	s0,sp,72
     b70:	0000                	unimp
     b72:	0000                	unimp
     b74:	04b0                	addi	a2,sp,584
     b76:	00a0                	addi	s0,sp,72
     b78:	0000                	unimp
     b7a:	0000                	unimp
     b7c:	5b01                	li	s6,-32
     b7e:	a004b007          	fld	ft0,-1536(s1)
     b82:	0000                	unimp
     b84:	0000                	unimp
     b86:	c800                	sw	s0,16(s0)
     b88:	a004                	fsd	fs1,0(s0)
     b8a:	0000                	unimp
     b8c:	0000                	unimp
     b8e:	0600                	addi	s0,sp,768
     b90:	007c007b          	0x7c007b
     b94:	9f1c                	0x9f1c
     b96:	a004c807          	flq	fa6,-1536(s1)
     b9a:	0000                	unimp
     b9c:	0000                	unimp
     b9e:	d400                	sw	s0,40(s0)
     ba0:	a004                	fsd	fs1,0(s0)
     ba2:	0000                	unimp
     ba4:	0000                	unimp
     ba6:	0600                	addi	s0,sp,768
     ba8:	007f007b          	0x7f007b
     bac:	9f1c                	0x9f1c
     bae:	a004d407          	0xa004d407
     bb2:	0000                	unimp
     bb4:	0000                	unimp
     bb6:	d800                	sw	s0,48(s0)
     bb8:	a004                	fsd	fs1,0(s0)
     bba:	0000                	unimp
     bbc:	0000                	unimp
     bbe:	0600                	addi	s0,sp,768
     bc0:	007c007b          	0x7c007b
     bc4:	9f1c                	0x9f1c
     bc6:	a0054007          	flq	ft0,-1536(a0)
     bca:	0000                	unimp
     bcc:	0000                	unimp
     bce:	4400                	lw	s0,8(s0)
     bd0:	a005                	j	bf0 <_text-0x9ff410>
     bd2:	0000                	unimp
     bd4:	0000                	unimp
     bd6:	0300                	addi	s0,sp,384
     bd8:	7f81                	lui	t6,0xfffe0
     bda:	009f b407 a004      	0xa004b407009f
     be0:	0000                	unimp
     be2:	0000                	unimp
     be4:	bc00                	fsd	fs0,56(s0)
     be6:	a004                	fsd	fs1,0(s0)
     be8:	0000                	unimp
     bea:	0000                	unimp
     bec:	0200                	addi	s0,sp,256
     bee:	007d                	c.nop	31
     bf0:	a004bc07          	fld	fs8,-1536(s1)
     bf4:	0000                	unimp
     bf6:	0000                	unimp
     bf8:	c400                	sw	s0,8(s0)
     bfa:	a004                	fsd	fs1,0(s0)
     bfc:	0000                	unimp
     bfe:	0000                	unimp
     c00:	0100                	addi	s0,sp,128
     c02:	005f 7007 a002      	0xa0027007005f
     c08:	0000                	unimp
     c0a:	0000                	unimp
     c0c:	b000                	fsd	fs0,32(s0)
     c0e:	a002                	fsd	ft0,0(sp)
     c10:	0000                	unimp
     c12:	0000                	unimp
     c14:	0100                	addi	s0,sp,128
     c16:	075c                	addi	a5,sp,900
     c18:	02b0                	addi	a2,sp,328
     c1a:	00a0                	addi	s0,sp,72
     c1c:	0000                	unimp
     c1e:	0000                	unimp
     c20:	02b8                	addi	a4,sp,328
     c22:	00a0                	addi	s0,sp,72
     c24:	0000                	unimp
     c26:	0000                	unimp
     c28:	5e01                	li	t3,-32
     c2a:	a002b807          	fld	fa6,-1536(t0)
     c2e:	0000                	unimp
     c30:	0000                	unimp
     c32:	bc00                	fsd	fs0,56(s0)
     c34:	a002                	fsd	ft0,0(sp)
     c36:	0000                	unimp
     c38:	0000                	unimp
     c3a:	0100                	addi	s0,sp,128
     c3c:	0760                	addi	s0,sp,908
     c3e:	0310                	addi	a2,sp,384
     c40:	00a0                	addi	s0,sp,72
     c42:	0000                	unimp
     c44:	0000                	unimp
     c46:	031c                	addi	a5,sp,384
     c48:	00a0                	addi	s0,sp,72
     c4a:	0000                	unimp
     c4c:	0000                	unimp
     c4e:	5e01                	li	t3,-32
     c50:	a0031c07          	0xa0031c07
     c54:	0000                	unimp
     c56:	0000                	unimp
     c58:	3800                	fld	fs0,48(s0)
     c5a:	0000a003          	lw	zero,0(ra)
     c5e:	0000                	unimp
     c60:	0100                	addi	s0,sp,128
     c62:	0760                	addi	s0,sp,908
     c64:	0380                	addi	s0,sp,448
     c66:	00a0                	addi	s0,sp,72
     c68:	0000                	unimp
     c6a:	0000                	unimp
     c6c:	03a8                	addi	a0,sp,456
     c6e:	00a0                	addi	s0,sp,72
     c70:	0000                	unimp
     c72:	0000                	unimp
     c74:	5c01                	li	s8,-32
     c76:	0700                	addi	s0,sp,896
     c78:	0270                	addi	a2,sp,268
     c7a:	00a0                	addi	s0,sp,72
     c7c:	0000                	unimp
     c7e:	0000                	unimp
     c80:	02c0                	addi	s0,sp,324
     c82:	00a0                	addi	s0,sp,72
     c84:	0000                	unimp
     c86:	0000                	unimp
     c88:	5d01                	li	s10,-32
     c8a:	a002c007          	flq	ft0,-1536(t0)
     c8e:	0000                	unimp
     c90:	0000                	unimp
     c92:	1000                	addi	s0,sp,32
     c94:	0000a003          	lw	zero,0(ra)
     c98:	0000                	unimp
     c9a:	0400                	addi	s0,sp,512
     c9c:	9f5d01a3          	sb	s5,-1565(s10)
     ca0:	a0031007          	0xa0031007
     ca4:	0000                	unimp
     ca6:	0000                	unimp
     ca8:	1c00                	addi	s0,sp,560
     caa:	0000a003          	lw	zero,0(ra)
     cae:	0000                	unimp
     cb0:	0100                	addi	s0,sp,128
     cb2:	075d                	addi	a4,a4,23
     cb4:	031c                	addi	a5,sp,384
     cb6:	00a0                	addi	s0,sp,72
     cb8:	0000                	unimp
     cba:	0000                	unimp
     cbc:	0380                	addi	s0,sp,448
     cbe:	00a0                	addi	s0,sp,72
     cc0:	0000                	unimp
     cc2:	0000                	unimp
     cc4:	a304                	fsd	fs1,0(a4)
     cc6:	5d01                	li	s10,-32
     cc8:	079f 0380 00a0      	0xa00380079f
     cce:	0000                	unimp
     cd0:	0000                	unimp
     cd2:	03a8                	addi	a0,sp,456
     cd4:	00a0                	addi	s0,sp,72
     cd6:	0000                	unimp
     cd8:	0000                	unimp
     cda:	5d01                	li	s10,-32
     cdc:	0700                	addi	s0,sp,896
     cde:	02b4                	addi	a3,sp,328
     ce0:	00a0                	addi	s0,sp,72
     ce2:	0000                	unimp
     ce4:	0000                	unimp
     ce6:	02d8                	addi	a4,sp,324
     ce8:	00a0                	addi	s0,sp,72
     cea:	0000                	unimp
     cec:	0000                	unimp
     cee:	3002                	fld	ft0,32(sp)
     cf0:	079f 02d8 00a0      	0xa002d8079f
     cf6:	0000                	unimp
     cf8:	0000                	unimp
     cfa:	02dc                	addi	a5,sp,324
     cfc:	00a0                	addi	s0,sp,72
     cfe:	0000                	unimp
     d00:	0000                	unimp
     d02:	7d06                	ld	s10,96(sp)
     d04:	7a00                	ld	s0,48(a2)
     d06:	1c00                	addi	s0,sp,560
     d08:	079f 02dc 00a0      	0xa002dc079f
     d0e:	0000                	unimp
     d10:	0000                	unimp
     d12:	02e0                	addi	s0,sp,332
     d14:	00a0                	addi	s0,sp,72
     d16:	0000                	unimp
     d18:	0000                	unimp
     d1a:	7d08                	ld	a0,56(a0)
     d1c:	7a00                	ld	s0,48(a2)
     d1e:	1c00                	addi	s0,sp,560
     d20:	079f0123          	sb	s9,98(t5)
     d24:	02e4                	addi	s1,sp,332
     d26:	00a0                	addi	s0,sp,72
     d28:	0000                	unimp
     d2a:	0000                	unimp
     d2c:	0300                	addi	s0,sp,384
     d2e:	00a0                	addi	s0,sp,72
     d30:	0000                	unimp
     d32:	0000                	unimp
     d34:	5e01                	li	t3,-32
     d36:	a0030007          	0xa0030007
     d3a:	0000                	unimp
     d3c:	0000                	unimp
     d3e:	0400                	addi	s0,sp,512
     d40:	0000a003          	lw	zero,0(ra)
     d44:	0000                	unimp
     d46:	0300                	addi	s0,sp,384
     d48:	017e                	slli	sp,sp,0x1f
     d4a:	079f 0310 00a0      	0xa00310079f
     d50:	0000                	unimp
     d52:	0000                	unimp
     d54:	031c                	addi	a5,sp,384
     d56:	00a0                	addi	s0,sp,72
     d58:	0000                	unimp
     d5a:	0000                	unimp
     d5c:	3002                	fld	ft0,32(sp)
     d5e:	079f 031c 00a0      	0xa0031c079f
     d64:	0000                	unimp
     d66:	0000                	unimp
     d68:	0324                	addi	s1,sp,392
     d6a:	00a0                	addi	s0,sp,72
     d6c:	0000                	unimp
     d6e:	0000                	unimp
     d70:	7e06                	ld	t3,96(sp)
     d72:	7b00                	ld	s0,48(a4)
     d74:	1c00                	addi	s0,sp,560
     d76:	079f 0324 00a0      	0xa00324079f
     d7c:	0000                	unimp
     d7e:	0000                	unimp
     d80:	0328                	addi	a0,sp,392
     d82:	00a0                	addi	s0,sp,72
     d84:	0000                	unimp
     d86:	0000                	unimp
     d88:	7e08                	ld	a0,56(a2)
     d8a:	7b00                	ld	s0,48(a4)
     d8c:	1c00                	addi	s0,sp,560
     d8e:	079f0123          	sb	s9,98(t5)
     d92:	0398                	addi	a4,sp,448
     d94:	00a0                	addi	s0,sp,72
     d96:	0000                	unimp
     d98:	0000                	unimp
     d9a:	03a8                	addi	a0,sp,456
     d9c:	00a0                	addi	s0,sp,72
     d9e:	0000                	unimp
     da0:	0000                	unimp
     da2:	3002                	fld	ft0,32(sp)
     da4:	009f 7c07 a002      	0xa0027c07009f
     daa:	0000                	unimp
     dac:	0000                	unimp
     dae:	8c00                	0x8c00
     db0:	a002                	fsd	ft0,0(sp)
     db2:	0000                	unimp
     db4:	0000                	unimp
     db6:	0200                	addi	s0,sp,256
     db8:	9f30                	0x9f30
     dba:	a0029007          	0xa0029007
     dbe:	0000                	unimp
     dc0:	0000                	unimp
     dc2:	9400                	0x9400
     dc4:	a002                	fsd	ft0,0(sp)
     dc6:	0000                	unimp
     dc8:	0000                	unimp
     dca:	0300                	addi	s0,sp,384
     dcc:	017f                	0x17f
     dce:	079f 0294 00a0      	0xa00294079f
     dd4:	0000                	unimp
     dd6:	0000                	unimp
     dd8:	02bc                	addi	a5,sp,328
     dda:	00a0                	addi	s0,sp,72
     ddc:	0000                	unimp
     dde:	0000                	unimp
     de0:	5f01                	li	t5,-32
     de2:	a0031007          	0xa0031007
     de6:	0000                	unimp
     de8:	0000                	unimp
     dea:	3800                	fld	fs0,48(s0)
     dec:	0000a003          	lw	zero,0(ra)
     df0:	0000                	unimp
     df2:	0100                	addi	s0,sp,128
     df4:	075f 0380 00a0      	0xa00380075f
     dfa:	0000                	unimp
     dfc:	0000                	unimp
     dfe:	03a8                	addi	a0,sp,456
     e00:	00a0                	addi	s0,sp,72
     e02:	0000                	unimp
     e04:	0000                	unimp
     e06:	3002                	fld	ft0,32(sp)
     e08:	009f 7c07 a002      	0xa0027c07009f
     e0e:	0000                	unimp
     e10:	0000                	unimp
     e12:	8800                	0x8800
     e14:	a002                	fsd	ft0,0(sp)
     e16:	0000                	unimp
     e18:	0000                	unimp
     e1a:	0300                	addi	s0,sp,384
     e1c:	079f017b          	0x79f017b
     e20:	0288                	addi	a0,sp,320
     e22:	00a0                	addi	s0,sp,72
     e24:	0000                	unimp
     e26:	0000                	unimp
     e28:	0294                	addi	a3,sp,320
     e2a:	00a0                	addi	s0,sp,72
     e2c:	0000                	unimp
     e2e:	0000                	unimp
     e30:	5e01                	li	t3,-32
     e32:	a0029407          	0xa0029407
     e36:	0000                	unimp
     e38:	0000                	unimp
     e3a:	9800                	0x9800
     e3c:	a002                	fsd	ft0,0(sp)
     e3e:	0000                	unimp
     e40:	0000                	unimp
     e42:	0300                	addi	s0,sp,384
     e44:	017e                	slli	sp,sp,0x1f
     e46:	079f 0298 00a0      	0xa00298079f
     e4c:	0000                	unimp
     e4e:	0000                	unimp
     e50:	02a4                	addi	s1,sp,328
     e52:	00a0                	addi	s0,sp,72
     e54:	0000                	unimp
     e56:	0000                	unimp
     e58:	5e01                	li	t3,-32
     e5a:	a0038007          	0xa0038007
     e5e:	0000                	unimp
     e60:	0000                	unimp
     e62:	a800                	fsd	fs0,16(s0)
     e64:	0000a003          	lw	zero,0(ra)
     e68:	0000                	unimp
     e6a:	0300                	addi	s0,sp,384
     e6c:	009f017b          	0x9f017b
     e70:	a001d807          	0xa001d807
     e74:	0000                	unimp
     e76:	0000                	unimp
     e78:	3000                	fld	fs0,32(s0)
     e7a:	a002                	fsd	ft0,0(sp)
     e7c:	0000                	unimp
     e7e:	0000                	unimp
     e80:	0100                	addi	s0,sp,128
     e82:	075a                	slli	a4,a4,0x16
     e84:	0230                	addi	a2,sp,264
     e86:	00a0                	addi	s0,sp,72
     e88:	0000                	unimp
     e8a:	0000                	unimp
     e8c:	0240                	addi	s0,sp,260
     e8e:	00a0                	addi	s0,sp,72
     e90:	0000                	unimp
     e92:	0000                	unimp
     e94:	a304                	fsd	fs1,0(a4)
     e96:	5a01                	li	s4,-32
     e98:	079f 0240 00a0      	0xa00240079f
     e9e:	0000                	unimp
     ea0:	0000                	unimp
     ea2:	0270                	addi	a2,sp,268
     ea4:	00a0                	addi	s0,sp,72
     ea6:	0000                	unimp
     ea8:	0000                	unimp
     eaa:	5a01                	li	s4,-32
     eac:	0700                	addi	s0,sp,896
     eae:	01d8                	addi	a4,sp,196
     eb0:	00a0                	addi	s0,sp,72
     eb2:	0000                	unimp
     eb4:	0000                	unimp
     eb6:	01f0                	addi	a2,sp,204
     eb8:	00a0                	addi	s0,sp,72
     eba:	0000                	unimp
     ebc:	0000                	unimp
     ebe:	5c01                	li	s8,-32
     ec0:	a0024007          	flq	ft0,-1536(tp) # ffffffffffff8a00 <end+0xfffffffffeff6a00>
     ec4:	0000                	unimp
     ec6:	0000                	unimp
     ec8:	4800                	lw	s0,16(s0)
     eca:	a002                	fsd	ft0,0(sp)
     ecc:	0000                	unimp
     ece:	0000                	unimp
     ed0:	0100                	addi	s0,sp,128
     ed2:	005c                	addi	a5,sp,4
     ed4:	a001d807          	0xa001d807
     ed8:	0000                	unimp
     eda:	0000                	unimp
     edc:	0400                	addi	s0,sp,512
     ede:	a002                	fsd	ft0,0(sp)
     ee0:	0000                	unimp
     ee2:	0000                	unimp
     ee4:	0100                	addi	s0,sp,128
     ee6:	075d                	addi	a4,a4,23
     ee8:	0204                	addi	s1,sp,256
     eea:	00a0                	addi	s0,sp,72
     eec:	0000                	unimp
     eee:	0000                	unimp
     ef0:	0240                	addi	s0,sp,260
     ef2:	00a0                	addi	s0,sp,72
     ef4:	0000                	unimp
     ef6:	0000                	unimp
     ef8:	a304                	fsd	fs1,0(a4)
     efa:	5d01                	li	s10,-32
     efc:	079f 0240 00a0      	0xa00240079f
     f02:	0000                	unimp
     f04:	0000                	unimp
     f06:	0258                	addi	a4,sp,260
     f08:	00a0                	addi	s0,sp,72
     f0a:	0000                	unimp
     f0c:	0000                	unimp
     f0e:	5d01                	li	s10,-32
     f10:	a0025807          	0xa0025807
     f14:	0000                	unimp
     f16:	0000                	unimp
     f18:	7000                	ld	s0,32(s0)
     f1a:	a002                	fsd	ft0,0(sp)
     f1c:	0000                	unimp
     f1e:	0000                	unimp
     f20:	0400                	addi	s0,sp,512
     f22:	9f5d01a3          	sb	s5,-1565(s10)
     f26:	0700                	addi	s0,sp,896
     f28:	01f4                	addi	a3,sp,204
     f2a:	00a0                	addi	s0,sp,72
     f2c:	0000                	unimp
     f2e:	0000                	unimp
     f30:	0218                	addi	a4,sp,256
     f32:	00a0                	addi	s0,sp,72
     f34:	0000                	unimp
     f36:	0000                	unimp
     f38:	3002                	fld	ft0,32(sp)
     f3a:	079f 0218 00a0      	0xa00218079f
     f40:	0000                	unimp
     f42:	0000                	unimp
     f44:	021c                	addi	a5,sp,256
     f46:	00a0                	addi	s0,sp,72
     f48:	0000                	unimp
     f4a:	0000                	unimp
     f4c:	7f06                	ld	t5,96(sp)
     f4e:	7a00                	ld	s0,48(a2)
     f50:	1c00                	addi	s0,sp,560
     f52:	079f 021c 00a0      	0xa0021c079f
     f58:	0000                	unimp
     f5a:	0000                	unimp
     f5c:	0220                	addi	s0,sp,264
     f5e:	00a0                	addi	s0,sp,72
     f60:	0000                	unimp
     f62:	0000                	unimp
     f64:	7f08                	ld	a0,56(a4)
     f66:	7a00                	ld	s0,48(a2)
     f68:	1c00                	addi	s0,sp,560
     f6a:	079f0123          	sb	s9,98(t5)
     f6e:	024c                	addi	a1,sp,260
     f70:	00a0                	addi	s0,sp,72
     f72:	0000                	unimp
     f74:	0000                	unimp
     f76:	0258                	addi	a4,sp,260
     f78:	00a0                	addi	s0,sp,72
     f7a:	0000                	unimp
     f7c:	0000                	unimp
     f7e:	3102                	fld	ft2,32(sp)
     f80:	079f 0258 00a0      	0xa00258079f
     f86:	0000                	unimp
     f88:	0000                	unimp
     f8a:	0260                	addi	s0,sp,268
     f8c:	00a0                	addi	s0,sp,72
     f8e:	0000                	unimp
     f90:	0000                	unimp
     f92:	5f01                	li	t5,-32
     f94:	a0026007          	0xa0026007
     f98:	0000                	unimp
     f9a:	0000                	unimp
     f9c:	6400                	ld	s0,8(s0)
     f9e:	a002                	fsd	ft0,0(sp)
     fa0:	0000                	unimp
     fa2:	0000                	unimp
     fa4:	0300                	addi	s0,sp,384
     fa6:	017f                	0x17f
     fa8:	009f 0007 a010      	0xa0100007009f
     fae:	0000                	unimp
     fb0:	0000                	unimp
     fb2:	2700                	fld	fs0,8(a4)
     fb4:	a010                	fsd	fa2,0(s0)
     fb6:	0000                	unimp
     fb8:	0000                	unimp
     fba:	0100                	addi	s0,sp,128
     fbc:	075a                	slli	a4,a4,0x16
     fbe:	00a01027          	0xa01027
     fc2:	0000                	unimp
     fc4:	0000                	unimp
     fc6:	1028                	addi	a0,sp,40
     fc8:	00a0                	addi	s0,sp,72
     fca:	0000                	unimp
     fcc:	0000                	unimp
     fce:	a304                	fsd	fs1,0(a4)
     fd0:	5a01                	li	s4,-32
     fd2:	009f 0007 a010      	0xa0100007009f
     fd8:	0000                	unimp
     fda:	0000                	unimp
     fdc:	2700                	fld	fs0,8(a4)
     fde:	a010                	fsd	fa2,0(s0)
     fe0:	0000                	unimp
     fe2:	0000                	unimp
     fe4:	0100                	addi	s0,sp,128
     fe6:	1027075b          	0x1027075b
     fea:	00a0                	addi	s0,sp,72
     fec:	0000                	unimp
     fee:	0000                	unimp
     ff0:	1028                	addi	a0,sp,40
     ff2:	00a0                	addi	s0,sp,72
     ff4:	0000                	unimp
     ff6:	0000                	unimp
     ff8:	a304                	fsd	fs1,0(a4)
     ffa:	5b01                	li	s6,-32
     ffc:	009f 0007 a010      	0xa0100007009f
    1002:	0000                	unimp
    1004:	0000                	unimp
    1006:	2700                	fld	fs0,8(a4)
    1008:	a010                	fsd	fa2,0(s0)
    100a:	0000                	unimp
    100c:	0000                	unimp
    100e:	0100                	addi	s0,sp,128
    1010:	075c                	addi	a5,sp,900
    1012:	00a01027          	0xa01027
    1016:	0000                	unimp
    1018:	0000                	unimp
    101a:	1028                	addi	a0,sp,40
    101c:	00a0                	addi	s0,sp,72
    101e:	0000                	unimp
    1020:	0000                	unimp
    1022:	a304                	fsd	fs1,0(a4)
    1024:	5c01                	li	s8,-32
    1026:	009f 0007 a010      	0xa0100007009f
    102c:	0000                	unimp
    102e:	0000                	unimp
    1030:	2000                	fld	fs0,0(s0)
    1032:	a010                	fsd	fa2,0(s0)
    1034:	0000                	unimp
    1036:	0000                	unimp
    1038:	0100                	addi	s0,sp,128
    103a:	075d                	addi	a4,a4,23
    103c:	1020                	addi	s0,sp,40
    103e:	00a0                	addi	s0,sp,72
    1040:	0000                	unimp
    1042:	0000                	unimp
    1044:	1028                	addi	a0,sp,40
    1046:	00a0                	addi	s0,sp,72
    1048:	0000                	unimp
    104a:	0000                	unimp
    104c:	a304                	fsd	fs1,0(a4)
    104e:	5d01                	li	s10,-32
    1050:	009f 8407 a00f      	0xa00f8407009f
    1056:	0000                	unimp
    1058:	0000                	unimp
    105a:	c000                	sw	s0,0(s0)
    105c:	0000a00f          	0xa00f
    1060:	0000                	unimp
    1062:	0100                	addi	s0,sp,128
    1064:	075a                	slli	a4,a4,0x16
    1066:	0fc0                	addi	s0,sp,980
    1068:	00a0                	addi	s0,sp,72
    106a:	0000                	unimp
    106c:	0000                	unimp
    106e:	00a00fc7          	fmsub.s	ft11,ft0,fa0,ft0,rne
    1072:	0000                	unimp
    1074:	0000                	unimp
    1076:	5b01                	li	s6,-32
    1078:	a00fc707          	flq	fa4,-1536(t6) # fffffffffffdfa00 <end+0xfffffffffefdda00>
    107c:	0000                	unimp
    107e:	0000                	unimp
    1080:	0000                	unimp
    1082:	a010                	fsd	fa2,0(s0)
    1084:	0000                	unimp
    1086:	0000                	unimp
    1088:	0400                	addi	s0,sp,512
    108a:	9f5a01a3          	sb	s5,-1565(s4)
    108e:	0700                	addi	s0,sp,896
    1090:	0f84                	addi	s1,sp,976
    1092:	00a0                	addi	s0,sp,72
    1094:	0000                	unimp
    1096:	0000                	unimp
    1098:	0fb8                	addi	a4,sp,984
    109a:	00a0                	addi	s0,sp,72
    109c:	0000                	unimp
    109e:	0000                	unimp
    10a0:	5b01                	li	s6,-32
    10a2:	a00fb807          	fld	fa6,-1536(t6)
    10a6:	0000                	unimp
    10a8:	0000                	unimp
    10aa:	0000                	unimp
    10ac:	a010                	fsd	fa2,0(s0)
    10ae:	0000                	unimp
    10b0:	0000                	unimp
    10b2:	0400                	addi	s0,sp,512
    10b4:	9f5b01a3          	sb	s5,-1565(s6)
    10b8:	0700                	addi	s0,sp,896
    10ba:	0f84                	addi	s1,sp,976
    10bc:	00a0                	addi	s0,sp,72
    10be:	0000                	unimp
    10c0:	0000                	unimp
    10c2:	0fb4                	addi	a3,sp,984
    10c4:	00a0                	addi	s0,sp,72
    10c6:	0000                	unimp
    10c8:	0000                	unimp
    10ca:	5c01                	li	s8,-32
    10cc:	a00fb407          	fld	fs0,-1536(t6)
    10d0:	0000                	unimp
    10d2:	0000                	unimp
    10d4:	0000                	unimp
    10d6:	a010                	fsd	fa2,0(s0)
    10d8:	0000                	unimp
    10da:	0000                	unimp
    10dc:	0100                	addi	s0,sp,128
    10de:	0059                	c.nop	22
    10e0:	a00fdc07          	0xa00fdc07
    10e4:	0000                	unimp
    10e6:	0000                	unimp
    10e8:	fc00                	sd	s0,56(s0)
    10ea:	0000a00f          	0xa00f
    10ee:	0000                	unimp
    10f0:	0200                	addi	s0,sp,256
    10f2:	9f3a                	add	t5,t5,a4
    10f4:	0700                	addi	s0,sp,896
    10f6:	0fdc                	addi	a5,sp,980
    10f8:	00a0                	addi	s0,sp,72
    10fa:	0000                	unimp
    10fc:	0000                	unimp
    10fe:	0ffc                	addi	a5,sp,988
    1100:	00a0                	addi	s0,sp,72
    1102:	0000                	unimp
    1104:	0000                	unimp
    1106:	3002                	fld	ft0,32(sp)
    1108:	009f dc07 a00f      	0xa00fdc07009f
    110e:	0000                	unimp
    1110:	0000                	unimp
    1112:	fc00                	sd	s0,56(s0)
    1114:	0000a00f          	0xa00f
    1118:	0000                	unimp
    111a:	0200                	addi	s0,sp,256
    111c:	9f34                	0x9f34
    111e:	0700                	addi	s0,sp,896
    1120:	0f04                	addi	s1,sp,912
    1122:	00a0                	addi	s0,sp,72
    1124:	0000                	unimp
    1126:	0000                	unimp
    1128:	00a00f3f 00000000 	0xa00f3f
    1130:	5a01                	li	s4,-32
    1132:	a00f3f07          	fld	ft10,-1536(t5)
    1136:	0000                	unimp
    1138:	0000                	unimp
    113a:	8400                	0x8400
    113c:	0000a00f          	0xa00f
    1140:	0000                	unimp
    1142:	0400                	addi	s0,sp,512
    1144:	9f5a01a3          	sb	s5,-1565(s4)
    1148:	0700                	addi	s0,sp,896
    114a:	0f4c                	addi	a1,sp,916
    114c:	00a0                	addi	s0,sp,72
    114e:	0000                	unimp
    1150:	0000                	unimp
    1152:	0f6c                	addi	a1,sp,924
    1154:	00a0                	addi	s0,sp,72
    1156:	0000                	unimp
    1158:	0000                	unimp
    115a:	5b01                	li	s6,-32
    115c:	0700                	addi	s0,sp,896
    115e:	0f4c                	addi	a1,sp,916
    1160:	00a0                	addi	s0,sp,72
    1162:	0000                	unimp
    1164:	0000                	unimp
    1166:	0f6c                	addi	a1,sp,924
    1168:	00a0                	addi	s0,sp,72
    116a:	0000                	unimp
    116c:	0000                	unimp
    116e:	3002                	fld	ft0,32(sp)
    1170:	009f 4c07 a00f      	0xa00f4c07009f
    1176:	0000                	unimp
    1178:	0000                	unimp
    117a:	6c00                	ld	s0,24(s0)
    117c:	0000a00f          	0xa00f
    1180:	0000                	unimp
    1182:	0200                	addi	s0,sp,256
    1184:	9f35                	addw	a4,a4,a3
    1186:	0700                	addi	s0,sp,896
    1188:	0544                	addi	s1,sp,644
    118a:	00a0                	addi	s0,sp,72
    118c:	0000                	unimp
    118e:	0000                	unimp
    1190:	05ac                	addi	a1,sp,712
    1192:	00a0                	addi	s0,sp,72
    1194:	0000                	unimp
    1196:	0000                	unimp
    1198:	5a01                	li	s4,-32
    119a:	a005ac07          	flw	fs8,-1536(a1)
    119e:	0000                	unimp
    11a0:	0000                	unimp
    11a2:	e000                	sd	s0,0(s0)
    11a4:	a00e                	fsd	ft3,0(sp)
    11a6:	0000                	unimp
    11a8:	0000                	unimp
    11aa:	0100                	addi	s0,sp,128
    11ac:	0762                	slli	a4,a4,0x18
    11ae:	0ee0                	addi	s0,sp,860
    11b0:	00a0                	addi	s0,sp,72
    11b2:	0000                	unimp
    11b4:	0000                	unimp
    11b6:	0f00                	addi	s0,sp,912
    11b8:	00a0                	addi	s0,sp,72
    11ba:	0000                	unimp
    11bc:	0000                	unimp
    11be:	a304                	fsd	fs1,0(a4)
    11c0:	5a01                	li	s4,-32
    11c2:	079f 0f00 00a0      	0xa00f00079f
    11c8:	0000                	unimp
    11ca:	0000                	unimp
    11cc:	0f04                	addi	s1,sp,912
    11ce:	00a0                	addi	s0,sp,72
    11d0:	0000                	unimp
    11d2:	0000                	unimp
    11d4:	5a01                	li	s4,-32
    11d6:	0700                	addi	s0,sp,896
    11d8:	0544                	addi	s1,sp,644
    11da:	00a0                	addi	s0,sp,72
    11dc:	0000                	unimp
    11de:	0000                	unimp
    11e0:	05ac                	addi	a1,sp,712
    11e2:	00a0                	addi	s0,sp,72
    11e4:	0000                	unimp
    11e6:	0000                	unimp
    11e8:	5b01                	li	s6,-32
    11ea:	a005ac07          	flw	fs8,-1536(a1)
    11ee:	0000                	unimp
    11f0:	0000                	unimp
    11f2:	ec00                	sd	s0,24(s0)
    11f4:	0000a007          	flw	ft0,0(ra)
    11f8:	0000                	unimp
    11fa:	0100                	addi	s0,sp,128
    11fc:	0765                	addi	a4,a4,25
    11fe:	07ec                	addi	a1,sp,972
    1200:	00a0                	addi	s0,sp,72
    1202:	0000                	unimp
    1204:	0000                	unimp
    1206:	0850                	addi	a2,sp,20
    1208:	00a0                	addi	s0,sp,72
    120a:	0000                	unimp
    120c:	0000                	unimp
    120e:	6801                	0x6801
    1210:	a0085007          	0xa0085007
    1214:	0000                	unimp
    1216:	0000                	unimp
    1218:	5c00                	lw	s0,56(s0)
    121a:	a008                	fsd	fa0,0(s0)
    121c:	0000                	unimp
    121e:	0000                	unimp
    1220:	0300                	addi	s0,sp,384
    1222:	0885                	addi	a7,a7,1
    1224:	079f 085c 00a0      	0xa0085c079f
    122a:	0000                	unimp
    122c:	0000                	unimp
    122e:	0894                	addi	a3,sp,80
    1230:	00a0                	addi	s0,sp,72
    1232:	0000                	unimp
    1234:	0000                	unimp
    1236:	6501                	0x6501
    1238:	a0089407          	0xa0089407
    123c:	0000                	unimp
    123e:	0000                	unimp
    1240:	a000                	fsd	fs0,0(s0)
    1242:	a008                	fsd	fa0,0(s0)
    1244:	0000                	unimp
    1246:	0000                	unimp
    1248:	0300                	addi	s0,sp,384
    124a:	0885                	addi	a7,a7,1
    124c:	079f 08a0 00a0      	0xa008a0079f
    1252:	0000                	unimp
    1254:	0000                	unimp
    1256:	0974                	addi	a3,sp,156
    1258:	00a0                	addi	s0,sp,72
    125a:	0000                	unimp
    125c:	0000                	unimp
    125e:	6501                	0x6501
    1260:	a0097407          	0xa0097407
    1264:	0000                	unimp
    1266:	0000                	unimp
    1268:	7c00                	ld	s0,56(s0)
    126a:	a009                	j	126c <_text-0x9fed94>
    126c:	0000                	unimp
    126e:	0000                	unimp
    1270:	0300                	addi	s0,sp,384
    1272:	0885                	addi	a7,a7,1
    1274:	079f 097c 00a0      	0xa0097c079f
    127a:	0000                	unimp
    127c:	0000                	unimp
    127e:	09b0                	addi	a2,sp,216
    1280:	00a0                	addi	s0,sp,72
    1282:	0000                	unimp
    1284:	0000                	unimp
    1286:	6501                	0x6501
    1288:	a009b007          	fld	ft0,-1536(s3)
    128c:	0000                	unimp
    128e:	0000                	unimp
    1290:	b800                	fsd	fs0,48(s0)
    1292:	a009                	j	1294 <_text-0x9fed6c>
    1294:	0000                	unimp
    1296:	0000                	unimp
    1298:	0300                	addi	s0,sp,384
    129a:	0885                	addi	a7,a7,1
    129c:	079f 09b8 00a0      	0xa009b8079f
    12a2:	0000                	unimp
    12a4:	0000                	unimp
    12a6:	0a80                	addi	s0,sp,336
    12a8:	00a0                	addi	s0,sp,72
    12aa:	0000                	unimp
    12ac:	0000                	unimp
    12ae:	6501                	0x6501
    12b0:	a00a8007          	0xa00a8007
    12b4:	0000                	unimp
    12b6:	0000                	unimp
    12b8:	8800                	0x8800
    12ba:	a00a                	fsd	ft2,0(sp)
    12bc:	0000                	unimp
    12be:	0000                	unimp
    12c0:	0300                	addi	s0,sp,384
    12c2:	0885                	addi	a7,a7,1
    12c4:	079f 0a88 00a0      	0xa00a88079f
    12ca:	0000                	unimp
    12cc:	0000                	unimp
    12ce:	0abc                	addi	a5,sp,344
    12d0:	00a0                	addi	s0,sp,72
    12d2:	0000                	unimp
    12d4:	0000                	unimp
    12d6:	6501                	0x6501
    12d8:	a00abc07          	fld	fs8,-1536(s5)
    12dc:	0000                	unimp
    12de:	0000                	unimp
    12e0:	c400                	sw	s0,8(s0)
    12e2:	a00a                	fsd	ft2,0(sp)
    12e4:	0000                	unimp
    12e6:	0000                	unimp
    12e8:	0300                	addi	s0,sp,384
    12ea:	0885                	addi	a7,a7,1
    12ec:	079f 0ac4 00a0      	0xa00ac4079f
    12f2:	0000                	unimp
    12f4:	0000                	unimp
    12f6:	0b8c                	addi	a1,sp,464
    12f8:	00a0                	addi	s0,sp,72
    12fa:	0000                	unimp
    12fc:	0000                	unimp
    12fe:	6501                	0x6501
    1300:	a00b8c07          	0xa00b8c07
    1304:	0000                	unimp
    1306:	0000                	unimp
    1308:	9400                	0x9400
    130a:	0000a00b          	0xa00b
    130e:	0000                	unimp
    1310:	0300                	addi	s0,sp,384
    1312:	0885                	addi	a7,a7,1
    1314:	079f 0b94 00a0      	0xa00b94079f
    131a:	0000                	unimp
    131c:	0000                	unimp
    131e:	0bc8                	addi	a0,sp,468
    1320:	00a0                	addi	s0,sp,72
    1322:	0000                	unimp
    1324:	0000                	unimp
    1326:	6501                	0x6501
    1328:	a00bc807          	flq	fa6,-1536(s7)
    132c:	0000                	unimp
    132e:	0000                	unimp
    1330:	d000                	sw	s0,32(s0)
    1332:	0000a00b          	0xa00b
    1336:	0000                	unimp
    1338:	0300                	addi	s0,sp,384
    133a:	0885                	addi	a7,a7,1
    133c:	079f 0bd0 00a0      	0xa00bd0079f
    1342:	0000                	unimp
    1344:	0000                	unimp
    1346:	0c98                	addi	a4,sp,592
    1348:	00a0                	addi	s0,sp,72
    134a:	0000                	unimp
    134c:	0000                	unimp
    134e:	6501                	0x6501
    1350:	a00c9807          	0xa00c9807
    1354:	0000                	unimp
    1356:	0000                	unimp
    1358:	a000                	fsd	fs0,0(s0)
    135a:	a00c                	fsd	fa1,0(s0)
    135c:	0000                	unimp
    135e:	0000                	unimp
    1360:	0300                	addi	s0,sp,384
    1362:	0885                	addi	a7,a7,1
    1364:	079f 0ca0 00a0      	0xa00ca0079f
    136a:	0000                	unimp
    136c:	0000                	unimp
    136e:	0cd4                	addi	a3,sp,596
    1370:	00a0                	addi	s0,sp,72
    1372:	0000                	unimp
    1374:	0000                	unimp
    1376:	6501                	0x6501
    1378:	a00cd407          	0xa00cd407
    137c:	0000                	unimp
    137e:	0000                	unimp
    1380:	dc00                	sw	s0,56(s0)
    1382:	a00c                	fsd	fa1,0(s0)
    1384:	0000                	unimp
    1386:	0000                	unimp
    1388:	0300                	addi	s0,sp,384
    138a:	0885                	addi	a7,a7,1
    138c:	079f 0cdc 00a0      	0xa00cdc079f
    1392:	0000                	unimp
    1394:	0000                	unimp
    1396:	0d9c                	addi	a5,sp,720
    1398:	00a0                	addi	s0,sp,72
    139a:	0000                	unimp
    139c:	0000                	unimp
    139e:	6501                	0x6501
    13a0:	a00d9c07          	0xa00d9c07
    13a4:	0000                	unimp
    13a6:	0000                	unimp
    13a8:	9400                	0x9400
    13aa:	a00e                	fsd	ft3,0(sp)
    13ac:	0000                	unimp
    13ae:	0000                	unimp
    13b0:	0100                	addi	s0,sp,128
    13b2:	0768                	addi	a0,sp,908
    13b4:	0e94                	addi	a3,sp,848
    13b6:	00a0                	addi	s0,sp,72
    13b8:	0000                	unimp
    13ba:	0000                	unimp
    13bc:	0ec8                	addi	a0,sp,852
    13be:	00a0                	addi	s0,sp,72
    13c0:	0000                	unimp
    13c2:	0000                	unimp
    13c4:	6501                	0x6501
    13c6:	a00ec807          	flq	fa6,-1536(t4)
    13ca:	0000                	unimp
    13cc:	0000                	unimp
    13ce:	d000                	sw	s0,32(s0)
    13d0:	a00e                	fsd	ft3,0(sp)
    13d2:	0000                	unimp
    13d4:	0000                	unimp
    13d6:	0100                	addi	s0,sp,128
    13d8:	0768                	addi	a0,sp,908
    13da:	0ed0                	addi	a2,sp,852
    13dc:	00a0                	addi	s0,sp,72
    13de:	0000                	unimp
    13e0:	0000                	unimp
    13e2:	0eec                	addi	a1,sp,860
    13e4:	00a0                	addi	s0,sp,72
    13e6:	0000                	unimp
    13e8:	0000                	unimp
    13ea:	6501                	0x6501
    13ec:	a00f0007          	0xa00f0007
    13f0:	0000                	unimp
    13f2:	0000                	unimp
    13f4:	0400                	addi	s0,sp,512
    13f6:	0000a00f          	0xa00f
    13fa:	0000                	unimp
    13fc:	0100                	addi	s0,sp,128
    13fe:	4407005b          	0x4407005b
    1402:	a005                	j	1422 <_text-0x9febde>
    1404:	0000                	unimp
    1406:	0000                	unimp
    1408:	ac00                	fsd	fs0,24(s0)
    140a:	a005                	j	142a <_text-0x9febd6>
    140c:	0000                	unimp
    140e:	0000                	unimp
    1410:	0200                	addi	s0,sp,256
    1412:	9f30                	0x9f30
    1414:	a005ac07          	flw	fs8,-1536(a1)
    1418:	0000                	unimp
    141a:	0000                	unimp
    141c:	d000                	sw	s0,32(s0)
    141e:	a005                	j	143e <_text-0x9febc2>
    1420:	0000                	unimp
    1422:	0000                	unimp
    1424:	0100                	addi	s0,sp,128
    1426:	05dc0767          	jalr	a4,93(s8)
    142a:	00a0                	addi	s0,sp,72
    142c:	0000                	unimp
    142e:	0000                	unimp
    1430:	0670                	addi	a2,sp,780
    1432:	00a0                	addi	s0,sp,72
    1434:	0000                	unimp
    1436:	0000                	unimp
    1438:	6701                	0x6701
    143a:	a0067007          	0xa0067007
    143e:	0000                	unimp
    1440:	0000                	unimp
    1442:	8400                	0x8400
    1444:	a006                	fsd	ft1,0(sp)
    1446:	0000                	unimp
    1448:	0000                	unimp
    144a:	0300                	addi	s0,sp,384
    144c:	079f0187          	0x79f0187
    1450:	0684                	addi	s1,sp,832
    1452:	00a0                	addi	s0,sp,72
    1454:	0000                	unimp
    1456:	0000                	unimp
    1458:	06a8                	addi	a0,sp,840
    145a:	00a0                	addi	s0,sp,72
    145c:	0000                	unimp
    145e:	0000                	unimp
    1460:	5601                	li	a2,-32
    1462:	a006a807          	flw	fa6,-1536(a3)
    1466:	0000                	unimp
    1468:	0000                	unimp
    146a:	c000                	sw	s0,0(s0)
    146c:	a006                	fsd	ft1,0(sp)
    146e:	0000                	unimp
    1470:	0000                	unimp
    1472:	0300                	addi	s0,sp,384
    1474:	079f7f7b          	0x79f7f7b
    1478:	06c0                	addi	s0,sp,836
    147a:	00a0                	addi	s0,sp,72
    147c:	0000                	unimp
    147e:	0000                	unimp
    1480:	071c                	addi	a5,sp,896
    1482:	00a0                	addi	s0,sp,72
    1484:	0000                	unimp
    1486:	0000                	unimp
    1488:	5601                	li	a2,-32
    148a:	a0071c07          	0xa0071c07
    148e:	0000                	unimp
    1490:	0000                	unimp
    1492:	2000                	fld	fs0,0(s0)
    1494:	0000a007          	flw	ft0,0(ra)
    1498:	0000                	unimp
    149a:	0300                	addi	s0,sp,384
    149c:	079f0187          	0x79f0187
    14a0:	0720                	addi	s0,sp,904
    14a2:	00a0                	addi	s0,sp,72
    14a4:	0000                	unimp
    14a6:	0000                	unimp
    14a8:	0730                	addi	a2,sp,904
    14aa:	00a0                	addi	s0,sp,72
    14ac:	0000                	unimp
    14ae:	0000                	unimp
    14b0:	9f028703          	lb	a4,-1552(t0)
    14b4:	a0073007          	fld	ft0,-1536(a4) # 19a00 <_text-0x9e6600>
    14b8:	0000                	unimp
    14ba:	0000                	unimp
    14bc:	3400                	fld	fs0,40(s0)
    14be:	0000a007          	flw	ft0,0(ra)
    14c2:	0000                	unimp
    14c4:	0100                	addi	s0,sp,128
    14c6:	0756                	slli	a4,a4,0x15
    14c8:	0744                	addi	s1,sp,900
    14ca:	00a0                	addi	s0,sp,72
    14cc:	0000                	unimp
    14ce:	0000                	unimp
    14d0:	0750                	addi	a2,sp,900
    14d2:	00a0                	addi	s0,sp,72
    14d4:	0000                	unimp
    14d6:	0000                	unimp
    14d8:	5601                	li	a2,-32
    14da:	a0075007          	0xa0075007
    14de:	0000                	unimp
    14e0:	0000                	unimp
    14e2:	7000                	ld	s0,32(s0)
    14e4:	0000a007          	flw	ft0,0(ra)
    14e8:	0000                	unimp
    14ea:	0300                	addi	s0,sp,384
    14ec:	0176                	slli	sp,sp,0x1d
    14ee:	079f 0774 00a0      	0xa00774079f
    14f4:	0000                	unimp
    14f6:	0000                	unimp
    14f8:	0778                	addi	a4,sp,908
    14fa:	00a0                	addi	s0,sp,72
    14fc:	0000                	unimp
    14fe:	0000                	unimp
    1500:	9f7f7c03          	0x9f7f7c03
    1504:	a0077807          	0xa0077807
    1508:	0000                	unimp
    150a:	0000                	unimp
    150c:	9800                	0x9800
    150e:	0000a007          	flw	ft0,0(ra)
    1512:	0000                	unimp
    1514:	0100                	addi	s0,sp,128
    1516:	0756                	slli	a4,a4,0x15
    1518:	07e4                	addi	s1,sp,972
    151a:	00a0                	addi	s0,sp,72
    151c:	0000                	unimp
    151e:	0000                	unimp
    1520:	07e8                	addi	a0,sp,972
    1522:	00a0                	addi	s0,sp,72
    1524:	0000                	unimp
    1526:	0000                	unimp
    1528:	5601                	li	a2,-32
    152a:	a0089407          	0xa0089407
    152e:	0000                	unimp
    1530:	0000                	unimp
    1532:	a400                	fsd	fs0,8(s0)
    1534:	a008                	fsd	fa0,0(s0)
    1536:	0000                	unimp
    1538:	0000                	unimp
    153a:	0100                	addi	s0,sp,128
    153c:	0756                	slli	a4,a4,0x15
    153e:	0968                	addi	a0,sp,156
    1540:	00a0                	addi	s0,sp,72
    1542:	0000                	unimp
    1544:	0000                	unimp
    1546:	0970                	addi	a2,sp,156
    1548:	00a0                	addi	s0,sp,72
    154a:	0000                	unimp
    154c:	0000                	unimp
    154e:	5601                	li	a2,-32
    1550:	a00a7407          	0xa00a7407
    1554:	0000                	unimp
    1556:	0000                	unimp
    1558:	7c00                	ld	s0,56(s0)
    155a:	a00a                	fsd	ft2,0(sp)
    155c:	0000                	unimp
    155e:	0000                	unimp
    1560:	0100                	addi	s0,sp,128
    1562:	0756                	slli	a4,a4,0x15
    1564:	0b80                	addi	s0,sp,464
    1566:	00a0                	addi	s0,sp,72
    1568:	0000                	unimp
    156a:	0000                	unimp
    156c:	0b88                	addi	a0,sp,464
    156e:	00a0                	addi	s0,sp,72
    1570:	0000                	unimp
    1572:	0000                	unimp
    1574:	5601                	li	a2,-32
    1576:	a00c8c07          	0xa00c8c07
    157a:	0000                	unimp
    157c:	0000                	unimp
    157e:	9400                	0x9400
    1580:	a00c                	fsd	fa1,0(s0)
    1582:	0000                	unimp
    1584:	0000                	unimp
    1586:	0100                	addi	s0,sp,128
    1588:	0756                	slli	a4,a4,0x15
    158a:	0d94                	addi	a3,sp,720
    158c:	00a0                	addi	s0,sp,72
    158e:	0000                	unimp
    1590:	0000                	unimp
    1592:	0d98                	addi	a4,sp,720
    1594:	00a0                	addi	s0,sp,72
    1596:	0000                	unimp
    1598:	0000                	unimp
    159a:	5601                	li	a2,-32
    159c:	a00e9807          	0xa00e9807
    15a0:	0000                	unimp
    15a2:	0000                	unimp
    15a4:	9c00                	0x9c00
    15a6:	a00e                	fsd	ft3,0(sp)
    15a8:	0000                	unimp
    15aa:	0000                	unimp
    15ac:	0300                	addi	s0,sp,384
    15ae:	7f76                	ld	t5,376(sp)
    15b0:	079f 0f00 00a0      	0xa00f00079f
    15b6:	0000                	unimp
    15b8:	0000                	unimp
    15ba:	0f04                	addi	s1,sp,912
    15bc:	00a0                	addi	s0,sp,72
    15be:	0000                	unimp
    15c0:	0000                	unimp
    15c2:	3002                	fld	ft0,32(sp)
    15c4:	009f 7807 a006      	0xa0067807009f
    15ca:	0000                	unimp
    15cc:	0000                	unimp
    15ce:	8000                	0x8000
    15d0:	a006                	fsd	ft1,0(sp)
    15d2:	0000                	unimp
    15d4:	0000                	unimp
    15d6:	0800                	addi	s0,sp,16
    15d8:	007f                	0x7f
    15da:	0194                	addi	a3,sp,192
    15dc:	ff08                	sd	a0,56(a4)
    15de:	9f1a                	add	t5,t5,t1
    15e0:	a0068007          	0xa0068007
    15e4:	0000                	unimp
    15e6:	0000                	unimp
    15e8:	8400                	0x8400
    15ea:	a006                	fsd	ft1,0(sp)
    15ec:	0000                	unimp
    15ee:	0000                	unimp
    15f0:	0b00                	addi	s0,sp,400
    15f2:	0082                	c.slli64	ra
    15f4:	0076                	c.slli	zero,0x1d
    15f6:	9422                	add	s0,s0,s0
    15f8:	0801                	addi	a6,a6,0
    15fa:	1aff                	0x1aff
    15fc:	079f 0684 00a0      	0xa00684079f
    1602:	0000                	unimp
    1604:	0000                	unimp
    1606:	071c                	addi	a5,sp,896
    1608:	00a0                	addi	s0,sp,72
    160a:	0000                	unimp
    160c:	0000                	unimp
    160e:	5a01                	li	s4,-32
    1610:	a0071c07          	0xa0071c07
    1614:	0000                	unimp
    1616:	0000                	unimp
    1618:	2000                	fld	fs0,0(s0)
    161a:	0000a007          	flw	ft0,0(ra)
    161e:	0000                	unimp
    1620:	0b00                	addi	s0,sp,400
    1622:	0082                	c.slli64	ra
    1624:	0076                	c.slli	zero,0x1d
    1626:	9422                	add	s0,s0,s0
    1628:	0801                	addi	a6,a6,0
    162a:	1aff                	0x1aff
    162c:	079f 0720 00a0      	0xa00720079f
    1632:	0000                	unimp
    1634:	0000                	unimp
    1636:	0728                	addi	a0,sp,904
    1638:	00a0                	addi	s0,sp,72
    163a:	0000                	unimp
    163c:	0000                	unimp
    163e:	8711                	srai	a4,a4,0x4
    1640:	0801                	addi	a6,a6,0
    1642:	2420                	fld	fs0,72(s0)
    1644:	2008                	fld	fa0,0(s0)
    1646:	8226                	mv	tp,s1
    1648:	2200                	fld	fs0,0(a2)
    164a:	0194                	addi	a3,sp,192
    164c:	ff08                	sd	a0,56(a4)
    164e:	9f1a                	add	t5,t5,t1
    1650:	a0072807          	flw	fa6,-1536(a4)
    1654:	0000                	unimp
    1656:	0000                	unimp
    1658:	2c00                	fld	fs0,24(s0)
    165a:	0000a007          	flw	ft0,0(ra)
    165e:	0000                	unimp
    1660:	0800                	addi	s0,sp,16
    1662:	007f                	0x7f
    1664:	0194                	addi	a3,sp,192
    1666:	ff08                	sd	a0,56(a4)
    1668:	9f1a                	add	t5,t5,t1
    166a:	a0072c07          	flw	fs8,-1536(a4)
    166e:	0000                	unimp
    1670:	0000                	unimp
    1672:	3000                	fld	fs0,32(s0)
    1674:	0000a007          	flw	ft0,0(ra)
    1678:	0000                	unimp
    167a:	0b00                	addi	s0,sp,400
    167c:	0082                	c.slli64	ra
    167e:	0076                	c.slli	zero,0x1d
    1680:	9422                	add	s0,s0,s0
    1682:	0801                	addi	a6,a6,0
    1684:	1aff                	0x1aff
    1686:	079f 0730 00a0      	0xa00730079f
    168c:	0000                	unimp
    168e:	0000                	unimp
    1690:	073c                	addi	a5,sp,904
    1692:	00a0                	addi	s0,sp,72
    1694:	0000                	unimp
    1696:	0000                	unimp
    1698:	5a01                	li	s4,-32
    169a:	a0073c07          	fld	fs8,-1536(a4)
    169e:	0000                	unimp
    16a0:	0000                	unimp
    16a2:	4400                	lw	s0,8(s0)
    16a4:	0000a007          	flw	ft0,0(ra)
    16a8:	0000                	unimp
    16aa:	0800                	addi	s0,sp,16
    16ac:	007e                	c.slli	zero,0x1f
    16ae:	0194                	addi	a3,sp,192
    16b0:	ff08                	sd	a0,56(a4)
    16b2:	9f1a                	add	t5,t5,t1
    16b4:	a0074407          	flq	fs0,-1536(a4)
    16b8:	0000                	unimp
    16ba:	0000                	unimp
    16bc:	5800                	lw	s0,48(s0)
    16be:	0000a007          	flw	ft0,0(ra)
    16c2:	0000                	unimp
    16c4:	0100                	addi	s0,sp,128
    16c6:	075a                	slli	a4,a4,0x16
    16c8:	0758                	addi	a4,sp,900
    16ca:	00a0                	addi	s0,sp,72
    16cc:	0000                	unimp
    16ce:	0000                	unimp
    16d0:	076c                	addi	a1,sp,908
    16d2:	00a0                	addi	s0,sp,72
    16d4:	0000                	unimp
    16d6:	0000                	unimp
    16d8:	7a06                	ld	s4,96(sp)
    16da:	0800                	addi	s0,sp,16
    16dc:	1aff                	0x1aff
    16de:	079f 076c 00a0      	0xa0076c079f
    16e4:	0000                	unimp
    16e6:	0000                	unimp
    16e8:	0774                	addi	a3,sp,908
    16ea:	00a0                	addi	s0,sp,72
    16ec:	0000                	unimp
    16ee:	0000                	unimp
    16f0:	7d00820b          	0x7d00820b
    16f4:	2200                	fld	fs0,0(a2)
    16f6:	0194                	addi	a3,sp,192
    16f8:	ff08                	sd	a0,56(a4)
    16fa:	9f1a                	add	t5,t5,t1
    16fc:	a0078007          	0xa0078007
    1700:	0000                	unimp
    1702:	0000                	unimp
    1704:	9000                	0x9000
    1706:	0000a007          	flw	ft0,0(ra)
    170a:	0000                	unimp
    170c:	0600                	addi	s0,sp,768
    170e:	007a                	c.slli	zero,0x1e
    1710:	ff08                	sd	a0,56(a4)
    1712:	9f1a                	add	t5,t5,t1
    1714:	a0079007          	0xa0079007
    1718:	0000                	unimp
    171a:	0000                	unimp
    171c:	9400                	0x9400
    171e:	0000a007          	flw	ft0,0(ra)
    1722:	0000                	unimp
    1724:	0d00                	addi	s0,sp,656
    1726:	0082                	c.slli64	ra
    1728:	007c                	addi	a5,sp,12
    172a:	3122                	fld	ft2,40(sp)
    172c:	941c                	0x941c
    172e:	0801                	addi	a6,a6,0
    1730:	1aff                	0x1aff
    1732:	079f 0794 00a0      	0xa00794079f
    1738:	0000                	unimp
    173a:	0000                	unimp
    173c:	07a0                	addi	s0,sp,968
    173e:	00a0                	addi	s0,sp,72
    1740:	0000                	unimp
    1742:	0000                	unimp
    1744:	5a01                	li	s4,-32
    1746:	a007a007          	flw	ft0,-1536(a5) # ffffffffffffff48 <end+0xfffffffffeffdf48>
    174a:	0000                	unimp
    174c:	0000                	unimp
    174e:	e400                	sd	s0,8(s0)
    1750:	0000a007          	flw	ft0,0(ra)
    1754:	0000                	unimp
    1756:	0600                	addi	s0,sp,768
    1758:	007a                	c.slli	zero,0x1e
    175a:	ff08                	sd	a0,56(a4)
    175c:	9f1a                	add	t5,t5,t1
    175e:	a007e407          	0xa007e407
    1762:	0000                	unimp
    1764:	0000                	unimp
    1766:	e800                	sd	s0,16(s0)
    1768:	0000a007          	flw	ft0,0(ra)
    176c:	0000                	unimp
    176e:	0100                	addi	s0,sp,128
    1770:	075a                	slli	a4,a4,0x16
    1772:	0850                	addi	a2,sp,20
    1774:	00a0                	addi	s0,sp,72
    1776:	0000                	unimp
    1778:	0000                	unimp
    177a:	085c                	addi	a5,sp,20
    177c:	00a0                	addi	s0,sp,72
    177e:	0000                	unimp
    1780:	0000                	unimp
    1782:	7a06                	ld	s4,96(sp)
    1784:	0800                	addi	s0,sp,16
    1786:	1aff                	0x1aff
    1788:	079f 0894 00a0      	0xa00894079f
    178e:	0000                	unimp
    1790:	0000                	unimp
    1792:	08a4                	addi	s1,sp,88
    1794:	00a0                	addi	s0,sp,72
    1796:	0000                	unimp
    1798:	0000                	unimp
    179a:	5a01                	li	s4,-32
    179c:	a0095c07          	0xa0095c07
    17a0:	0000                	unimp
    17a2:	0000                	unimp
    17a4:	6800                	ld	s0,16(s0)
    17a6:	a009                	j	17a8 <_text-0x9fe858>
    17a8:	0000                	unimp
    17aa:	0000                	unimp
    17ac:	0600                	addi	s0,sp,768
    17ae:	007a                	c.slli	zero,0x1e
    17b0:	ff08                	sd	a0,56(a4)
    17b2:	9f1a                	add	t5,t5,t1
    17b4:	a0096807          	0xa0096807
    17b8:	0000                	unimp
    17ba:	0000                	unimp
    17bc:	7000                	ld	s0,32(s0)
    17be:	a009                	j	17c0 <_text-0x9fe840>
    17c0:	0000                	unimp
    17c2:	0000                	unimp
    17c4:	0100                	addi	s0,sp,128
    17c6:	075a                	slli	a4,a4,0x16
    17c8:	0a68                	addi	a0,sp,284
    17ca:	00a0                	addi	s0,sp,72
    17cc:	0000                	unimp
    17ce:	0000                	unimp
    17d0:	0a74                	addi	a3,sp,284
    17d2:	00a0                	addi	s0,sp,72
    17d4:	0000                	unimp
    17d6:	0000                	unimp
    17d8:	7a06                	ld	s4,96(sp)
    17da:	0800                	addi	s0,sp,16
    17dc:	1aff                	0x1aff
    17de:	079f 0a74 00a0      	0xa00a74079f
    17e4:	0000                	unimp
    17e6:	0000                	unimp
    17e8:	0a7c                	addi	a5,sp,284
    17ea:	00a0                	addi	s0,sp,72
    17ec:	0000                	unimp
    17ee:	0000                	unimp
    17f0:	5a01                	li	s4,-32
    17f2:	a00b7407          	0xa00b7407
    17f6:	0000                	unimp
    17f8:	0000                	unimp
    17fa:	8000                	0x8000
    17fc:	0000a00b          	0xa00b
    1800:	0000                	unimp
    1802:	0600                	addi	s0,sp,768
    1804:	007a                	c.slli	zero,0x1e
    1806:	ff08                	sd	a0,56(a4)
    1808:	9f1a                	add	t5,t5,t1
    180a:	a00b8007          	0xa00b8007
    180e:	0000                	unimp
    1810:	0000                	unimp
    1812:	8800                	0x8800
    1814:	0000a00b          	0xa00b
    1818:	0000                	unimp
    181a:	0100                	addi	s0,sp,128
    181c:	075a                	slli	a4,a4,0x16
    181e:	0c80                	addi	s0,sp,592
    1820:	00a0                	addi	s0,sp,72
    1822:	0000                	unimp
    1824:	0000                	unimp
    1826:	0c8c                	addi	a1,sp,592
    1828:	00a0                	addi	s0,sp,72
    182a:	0000                	unimp
    182c:	0000                	unimp
    182e:	7a06                	ld	s4,96(sp)
    1830:	0800                	addi	s0,sp,16
    1832:	1aff                	0x1aff
    1834:	079f 0c8c 00a0      	0xa00c8c079f
    183a:	0000                	unimp
    183c:	0000                	unimp
    183e:	0c94                	addi	a3,sp,592
    1840:	00a0                	addi	s0,sp,72
    1842:	0000                	unimp
    1844:	0000                	unimp
    1846:	5a01                	li	s4,-32
    1848:	a00d8c07          	0xa00d8c07
    184c:	0000                	unimp
    184e:	0000                	unimp
    1850:	9400                	0x9400
    1852:	a00d                	j	1874 <_text-0x9fe78c>
    1854:	0000                	unimp
    1856:	0000                	unimp
    1858:	0600                	addi	s0,sp,768
    185a:	007a                	c.slli	zero,0x1e
    185c:	ff08                	sd	a0,56(a4)
    185e:	9f1a                	add	t5,t5,t1
    1860:	a00d9407          	0xa00d9407
    1864:	0000                	unimp
    1866:	0000                	unimp
    1868:	9800                	0x9800
    186a:	a00d                	j	188c <_text-0x9fe774>
    186c:	0000                	unimp
    186e:	0000                	unimp
    1870:	0100                	addi	s0,sp,128
    1872:	075a                	slli	a4,a4,0x16
    1874:	0e9c                	addi	a5,sp,848
    1876:	00a0                	addi	s0,sp,72
    1878:	0000                	unimp
    187a:	0000                	unimp
    187c:	0ea0                	addi	s0,sp,856
    187e:	00a0                	addi	s0,sp,72
    1880:	0000                	unimp
    1882:	0000                	unimp
    1884:	7a06                	ld	s4,96(sp)
    1886:	0800                	addi	s0,sp,16
    1888:	1aff                	0x1aff
    188a:	009f a407 a00d      	0xa00da407009f
    1890:	0000                	unimp
    1892:	0000                	unimp
    1894:	b700                	fsd	fs0,40(a4)
    1896:	a00d                	j	18b8 <_text-0x9fe748>
    1898:	0000                	unimp
    189a:	0000                	unimp
    189c:	0100                	addi	s0,sp,128
    189e:	5c07005b          	0x5c07005b
    18a2:	a008                	fsd	fa0,0(s0)
    18a4:	0000                	unimp
    18a6:	0000                	unimp
    18a8:	7700                	ld	s0,40(a4)
    18aa:	a008                	fsd	fa0,0(s0)
    18ac:	0000                	unimp
    18ae:	0000                	unimp
    18b0:	0100                	addi	s0,sp,128
    18b2:	0898075b          	0x898075b
    18b6:	00a0                	addi	s0,sp,72
    18b8:	0000                	unimp
    18ba:	0000                	unimp
    18bc:	08b0                	addi	a2,sp,88
    18be:	00a0                	addi	s0,sp,72
    18c0:	0000                	unimp
    18c2:	0000                	unimp
    18c4:	5b01                	li	s6,-32
    18c6:	a0097c07          	0xa0097c07
    18ca:	0000                	unimp
    18cc:	0000                	unimp
    18ce:	9300                	0x9300
    18d0:	a009                	j	18d2 <_text-0x9fe72e>
    18d2:	0000                	unimp
    18d4:	0000                	unimp
    18d6:	0100                	addi	s0,sp,128
    18d8:	09b4075b          	0x9b4075b
    18dc:	00a0                	addi	s0,sp,72
    18de:	0000                	unimp
    18e0:	0000                	unimp
    18e2:	09bc                	addi	a5,sp,216
    18e4:	00a0                	addi	s0,sp,72
    18e6:	0000                	unimp
    18e8:	0000                	unimp
    18ea:	5b01                	li	s6,-32
    18ec:	a00a8807          	0xa00a8807
    18f0:	0000                	unimp
    18f2:	0000                	unimp
    18f4:	9f00                	0x9f00
    18f6:	a00a                	fsd	ft2,0(sp)
    18f8:	0000                	unimp
    18fa:	0000                	unimp
    18fc:	0100                	addi	s0,sp,128
    18fe:	0ac0075b          	0xac0075b
    1902:	00a0                	addi	s0,sp,72
    1904:	0000                	unimp
    1906:	0000                	unimp
    1908:	0ac8                	addi	a0,sp,340
    190a:	00a0                	addi	s0,sp,72
    190c:	0000                	unimp
    190e:	0000                	unimp
    1910:	5b01                	li	s6,-32
    1912:	a00b9407          	0xa00b9407
    1916:	0000                	unimp
    1918:	0000                	unimp
    191a:	ab00                	fsd	fs0,16(a4)
    191c:	0000a00b          	0xa00b
    1920:	0000                	unimp
    1922:	0100                	addi	s0,sp,128
    1924:	0bcc075b          	0xbcc075b
    1928:	00a0                	addi	s0,sp,72
    192a:	0000                	unimp
    192c:	0000                	unimp
    192e:	0bd4                	addi	a3,sp,468
    1930:	00a0                	addi	s0,sp,72
    1932:	0000                	unimp
    1934:	0000                	unimp
    1936:	5b01                	li	s6,-32
    1938:	a00ca007          	flw	ft0,-1536(s9)
    193c:	0000                	unimp
    193e:	0000                	unimp
    1940:	b700                	fsd	fs0,40(a4)
    1942:	a00c                	fsd	fa1,0(s0)
    1944:	0000                	unimp
    1946:	0000                	unimp
    1948:	0100                	addi	s0,sp,128
    194a:	0cd8075b          	0xcd8075b
    194e:	00a0                	addi	s0,sp,72
    1950:	0000                	unimp
    1952:	0000                	unimp
    1954:	0ce0                	addi	s0,sp,604
    1956:	00a0                	addi	s0,sp,72
    1958:	0000                	unimp
    195a:	0000                	unimp
    195c:	5b01                	li	s6,-32
    195e:	0700                	addi	s0,sp,896
    1960:	06e8                	addi	a0,sp,844
    1962:	00a0                	addi	s0,sp,72
    1964:	0000                	unimp
    1966:	0000                	unimp
    1968:	071c                	addi	a5,sp,896
    196a:	00a0                	addi	s0,sp,72
    196c:	0000                	unimp
    196e:	0000                	unimp
    1970:	3002                	fld	ft0,32(sp)
    1972:	079f 0794 00a0      	0xa00794079f
    1978:	0000                	unimp
    197a:	0000                	unimp
    197c:	07e4                	addi	s1,sp,972
    197e:	00a0                	addi	s0,sp,72
    1980:	0000                	unimp
    1982:	0000                	unimp
    1984:	3102                	fld	ft2,32(sp)
    1986:	079f 07e4 00a0      	0xa007e4079f
    198c:	0000                	unimp
    198e:	0000                	unimp
    1990:	07e8                	addi	a0,sp,972
    1992:	00a0                	addi	s0,sp,72
    1994:	0000                	unimp
    1996:	0000                	unimp
    1998:	3002                	fld	ft0,32(sp)
    199a:	079f 0850 00a0      	0xa00850079f
    19a0:	0000                	unimp
    19a2:	0000                	unimp
    19a4:	085c                	addi	a5,sp,20
    19a6:	00a0                	addi	s0,sp,72
    19a8:	0000                	unimp
    19aa:	0000                	unimp
    19ac:	3102                	fld	ft2,32(sp)
    19ae:	079f 0894 00a0      	0xa00894079f
    19b4:	0000                	unimp
    19b6:	0000                	unimp
    19b8:	08a4                	addi	s1,sp,88
    19ba:	00a0                	addi	s0,sp,72
    19bc:	0000                	unimp
    19be:	0000                	unimp
    19c0:	3002                	fld	ft0,32(sp)
    19c2:	079f 095c 00a0      	0xa0095c079f
    19c8:	0000                	unimp
    19ca:	0000                	unimp
    19cc:	0968                	addi	a0,sp,156
    19ce:	00a0                	addi	s0,sp,72
    19d0:	0000                	unimp
    19d2:	0000                	unimp
    19d4:	3102                	fld	ft2,32(sp)
    19d6:	079f 0968 00a0      	0xa00968079f
    19dc:	0000                	unimp
    19de:	0000                	unimp
    19e0:	0970                	addi	a2,sp,156
    19e2:	00a0                	addi	s0,sp,72
    19e4:	0000                	unimp
    19e6:	0000                	unimp
    19e8:	3002                	fld	ft0,32(sp)
    19ea:	079f 0a68 00a0      	0xa00a68079f
    19f0:	0000                	unimp
    19f2:	0000                	unimp
    19f4:	0a74                	addi	a3,sp,284
    19f6:	00a0                	addi	s0,sp,72
    19f8:	0000                	unimp
    19fa:	0000                	unimp
    19fc:	3102                	fld	ft2,32(sp)
    19fe:	079f 0a74 00a0      	0xa00a74079f
    1a04:	0000                	unimp
    1a06:	0000                	unimp
    1a08:	0a7c                	addi	a5,sp,284
    1a0a:	00a0                	addi	s0,sp,72
    1a0c:	0000                	unimp
    1a0e:	0000                	unimp
    1a10:	3002                	fld	ft0,32(sp)
    1a12:	079f 0b74 00a0      	0xa00b74079f
    1a18:	0000                	unimp
    1a1a:	0000                	unimp
    1a1c:	0b80                	addi	s0,sp,464
    1a1e:	00a0                	addi	s0,sp,72
    1a20:	0000                	unimp
    1a22:	0000                	unimp
    1a24:	3102                	fld	ft2,32(sp)
    1a26:	079f 0b80 00a0      	0xa00b80079f
    1a2c:	0000                	unimp
    1a2e:	0000                	unimp
    1a30:	0b88                	addi	a0,sp,464
    1a32:	00a0                	addi	s0,sp,72
    1a34:	0000                	unimp
    1a36:	0000                	unimp
    1a38:	3002                	fld	ft0,32(sp)
    1a3a:	079f 0c80 00a0      	0xa00c80079f
    1a40:	0000                	unimp
    1a42:	0000                	unimp
    1a44:	0c8c                	addi	a1,sp,592
    1a46:	00a0                	addi	s0,sp,72
    1a48:	0000                	unimp
    1a4a:	0000                	unimp
    1a4c:	3102                	fld	ft2,32(sp)
    1a4e:	079f 0c8c 00a0      	0xa00c8c079f
    1a54:	0000                	unimp
    1a56:	0000                	unimp
    1a58:	0c94                	addi	a3,sp,592
    1a5a:	00a0                	addi	s0,sp,72
    1a5c:	0000                	unimp
    1a5e:	0000                	unimp
    1a60:	3002                	fld	ft0,32(sp)
    1a62:	079f 0d8c 00a0      	0xa00d8c079f
    1a68:	0000                	unimp
    1a6a:	0000                	unimp
    1a6c:	0d94                	addi	a3,sp,720
    1a6e:	00a0                	addi	s0,sp,72
    1a70:	0000                	unimp
    1a72:	0000                	unimp
    1a74:	3102                	fld	ft2,32(sp)
    1a76:	079f 0d94 00a0      	0xa00d94079f
    1a7c:	0000                	unimp
    1a7e:	0000                	unimp
    1a80:	0d98                	addi	a4,sp,720
    1a82:	00a0                	addi	s0,sp,72
    1a84:	0000                	unimp
    1a86:	0000                	unimp
    1a88:	3002                	fld	ft0,32(sp)
    1a8a:	079f 0e9c 00a0      	0xa00e9c079f
    1a90:	0000                	unimp
    1a92:	0000                	unimp
    1a94:	0ea0                	addi	s0,sp,856
    1a96:	00a0                	addi	s0,sp,72
    1a98:	0000                	unimp
    1a9a:	0000                	unimp
    1a9c:	3102                	fld	ft2,32(sp)
    1a9e:	009f e807 a006      	0xa006e807009f
    1aa4:	0000                	unimp
    1aa6:	0000                	unimp
    1aa8:	1c00                	addi	s0,sp,560
    1aaa:	0000a007          	flw	ft0,0(ra)
    1aae:	0000                	unimp
    1ab0:	0200                	addi	s0,sp,256
    1ab2:	9f30                	0x9f30
    1ab4:	a007a007          	flw	ft0,-1536(a5)
    1ab8:	0000                	unimp
    1aba:	0000                	unimp
    1abc:	6400                	ld	s0,8(s0)
    1abe:	a008                	fsd	fa0,0(s0)
    1ac0:	0000                	unimp
    1ac2:	0000                	unimp
    1ac4:	0200                	addi	s0,sp,256
    1ac6:	9f30                	0x9f30
    1ac8:	a0086407          	0xa0086407
    1acc:	0000                	unimp
    1ace:	0000                	unimp
    1ad0:	7700                	ld	s0,40(a4)
    1ad2:	a008                	fsd	fa0,0(s0)
    1ad4:	0000                	unimp
    1ad6:	0000                	unimp
    1ad8:	0100                	addi	s0,sp,128
    1ada:	075d                	addi	a4,a4,23
    1adc:	0894                	addi	a3,sp,80
    1ade:	00a0                	addi	s0,sp,72
    1ae0:	0000                	unimp
    1ae2:	0000                	unimp
    1ae4:	08a8                	addi	a0,sp,88
    1ae6:	00a0                	addi	s0,sp,72
    1ae8:	0000                	unimp
    1aea:	0000                	unimp
    1aec:	3002                	fld	ft0,32(sp)
    1aee:	079f 08a8 00a0      	0xa008a8079f
    1af4:	0000                	unimp
    1af6:	0000                	unimp
    1af8:	08b0                	addi	a2,sp,88
    1afa:	00a0                	addi	s0,sp,72
    1afc:	0000                	unimp
    1afe:	0000                	unimp
    1b00:	3102                	fld	ft2,32(sp)
    1b02:	079f 095c 00a0      	0xa0095c079f
    1b08:	0000                	unimp
    1b0a:	0000                	unimp
    1b0c:	0ed0                	addi	a2,sp,852
    1b0e:	00a0                	addi	s0,sp,72
    1b10:	0000                	unimp
    1b12:	0000                	unimp
    1b14:	3002                	fld	ft0,32(sp)
    1b16:	009f 9007 a006      	0xa0069007009f
    1b1c:	0000                	unimp
    1b1e:	0000                	unimp
    1b20:	a800                	fsd	fs0,16(s0)
    1b22:	a006                	fsd	ft1,0(sp)
    1b24:	0000                	unimp
    1b26:	0000                	unimp
    1b28:	0200                	addi	s0,sp,256
    1b2a:	9f30                	0x9f30
    1b2c:	a006a807          	flw	fa6,-1536(a3)
    1b30:	0000                	unimp
    1b32:	0000                	unimp
    1b34:	bc00                	fsd	fs0,56(s0)
    1b36:	a006                	fsd	ft1,0(sp)
    1b38:	0000                	unimp
    1b3a:	0000                	unimp
    1b3c:	0100                	addi	s0,sp,128
    1b3e:	075e                	slli	a4,a4,0x17
    1b40:	06bc                	addi	a5,sp,840
    1b42:	00a0                	addi	s0,sp,72
    1b44:	0000                	unimp
    1b46:	0000                	unimp
    1b48:	06c8                	addi	a0,sp,836
    1b4a:	00a0                	addi	s0,sp,72
    1b4c:	0000                	unimp
    1b4e:	0000                	unimp
    1b50:	9f508103          	lb	sp,-1547(ra)
    1b54:	a0074407          	flq	fs0,-1536(a4)
    1b58:	0000                	unimp
    1b5a:	0000                	unimp
    1b5c:	4c00                	lw	s0,24(s0)
    1b5e:	0000a007          	flw	ft0,0(ra)
    1b62:	0000                	unimp
    1b64:	0200                	addi	s0,sp,256
    1b66:	9f30                	0x9f30
    1b68:	0700                	addi	s0,sp,896
    1b6a:	0684                	addi	s1,sp,832
    1b6c:	00a0                	addi	s0,sp,72
    1b6e:	0000                	unimp
    1b70:	0000                	unimp
    1b72:	071c                	addi	a5,sp,896
    1b74:	00a0                	addi	s0,sp,72
    1b76:	0000                	unimp
    1b78:	0000                	unimp
    1b7a:	5f01                	li	t5,-32
    1b7c:	a0072807          	flw	fa6,-1536(a4)
    1b80:	0000                	unimp
    1b82:	0000                	unimp
    1b84:	3000                	fld	fs0,32(s0)
    1b86:	0000a007          	flw	ft0,0(ra)
    1b8a:	0000                	unimp
    1b8c:	0200                	addi	s0,sp,256
    1b8e:	9f31                	addw	a4,a4,a2
    1b90:	a0073007          	fld	ft0,-1536(a4)
    1b94:	0000                	unimp
    1b96:	0000                	unimp
    1b98:	0700                	addi	s0,sp,896
    1b9a:	a008                	fsd	fa0,0(s0)
    1b9c:	0000                	unimp
    1b9e:	0000                	unimp
    1ba0:	0100                	addi	s0,sp,128
    1ba2:	075f 0850 00a0      	0xa00850075f
    1ba8:	0000                	unimp
    1baa:	0000                	unimp
    1bac:	00a00877          	0xa00877
    1bb0:	0000                	unimp
    1bb2:	0000                	unimp
    1bb4:	5f01                	li	t5,-32
    1bb6:	a0089407          	0xa0089407
    1bba:	0000                	unimp
    1bbc:	0000                	unimp
    1bbe:	b000                	fsd	fs0,32(s0)
    1bc0:	a008                	fsd	fa0,0(s0)
    1bc2:	0000                	unimp
    1bc4:	0000                	unimp
    1bc6:	0100                	addi	s0,sp,128
    1bc8:	075f 095c 00a0      	0xa0095c075f
    1bce:	0000                	unimp
    1bd0:	0000                	unimp
    1bd2:	00a00993          	li	s3,10
    1bd6:	0000                	unimp
    1bd8:	0000                	unimp
    1bda:	5f01                	li	t5,-32
    1bdc:	a009b007          	fld	ft0,-1536(s3)
    1be0:	0000                	unimp
    1be2:	0000                	unimp
    1be4:	bc00                	fsd	fs0,56(s0)
    1be6:	a009                	j	1be8 <_text-0x9fe418>
    1be8:	0000                	unimp
    1bea:	0000                	unimp
    1bec:	0100                	addi	s0,sp,128
    1bee:	075f 0a68 00a0      	0xa00a68075f
    1bf4:	0000                	unimp
    1bf6:	0000                	unimp
    1bf8:	0a9f 00a0 0000      	0xa00a9f
    1bfe:	0000                	unimp
    1c00:	5f01                	li	t5,-32
    1c02:	a00abc07          	fld	fs8,-1536(s5)
    1c06:	0000                	unimp
    1c08:	0000                	unimp
    1c0a:	c800                	sw	s0,16(s0)
    1c0c:	a00a                	fsd	ft2,0(sp)
    1c0e:	0000                	unimp
    1c10:	0000                	unimp
    1c12:	0100                	addi	s0,sp,128
    1c14:	075f 0b74 00a0      	0xa00b74075f
    1c1a:	0000                	unimp
    1c1c:	0000                	unimp
    1c1e:	00a00bab          	0xa00bab
    1c22:	0000                	unimp
    1c24:	0000                	unimp
    1c26:	5f01                	li	t5,-32
    1c28:	a00bc807          	flq	fa6,-1536(s7)
    1c2c:	0000                	unimp
    1c2e:	0000                	unimp
    1c30:	d400                	sw	s0,40(s0)
    1c32:	0000a00b          	0xa00b
    1c36:	0000                	unimp
    1c38:	0100                	addi	s0,sp,128
    1c3a:	075f 0c80 00a0      	0xa00c80075f
    1c40:	0000                	unimp
    1c42:	0000                	unimp
    1c44:	00a00cb7          	lui	s9,0xa00
    1c48:	0000                	unimp
    1c4a:	0000                	unimp
    1c4c:	5f01                	li	t5,-32
    1c4e:	a00cd407          	0xa00cd407
    1c52:	0000                	unimp
    1c54:	0000                	unimp
    1c56:	e000                	sd	s0,0(s0)
    1c58:	a00c                	fsd	fa1,0(s0)
    1c5a:	0000                	unimp
    1c5c:	0000                	unimp
    1c5e:	0100                	addi	s0,sp,128
    1c60:	075f 0d8c 00a0      	0xa00d8c075f
    1c66:	0000                	unimp
    1c68:	0000                	unimp
    1c6a:	00a00db7          	lui	s11,0xa00
    1c6e:	0000                	unimp
    1c70:	0000                	unimp
    1c72:	5f01                	li	t5,-32
    1c74:	a00dd407          	0xa00dd407
    1c78:	0000                	unimp
    1c7a:	0000                	unimp
    1c7c:	e000                	sd	s0,0(s0)
    1c7e:	a00d                	j	1ca0 <_text-0x9fe360>
    1c80:	0000                	unimp
    1c82:	0000                	unimp
    1c84:	0100                	addi	s0,sp,128
    1c86:	075f 0e94 00a0      	0xa00e94075f
    1c8c:	0000                	unimp
    1c8e:	0000                	unimp
    1c90:	0eb8                	addi	a4,sp,856
    1c92:	00a0                	addi	s0,sp,72
    1c94:	0000                	unimp
    1c96:	0000                	unimp
    1c98:	5f01                	li	t5,-32
    1c9a:	0700                	addi	s0,sp,896
    1c9c:	0690                	addi	a2,sp,832
    1c9e:	00a0                	addi	s0,sp,72
    1ca0:	0000                	unimp
    1ca2:	0000                	unimp
    1ca4:	071c                	addi	a5,sp,896
    1ca6:	00a0                	addi	s0,sp,72
    1ca8:	0000                	unimp
    1caa:	0000                	unimp
    1cac:	6001                	0x6001
    1cae:	a0073c07          	fld	fs8,-1536(a4)
    1cb2:	0000                	unimp
    1cb4:	0000                	unimp
    1cb6:	4400                	lw	s0,8(s0)
    1cb8:	0000a007          	flw	ft0,0(ra)
    1cbc:	0000                	unimp
    1cbe:	0300                	addi	s0,sp,384
    1cc0:	3008                	fld	fa0,32(s0)
    1cc2:	079f 0744 00a0      	0xa00744079f
    1cc8:	0000                	unimp
    1cca:	0000                	unimp
    1ccc:	00a00807          	0xa00807
    1cd0:	0000                	unimp
    1cd2:	0000                	unimp
    1cd4:	6001                	0x6001
    1cd6:	a0085007          	0xa0085007
    1cda:	0000                	unimp
    1cdc:	0000                	unimp
    1cde:	7700                	ld	s0,40(a4)
    1ce0:	a008                	fsd	fa0,0(s0)
    1ce2:	0000                	unimp
    1ce4:	0000                	unimp
    1ce6:	0100                	addi	s0,sp,128
    1ce8:	0760                	addi	s0,sp,908
    1cea:	0894                	addi	a3,sp,80
    1cec:	00a0                	addi	s0,sp,72
    1cee:	0000                	unimp
    1cf0:	0000                	unimp
    1cf2:	08b0                	addi	a2,sp,88
    1cf4:	00a0                	addi	s0,sp,72
    1cf6:	0000                	unimp
    1cf8:	0000                	unimp
    1cfa:	6001                	0x6001
    1cfc:	a0095c07          	0xa0095c07
    1d00:	0000                	unimp
    1d02:	0000                	unimp
    1d04:	9300                	0x9300
    1d06:	a009                	j	1d08 <_text-0x9fe2f8>
    1d08:	0000                	unimp
    1d0a:	0000                	unimp
    1d0c:	0100                	addi	s0,sp,128
    1d0e:	0760                	addi	s0,sp,908
    1d10:	09b0                	addi	a2,sp,216
    1d12:	00a0                	addi	s0,sp,72
    1d14:	0000                	unimp
    1d16:	0000                	unimp
    1d18:	09bc                	addi	a5,sp,216
    1d1a:	00a0                	addi	s0,sp,72
    1d1c:	0000                	unimp
    1d1e:	0000                	unimp
    1d20:	6001                	0x6001
    1d22:	a00a6807          	0xa00a6807
    1d26:	0000                	unimp
    1d28:	0000                	unimp
    1d2a:	9f00                	0x9f00
    1d2c:	a00a                	fsd	ft2,0(sp)
    1d2e:	0000                	unimp
    1d30:	0000                	unimp
    1d32:	0100                	addi	s0,sp,128
    1d34:	0760                	addi	s0,sp,908
    1d36:	0abc                	addi	a5,sp,344
    1d38:	00a0                	addi	s0,sp,72
    1d3a:	0000                	unimp
    1d3c:	0000                	unimp
    1d3e:	0ac8                	addi	a0,sp,340
    1d40:	00a0                	addi	s0,sp,72
    1d42:	0000                	unimp
    1d44:	0000                	unimp
    1d46:	6001                	0x6001
    1d48:	a00b7407          	0xa00b7407
    1d4c:	0000                	unimp
    1d4e:	0000                	unimp
    1d50:	ab00                	fsd	fs0,16(a4)
    1d52:	0000a00b          	0xa00b
    1d56:	0000                	unimp
    1d58:	0100                	addi	s0,sp,128
    1d5a:	0760                	addi	s0,sp,908
    1d5c:	0bc8                	addi	a0,sp,468
    1d5e:	00a0                	addi	s0,sp,72
    1d60:	0000                	unimp
    1d62:	0000                	unimp
    1d64:	0bd4                	addi	a3,sp,468
    1d66:	00a0                	addi	s0,sp,72
    1d68:	0000                	unimp
    1d6a:	0000                	unimp
    1d6c:	6001                	0x6001
    1d6e:	a00c8007          	0xa00c8007
    1d72:	0000                	unimp
    1d74:	0000                	unimp
    1d76:	b700                	fsd	fs0,40(a4)
    1d78:	a00c                	fsd	fa1,0(s0)
    1d7a:	0000                	unimp
    1d7c:	0000                	unimp
    1d7e:	0100                	addi	s0,sp,128
    1d80:	0760                	addi	s0,sp,908
    1d82:	0cd4                	addi	a3,sp,596
    1d84:	00a0                	addi	s0,sp,72
    1d86:	0000                	unimp
    1d88:	0000                	unimp
    1d8a:	0ce0                	addi	s0,sp,604
    1d8c:	00a0                	addi	s0,sp,72
    1d8e:	0000                	unimp
    1d90:	0000                	unimp
    1d92:	6001                	0x6001
    1d94:	a00d8c07          	0xa00d8c07
    1d98:	0000                	unimp
    1d9a:	0000                	unimp
    1d9c:	b700                	fsd	fs0,40(a4)
    1d9e:	a00d                	j	1dc0 <_text-0x9fe240>
    1da0:	0000                	unimp
    1da2:	0000                	unimp
    1da4:	0100                	addi	s0,sp,128
    1da6:	0760                	addi	s0,sp,908
    1da8:	0dd4                	addi	a3,sp,724
    1daa:	00a0                	addi	s0,sp,72
    1dac:	0000                	unimp
    1dae:	0000                	unimp
    1db0:	0de0                	addi	s0,sp,732
    1db2:	00a0                	addi	s0,sp,72
    1db4:	0000                	unimp
    1db6:	0000                	unimp
    1db8:	6001                	0x6001
    1dba:	a00e9407          	0xa00e9407
    1dbe:	0000                	unimp
    1dc0:	0000                	unimp
    1dc2:	c800                	sw	s0,16(s0)
    1dc4:	a00e                	fsd	ft3,0(sp)
    1dc6:	0000                	unimp
    1dc8:	0000                	unimp
    1dca:	0100                	addi	s0,sp,128
    1dcc:	0060                	addi	s0,sp,12
    1dce:	a00db807          	fld	fa6,-1536(s11) # 9ffa00 <_text-0x600>
    1dd2:	0000                	unimp
    1dd4:	0000                	unimp
    1dd6:	d400                	sw	s0,40(s0)
    1dd8:	a00d                	j	1dfa <_text-0x9fe206>
    1dda:	0000                	unimp
    1ddc:	0000                	unimp
    1dde:	0400                	addi	s0,sp,512
    1de0:	b078                	fsd	fa4,224(s0)
    1de2:	9f7e                	add	t5,t5,t6
    1de4:	a00de007          	0xa00de007
    1de8:	0000                	unimp
    1dea:	0000                	unimp
    1dec:	e400                	sd	s0,8(s0)
    1dee:	a00d                	j	1e10 <_text-0x9fe1f0>
    1df0:	0000                	unimp
    1df2:	0000                	unimp
    1df4:	0300                	addi	s0,sp,384
    1df6:	7f80                	ld	s0,56(a5)
    1df8:	079f 0de4 00a0      	0xa00de4079f
    1dfe:	0000                	unimp
    1e00:	0000                	unimp
    1e02:	0e10                	addi	a2,sp,784
    1e04:	00a0                	addi	s0,sp,72
    1e06:	0000                	unimp
    1e08:	0000                	unimp
    1e0a:	5601                	li	a2,-32
    1e0c:	a00e1007          	0xa00e1007
    1e10:	0000                	unimp
    1e12:	0000                	unimp
    1e14:	5400                	lw	s0,40(s0)
    1e16:	a00e                	fsd	ft3,0(sp)
    1e18:	0000                	unimp
    1e1a:	0000                	unimp
    1e1c:	0300                	addi	s0,sp,384
    1e1e:	7f80                	ld	s0,56(a5)
    1e20:	079f 0e54 00a0      	0xa00e54079f
    1e26:	0000                	unimp
    1e28:	0000                	unimp
    1e2a:	0e64                	addi	s1,sp,796
    1e2c:	00a0                	addi	s0,sp,72
    1e2e:	0000                	unimp
    1e30:	0000                	unimp
    1e32:	6001                	0x6001
    1e34:	a00e6407          	0xa00e6407
    1e38:	0000                	unimp
    1e3a:	0000                	unimp
    1e3c:	9400                	0x9400
    1e3e:	a00e                	fsd	ft3,0(sp)
    1e40:	0000                	unimp
    1e42:	0000                	unimp
    1e44:	0100                	addi	s0,sp,128
    1e46:	0756                	slli	a4,a4,0x15
    1e48:	0ec8                	addi	a0,sp,852
    1e4a:	00a0                	addi	s0,sp,72
    1e4c:	0000                	unimp
    1e4e:	0000                	unimp
    1e50:	0ed0                	addi	a2,sp,852
    1e52:	00a0                	addi	s0,sp,72
    1e54:	0000                	unimp
    1e56:	0000                	unimp
    1e58:	7804                	ld	s1,48(s0)
    1e5a:	7eb0                	ld	a2,120(a3)
    1e5c:	009f e807 a00d      	0xa00de807009f
    1e62:	0000                	unimp
    1e64:	0000                	unimp
    1e66:	0400                	addi	s0,sp,512
    1e68:	a00e                	fsd	ft3,0(sp)
    1e6a:	0000                	unimp
    1e6c:	0000                	unimp
    1e6e:	0200                	addi	s0,sp,256
    1e70:	7f76                	ld	t5,376(sp)
    1e72:	a00e5807          	0xa00e5807
    1e76:	0000                	unimp
    1e78:	0000                	unimp
    1e7a:	6400                	ld	s0,8(s0)
    1e7c:	a00e                	fsd	ft3,0(sp)
    1e7e:	0000                	unimp
    1e80:	0000                	unimp
    1e82:	0200                	addi	s0,sp,256
    1e84:	7f80                	ld	s0,56(a5)
    1e86:	a00e6407          	0xa00e6407
    1e8a:	0000                	unimp
    1e8c:	0000                	unimp
    1e8e:	8c00                	0x8c00
    1e90:	a00e                	fsd	ft3,0(sp)
    1e92:	0000                	unimp
    1e94:	0000                	unimp
    1e96:	0200                	addi	s0,sp,256
    1e98:	7f76                	ld	t5,376(sp)
    1e9a:	0700                	addi	s0,sp,896
    1e9c:	0e64                	addi	s1,sp,796
    1e9e:	00a0                	addi	s0,sp,72
    1ea0:	0000                	unimp
    1ea2:	0000                	unimp
    1ea4:	0e84                	addi	s1,sp,848
    1ea6:	00a0                	addi	s0,sp,72
    1ea8:	0000                	unimp
    1eaa:	0000                	unimp
    1eac:	9f800803          	lb	a6,-1544(zero) # fffffffffffff9f8 <end+0xfffffffffeffd9f8>
    1eb0:	0700                	addi	s0,sp,896
    1eb2:	0e64                	addi	s1,sp,796
    1eb4:	00a0                	addi	s0,sp,72
    1eb6:	0000                	unimp
    1eb8:	0000                	unimp
    1eba:	0e84                	addi	s1,sp,848
    1ebc:	00a0                	addi	s0,sp,72
    1ebe:	0000                	unimp
    1ec0:	0000                	unimp
    1ec2:	3002                	fld	ft0,32(sp)
    1ec4:	009f 6407 a00e      	0xa00e6407009f
    1eca:	0000                	unimp
    1ecc:	0000                	unimp
    1ece:	8400                	0x8400
    1ed0:	a00e                	fsd	ft3,0(sp)
    1ed2:	0000                	unimp
    1ed4:	0000                	unimp
    1ed6:	0200                	addi	s0,sp,256
    1ed8:	9f35                	addw	a4,a4,a3
    1eda:	0700                	addi	s0,sp,896
    1edc:	0e14                	addi	a3,sp,784
    1ede:	00a0                	addi	s0,sp,72
    1ee0:	0000                	unimp
    1ee2:	0000                	unimp
    1ee4:	0e50                	addi	a2,sp,788
    1ee6:	00a0                	addi	s0,sp,72
    1ee8:	0000                	unimp
    1eea:	0000                	unimp
    1eec:	3d02                	fld	fs10,32(sp)
    1eee:	009f 3007 a00e      	0xa00e3007009f
    1ef4:	0000                	unimp
    1ef6:	0000                	unimp
    1ef8:	5000                	lw	s0,32(s0)
    1efa:	a00e                	fsd	ft3,0(sp)
    1efc:	0000                	unimp
    1efe:	0000                	unimp
    1f00:	0300                	addi	s0,sp,384
    1f02:	8008                	0x8008
    1f04:	009f 3007 a00e      	0xa00e3007009f
    1f0a:	0000                	unimp
    1f0c:	0000                	unimp
    1f0e:	5000                	lw	s0,32(s0)
    1f10:	a00e                	fsd	ft3,0(sp)
    1f12:	0000                	unimp
    1f14:	0000                	unimp
    1f16:	0200                	addi	s0,sp,256
    1f18:	9f30                	0x9f30
    1f1a:	0700                	addi	s0,sp,896
    1f1c:	0e30                	addi	a2,sp,792
    1f1e:	00a0                	addi	s0,sp,72
    1f20:	0000                	unimp
    1f22:	0000                	unimp
    1f24:	0e50                	addi	a2,sp,788
    1f26:	00a0                	addi	s0,sp,72
    1f28:	0000                	unimp
    1f2a:	0000                	unimp
    1f2c:	3502                	fld	fa0,32(sp)
    1f2e:	009f b007 a005      	0xa005b007009f
    1f34:	0000                	unimp
    1f36:	0000                	unimp
    1f38:	c000                	sw	s0,0(s0)
    1f3a:	a005                	j	1f5a <_text-0x9fe0a6>
    1f3c:	0000                	unimp
    1f3e:	0000                	unimp
    1f40:	0200                	addi	s0,sp,256
    1f42:	0080                	addi	s0,sp,64
    1f44:	a0063407          	fld	fs0,-1536(a2) # ffffffffffff8a00 <end+0xfffffffffeff6a00>
    1f48:	0000                	unimp
    1f4a:	0000                	unimp
    1f4c:	3c00                	fld	fs0,56(s0)
    1f4e:	a006                	fsd	ft1,0(sp)
    1f50:	0000                	unimp
    1f52:	0000                	unimp
    1f54:	0200                	addi	s0,sp,256
    1f56:	0080                	addi	s0,sp,64
    1f58:	0700                	addi	s0,sp,896
    1f5a:	0644                	addi	s1,sp,772
    1f5c:	00a0                	addi	s0,sp,72
    1f5e:	0000                	unimp
    1f60:	0000                	unimp
    1f62:	0664                	addi	s1,sp,780
    1f64:	00a0                	addi	s0,sp,72
    1f66:	0000                	unimp
    1f68:	0000                	unimp
    1f6a:	9f800803          	lb	a6,-1544(zero) # fffffffffffff9f8 <end+0xfffffffffeffd9f8>
    1f6e:	0700                	addi	s0,sp,896
    1f70:	0644                	addi	s1,sp,772
    1f72:	00a0                	addi	s0,sp,72
    1f74:	0000                	unimp
    1f76:	0000                	unimp
    1f78:	0664                	addi	s1,sp,780
    1f7a:	00a0                	addi	s0,sp,72
    1f7c:	0000                	unimp
    1f7e:	0000                	unimp
    1f80:	3002                	fld	ft0,32(sp)
    1f82:	009f 4407 a006      	0xa0064407009f
    1f88:	0000                	unimp
    1f8a:	0000                	unimp
    1f8c:	6400                	ld	s0,8(s0)
    1f8e:	a006                	fsd	ft1,0(sp)
    1f90:	0000                	unimp
    1f92:	0000                	unimp
    1f94:	0200                	addi	s0,sp,256
    1f96:	9f35                	addw	a4,a4,a3
    1f98:	0700                	addi	s0,sp,896
    1f9a:	05ec                	addi	a1,sp,716
    1f9c:	00a0                	addi	s0,sp,72
    1f9e:	0000                	unimp
    1fa0:	0000                	unimp
    1fa2:	0630                	addi	a2,sp,776
    1fa4:	00a0                	addi	s0,sp,72
    1fa6:	0000                	unimp
    1fa8:	0000                	unimp
    1faa:	3d02                	fld	fs10,32(sp)
    1fac:	009f 0c07 a006      	0xa0060c07009f
    1fb2:	0000                	unimp
    1fb4:	0000                	unimp
    1fb6:	2c00                	fld	fs0,24(s0)
    1fb8:	a006                	fsd	ft1,0(sp)
    1fba:	0000                	unimp
    1fbc:	0000                	unimp
    1fbe:	0300                	addi	s0,sp,384
    1fc0:	8008                	0x8008
    1fc2:	009f 0c07 a006      	0xa0060c07009f
    1fc8:	0000                	unimp
    1fca:	0000                	unimp
    1fcc:	2c00                	fld	fs0,24(s0)
    1fce:	a006                	fsd	ft1,0(sp)
    1fd0:	0000                	unimp
    1fd2:	0000                	unimp
    1fd4:	0200                	addi	s0,sp,256
    1fd6:	9f30                	0x9f30
    1fd8:	0700                	addi	s0,sp,896
    1fda:	060c                	addi	a1,sp,768
    1fdc:	00a0                	addi	s0,sp,72
    1fde:	0000                	unimp
    1fe0:	0000                	unimp
    1fe2:	062c                	addi	a1,sp,776
    1fe4:	00a0                	addi	s0,sp,72
    1fe6:	0000                	unimp
    1fe8:	0000                	unimp
    1fea:	3502                	fld	fa0,32(sp)
    1fec:	009f 0807 a008      	0xa0080807009f
    1ff2:	0000                	unimp
    1ff4:	0000                	unimp
    1ff6:	2400                	fld	fs0,8(s0)
    1ff8:	a008                	fsd	fa0,0(s0)
    1ffa:	0000                	unimp
    1ffc:	0000                	unimp
    1ffe:	0100                	addi	s0,sp,128
    2000:	0765                	addi	a4,a4,25
    2002:	0824                	addi	s1,sp,24
    2004:	00a0                	addi	s0,sp,72
    2006:	0000                	unimp
    2008:	0000                	unimp
    200a:	0840                	addi	s0,sp,20
    200c:	00a0                	addi	s0,sp,72
    200e:	0000                	unimp
    2010:	0000                	unimp
    2012:	7f02                	ld	t5,32(sp)
    2014:	0000                	unimp
    2016:	a0082807          	flw	fa6,-1536(a6)
    201a:	0000                	unimp
    201c:	0000                	unimp
    201e:	4800                	lw	s0,16(s0)
    2020:	a008                	fsd	fa0,0(s0)
    2022:	0000                	unimp
    2024:	0000                	unimp
    2026:	0300                	addi	s0,sp,384
    2028:	8008                	0x8008
    202a:	009f 2807 a008      	0xa0082807009f
    2030:	0000                	unimp
    2032:	0000                	unimp
    2034:	4800                	lw	s0,16(s0)
    2036:	a008                	fsd	fa0,0(s0)
    2038:	0000                	unimp
    203a:	0000                	unimp
    203c:	0200                	addi	s0,sp,256
    203e:	9f30                	0x9f30
    2040:	0700                	addi	s0,sp,896
    2042:	0828                	addi	a0,sp,24
    2044:	00a0                	addi	s0,sp,72
    2046:	0000                	unimp
    2048:	0000                	unimp
    204a:	0848                	addi	a0,sp,20
    204c:	00a0                	addi	s0,sp,72
    204e:	0000                	unimp
    2050:	0000                	unimp
    2052:	3502                	fld	fa0,32(sp)
    2054:	009f 7807 a008      	0xa0087807009f
    205a:	0000                	unimp
    205c:	0000                	unimp
    205e:	9400                	0x9400
    2060:	a008                	fsd	fa0,0(s0)
    2062:	0000                	unimp
    2064:	0000                	unimp
    2066:	0400                	addi	s0,sp,512
    2068:	b078                	fsd	fa4,224(s0)
    206a:	9f7e                	add	t5,t5,t6
    206c:	a008b007          	fld	ft0,-1536(a7)
    2070:	0000                	unimp
    2072:	0000                	unimp
    2074:	b400                	fsd	fs0,40(s0)
    2076:	a008                	fsd	fa0,0(s0)
    2078:	0000                	unimp
    207a:	0000                	unimp
    207c:	0300                	addi	s0,sp,384
    207e:	7f80                	ld	s0,56(a5)
    2080:	079f 08b4 00a0      	0xa008b4079f
    2086:	0000                	unimp
    2088:	0000                	unimp
    208a:	08e0                	addi	s0,sp,92
    208c:	00a0                	addi	s0,sp,72
    208e:	0000                	unimp
    2090:	0000                	unimp
    2092:	5601                	li	a2,-32
    2094:	a008e007          	0xa008e007
    2098:	0000                	unimp
    209a:	0000                	unimp
    209c:	2400                	fld	fs0,8(s0)
    209e:	a009                	j	20a0 <_text-0x9fdf60>
    20a0:	0000                	unimp
    20a2:	0000                	unimp
    20a4:	0300                	addi	s0,sp,384
    20a6:	7f80                	ld	s0,56(a5)
    20a8:	079f 0924 00a0      	0xa00924079f
    20ae:	0000                	unimp
    20b0:	0000                	unimp
    20b2:	0934                	addi	a3,sp,152
    20b4:	00a0                	addi	s0,sp,72
    20b6:	0000                	unimp
    20b8:	0000                	unimp
    20ba:	6001                	0x6001
    20bc:	a0093407          	fld	fs0,-1536(s2) # 1ca00 <_text-0x9e3600>
    20c0:	0000                	unimp
    20c2:	0000                	unimp
    20c4:	5c00                	lw	s0,56(s0)
    20c6:	a009                	j	20c8 <_text-0x9fdf38>
    20c8:	0000                	unimp
    20ca:	0000                	unimp
    20cc:	0100                	addi	s0,sp,128
    20ce:	0056                	c.slli	zero,0x15
    20d0:	a008e407          	0xa008e407
    20d4:	0000                	unimp
    20d6:	0000                	unimp
    20d8:	2000                	fld	fs0,0(s0)
    20da:	a009                	j	20dc <_text-0x9fdf24>
    20dc:	0000                	unimp
    20de:	0000                	unimp
    20e0:	0200                	addi	s0,sp,256
    20e2:	9f3d                	addw	a4,a4,a5
    20e4:	0700                	addi	s0,sp,896
    20e6:	0900                	addi	s0,sp,144
    20e8:	00a0                	addi	s0,sp,72
    20ea:	0000                	unimp
    20ec:	0000                	unimp
    20ee:	0920                	addi	s0,sp,152
    20f0:	00a0                	addi	s0,sp,72
    20f2:	0000                	unimp
    20f4:	0000                	unimp
    20f6:	9f800803          	lb	a6,-1544(zero) # fffffffffffff9f8 <end+0xfffffffffeffd9f8>
    20fa:	0700                	addi	s0,sp,896
    20fc:	0900                	addi	s0,sp,144
    20fe:	00a0                	addi	s0,sp,72
    2100:	0000                	unimp
    2102:	0000                	unimp
    2104:	0920                	addi	s0,sp,152
    2106:	00a0                	addi	s0,sp,72
    2108:	0000                	unimp
    210a:	0000                	unimp
    210c:	3002                	fld	ft0,32(sp)
    210e:	009f 0007 a009      	0xa0090007009f
    2114:	0000                	unimp
    2116:	0000                	unimp
    2118:	2000                	fld	fs0,0(s0)
    211a:	a009                	j	211c <_text-0x9fdee4>
    211c:	0000                	unimp
    211e:	0000                	unimp
    2120:	0200                	addi	s0,sp,256
    2122:	9f35                	addw	a4,a4,a3
    2124:	0700                	addi	s0,sp,896
    2126:	08b8                	addi	a4,sp,88
    2128:	00a0                	addi	s0,sp,72
    212a:	0000                	unimp
    212c:	0000                	unimp
    212e:	08d4                	addi	a3,sp,84
    2130:	00a0                	addi	s0,sp,72
    2132:	0000                	unimp
    2134:	0000                	unimp
    2136:	7602                	ld	a2,32(sp)
    2138:	077f                	0x77f
    213a:	0928                	addi	a0,sp,152
    213c:	00a0                	addi	s0,sp,72
    213e:	0000                	unimp
    2140:	0000                	unimp
    2142:	0934                	addi	a3,sp,152
    2144:	00a0                	addi	s0,sp,72
    2146:	0000                	unimp
    2148:	0000                	unimp
    214a:	8002                	0x8002
    214c:	077f                	0x77f
    214e:	0934                	addi	a3,sp,152
    2150:	00a0                	addi	s0,sp,72
    2152:	0000                	unimp
    2154:	0000                	unimp
    2156:	095c                	addi	a5,sp,148
    2158:	00a0                	addi	s0,sp,72
    215a:	0000                	unimp
    215c:	0000                	unimp
    215e:	7602                	ld	a2,32(sp)
    2160:	007f                	0x7f
    2162:	a0093407          	fld	fs0,-1536(s2)
    2166:	0000                	unimp
    2168:	0000                	unimp
    216a:	5400                	lw	s0,40(s0)
    216c:	a009                	j	216e <_text-0x9fde92>
    216e:	0000                	unimp
    2170:	0000                	unimp
    2172:	0300                	addi	s0,sp,384
    2174:	8008                	0x8008
    2176:	009f 3407 a009      	0xa0093407009f
    217c:	0000                	unimp
    217e:	0000                	unimp
    2180:	5400                	lw	s0,40(s0)
    2182:	a009                	j	2184 <_text-0x9fde7c>
    2184:	0000                	unimp
    2186:	0000                	unimp
    2188:	0200                	addi	s0,sp,256
    218a:	9f30                	0x9f30
    218c:	0700                	addi	s0,sp,896
    218e:	0934                	addi	a3,sp,152
    2190:	00a0                	addi	s0,sp,72
    2192:	0000                	unimp
    2194:	0000                	unimp
    2196:	0954                	addi	a3,sp,148
    2198:	00a0                	addi	s0,sp,72
    219a:	0000                	unimp
    219c:	0000                	unimp
    219e:	3502                	fld	fa0,32(sp)
    21a0:	009f 9407 a009      	0xa0099407009f
    21a6:	0000                	unimp
    21a8:	0000                	unimp
    21aa:	b000                	fsd	fs0,32(s0)
    21ac:	a009                	j	21ae <_text-0x9fde52>
    21ae:	0000                	unimp
    21b0:	0000                	unimp
    21b2:	0400                	addi	s0,sp,512
    21b4:	b078                	fsd	fa4,224(s0)
    21b6:	9f7e                	add	t5,t5,t6
    21b8:	a009bc07          	fld	fs8,-1536(s3)
    21bc:	0000                	unimp
    21be:	0000                	unimp
    21c0:	c000                	sw	s0,0(s0)
    21c2:	a009                	j	21c4 <_text-0x9fde3c>
    21c4:	0000                	unimp
    21c6:	0000                	unimp
    21c8:	0300                	addi	s0,sp,384
    21ca:	7f80                	ld	s0,56(a5)
    21cc:	079f 09c0 00a0      	0xa009c0079f
    21d2:	0000                	unimp
    21d4:	0000                	unimp
    21d6:	09ec                	addi	a1,sp,220
    21d8:	00a0                	addi	s0,sp,72
    21da:	0000                	unimp
    21dc:	0000                	unimp
    21de:	5601                	li	a2,-32
    21e0:	a009ec07          	0xa009ec07
    21e4:	0000                	unimp
    21e6:	0000                	unimp
    21e8:	3000                	fld	fs0,32(s0)
    21ea:	a00a                	fsd	ft2,0(sp)
    21ec:	0000                	unimp
    21ee:	0000                	unimp
    21f0:	0300                	addi	s0,sp,384
    21f2:	7f80                	ld	s0,56(a5)
    21f4:	079f 0a30 00a0      	0xa00a30079f
    21fa:	0000                	unimp
    21fc:	0000                	unimp
    21fe:	0a40                	addi	s0,sp,276
    2200:	00a0                	addi	s0,sp,72
    2202:	0000                	unimp
    2204:	0000                	unimp
    2206:	6001                	0x6001
    2208:	a00a4007          	flq	ft0,-1536(s4)
    220c:	0000                	unimp
    220e:	0000                	unimp
    2210:	6800                	ld	s0,16(s0)
    2212:	a00a                	fsd	ft2,0(sp)
    2214:	0000                	unimp
    2216:	0000                	unimp
    2218:	0100                	addi	s0,sp,128
    221a:	0056                	c.slli	zero,0x15
    221c:	a009f007          	0xa009f007
    2220:	0000                	unimp
    2222:	0000                	unimp
    2224:	2c00                	fld	fs0,24(s0)
    2226:	a00a                	fsd	ft2,0(sp)
    2228:	0000                	unimp
    222a:	0000                	unimp
    222c:	0200                	addi	s0,sp,256
    222e:	9f3d                	addw	a4,a4,a5
    2230:	0700                	addi	s0,sp,896
    2232:	0a0c                	addi	a1,sp,272
    2234:	00a0                	addi	s0,sp,72
    2236:	0000                	unimp
    2238:	0000                	unimp
    223a:	0a2c                	addi	a1,sp,280
    223c:	00a0                	addi	s0,sp,72
    223e:	0000                	unimp
    2240:	0000                	unimp
    2242:	9f800803          	lb	a6,-1544(zero) # fffffffffffff9f8 <end+0xfffffffffeffd9f8>
    2246:	0700                	addi	s0,sp,896
    2248:	0a0c                	addi	a1,sp,272
    224a:	00a0                	addi	s0,sp,72
    224c:	0000                	unimp
    224e:	0000                	unimp
    2250:	0a2c                	addi	a1,sp,280
    2252:	00a0                	addi	s0,sp,72
    2254:	0000                	unimp
    2256:	0000                	unimp
    2258:	3002                	fld	ft0,32(sp)
    225a:	009f 0c07 a00a      	0xa00a0c07009f
    2260:	0000                	unimp
    2262:	0000                	unimp
    2264:	2c00                	fld	fs0,24(s0)
    2266:	a00a                	fsd	ft2,0(sp)
    2268:	0000                	unimp
    226a:	0000                	unimp
    226c:	0200                	addi	s0,sp,256
    226e:	9f35                	addw	a4,a4,a3
    2270:	0700                	addi	s0,sp,896
    2272:	09c4                	addi	s1,sp,212
    2274:	00a0                	addi	s0,sp,72
    2276:	0000                	unimp
    2278:	0000                	unimp
    227a:	09e0                	addi	s0,sp,220
    227c:	00a0                	addi	s0,sp,72
    227e:	0000                	unimp
    2280:	0000                	unimp
    2282:	7602                	ld	a2,32(sp)
    2284:	077f                	0x77f
    2286:	0a34                	addi	a3,sp,280
    2288:	00a0                	addi	s0,sp,72
    228a:	0000                	unimp
    228c:	0000                	unimp
    228e:	0a40                	addi	s0,sp,276
    2290:	00a0                	addi	s0,sp,72
    2292:	0000                	unimp
    2294:	0000                	unimp
    2296:	8002                	0x8002
    2298:	077f                	0x77f
    229a:	0a40                	addi	s0,sp,276
    229c:	00a0                	addi	s0,sp,72
    229e:	0000                	unimp
    22a0:	0000                	unimp
    22a2:	0a68                	addi	a0,sp,284
    22a4:	00a0                	addi	s0,sp,72
    22a6:	0000                	unimp
    22a8:	0000                	unimp
    22aa:	7602                	ld	a2,32(sp)
    22ac:	007f                	0x7f
    22ae:	a00a4007          	flq	ft0,-1536(s4)
    22b2:	0000                	unimp
    22b4:	0000                	unimp
    22b6:	6000                	ld	s0,0(s0)
    22b8:	a00a                	fsd	ft2,0(sp)
    22ba:	0000                	unimp
    22bc:	0000                	unimp
    22be:	0300                	addi	s0,sp,384
    22c0:	8008                	0x8008
    22c2:	009f 4007 a00a      	0xa00a4007009f
    22c8:	0000                	unimp
    22ca:	0000                	unimp
    22cc:	6000                	ld	s0,0(s0)
    22ce:	a00a                	fsd	ft2,0(sp)
    22d0:	0000                	unimp
    22d2:	0000                	unimp
    22d4:	0200                	addi	s0,sp,256
    22d6:	9f30                	0x9f30
    22d8:	0700                	addi	s0,sp,896
    22da:	0a40                	addi	s0,sp,276
    22dc:	00a0                	addi	s0,sp,72
    22de:	0000                	unimp
    22e0:	0000                	unimp
    22e2:	0a60                	addi	s0,sp,284
    22e4:	00a0                	addi	s0,sp,72
    22e6:	0000                	unimp
    22e8:	0000                	unimp
    22ea:	3502                	fld	fa0,32(sp)
    22ec:	009f a007 a00a      	0xa00aa007009f
    22f2:	0000                	unimp
    22f4:	0000                	unimp
    22f6:	bc00                	fsd	fs0,56(s0)
    22f8:	a00a                	fsd	ft2,0(sp)
    22fa:	0000                	unimp
    22fc:	0000                	unimp
    22fe:	0400                	addi	s0,sp,512
    2300:	b078                	fsd	fa4,224(s0)
    2302:	9f7e                	add	t5,t5,t6
    2304:	a00ac807          	flq	fa6,-1536(s5)
    2308:	0000                	unimp
    230a:	0000                	unimp
    230c:	cc00                	sw	s0,24(s0)
    230e:	a00a                	fsd	ft2,0(sp)
    2310:	0000                	unimp
    2312:	0000                	unimp
    2314:	0300                	addi	s0,sp,384
    2316:	7f80                	ld	s0,56(a5)
    2318:	079f 0acc 00a0      	0xa00acc079f
    231e:	0000                	unimp
    2320:	0000                	unimp
    2322:	0af8                	addi	a4,sp,348
    2324:	00a0                	addi	s0,sp,72
    2326:	0000                	unimp
    2328:	0000                	unimp
    232a:	5601                	li	a2,-32
    232c:	a00af807          	0xa00af807
    2330:	0000                	unimp
    2332:	0000                	unimp
    2334:	3c00                	fld	fs0,56(s0)
    2336:	0000a00b          	0xa00b
    233a:	0000                	unimp
    233c:	0300                	addi	s0,sp,384
    233e:	7f80                	ld	s0,56(a5)
    2340:	079f 0b3c 00a0      	0xa00b3c079f
    2346:	0000                	unimp
    2348:	0000                	unimp
    234a:	0b4c                	addi	a1,sp,404
    234c:	00a0                	addi	s0,sp,72
    234e:	0000                	unimp
    2350:	0000                	unimp
    2352:	6001                	0x6001
    2354:	a00b4c07          	flq	fs8,-1536(s6)
    2358:	0000                	unimp
    235a:	0000                	unimp
    235c:	7400                	ld	s0,40(s0)
    235e:	0000a00b          	0xa00b
    2362:	0000                	unimp
    2364:	0100                	addi	s0,sp,128
    2366:	0056                	c.slli	zero,0x15
    2368:	a00afc07          	0xa00afc07
    236c:	0000                	unimp
    236e:	0000                	unimp
    2370:	3800                	fld	fs0,48(s0)
    2372:	0000a00b          	0xa00b
    2376:	0000                	unimp
    2378:	0200                	addi	s0,sp,256
    237a:	9f3d                	addw	a4,a4,a5
    237c:	0700                	addi	s0,sp,896
    237e:	0b18                	addi	a4,sp,400
    2380:	00a0                	addi	s0,sp,72
    2382:	0000                	unimp
    2384:	0000                	unimp
    2386:	0b38                	addi	a4,sp,408
    2388:	00a0                	addi	s0,sp,72
    238a:	0000                	unimp
    238c:	0000                	unimp
    238e:	9f800803          	lb	a6,-1544(zero) # fffffffffffff9f8 <end+0xfffffffffeffd9f8>
    2392:	0700                	addi	s0,sp,896
    2394:	0b18                	addi	a4,sp,400
    2396:	00a0                	addi	s0,sp,72
    2398:	0000                	unimp
    239a:	0000                	unimp
    239c:	0b38                	addi	a4,sp,408
    239e:	00a0                	addi	s0,sp,72
    23a0:	0000                	unimp
    23a2:	0000                	unimp
    23a4:	3002                	fld	ft0,32(sp)
    23a6:	009f 1807 a00b      	0xa00b1807009f
    23ac:	0000                	unimp
    23ae:	0000                	unimp
    23b0:	3800                	fld	fs0,48(s0)
    23b2:	0000a00b          	0xa00b
    23b6:	0000                	unimp
    23b8:	0200                	addi	s0,sp,256
    23ba:	9f35                	addw	a4,a4,a3
    23bc:	0700                	addi	s0,sp,896
    23be:	0ad0                	addi	a2,sp,340
    23c0:	00a0                	addi	s0,sp,72
    23c2:	0000                	unimp
    23c4:	0000                	unimp
    23c6:	0aec                	addi	a1,sp,348
    23c8:	00a0                	addi	s0,sp,72
    23ca:	0000                	unimp
    23cc:	0000                	unimp
    23ce:	7602                	ld	a2,32(sp)
    23d0:	077f                	0x77f
    23d2:	0b40                	addi	s0,sp,404
    23d4:	00a0                	addi	s0,sp,72
    23d6:	0000                	unimp
    23d8:	0000                	unimp
    23da:	0b4c                	addi	a1,sp,404
    23dc:	00a0                	addi	s0,sp,72
    23de:	0000                	unimp
    23e0:	0000                	unimp
    23e2:	8002                	0x8002
    23e4:	077f                	0x77f
    23e6:	0b4c                	addi	a1,sp,404
    23e8:	00a0                	addi	s0,sp,72
    23ea:	0000                	unimp
    23ec:	0000                	unimp
    23ee:	0b74                	addi	a3,sp,412
    23f0:	00a0                	addi	s0,sp,72
    23f2:	0000                	unimp
    23f4:	0000                	unimp
    23f6:	7602                	ld	a2,32(sp)
    23f8:	007f                	0x7f
    23fa:	a00b4c07          	flq	fs8,-1536(s6)
    23fe:	0000                	unimp
    2400:	0000                	unimp
    2402:	6c00                	ld	s0,24(s0)
    2404:	0000a00b          	0xa00b
    2408:	0000                	unimp
    240a:	0300                	addi	s0,sp,384
    240c:	8008                	0x8008
    240e:	009f 4c07 a00b      	0xa00b4c07009f
    2414:	0000                	unimp
    2416:	0000                	unimp
    2418:	6c00                	ld	s0,24(s0)
    241a:	0000a00b          	0xa00b
    241e:	0000                	unimp
    2420:	0200                	addi	s0,sp,256
    2422:	9f30                	0x9f30
    2424:	0700                	addi	s0,sp,896
    2426:	0b4c                	addi	a1,sp,404
    2428:	00a0                	addi	s0,sp,72
    242a:	0000                	unimp
    242c:	0000                	unimp
    242e:	0b6c                	addi	a1,sp,412
    2430:	00a0                	addi	s0,sp,72
    2432:	0000                	unimp
    2434:	0000                	unimp
    2436:	3502                	fld	fa0,32(sp)
    2438:	009f ac07 a00b      	0xa00bac07009f
    243e:	0000                	unimp
    2440:	0000                	unimp
    2442:	c800                	sw	s0,16(s0)
    2444:	0000a00b          	0xa00b
    2448:	0000                	unimp
    244a:	0400                	addi	s0,sp,512
    244c:	b078                	fsd	fa4,224(s0)
    244e:	9f7e                	add	t5,t5,t6
    2450:	a00bd407          	0xa00bd407
    2454:	0000                	unimp
    2456:	0000                	unimp
    2458:	d800                	sw	s0,48(s0)
    245a:	0000a00b          	0xa00b
    245e:	0000                	unimp
    2460:	0300                	addi	s0,sp,384
    2462:	7f80                	ld	s0,56(a5)
    2464:	079f 0bd8 00a0      	0xa00bd8079f
    246a:	0000                	unimp
    246c:	0000                	unimp
    246e:	0c04                	addi	s1,sp,528
    2470:	00a0                	addi	s0,sp,72
    2472:	0000                	unimp
    2474:	0000                	unimp
    2476:	5601                	li	a2,-32
    2478:	a00c0407          	0xa00c0407
    247c:	0000                	unimp
    247e:	0000                	unimp
    2480:	4800                	lw	s0,16(s0)
    2482:	a00c                	fsd	fa1,0(s0)
    2484:	0000                	unimp
    2486:	0000                	unimp
    2488:	0300                	addi	s0,sp,384
    248a:	7f80                	ld	s0,56(a5)
    248c:	079f 0c48 00a0      	0xa00c48079f
    2492:	0000                	unimp
    2494:	0000                	unimp
    2496:	0c58                	addi	a4,sp,532
    2498:	00a0                	addi	s0,sp,72
    249a:	0000                	unimp
    249c:	0000                	unimp
    249e:	6001                	0x6001
    24a0:	a00c5807          	0xa00c5807
    24a4:	0000                	unimp
    24a6:	0000                	unimp
    24a8:	8000                	0x8000
    24aa:	a00c                	fsd	fa1,0(s0)
    24ac:	0000                	unimp
    24ae:	0000                	unimp
    24b0:	0100                	addi	s0,sp,128
    24b2:	0056                	c.slli	zero,0x15
    24b4:	a00c0807          	0xa00c0807
    24b8:	0000                	unimp
    24ba:	0000                	unimp
    24bc:	4400                	lw	s0,8(s0)
    24be:	a00c                	fsd	fa1,0(s0)
    24c0:	0000                	unimp
    24c2:	0000                	unimp
    24c4:	0200                	addi	s0,sp,256
    24c6:	9f3d                	addw	a4,a4,a5
    24c8:	0700                	addi	s0,sp,896
    24ca:	0c24                	addi	s1,sp,536
    24cc:	00a0                	addi	s0,sp,72
    24ce:	0000                	unimp
    24d0:	0000                	unimp
    24d2:	0c44                	addi	s1,sp,532
    24d4:	00a0                	addi	s0,sp,72
    24d6:	0000                	unimp
    24d8:	0000                	unimp
    24da:	9f800803          	lb	a6,-1544(zero) # fffffffffffff9f8 <end+0xfffffffffeffd9f8>
    24de:	0700                	addi	s0,sp,896
    24e0:	0c24                	addi	s1,sp,536
    24e2:	00a0                	addi	s0,sp,72
    24e4:	0000                	unimp
    24e6:	0000                	unimp
    24e8:	0c44                	addi	s1,sp,532
    24ea:	00a0                	addi	s0,sp,72
    24ec:	0000                	unimp
    24ee:	0000                	unimp
    24f0:	3002                	fld	ft0,32(sp)
    24f2:	009f 2407 a00c      	0xa00c2407009f
    24f8:	0000                	unimp
    24fa:	0000                	unimp
    24fc:	4400                	lw	s0,8(s0)
    24fe:	a00c                	fsd	fa1,0(s0)
    2500:	0000                	unimp
    2502:	0000                	unimp
    2504:	0200                	addi	s0,sp,256
    2506:	9f35                	addw	a4,a4,a3
    2508:	0700                	addi	s0,sp,896
    250a:	0bdc                	addi	a5,sp,468
    250c:	00a0                	addi	s0,sp,72
    250e:	0000                	unimp
    2510:	0000                	unimp
    2512:	0bf8                	addi	a4,sp,476
    2514:	00a0                	addi	s0,sp,72
    2516:	0000                	unimp
    2518:	0000                	unimp
    251a:	7602                	ld	a2,32(sp)
    251c:	077f                	0x77f
    251e:	0c4c                	addi	a1,sp,532
    2520:	00a0                	addi	s0,sp,72
    2522:	0000                	unimp
    2524:	0000                	unimp
    2526:	0c58                	addi	a4,sp,532
    2528:	00a0                	addi	s0,sp,72
    252a:	0000                	unimp
    252c:	0000                	unimp
    252e:	8002                	0x8002
    2530:	077f                	0x77f
    2532:	0c58                	addi	a4,sp,532
    2534:	00a0                	addi	s0,sp,72
    2536:	0000                	unimp
    2538:	0000                	unimp
    253a:	0c80                	addi	s0,sp,592
    253c:	00a0                	addi	s0,sp,72
    253e:	0000                	unimp
    2540:	0000                	unimp
    2542:	7602                	ld	a2,32(sp)
    2544:	007f                	0x7f
    2546:	a00c5807          	0xa00c5807
    254a:	0000                	unimp
    254c:	0000                	unimp
    254e:	7800                	ld	s0,48(s0)
    2550:	a00c                	fsd	fa1,0(s0)
    2552:	0000                	unimp
    2554:	0000                	unimp
    2556:	0300                	addi	s0,sp,384
    2558:	8008                	0x8008
    255a:	009f 5807 a00c      	0xa00c5807009f
    2560:	0000                	unimp
    2562:	0000                	unimp
    2564:	7800                	ld	s0,48(s0)
    2566:	a00c                	fsd	fa1,0(s0)
    2568:	0000                	unimp
    256a:	0000                	unimp
    256c:	0200                	addi	s0,sp,256
    256e:	9f30                	0x9f30
    2570:	0700                	addi	s0,sp,896
    2572:	0c58                	addi	a4,sp,532
    2574:	00a0                	addi	s0,sp,72
    2576:	0000                	unimp
    2578:	0000                	unimp
    257a:	0c78                	addi	a4,sp,540
    257c:	00a0                	addi	s0,sp,72
    257e:	0000                	unimp
    2580:	0000                	unimp
    2582:	3502                	fld	fa0,32(sp)
    2584:	009f b807 a00c      	0xa00cb807009f
    258a:	0000                	unimp
    258c:	0000                	unimp
    258e:	d400                	sw	s0,40(s0)
    2590:	a00c                	fsd	fa1,0(s0)
    2592:	0000                	unimp
    2594:	0000                	unimp
    2596:	0400                	addi	s0,sp,512
    2598:	b078                	fsd	fa4,224(s0)
    259a:	9f7e                	add	t5,t5,t6
    259c:	a00ce007          	0xa00ce007
    25a0:	0000                	unimp
    25a2:	0000                	unimp
    25a4:	e400                	sd	s0,8(s0)
    25a6:	a00c                	fsd	fa1,0(s0)
    25a8:	0000                	unimp
    25aa:	0000                	unimp
    25ac:	0300                	addi	s0,sp,384
    25ae:	7f80                	ld	s0,56(a5)
    25b0:	079f 0ce4 00a0      	0xa00ce4079f
    25b6:	0000                	unimp
    25b8:	0000                	unimp
    25ba:	0d10                	addi	a2,sp,656
    25bc:	00a0                	addi	s0,sp,72
    25be:	0000                	unimp
    25c0:	0000                	unimp
    25c2:	5601                	li	a2,-32
    25c4:	a00d1007          	0xa00d1007
    25c8:	0000                	unimp
    25ca:	0000                	unimp
    25cc:	5400                	lw	s0,40(s0)
    25ce:	a00d                	j	25f0 <_text-0x9fda10>
    25d0:	0000                	unimp
    25d2:	0000                	unimp
    25d4:	0300                	addi	s0,sp,384
    25d6:	7f80                	ld	s0,56(a5)
    25d8:	079f 0d54 00a0      	0xa00d54079f
    25de:	0000                	unimp
    25e0:	0000                	unimp
    25e2:	0d64                	addi	s1,sp,668
    25e4:	00a0                	addi	s0,sp,72
    25e6:	0000                	unimp
    25e8:	0000                	unimp
    25ea:	6001                	0x6001
    25ec:	a00d6407          	0xa00d6407
    25f0:	0000                	unimp
    25f2:	0000                	unimp
    25f4:	8c00                	0x8c00
    25f6:	a00d                	j	2618 <_text-0x9fd9e8>
    25f8:	0000                	unimp
    25fa:	0000                	unimp
    25fc:	0100                	addi	s0,sp,128
    25fe:	0056                	c.slli	zero,0x15
    2600:	a00d1407          	0xa00d1407
    2604:	0000                	unimp
    2606:	0000                	unimp
    2608:	5000                	lw	s0,32(s0)
    260a:	a00d                	j	262c <_text-0x9fd9d4>
    260c:	0000                	unimp
    260e:	0000                	unimp
    2610:	0200                	addi	s0,sp,256
    2612:	9f3d                	addw	a4,a4,a5
    2614:	0700                	addi	s0,sp,896
    2616:	0d30                	addi	a2,sp,664
    2618:	00a0                	addi	s0,sp,72
    261a:	0000                	unimp
    261c:	0000                	unimp
    261e:	0d50                	addi	a2,sp,660
    2620:	00a0                	addi	s0,sp,72
    2622:	0000                	unimp
    2624:	0000                	unimp
    2626:	9f800803          	lb	a6,-1544(zero) # fffffffffffff9f8 <end+0xfffffffffeffd9f8>
    262a:	0700                	addi	s0,sp,896
    262c:	0d30                	addi	a2,sp,664
    262e:	00a0                	addi	s0,sp,72
    2630:	0000                	unimp
    2632:	0000                	unimp
    2634:	0d50                	addi	a2,sp,660
    2636:	00a0                	addi	s0,sp,72
    2638:	0000                	unimp
    263a:	0000                	unimp
    263c:	3002                	fld	ft0,32(sp)
    263e:	009f 3007 a00d      	0xa00d3007009f
    2644:	0000                	unimp
    2646:	0000                	unimp
    2648:	5000                	lw	s0,32(s0)
    264a:	a00d                	j	266c <_text-0x9fd994>
    264c:	0000                	unimp
    264e:	0000                	unimp
    2650:	0200                	addi	s0,sp,256
    2652:	9f35                	addw	a4,a4,a3
    2654:	0700                	addi	s0,sp,896
    2656:	0ce8                	addi	a0,sp,604
    2658:	00a0                	addi	s0,sp,72
    265a:	0000                	unimp
    265c:	0000                	unimp
    265e:	0d04                	addi	s1,sp,656
    2660:	00a0                	addi	s0,sp,72
    2662:	0000                	unimp
    2664:	0000                	unimp
    2666:	7602                	ld	a2,32(sp)
    2668:	077f                	0x77f
    266a:	0d58                	addi	a4,sp,660
    266c:	00a0                	addi	s0,sp,72
    266e:	0000                	unimp
    2670:	0000                	unimp
    2672:	0d64                	addi	s1,sp,668
    2674:	00a0                	addi	s0,sp,72
    2676:	0000                	unimp
    2678:	0000                	unimp
    267a:	8002                	0x8002
    267c:	077f                	0x77f
    267e:	0d64                	addi	s1,sp,668
    2680:	00a0                	addi	s0,sp,72
    2682:	0000                	unimp
    2684:	0000                	unimp
    2686:	0d8c                	addi	a1,sp,720
    2688:	00a0                	addi	s0,sp,72
    268a:	0000                	unimp
    268c:	0000                	unimp
    268e:	7602                	ld	a2,32(sp)
    2690:	007f                	0x7f
    2692:	a00d6407          	0xa00d6407
    2696:	0000                	unimp
    2698:	0000                	unimp
    269a:	8400                	0x8400
    269c:	a00d                	j	26be <_text-0x9fd942>
    269e:	0000                	unimp
    26a0:	0000                	unimp
    26a2:	0300                	addi	s0,sp,384
    26a4:	8008                	0x8008
    26a6:	009f 6407 a00d      	0xa00d6407009f
    26ac:	0000                	unimp
    26ae:	0000                	unimp
    26b0:	8400                	0x8400
    26b2:	a00d                	j	26d4 <_text-0x9fd92c>
    26b4:	0000                	unimp
    26b6:	0000                	unimp
    26b8:	0200                	addi	s0,sp,256
    26ba:	9f30                	0x9f30
    26bc:	0700                	addi	s0,sp,896
    26be:	0d64                	addi	s1,sp,668
    26c0:	00a0                	addi	s0,sp,72
    26c2:	0000                	unimp
    26c4:	0000                	unimp
    26c6:	0d84                	addi	s1,sp,720
    26c8:	00a0                	addi	s0,sp,72
    26ca:	0000                	unimp
    26cc:	0000                	unimp
    26ce:	3502                	fld	fa0,32(sp)
    26d0:	009f a007 a00e      	0xa00ea007009f
    26d6:	0000                	unimp
    26d8:	0000                	unimp
    26da:	c000                	sw	s0,0(s0)
    26dc:	a00e                	fsd	ft3,0(sp)
    26de:	0000                	unimp
    26e0:	0000                	unimp
    26e2:	0100                	addi	s0,sp,128
    26e4:	005a                	c.slli	zero,0x16
    26e6:	a00ea007          	flw	ft0,-1536(t4)
    26ea:	0000                	unimp
    26ec:	0000                	unimp
    26ee:	c000                	sw	s0,0(s0)
    26f0:	a00e                	fsd	ft3,0(sp)
    26f2:	0000                	unimp
    26f4:	0000                	unimp
    26f6:	0200                	addi	s0,sp,256
    26f8:	9f30                	0x9f30
    26fa:	0700                	addi	s0,sp,896
    26fc:	0ea0                	addi	s0,sp,856
    26fe:	00a0                	addi	s0,sp,72
    2700:	0000                	unimp
    2702:	0000                	unimp
    2704:	0ea4                	addi	s1,sp,856
    2706:	00a0                	addi	s0,sp,72
    2708:	0000                	unimp
    270a:	0000                	unimp
    270c:	7a06                	ld	s4,96(sp)
    270e:	0800                	addi	s0,sp,16
    2710:	1aff                	0x1aff
    2712:	079f 0ea4 00a0      	0xa00ea4079f
    2718:	0000                	unimp
    271a:	0000                	unimp
    271c:	0ec0                	addi	s0,sp,852
    271e:	00a0                	addi	s0,sp,72
    2720:	0000                	unimp
    2722:	0000                	unimp
    2724:	5a01                	li	s4,-32
    2726:	0700                	addi	s0,sp,896
    2728:	0ea0                	addi	s0,sp,856
    272a:	00a0                	addi	s0,sp,72
    272c:	0000                	unimp
    272e:	0000                	unimp
    2730:	0ec0                	addi	s0,sp,852
    2732:	00a0                	addi	s0,sp,72
    2734:	0000                	unimp
    2736:	0000                	unimp
    2738:	3402                	fld	fs0,32(sp)
    273a:	009f 0ad3 0000      	0xad3009f
    2740:	0005                	c.nop	1
    2742:	0008                	0x8
    2744:	0000                	unimp
    2746:	0000                	unimp
    2748:	a0141007          	0xa0141007
    274c:	0000                	unimp
    274e:	0000                	unimp
    2750:	2700                	fld	fs0,8(a4)
    2752:	a014                	fsd	fa3,0(s0)
    2754:	0000                	unimp
    2756:	0000                	unimp
    2758:	0100                	addi	s0,sp,128
    275a:	075a                	slli	a4,a4,0x16
    275c:	00a01427          	0xa01427
    2760:	0000                	unimp
    2762:	0000                	unimp
    2764:	1438                	addi	a4,sp,552
    2766:	00a0                	addi	s0,sp,72
    2768:	0000                	unimp
    276a:	0000                	unimp
    276c:	a304                	fsd	fs1,0(a4)
    276e:	5a01                	li	s4,-32
    2770:	009f 1007 a014      	0xa0141007009f
    2776:	0000                	unimp
    2778:	0000                	unimp
    277a:	2700                	fld	fs0,8(a4)
    277c:	a014                	fsd	fa3,0(s0)
    277e:	0000                	unimp
    2780:	0000                	unimp
    2782:	0100                	addi	s0,sp,128
    2784:	1427075b          	0x1427075b
    2788:	00a0                	addi	s0,sp,72
    278a:	0000                	unimp
    278c:	0000                	unimp
    278e:	1438                	addi	a4,sp,552
    2790:	00a0                	addi	s0,sp,72
    2792:	0000                	unimp
    2794:	0000                	unimp
    2796:	a304                	fsd	fs1,0(a4)
    2798:	5b01                	li	s6,-32
    279a:	009f 1007 a014      	0xa0141007009f
    27a0:	0000                	unimp
    27a2:	0000                	unimp
    27a4:	2700                	fld	fs0,8(a4)
    27a6:	a014                	fsd	fa3,0(s0)
    27a8:	0000                	unimp
    27aa:	0000                	unimp
    27ac:	0100                	addi	s0,sp,128
    27ae:	075c                	addi	a5,sp,900
    27b0:	00a01427          	0xa01427
    27b4:	0000                	unimp
    27b6:	0000                	unimp
    27b8:	1438                	addi	a4,sp,552
    27ba:	00a0                	addi	s0,sp,72
    27bc:	0000                	unimp
    27be:	0000                	unimp
    27c0:	a304                	fsd	fs1,0(a4)
    27c2:	5c01                	li	s8,-32
    27c4:	009f b407 a013      	0xa013b407009f
    27ca:	0000                	unimp
    27cc:	0000                	unimp
    27ce:	d800                	sw	s0,48(s0)
    27d0:	0000a013          	slti	zero,ra,0
    27d4:	0000                	unimp
    27d6:	0100                	addi	s0,sp,128
    27d8:	075a                	slli	a4,a4,0x16
    27da:	13d8                	addi	a4,sp,484
    27dc:	00a0                	addi	s0,sp,72
    27de:	0000                	unimp
    27e0:	0000                	unimp
    27e2:	1408                	addi	a0,sp,544
    27e4:	00a0                	addi	s0,sp,72
    27e6:	0000                	unimp
    27e8:	0000                	unimp
    27ea:	a304                	fsd	fs1,0(a4)
    27ec:	5a01                	li	s4,-32
    27ee:	079f 1408 00a0      	0xa01408079f
    27f4:	0000                	unimp
    27f6:	0000                	unimp
    27f8:	140c                	addi	a1,sp,544
    27fa:	00a0                	addi	s0,sp,72
    27fc:	0000                	unimp
    27fe:	0000                	unimp
    2800:	5a01                	li	s4,-32
    2802:	a0140c07          	0xa0140c07
    2806:	0000                	unimp
    2808:	0000                	unimp
    280a:	1000                	addi	s0,sp,32
    280c:	a014                	fsd	fa3,0(s0)
    280e:	0000                	unimp
    2810:	0000                	unimp
    2812:	0400                	addi	s0,sp,512
    2814:	9f5a01a3          	sb	s5,-1565(s4)
    2818:	0700                	addi	s0,sp,896
    281a:	13b4                	addi	a3,sp,488
    281c:	00a0                	addi	s0,sp,72
    281e:	0000                	unimp
    2820:	0000                	unimp
    2822:	13d8                	addi	a4,sp,484
    2824:	00a0                	addi	s0,sp,72
    2826:	0000                	unimp
    2828:	0000                	unimp
    282a:	5b01                	li	s6,-32
    282c:	a013d807          	0xa013d807
    2830:	0000                	unimp
    2832:	0000                	unimp
    2834:	0800                	addi	s0,sp,16
    2836:	a014                	fsd	fa3,0(s0)
    2838:	0000                	unimp
    283a:	0000                	unimp
    283c:	0400                	addi	s0,sp,512
    283e:	9f5b01a3          	sb	s5,-1565(s6)
    2842:	a0140807          	0xa0140807
    2846:	0000                	unimp
    2848:	0000                	unimp
    284a:	1000                	addi	s0,sp,32
    284c:	a014                	fsd	fa3,0(s0)
    284e:	0000                	unimp
    2850:	0000                	unimp
    2852:	0100                	addi	s0,sp,128
    2854:	b407005b          	0xb407005b
    2858:	0000a013          	slti	zero,ra,0
    285c:	0000                	unimp
    285e:	c000                	sw	s0,0(s0)
    2860:	0000a013          	slti	zero,ra,0
    2864:	0000                	unimp
    2866:	0100                	addi	s0,sp,128
    2868:	075c                	addi	a5,sp,900
    286a:	13c0                	addi	s0,sp,484
    286c:	00a0                	addi	s0,sp,72
    286e:	0000                	unimp
    2870:	0000                	unimp
    2872:	13c8                	addi	a0,sp,484
    2874:	00a0                	addi	s0,sp,72
    2876:	0000                	unimp
    2878:	0000                	unimp
    287a:	9f7f7c03          	0x9f7f7c03
    287e:	a013c807          	flq	fa6,-1535(t2)
    2882:	0000                	unimp
    2884:	0000                	unimp
    2886:	cc00                	sw	s0,24(s0)
    2888:	0000a013          	slti	zero,ra,0
    288c:	0000                	unimp
    288e:	0100                	addi	s0,sp,128
    2890:	075d                	addi	a4,a4,23
    2892:	13cc                	addi	a1,sp,484
    2894:	00a0                	addi	s0,sp,72
    2896:	0000                	unimp
    2898:	0000                	unimp
    289a:	13fc                	addi	a5,sp,492
    289c:	00a0                	addi	s0,sp,72
    289e:	0000                	unimp
    28a0:	0000                	unimp
    28a2:	9f7f7c03          	0x9f7f7c03
    28a6:	a0140807          	0xa0140807
    28aa:	0000                	unimp
    28ac:	0000                	unimp
    28ae:	1000                	addi	s0,sp,32
    28b0:	a014                	fsd	fa3,0(s0)
    28b2:	0000                	unimp
    28b4:	0000                	unimp
    28b6:	0300                	addi	s0,sp,384
    28b8:	7f7c                	ld	a5,248(a4)
    28ba:	009f c007 a013      	0xa013c007009f
    28c0:	0000                	unimp
    28c2:	0000                	unimp
    28c4:	f400                	sd	s0,40(s0)
    28c6:	0000a013          	slti	zero,ra,0
    28ca:	0000                	unimp
    28cc:	0100                	addi	s0,sp,128
    28ce:	075a                	slli	a4,a4,0x16
    28d0:	13f8                	addi	a4,sp,492
    28d2:	00a0                	addi	s0,sp,72
    28d4:	0000                	unimp
    28d6:	0000                	unimp
    28d8:	13fc                	addi	a5,sp,492
    28da:	00a0                	addi	s0,sp,72
    28dc:	0000                	unimp
    28de:	0000                	unimp
    28e0:	5a01                	li	s4,-32
    28e2:	a0140807          	0xa0140807
    28e6:	0000                	unimp
    28e8:	0000                	unimp
    28ea:	0c00                	addi	s0,sp,528
    28ec:	a014                	fsd	fa3,0(s0)
    28ee:	0000                	unimp
    28f0:	0000                	unimp
    28f2:	0100                	addi	s0,sp,128
    28f4:	075a                	slli	a4,a4,0x16
    28f6:	140c                	addi	a1,sp,544
    28f8:	00a0                	addi	s0,sp,72
    28fa:	0000                	unimp
    28fc:	0000                	unimp
    28fe:	1410                	addi	a2,sp,544
    2900:	00a0                	addi	s0,sp,72
    2902:	0000                	unimp
    2904:	0000                	unimp
    2906:	a304                	fsd	fs1,0(a4)
    2908:	5a01                	li	s4,-32
    290a:	009f 3807 a013      	0xa0133807009f
    2910:	0000                	unimp
    2912:	0000                	unimp
    2914:	5c00                	lw	s0,56(s0)
    2916:	0000a013          	slti	zero,ra,0
    291a:	0000                	unimp
    291c:	0100                	addi	s0,sp,128
    291e:	135c075b          	0x135c075b
    2922:	00a0                	addi	s0,sp,72
    2924:	0000                	unimp
    2926:	0000                	unimp
    2928:	137c                	addi	a5,sp,428
    292a:	00a0                	addi	s0,sp,72
    292c:	0000                	unimp
    292e:	0000                	unimp
    2930:	a304                	fsd	fs1,0(a4)
    2932:	5b01                	li	s6,-32
    2934:	079f 137c 00a0      	0xa0137c079f
    293a:	0000                	unimp
    293c:	0000                	unimp
    293e:	1384                	addi	s1,sp,480
    2940:	00a0                	addi	s0,sp,72
    2942:	0000                	unimp
    2944:	0000                	unimp
    2946:	5b01                	li	s6,-32
    2948:	a0138407          	0xa0138407
    294c:	0000                	unimp
    294e:	0000                	unimp
    2950:	b400                	fsd	fs0,40(s0)
    2952:	0000a013          	slti	zero,ra,0
    2956:	0000                	unimp
    2958:	0400                	addi	s0,sp,512
    295a:	9f5b01a3          	sb	s5,-1565(s6)
    295e:	0700                	addi	s0,sp,896
    2960:	1338                	addi	a4,sp,424
    2962:	00a0                	addi	s0,sp,72
    2964:	0000                	unimp
    2966:	0000                	unimp
    2968:	1348                	addi	a0,sp,420
    296a:	00a0                	addi	s0,sp,72
    296c:	0000                	unimp
    296e:	0000                	unimp
    2970:	5c01                	li	s8,-32
    2972:	a0134807          	flq	fa6,-1535(t1) # 17a01 <_text-0x9e85ff>
    2976:	0000                	unimp
    2978:	0000                	unimp
    297a:	5000                	lw	s0,32(s0)
    297c:	0000a013          	slti	zero,ra,0
    2980:	0000                	unimp
    2982:	0300                	addi	s0,sp,384
    2984:	7f7c                	ld	a5,248(a4)
    2986:	079f 137c 00a0      	0xa0137c079f
    298c:	0000                	unimp
    298e:	0000                	unimp
    2990:	1384                	addi	s1,sp,480
    2992:	00a0                	addi	s0,sp,72
    2994:	0000                	unimp
    2996:	0000                	unimp
    2998:	5c01                	li	s8,-32
    299a:	a0138407          	0xa0138407
    299e:	0000                	unimp
    29a0:	0000                	unimp
    29a2:	b400                	fsd	fs0,40(s0)
    29a4:	0000a013          	slti	zero,ra,0
    29a8:	0000                	unimp
    29aa:	0300                	addi	s0,sp,384
    29ac:	7f7c                	ld	a5,248(a4)
    29ae:	009f 4407 a013      	0xa0134407009f
    29b4:	0000                	unimp
    29b6:	0000                	unimp
    29b8:	5c00                	lw	s0,56(s0)
    29ba:	0000a013          	slti	zero,ra,0
    29be:	0000                	unimp
    29c0:	0100                	addi	s0,sp,128
    29c2:	075a                	slli	a4,a4,0x16
    29c4:	135c                	addi	a5,sp,420
    29c6:	00a0                	addi	s0,sp,72
    29c8:	0000                	unimp
    29ca:	0000                	unimp
    29cc:	1370                	addi	a2,sp,428
    29ce:	00a0                	addi	s0,sp,72
    29d0:	0000                	unimp
    29d2:	0000                	unimp
    29d4:	5e01                	li	t3,-32
    29d6:	a0137c07          	0xa0137c07
    29da:	0000                	unimp
    29dc:	0000                	unimp
    29de:	8000                	0x8000
    29e0:	0000a013          	slti	zero,ra,0
    29e4:	0000                	unimp
    29e6:	0100                	addi	s0,sp,128
    29e8:	075a                	slli	a4,a4,0x16
    29ea:	1380                	addi	s0,sp,480
    29ec:	00a0                	addi	s0,sp,72
    29ee:	0000                	unimp
    29f0:	0000                	unimp
    29f2:	13b4                	addi	a3,sp,488
    29f4:	00a0                	addi	s0,sp,72
    29f6:	0000                	unimp
    29f8:	0000                	unimp
    29fa:	5e01                	li	t3,-32
    29fc:	0700                	addi	s0,sp,896
    29fe:	12d4                	addi	a3,sp,356
    2a00:	00a0                	addi	s0,sp,72
    2a02:	0000                	unimp
    2a04:	0000                	unimp
    2a06:	12fc                	addi	a5,sp,364
    2a08:	00a0                	addi	s0,sp,72
    2a0a:	0000                	unimp
    2a0c:	0000                	unimp
    2a0e:	5a01                	li	s4,-32
    2a10:	a012fc07          	0xa012fc07
    2a14:	0000                	unimp
    2a16:	0000                	unimp
    2a18:	2400                	fld	fs0,8(s0)
    2a1a:	0000a013          	slti	zero,ra,0
    2a1e:	0000                	unimp
    2a20:	0100                	addi	s0,sp,128
    2a22:	075e                	slli	a4,a4,0x17
    2a24:	1330                	addi	a2,sp,424
    2a26:	00a0                	addi	s0,sp,72
    2a28:	0000                	unimp
    2a2a:	0000                	unimp
    2a2c:	1334                	addi	a3,sp,424
    2a2e:	00a0                	addi	s0,sp,72
    2a30:	0000                	unimp
    2a32:	0000                	unimp
    2a34:	5a01                	li	s4,-32
    2a36:	a0133407          	fld	fs0,-1535(t1)
    2a3a:	0000                	unimp
    2a3c:	0000                	unimp
    2a3e:	3800                	fld	fs0,48(s0)
    2a40:	0000a013          	slti	zero,ra,0
    2a44:	0000                	unimp
    2a46:	0400                	addi	s0,sp,512
    2a48:	9f5a01a3          	sb	s5,-1565(s4)
    2a4c:	0700                	addi	s0,sp,896
    2a4e:	12e0                	addi	s0,sp,364
    2a50:	00a0                	addi	s0,sp,72
    2a52:	0000                	unimp
    2a54:	0000                	unimp
    2a56:	12fc                	addi	a5,sp,364
    2a58:	00a0                	addi	s0,sp,72
    2a5a:	0000                	unimp
    2a5c:	0000                	unimp
    2a5e:	3002                	fld	ft0,32(sp)
    2a60:	079f 12fc 00a0      	0xa012fc079f
    2a66:	0000                	unimp
    2a68:	0000                	unimp
    2a6a:	1314                	addi	a3,sp,416
    2a6c:	00a0                	addi	s0,sp,72
    2a6e:	0000                	unimp
    2a70:	0000                	unimp
    2a72:	5a01                	li	s4,-32
    2a74:	a0131407          	0xa0131407
    2a78:	0000                	unimp
    2a7a:	0000                	unimp
    2a7c:	1c00                	addi	s0,sp,560
    2a7e:	0000a013          	slti	zero,ra,0
    2a82:	0000                	unimp
    2a84:	0300                	addi	s0,sp,384
    2a86:	507f                	0x507f
    2a88:	079f 1330 00a0      	0xa01330079f
    2a8e:	0000                	unimp
    2a90:	0000                	unimp
    2a92:	1338                	addi	a4,sp,424
    2a94:	00a0                	addi	s0,sp,72
    2a96:	0000                	unimp
    2a98:	0000                	unimp
    2a9a:	3002                	fld	ft0,32(sp)
    2a9c:	009f 5807 a012      	0xa0125807009f
    2aa2:	0000                	unimp
    2aa4:	0000                	unimp
    2aa6:	7000                	ld	s0,32(s0)
    2aa8:	a012                	fsd	ft4,0(sp)
    2aaa:	0000                	unimp
    2aac:	0000                	unimp
    2aae:	0100                	addi	s0,sp,128
    2ab0:	075a                	slli	a4,a4,0x16
    2ab2:	1270                	addi	a2,sp,300
    2ab4:	00a0                	addi	s0,sp,72
    2ab6:	0000                	unimp
    2ab8:	0000                	unimp
    2aba:	1284                	addi	s1,sp,352
    2abc:	00a0                	addi	s0,sp,72
    2abe:	0000                	unimp
    2ac0:	0000                	unimp
    2ac2:	5f01                	li	t5,-32
    2ac4:	a0128407          	0xa0128407
    2ac8:	0000                	unimp
    2aca:	0000                	unimp
    2acc:	9c00                	0x9c00
    2ace:	a012                	fsd	ft4,0(sp)
    2ad0:	0000                	unimp
    2ad2:	0000                	unimp
    2ad4:	0100                	addi	s0,sp,128
    2ad6:	129c075b          	0x129c075b
    2ada:	00a0                	addi	s0,sp,72
    2adc:	0000                	unimp
    2ade:	0000                	unimp
    2ae0:	12cc                	addi	a1,sp,356
    2ae2:	00a0                	addi	s0,sp,72
    2ae4:	0000                	unimp
    2ae6:	0000                	unimp
    2ae8:	a304                	fsd	fs1,0(a4)
    2aea:	5a01                	li	s4,-32
    2aec:	079f 12cc 00a0      	0xa012cc079f
    2af2:	0000                	unimp
    2af4:	0000                	unimp
    2af6:	12d4                	addi	a3,sp,356
    2af8:	00a0                	addi	s0,sp,72
    2afa:	0000                	unimp
    2afc:	0000                	unimp
    2afe:	5b01                	li	s6,-32
    2b00:	0700                	addi	s0,sp,896
    2b02:	1258                	addi	a4,sp,292
    2b04:	00a0                	addi	s0,sp,72
    2b06:	0000                	unimp
    2b08:	0000                	unimp
    2b0a:	1274                	addi	a3,sp,300
    2b0c:	00a0                	addi	s0,sp,72
    2b0e:	0000                	unimp
    2b10:	0000                	unimp
    2b12:	5b01                	li	s6,-32
    2b14:	a0127407          	0xa0127407
    2b18:	0000                	unimp
    2b1a:	0000                	unimp
    2b1c:	ac00                	fsd	fs0,24(s0)
    2b1e:	a012                	fsd	ft4,0(sp)
    2b20:	0000                	unimp
    2b22:	0000                	unimp
    2b24:	0100                	addi	s0,sp,128
    2b26:	0756                	slli	a4,a4,0x15
    2b28:	12ac                	addi	a1,sp,360
    2b2a:	00a0                	addi	s0,sp,72
    2b2c:	0000                	unimp
    2b2e:	0000                	unimp
    2b30:	12b4                	addi	a3,sp,360
    2b32:	00a0                	addi	s0,sp,72
    2b34:	0000                	unimp
    2b36:	0000                	unimp
    2b38:	5b01                	li	s6,-32
    2b3a:	a012b407          	fld	fs0,-1535(t0)
    2b3e:	0000                	unimp
    2b40:	0000                	unimp
    2b42:	cc00                	sw	s0,24(s0)
    2b44:	a012                	fsd	ft4,0(sp)
    2b46:	0000                	unimp
    2b48:	0000                	unimp
    2b4a:	0400                	addi	s0,sp,512
    2b4c:	9f5b01a3          	sb	s5,-1565(s6)
    2b50:	a012cc07          	flq	fs8,-1535(t0)
    2b54:	0000                	unimp
    2b56:	0000                	unimp
    2b58:	d000                	sw	s0,32(s0)
    2b5a:	a012                	fsd	ft4,0(sp)
    2b5c:	0000                	unimp
    2b5e:	0000                	unimp
    2b60:	0100                	addi	s0,sp,128
    2b62:	0756                	slli	a4,a4,0x15
    2b64:	12d0                	addi	a2,sp,356
    2b66:	00a0                	addi	s0,sp,72
    2b68:	0000                	unimp
    2b6a:	0000                	unimp
    2b6c:	12d4                	addi	a3,sp,356
    2b6e:	00a0                	addi	s0,sp,72
    2b70:	0000                	unimp
    2b72:	0000                	unimp
    2b74:	a304                	fsd	fs1,0(a4)
    2b76:	5b01                	li	s6,-32
    2b78:	009f ac07 a012      	0xa012ac07009f
    2b7e:	0000                	unimp
    2b80:	0000                	unimp
    2b82:	bc00                	fsd	fs0,56(s0)
    2b84:	a012                	fsd	ft4,0(sp)
    2b86:	0000                	unimp
    2b88:	0000                	unimp
    2b8a:	0100                	addi	s0,sp,128
    2b8c:	0056                	c.slli	zero,0x15
    2b8e:	a0126c07          	0xa0126c07
    2b92:	0000                	unimp
    2b94:	0000                	unimp
    2b96:	9000                	0x9000
    2b98:	a012                	fsd	ft4,0(sp)
    2b9a:	0000                	unimp
    2b9c:	0000                	unimp
    2b9e:	0200                	addi	s0,sp,256
    2ba0:	9f30                	0x9f30
    2ba2:	0700                	addi	s0,sp,896
    2ba4:	126c                	addi	a1,sp,300
    2ba6:	00a0                	addi	s0,sp,72
    2ba8:	0000                	unimp
    2baa:	0000                	unimp
    2bac:	1270                	addi	a2,sp,300
    2bae:	00a0                	addi	s0,sp,72
    2bb0:	0000                	unimp
    2bb2:	0000                	unimp
    2bb4:	5a01                	li	s4,-32
    2bb6:	a0127007          	0xa0127007
    2bba:	0000                	unimp
    2bbc:	0000                	unimp
    2bbe:	8400                	0x8400
    2bc0:	a012                	fsd	ft4,0(sp)
    2bc2:	0000                	unimp
    2bc4:	0000                	unimp
    2bc6:	0100                	addi	s0,sp,128
    2bc8:	075f 1284 00a0      	0xa01284075f
    2bce:	0000                	unimp
    2bd0:	0000                	unimp
    2bd2:	1290                	addi	a2,sp,352
    2bd4:	00a0                	addi	s0,sp,72
    2bd6:	0000                	unimp
    2bd8:	0000                	unimp
    2bda:	5b01                	li	s6,-32
    2bdc:	0700                	addi	s0,sp,896
    2bde:	126c                	addi	a1,sp,300
    2be0:	00a0                	addi	s0,sp,72
    2be2:	0000                	unimp
    2be4:	0000                	unimp
    2be6:	128c                	addi	a1,sp,352
    2be8:	00a0                	addi	s0,sp,72
    2bea:	0000                	unimp
    2bec:	0000                	unimp
    2bee:	3002                	fld	ft0,32(sp)
    2bf0:	009f 6c07 a012      	0xa0126c07009f
    2bf6:	0000                	unimp
    2bf8:	0000                	unimp
    2bfa:	8c00                	0x8c00
    2bfc:	a012                	fsd	ft4,0(sp)
    2bfe:	0000                	unimp
    2c00:	0000                	unimp
    2c02:	0200                	addi	s0,sp,256
    2c04:	9f32                	add	t5,t5,a2
    2c06:	0700                	addi	s0,sp,896
    2c08:	126c                	addi	a1,sp,300
    2c0a:	00a0                	addi	s0,sp,72
    2c0c:	0000                	unimp
    2c0e:	0000                	unimp
    2c10:	1270                	addi	a2,sp,300
    2c12:	00a0                	addi	s0,sp,72
    2c14:	0000                	unimp
    2c16:	0000                	unimp
    2c18:	5a01                	li	s4,-32
    2c1a:	a0127007          	0xa0127007
    2c1e:	0000                	unimp
    2c20:	0000                	unimp
    2c22:	8400                	0x8400
    2c24:	a012                	fsd	ft4,0(sp)
    2c26:	0000                	unimp
    2c28:	0000                	unimp
    2c2a:	0100                	addi	s0,sp,128
    2c2c:	075f 1284 00a0      	0xa01284075f
    2c32:	0000                	unimp
    2c34:	0000                	unimp
    2c36:	128c                	addi	a1,sp,352
    2c38:	00a0                	addi	s0,sp,72
    2c3a:	0000                	unimp
    2c3c:	0000                	unimp
    2c3e:	5b01                	li	s6,-32
    2c40:	0700                	addi	s0,sp,896
    2c42:	126c                	addi	a1,sp,300
    2c44:	00a0                	addi	s0,sp,72
    2c46:	0000                	unimp
    2c48:	0000                	unimp
    2c4a:	128c                	addi	a1,sp,352
    2c4c:	00a0                	addi	s0,sp,72
    2c4e:	0000                	unimp
    2c50:	0000                	unimp
    2c52:	9f9c0903          	lb	s2,-1543(s8)
    2c56:	0700                	addi	s0,sp,896
    2c58:	126c                	addi	a1,sp,300
    2c5a:	00a0                	addi	s0,sp,72
    2c5c:	0000                	unimp
    2c5e:	0000                	unimp
    2c60:	128c                	addi	a1,sp,352
    2c62:	00a0                	addi	s0,sp,72
    2c64:	0000                	unimp
    2c66:	0000                	unimp
    2c68:	9f380803          	lb	a6,-1549(a6)
    2c6c:	0700                	addi	s0,sp,896
    2c6e:	1294                	addi	a3,sp,352
    2c70:	00a0                	addi	s0,sp,72
    2c72:	0000                	unimp
    2c74:	0000                	unimp
    2c76:	12ac                	addi	a1,sp,360
    2c78:	00a0                	addi	s0,sp,72
    2c7a:	0000                	unimp
    2c7c:	0000                	unimp
    2c7e:	5601                	li	a2,-32
    2c80:	0700                	addi	s0,sp,896
    2c82:	1294                	addi	a3,sp,352
    2c84:	00a0                	addi	s0,sp,72
    2c86:	0000                	unimp
    2c88:	0000                	unimp
    2c8a:	12ac                	addi	a1,sp,360
    2c8c:	00a0                	addi	s0,sp,72
    2c8e:	0000                	unimp
    2c90:	0000                	unimp
    2c92:	6001                	0x6001
    2c94:	0700                	addi	s0,sp,896
    2c96:	1294                	addi	a3,sp,352
    2c98:	00a0                	addi	s0,sp,72
    2c9a:	0000                	unimp
    2c9c:	0000                	unimp
    2c9e:	12a8                	addi	a0,sp,360
    2ca0:	00a0                	addi	s0,sp,72
    2ca2:	0000                	unimp
    2ca4:	0000                	unimp
    2ca6:	3002                	fld	ft0,32(sp)
    2ca8:	009f 9407 a012      	0xa0129407009f
    2cae:	0000                	unimp
    2cb0:	0000                	unimp
    2cb2:	a800                	fsd	fs0,16(s0)
    2cb4:	a012                	fsd	ft4,0(sp)
    2cb6:	0000                	unimp
    2cb8:	0000                	unimp
    2cba:	0100                	addi	s0,sp,128
    2cbc:	0056                	c.slli	zero,0x15
    2cbe:	a0129407          	0xa0129407
    2cc2:	0000                	unimp
    2cc4:	0000                	unimp
    2cc6:	a800                	fsd	fs0,16(s0)
    2cc8:	a012                	fsd	ft4,0(sp)
    2cca:	0000                	unimp
    2ccc:	0000                	unimp
    2cce:	0100                	addi	s0,sp,128
    2cd0:	0060                	addi	s0,sp,12
    2cd2:	a0129407          	0xa0129407
    2cd6:	0000                	unimp
    2cd8:	0000                	unimp
    2cda:	a800                	fsd	fs0,16(s0)
    2cdc:	a012                	fsd	ft4,0(sp)
    2cde:	0000                	unimp
    2ce0:	0000                	unimp
    2ce2:	0300                	addi	s0,sp,384
    2ce4:	5008                	lw	a0,32(s0)
    2ce6:	009f ac07 a012      	0xa012ac07009f
    2cec:	0000                	unimp
    2cee:	0000                	unimp
    2cf0:	bc00                	fsd	fs0,56(s0)
    2cf2:	a012                	fsd	ft4,0(sp)
    2cf4:	0000                	unimp
    2cf6:	0000                	unimp
    2cf8:	0100                	addi	s0,sp,128
    2cfa:	0060                	addi	s0,sp,12
    2cfc:	a012ac07          	flw	fs8,-1535(t0)
    2d00:	0000                	unimp
    2d02:	0000                	unimp
    2d04:	bc00                	fsd	fs0,56(s0)
    2d06:	a012                	fsd	ft4,0(sp)
    2d08:	0000                	unimp
    2d0a:	0000                	unimp
    2d0c:	0200                	addi	s0,sp,256
    2d0e:	9f30                	0x9f30
    2d10:	0700                	addi	s0,sp,896
    2d12:	12ac                	addi	a1,sp,360
    2d14:	00a0                	addi	s0,sp,72
    2d16:	0000                	unimp
    2d18:	0000                	unimp
    2d1a:	12bc                	addi	a5,sp,360
    2d1c:	00a0                	addi	s0,sp,72
    2d1e:	0000                	unimp
    2d20:	0000                	unimp
    2d22:	9f390803          	lb	a6,-1549(s2)
    2d26:	0700                	addi	s0,sp,896
    2d28:	1154                	addi	a3,sp,164
    2d2a:	00a0                	addi	s0,sp,72
    2d2c:	0000                	unimp
    2d2e:	0000                	unimp
    2d30:	1190                	addi	a2,sp,224
    2d32:	00a0                	addi	s0,sp,72
    2d34:	0000                	unimp
    2d36:	0000                	unimp
    2d38:	5a01                	li	s4,-32
    2d3a:	a0119007          	0xa0119007
    2d3e:	0000                	unimp
    2d40:	0000                	unimp
    2d42:	2c00                	fld	fs0,24(s0)
    2d44:	a012                	fsd	ft4,0(sp)
    2d46:	0000                	unimp
    2d48:	0000                	unimp
    2d4a:	0100                	addi	s0,sp,128
    2d4c:	076d                	addi	a4,a4,27
    2d4e:	122c                	addi	a1,sp,296
    2d50:	00a0                	addi	s0,sp,72
    2d52:	0000                	unimp
    2d54:	0000                	unimp
    2d56:	123c                	addi	a5,sp,296
    2d58:	00a0                	addi	s0,sp,72
    2d5a:	0000                	unimp
    2d5c:	0000                	unimp
    2d5e:	5a01                	li	s4,-32
    2d60:	a0123c07          	fld	fs8,-1535(tp) # fffffffffffffa01 <end+0xfffffffffeffda01>
    2d64:	0000                	unimp
    2d66:	0000                	unimp
    2d68:	5800                	lw	s0,48(s0)
    2d6a:	a012                	fsd	ft4,0(sp)
    2d6c:	0000                	unimp
    2d6e:	0000                	unimp
    2d70:	0100                	addi	s0,sp,128
    2d72:	006d                	c.nop	27
    2d74:	a0115407          	0xa0115407
    2d78:	0000                	unimp
    2d7a:	0000                	unimp
    2d7c:	9000                	0x9000
    2d7e:	a011                	j	2d82 <_text-0x9fd27e>
    2d80:	0000                	unimp
    2d82:	0000                	unimp
    2d84:	0100                	addi	s0,sp,128
    2d86:	1190075b          	0x1190075b
    2d8a:	00a0                	addi	s0,sp,72
    2d8c:	0000                	unimp
    2d8e:	0000                	unimp
    2d90:	122c                	addi	a1,sp,296
    2d92:	00a0                	addi	s0,sp,72
    2d94:	0000                	unimp
    2d96:	0000                	unimp
    2d98:	a304                	fsd	fs1,0(a4)
    2d9a:	5b01                	li	s6,-32
    2d9c:	079f 122c 00a0      	0xa0122c079f
    2da2:	0000                	unimp
    2da4:	0000                	unimp
    2da6:	123c                	addi	a5,sp,296
    2da8:	00a0                	addi	s0,sp,72
    2daa:	0000                	unimp
    2dac:	0000                	unimp
    2dae:	5b01                	li	s6,-32
    2db0:	a0123c07          	fld	fs8,-1535(tp) # fffffffffffffa01 <end+0xfffffffffeffda01>
    2db4:	0000                	unimp
    2db6:	0000                	unimp
    2db8:	5800                	lw	s0,48(s0)
    2dba:	a012                	fsd	ft4,0(sp)
    2dbc:	0000                	unimp
    2dbe:	0000                	unimp
    2dc0:	0400                	addi	s0,sp,512
    2dc2:	9f5b01a3          	sb	s5,-1565(s6)
    2dc6:	0700                	addi	s0,sp,896
    2dc8:	1158                	addi	a4,sp,164
    2dca:	00a0                	addi	s0,sp,72
    2dcc:	0000                	unimp
    2dce:	0000                	unimp
    2dd0:	1190                	addi	a2,sp,224
    2dd2:	00a0                	addi	s0,sp,72
    2dd4:	0000                	unimp
    2dd6:	0000                	unimp
    2dd8:	3002                	fld	ft0,32(sp)
    2dda:	079f 1190 00a0      	0xa01190079f
    2de0:	0000                	unimp
    2de2:	0000                	unimp
    2de4:	1198                	addi	a4,sp,224
    2de6:	00a0                	addi	s0,sp,72
    2de8:	0000                	unimp
    2dea:	0000                	unimp
    2dec:	6001                	0x6001
    2dee:	a011b007          	fld	ft0,-1535(gp)
    2df2:	0000                	unimp
    2df4:	0000                	unimp
    2df6:	0800                	addi	s0,sp,16
    2df8:	a012                	fsd	ft4,0(sp)
    2dfa:	0000                	unimp
    2dfc:	0000                	unimp
    2dfe:	0100                	addi	s0,sp,128
    2e00:	0760                	addi	s0,sp,908
    2e02:	1208                	addi	a0,sp,288
    2e04:	00a0                	addi	s0,sp,72
    2e06:	0000                	unimp
    2e08:	0000                	unimp
    2e0a:	1224                	addi	s1,sp,296
    2e0c:	00a0                	addi	s0,sp,72
    2e0e:	0000                	unimp
    2e10:	0000                	unimp
    2e12:	5601                	li	a2,-32
    2e14:	a0122407          	flw	fs0,-1535(tp) # fffffffffffffa01 <end+0xfffffffffeffda01>
    2e18:	0000                	unimp
    2e1a:	0000                	unimp
    2e1c:	2c00                	fld	fs0,24(s0)
    2e1e:	a012                	fsd	ft4,0(sp)
    2e20:	0000                	unimp
    2e22:	0000                	unimp
    2e24:	0100                	addi	s0,sp,128
    2e26:	0760                	addi	s0,sp,908
    2e28:	122c                	addi	a1,sp,296
    2e2a:	00a0                	addi	s0,sp,72
    2e2c:	0000                	unimp
    2e2e:	0000                	unimp
    2e30:	1230                	addi	a2,sp,296
    2e32:	00a0                	addi	s0,sp,72
    2e34:	0000                	unimp
    2e36:	0000                	unimp
    2e38:	3002                	fld	ft0,32(sp)
    2e3a:	079f 1230 00a0      	0xa01230079f
    2e40:	0000                	unimp
    2e42:	0000                	unimp
    2e44:	1234                	addi	a3,sp,296
    2e46:	00a0                	addi	s0,sp,72
    2e48:	0000                	unimp
    2e4a:	0000                	unimp
    2e4c:	5601                	li	a2,-32
    2e4e:	a0123407          	fld	fs0,-1535(tp) # fffffffffffffa01 <end+0xfffffffffeffda01>
    2e52:	0000                	unimp
    2e54:	0000                	unimp
    2e56:	3c00                	fld	fs0,56(s0)
    2e58:	a012                	fsd	ft4,0(sp)
    2e5a:	0000                	unimp
    2e5c:	0000                	unimp
    2e5e:	0200                	addi	s0,sp,256
    2e60:	9f30                	0x9f30
    2e62:	a0123c07          	fld	fs8,-1535(tp) # fffffffffffffa01 <end+0xfffffffffeffda01>
    2e66:	0000                	unimp
    2e68:	0000                	unimp
    2e6a:	4000                	lw	s0,0(s0)
    2e6c:	a012                	fsd	ft4,0(sp)
    2e6e:	0000                	unimp
    2e70:	0000                	unimp
    2e72:	0100                	addi	s0,sp,128
    2e74:	0760                	addi	s0,sp,908
    2e76:	1240                	addi	s0,sp,292
    2e78:	00a0                	addi	s0,sp,72
    2e7a:	0000                	unimp
    2e7c:	0000                	unimp
    2e7e:	1244                	addi	s1,sp,292
    2e80:	00a0                	addi	s0,sp,72
    2e82:	0000                	unimp
    2e84:	0000                	unimp
    2e86:	5601                	li	a2,-32
    2e88:	0700                	addi	s0,sp,896
    2e8a:	1190                	addi	a2,sp,224
    2e8c:	00a0                	addi	s0,sp,72
    2e8e:	0000                	unimp
    2e90:	0000                	unimp
    2e92:	119c                	addi	a5,sp,224
    2e94:	00a0                	addi	s0,sp,72
    2e96:	0000                	unimp
    2e98:	0000                	unimp
    2e9a:	5a01                	li	s4,-32
    2e9c:	a011d807          	0xa011d807
    2ea0:	0000                	unimp
    2ea2:	0000                	unimp
    2ea4:	ec00                	sd	s0,24(s0)
    2ea6:	a011                	j	2eaa <_text-0x9fd156>
    2ea8:	0000                	unimp
    2eaa:	0000                	unimp
    2eac:	0100                	addi	s0,sp,128
    2eae:	075a                	slli	a4,a4,0x16
    2eb0:	123c                	addi	a5,sp,296
    2eb2:	00a0                	addi	s0,sp,72
    2eb4:	0000                	unimp
    2eb6:	0000                	unimp
    2eb8:	1240                	addi	s0,sp,292
    2eba:	00a0                	addi	s0,sp,72
    2ebc:	0000                	unimp
    2ebe:	0000                	unimp
    2ec0:	5a01                	li	s4,-32
    2ec2:	0700                	addi	s0,sp,896
    2ec4:	1198                	addi	a4,sp,224
    2ec6:	00a0                	addi	s0,sp,72
    2ec8:	0000                	unimp
    2eca:	0000                	unimp
    2ecc:	11b0                	addi	a2,sp,232
    2ece:	00a0                	addi	s0,sp,72
    2ed0:	0000                	unimp
    2ed2:	0000                	unimp
    2ed4:	3302                	fld	ft6,32(sp)
    2ed6:	009f 9807 a011      	0xa0119807009f
    2edc:	0000                	unimp
    2ede:	0000                	unimp
    2ee0:	b000                	fsd	fs0,32(s0)
    2ee2:	a011                	j	2ee6 <_text-0x9fd11a>
    2ee4:	0000                	unimp
    2ee6:	0000                	unimp
    2ee8:	0a00                	addi	s0,sp,272
    2eea:	a0225803          	lhu	a6,-1534(tp) # fffffffffffffa02 <end+0xfffffffffeffda02>
    2eee:	0000                	unimp
    2ef0:	0000                	unimp
    2ef2:	9f00                	0x9f00
    2ef4:	0700                	addi	s0,sp,896
    2ef6:	1198                	addi	a4,sp,224
    2ef8:	00a0                	addi	s0,sp,72
    2efa:	0000                	unimp
    2efc:	0000                	unimp
    2efe:	11b0                	addi	a2,sp,232
    2f00:	00a0                	addi	s0,sp,72
    2f02:	0000                	unimp
    2f04:	0000                	unimp
    2f06:	3102                	fld	ft2,32(sp)
    2f08:	009f 9807 a011      	0xa0119807009f
    2f0e:	0000                	unimp
    2f10:	0000                	unimp
    2f12:	b000                	fsd	fs0,32(s0)
    2f14:	a011                	j	2f18 <_text-0x9fd0e8>
    2f16:	0000                	unimp
    2f18:	0000                	unimp
    2f1a:	0200                	addi	s0,sp,256
    2f1c:	9f30                	0x9f30
    2f1e:	0700                	addi	s0,sp,896
    2f20:	1198                	addi	a4,sp,224
    2f22:	00a0                	addi	s0,sp,72
    2f24:	0000                	unimp
    2f26:	0000                	unimp
    2f28:	11b0                	addi	a2,sp,232
    2f2a:	00a0                	addi	s0,sp,72
    2f2c:	0000                	unimp
    2f2e:	0000                	unimp
    2f30:	9f400803          	lb	a6,-1548(zero) # fffffffffffff9f4 <end+0xfffffffffeffd9f4>
    2f34:	0700                	addi	s0,sp,896
    2f36:	11b8                	addi	a4,sp,232
    2f38:	00a0                	addi	s0,sp,72
    2f3a:	0000                	unimp
    2f3c:	0000                	unimp
    2f3e:	11d8                	addi	a4,sp,228
    2f40:	00a0                	addi	s0,sp,72
    2f42:	0000                	unimp
    2f44:	0000                	unimp
    2f46:	3102                	fld	ft2,32(sp)
    2f48:	009f b807 a011      	0xa011b807009f
    2f4e:	0000                	unimp
    2f50:	0000                	unimp
    2f52:	c000                	sw	s0,0(s0)
    2f54:	a011                	j	2f58 <_text-0x9fd0a8>
    2f56:	0000                	unimp
    2f58:	0000                	unimp
    2f5a:	0300                	addi	s0,sp,384
    2f5c:	6f78                	ld	a4,216(a4)
    2f5e:	079f 11c0 00a0      	0xa011c0079f
    2f64:	0000                	unimp
    2f66:	0000                	unimp
    2f68:	11d8                	addi	a4,sp,228
    2f6a:	00a0                	addi	s0,sp,72
    2f6c:	0000                	unimp
    2f6e:	0000                	unimp
    2f70:	5b01                	li	s6,-32
    2f72:	0700                	addi	s0,sp,896
    2f74:	11b8                	addi	a4,sp,232
    2f76:	00a0                	addi	s0,sp,72
    2f78:	0000                	unimp
    2f7a:	0000                	unimp
    2f7c:	11d8                	addi	a4,sp,228
    2f7e:	00a0                	addi	s0,sp,72
    2f80:	0000                	unimp
    2f82:	0000                	unimp
    2f84:	3002                	fld	ft0,32(sp)
    2f86:	009f b807 a011      	0xa011b807009f
    2f8c:	0000                	unimp
    2f8e:	0000                	unimp
    2f90:	d800                	sw	s0,48(s0)
    2f92:	a011                	j	2f96 <_text-0x9fd06a>
    2f94:	0000                	unimp
    2f96:	0000                	unimp
    2f98:	0300                	addi	s0,sp,384
    2f9a:	3f08                	fld	fa0,56(a4)
    2f9c:	009f e807 a011      	0xa011e807009f
    2fa2:	0000                	unimp
    2fa4:	0000                	unimp
    2fa6:	0800                	addi	s0,sp,16
    2fa8:	a012                	fsd	ft4,0(sp)
    2faa:	0000                	unimp
    2fac:	0000                	unimp
    2fae:	0200                	addi	s0,sp,256
    2fb0:	9f31                	addw	a4,a4,a2
    2fb2:	0700                	addi	s0,sp,896
    2fb4:	11e8                	addi	a0,sp,236
    2fb6:	00a0                	addi	s0,sp,72
    2fb8:	0000                	unimp
    2fba:	0000                	unimp
    2fbc:	1208                	addi	a0,sp,288
    2fbe:	00a0                	addi	s0,sp,72
    2fc0:	0000                	unimp
    2fc2:	0000                	unimp
    2fc4:	5b01                	li	s6,-32
    2fc6:	0700                	addi	s0,sp,896
    2fc8:	11e8                	addi	a0,sp,236
    2fca:	00a0                	addi	s0,sp,72
    2fcc:	0000                	unimp
    2fce:	0000                	unimp
    2fd0:	1208                	addi	a0,sp,288
    2fd2:	00a0                	addi	s0,sp,72
    2fd4:	0000                	unimp
    2fd6:	0000                	unimp
    2fd8:	3002                	fld	ft0,32(sp)
    2fda:	009f e807 a011      	0xa011e807009f
    2fe0:	0000                	unimp
    2fe2:	0000                	unimp
    2fe4:	0800                	addi	s0,sp,16
    2fe6:	a012                	fsd	ft4,0(sp)
    2fe8:	0000                	unimp
    2fea:	0000                	unimp
    2fec:	0300                	addi	s0,sp,384
    2fee:	4008                	lw	a0,0(s0)
    2ff0:	009f 1807 a011      	0xa0111807009f
    2ff6:	0000                	unimp
    2ff8:	0000                	unimp
    2ffa:	3400                	fld	fs0,40(s0)
    2ffc:	a011                	j	3000 <_text-0x9fd000>
    2ffe:	0000                	unimp
    3000:	0000                	unimp
    3002:	0100                	addi	s0,sp,128
    3004:	075a                	slli	a4,a4,0x16
    3006:	1134                	addi	a3,sp,168
    3008:	00a0                	addi	s0,sp,72
    300a:	0000                	unimp
    300c:	0000                	unimp
    300e:	1140                	addi	s0,sp,164
    3010:	00a0                	addi	s0,sp,72
    3012:	0000                	unimp
    3014:	0000                	unimp
    3016:	5a01                	li	s4,-32
    3018:	a0114c07          	flq	fs8,-1535(sp)
    301c:	0000                	unimp
    301e:	0000                	unimp
    3020:	5000                	lw	s0,32(s0)
    3022:	a011                	j	3026 <_text-0x9fcfda>
    3024:	0000                	unimp
    3026:	0000                	unimp
    3028:	0100                	addi	s0,sp,128
    302a:	075a                	slli	a4,a4,0x16
    302c:	1150                	addi	a2,sp,164
    302e:	00a0                	addi	s0,sp,72
    3030:	0000                	unimp
    3032:	0000                	unimp
    3034:	1154                	addi	a3,sp,164
    3036:	00a0                	addi	s0,sp,72
    3038:	0000                	unimp
    303a:	0000                	unimp
    303c:	a304                	fsd	fs1,0(a4)
    303e:	5a01                	li	s4,-32
    3040:	009f e007 a010      	0xa010e007009f
    3046:	0000                	unimp
    3048:	0000                	unimp
    304a:	f800                	sd	s0,48(s0)
    304c:	a010                	fsd	fa2,0(s0)
    304e:	0000                	unimp
    3050:	0000                	unimp
    3052:	0100                	addi	s0,sp,128
    3054:	075c                	addi	a5,sp,900
    3056:	10f8                	addi	a4,sp,108
    3058:	00a0                	addi	s0,sp,72
    305a:	0000                	unimp
    305c:	0000                	unimp
    305e:	1118                	addi	a4,sp,160
    3060:	00a0                	addi	s0,sp,72
    3062:	0000                	unimp
    3064:	0000                	unimp
    3066:	a304                	fsd	fs1,0(a4)
    3068:	5c01                	li	s8,-32
    306a:	009f ec07 a010      	0xa010ec07009f
    3070:	0000                	unimp
    3072:	0000                	unimp
    3074:	0000                	unimp
    3076:	a011                	j	307a <_text-0x9fcf86>
    3078:	0000                	unimp
    307a:	0000                	unimp
    307c:	0200                	addi	s0,sp,256
    307e:	9f30                	0x9f30
    3080:	a0110007          	0xa0110007
    3084:	0000                	unimp
    3086:	0000                	unimp
    3088:	0400                	addi	s0,sp,512
    308a:	a011                	j	308e <_text-0x9fcf72>
    308c:	0000                	unimp
    308e:	0000                	unimp
    3090:	0600                	addi	s0,sp,768
    3092:	007f                	0x7f
    3094:	007a                	c.slli	zero,0x1e
    3096:	9f1c                	0x9f1c
    3098:	a0110407          	0xa0110407
    309c:	0000                	unimp
    309e:	0000                	unimp
    30a0:	0800                	addi	s0,sp,16
    30a2:	a011                	j	30a6 <_text-0x9fcf5a>
    30a4:	0000                	unimp
    30a6:	0000                	unimp
    30a8:	0800                	addi	s0,sp,16
    30aa:	007f                	0x7f
    30ac:	007a                	c.slli	zero,0x1e
    30ae:	231c                	fld	fa5,0(a4)
    30b0:	9f01                	subw	a4,a4,s0
    30b2:	0700                	addi	s0,sp,896
    30b4:	1098                	addi	a4,sp,96
    30b6:	00a0                	addi	s0,sp,72
    30b8:	0000                	unimp
    30ba:	0000                	unimp
    30bc:	10b0                	addi	a2,sp,104
    30be:	00a0                	addi	s0,sp,72
    30c0:	0000                	unimp
    30c2:	0000                	unimp
    30c4:	5a01                	li	s4,-32
    30c6:	a010b007          	fld	ft0,-1535(ra)
    30ca:	0000                	unimp
    30cc:	0000                	unimp
    30ce:	bc00                	fsd	fs0,56(s0)
    30d0:	a010                	fsd	fa2,0(s0)
    30d2:	0000                	unimp
    30d4:	0000                	unimp
    30d6:	0300                	addi	s0,sp,384
    30d8:	7f7a                	ld	t5,440(sp)
    30da:	079f 10bc 00a0      	0xa010bc079f
    30e0:	0000                	unimp
    30e2:	0000                	unimp
    30e4:	10d8                	addi	a4,sp,100
    30e6:	00a0                	addi	s0,sp,72
    30e8:	0000                	unimp
    30ea:	0000                	unimp
    30ec:	a304                	fsd	fs1,0(a4)
    30ee:	5a01                	li	s4,-32
    30f0:	079f 10d8 00a0      	0xa010d8079f
    30f6:	0000                	unimp
    30f8:	0000                	unimp
    30fa:	10dc                	addi	a5,sp,100
    30fc:	00a0                	addi	s0,sp,72
    30fe:	0000                	unimp
    3100:	0000                	unimp
    3102:	5a01                	li	s4,-32
    3104:	a010dc07          	0xa010dc07
    3108:	0000                	unimp
    310a:	0000                	unimp
    310c:	e000                	sd	s0,0(s0)
    310e:	a010                	fsd	fa2,0(s0)
    3110:	0000                	unimp
    3112:	0000                	unimp
    3114:	0400                	addi	s0,sp,512
    3116:	9f5a01a3          	sb	s5,-1565(s4)
    311a:	0700                	addi	s0,sp,896
    311c:	10a4                	addi	s1,sp,104
    311e:	00a0                	addi	s0,sp,72
    3120:	0000                	unimp
    3122:	0000                	unimp
    3124:	10bc                	addi	a5,sp,104
    3126:	00a0                	addi	s0,sp,72
    3128:	0000                	unimp
    312a:	0000                	unimp
    312c:	3002                	fld	ft0,32(sp)
    312e:	079f 10bc 00a0      	0xa010bc079f
    3134:	0000                	unimp
    3136:	0000                	unimp
    3138:	10c0                	addi	s0,sp,100
    313a:	00a0                	addi	s0,sp,72
    313c:	0000                	unimp
    313e:	0000                	unimp
    3140:	7f09                	lui	t5,0xfffe2
    3142:	a300                	fsd	fs0,0(a4)
    3144:	5a01                	li	s4,-32
    3146:	9f1c0123          	sb	a7,-1566(s8)
    314a:	a010c007          	flq	ft0,-1535(ra)
    314e:	0000                	unimp
    3150:	0000                	unimp
    3152:	c400                	sw	s0,8(s0)
    3154:	a010                	fsd	fa2,0(s0)
    3156:	0000                	unimp
    3158:	0000                	unimp
    315a:	0600                	addi	s0,sp,768
    315c:	007d                	c.nop	31
    315e:	007f                	0x7f
    3160:	9f22                	add	t5,t5,s0
    3162:	a010d807          	0xa010d807
    3166:	0000                	unimp
    3168:	0000                	unimp
    316a:	e000                	sd	s0,0(s0)
    316c:	a010                	fsd	fa2,0(s0)
    316e:	0000                	unimp
    3170:	0000                	unimp
    3172:	0200                	addi	s0,sp,256
    3174:	9f30                	0x9f30
    3176:	0700                	addi	s0,sp,896
    3178:	1058                	addi	a4,sp,36
    317a:	00a0                	addi	s0,sp,72
    317c:	0000                	unimp
    317e:	0000                	unimp
    3180:	1078                	addi	a4,sp,44
    3182:	00a0                	addi	s0,sp,72
    3184:	0000                	unimp
    3186:	0000                	unimp
    3188:	5a01                	li	s4,-32
    318a:	a0107807          	0xa0107807
    318e:	0000                	unimp
    3190:	0000                	unimp
    3192:	8800                	0x8800
    3194:	a010                	fsd	fa2,0(s0)
    3196:	0000                	unimp
    3198:	0000                	unimp
    319a:	0100                	addi	s0,sp,128
    319c:	005a                	c.slli	zero,0x16
    319e:	a0105807          	0xa0105807
    31a2:	0000                	unimp
    31a4:	0000                	unimp
    31a6:	7c00                	ld	s0,56(s0)
    31a8:	a010                	fsd	fa2,0(s0)
    31aa:	0000                	unimp
    31ac:	0000                	unimp
    31ae:	0100                	addi	s0,sp,128
    31b0:	107c075b          	0x107c075b
    31b4:	00a0                	addi	s0,sp,72
    31b6:	0000                	unimp
    31b8:	0000                	unimp
    31ba:	1098                	addi	a4,sp,96
    31bc:	00a0                	addi	s0,sp,72
    31be:	0000                	unimp
    31c0:	0000                	unimp
    31c2:	5b01                	li	s6,-32
    31c4:	0700                	addi	s0,sp,896
    31c6:	1028                	addi	a0,sp,40
    31c8:	00a0                	addi	s0,sp,72
    31ca:	0000                	unimp
    31cc:	0000                	unimp
    31ce:	1038                	addi	a4,sp,40
    31d0:	00a0                	addi	s0,sp,72
    31d2:	0000                	unimp
    31d4:	0000                	unimp
    31d6:	5a01                	li	s4,-32
    31d8:	a0103807          	fld	fa6,-1535(zero) # fffffffffffffa01 <end+0xfffffffffeffda01>
    31dc:	0000                	unimp
    31de:	0000                	unimp
    31e0:	5800                	lw	s0,48(s0)
    31e2:	a010                	fsd	fa2,0(s0)
    31e4:	0000                	unimp
    31e6:	0000                	unimp
    31e8:	0100                	addi	s0,sp,128
    31ea:	005f 2807 a010      	0xa0102807005f
    31f0:	0000                	unimp
    31f2:	0000                	unimp
    31f4:	3c00                	fld	fs0,56(s0)
    31f6:	a010                	fsd	fa2,0(s0)
    31f8:	0000                	unimp
    31fa:	0000                	unimp
    31fc:	0100                	addi	s0,sp,128
    31fe:	103c075b          	0x103c075b
    3202:	00a0                	addi	s0,sp,72
    3204:	0000                	unimp
    3206:	0000                	unimp
    3208:	1058                	addi	a4,sp,36
    320a:	00a0                	addi	s0,sp,72
    320c:	0000                	unimp
    320e:	0000                	unimp
    3210:	5b01                	li	s6,-32
    3212:	af00                	fsd	fs0,24(a4)
    3214:	0002                	c.slli64	zero
    3216:	0500                	addi	s0,sp,640
    3218:	0800                	addi	s0,sp,16
    321a:	0000                	unimp
    321c:	0000                	unimp
    321e:	0700                	addi	s0,sp,896
    3220:	14e8                	addi	a0,sp,620
    3222:	00a0                	addi	s0,sp,72
    3224:	0000                	unimp
    3226:	0000                	unimp
    3228:	1530                	addi	a2,sp,680
    322a:	00a0                	addi	s0,sp,72
    322c:	0000                	unimp
    322e:	0000                	unimp
    3230:	5a01                	li	s4,-32
    3232:	a0153007          	fld	ft0,-1535(a0)
    3236:	0000                	unimp
    3238:	0000                	unimp
    323a:	4000                	lw	s0,0(s0)
    323c:	a016                	fsd	ft5,0(sp)
    323e:	0000                	unimp
    3240:	0000                	unimp
    3242:	0400                	addi	s0,sp,512
    3244:	9f5a01a3          	sb	s5,-1565(s4)
    3248:	0700                	addi	s0,sp,896
    324a:	1538                	addi	a4,sp,680
    324c:	00a0                	addi	s0,sp,72
    324e:	0000                	unimp
    3250:	0000                	unimp
    3252:	1540                	addi	s0,sp,676
    3254:	00a0                	addi	s0,sp,72
    3256:	0000                	unimp
    3258:	0000                	unimp
    325a:	5f01                	li	t5,-32
    325c:	a0158407          	0xa0158407
    3260:	0000                	unimp
    3262:	0000                	unimp
    3264:	8800                	0x8800
    3266:	a015                	j	328a <_text-0x9fcd76>
    3268:	0000                	unimp
    326a:	0000                	unimp
    326c:	0a00                	addi	s0,sp,272
    326e:	a0301003          	lh	zero,-1533(zero) # fffffffffffffa03 <end+0xfffffffffeffda03>
    3272:	0000                	unimp
    3274:	0000                	unimp
    3276:	9f00                	0x9f00
    3278:	a0158807          	0xa0158807
    327c:	0000                	unimp
    327e:	0000                	unimp
    3280:	b000                	fsd	fs0,32(s0)
    3282:	a015                	j	32a6 <_text-0x9fcd5a>
    3284:	0000                	unimp
    3286:	0000                	unimp
    3288:	0100                	addi	s0,sp,128
    328a:	075f 15d8 00a0      	0xa015d8075f
    3290:	0000                	unimp
    3292:	0000                	unimp
    3294:	15e4                	addi	s1,sp,748
    3296:	00a0                	addi	s0,sp,72
    3298:	0000                	unimp
    329a:	0000                	unimp
    329c:	5f01                	li	t5,-32
    329e:	a015f807          	0xa015f807
    32a2:	0000                	unimp
    32a4:	0000                	unimp
    32a6:	0000                	unimp
    32a8:	a016                	fsd	ft5,0(sp)
    32aa:	0000                	unimp
    32ac:	0000                	unimp
    32ae:	0100                	addi	s0,sp,128
    32b0:	075a                	slli	a4,a4,0x16
    32b2:	1600                	addi	s0,sp,800
    32b4:	00a0                	addi	s0,sp,72
    32b6:	0000                	unimp
    32b8:	0000                	unimp
    32ba:	162c                	addi	a1,sp,808
    32bc:	00a0                	addi	s0,sp,72
    32be:	0000                	unimp
    32c0:	0000                	unimp
    32c2:	5f01                	li	t5,-32
    32c4:	0700                	addi	s0,sp,896
    32c6:	1530                	addi	a2,sp,680
    32c8:	00a0                	addi	s0,sp,72
    32ca:	0000                	unimp
    32cc:	0000                	unimp
    32ce:	1540                	addi	s0,sp,676
    32d0:	00a0                	addi	s0,sp,72
    32d2:	0000                	unimp
    32d4:	0000                	unimp
    32d6:	5a01                	li	s4,-32
    32d8:	a0156c07          	0xa0156c07
    32dc:	0000                	unimp
    32de:	0000                	unimp
    32e0:	8800                	0x8800
    32e2:	a015                	j	3306 <_text-0x9fccfa>
    32e4:	0000                	unimp
    32e6:	0000                	unimp
    32e8:	0a00                	addi	s0,sp,272
    32ea:	a0301003          	lh	zero,-1533(zero) # fffffffffffffa03 <end+0xfffffffffeffda03>
    32ee:	0000                	unimp
    32f0:	0000                	unimp
    32f2:	9f00                	0x9f00
    32f4:	a0158807          	0xa0158807
    32f8:	0000                	unimp
    32fa:	0000                	unimp
    32fc:	b000                	fsd	fs0,32(s0)
    32fe:	a015                	j	3322 <_text-0x9fccde>
    3300:	0000                	unimp
    3302:	0000                	unimp
    3304:	0100                	addi	s0,sp,128
    3306:	075a                	slli	a4,a4,0x16
    3308:	15d8                	addi	a4,sp,740
    330a:	00a0                	addi	s0,sp,72
    330c:	0000                	unimp
    330e:	0000                	unimp
    3310:	15e4                	addi	s1,sp,748
    3312:	00a0                	addi	s0,sp,72
    3314:	0000                	unimp
    3316:	0000                	unimp
    3318:	5a01                	li	s4,-32
    331a:	a015fc07          	0xa015fc07
    331e:	0000                	unimp
    3320:	0000                	unimp
    3322:	0800                	addi	s0,sp,16
    3324:	a016                	fsd	ft5,0(sp)
    3326:	0000                	unimp
    3328:	0000                	unimp
    332a:	0100                	addi	s0,sp,128
    332c:	005a                	c.slli	zero,0x16
    332e:	a0152807          	flw	fa6,-1535(a0)
    3332:	0000                	unimp
    3334:	0000                	unimp
    3336:	c400                	sw	s0,8(s0)
    3338:	a015                	j	335c <_text-0x9fcca4>
    333a:	0000                	unimp
    333c:	0000                	unimp
    333e:	0100                	addi	s0,sp,128
    3340:	15d80763          	beq	a6,t4,348e <_text-0x9fcb72>
    3344:	00a0                	addi	s0,sp,72
    3346:	0000                	unimp
    3348:	0000                	unimp
    334a:	1640                	addi	s0,sp,804
    334c:	00a0                	addi	s0,sp,72
    334e:	0000                	unimp
    3350:	0000                	unimp
    3352:	6301                	0x6301
    3354:	0700                	addi	s0,sp,896
    3356:	15e4                	addi	s1,sp,748
    3358:	00a0                	addi	s0,sp,72
    335a:	0000                	unimp
    335c:	0000                	unimp
    335e:	15f8                	addi	a4,sp,748
    3360:	00a0                	addi	s0,sp,72
    3362:	0000                	unimp
    3364:	0000                	unimp
    3366:	1200791b          	0x1200791b
    336a:	ff0c                	sd	a1,56(a4)
    336c:	ffff                	0xffff
    336e:	1aff                	0x1aff
    3370:	000a                	c.slli	zero,0x2
    3372:	1610                	addi	a2,sp,800
    3374:	0c14                	addi	a3,sp,528
    3376:	ffff                	0xffff
    3378:	ffff                	0xffff
    337a:	2b1a                	fld	fs6,384(sp)
    337c:	0128                	addi	a0,sp,136
    337e:	1600                	addi	s0,sp,800
    3380:	14079f13          	0x14079f13
    3384:	a016                	fsd	ft5,0(sp)
    3386:	0000                	unimp
    3388:	0000                	unimp
    338a:	3c00                	fld	fs0,56(s0)
    338c:	a016                	fsd	ft5,0(sp)
    338e:	0000                	unimp
    3390:	0000                	unimp
    3392:	1b00                	addi	s0,sp,432
    3394:	0079                	c.nop	30
    3396:	0c12                	slli	s8,s8,0x4
    3398:	ffff                	0xffff
    339a:	ffff                	0xffff
    339c:	0a1a                	slli	s4,s4,0x6
    339e:	1000                	addi	s0,sp,32
    33a0:	1416                	slli	s0,s0,0x25
    33a2:	ff0c                	sd	a1,56(a4)
    33a4:	ffff                	0xffff
    33a6:	1aff                	0x1aff
    33a8:	0001282b          	0x1282b
    33ac:	1316                	slli	t1,t1,0x25
    33ae:	009f e407 a015      	0xa015e407009f
    33b4:	0000                	unimp
    33b6:	0000                	unimp
    33b8:	ec00                	sd	s0,24(s0)
    33ba:	a015                	j	33de <_text-0x9fcc22>
    33bc:	0000                	unimp
    33be:	0000                	unimp
    33c0:	0100                	addi	s0,sp,128
    33c2:	075a                	slli	a4,a4,0x16
    33c4:	15ec                	addi	a1,sp,748
    33c6:	00a0                	addi	s0,sp,72
    33c8:	0000                	unimp
    33ca:	0000                	unimp
    33cc:	00a015f3          	csrrw	a1,0xa,zero
    33d0:	0000                	unimp
    33d2:	0000                	unimp
    33d4:	9f707a03          	0x9f707a03
    33d8:	a0163407          	fld	fs0,-1535(a2)
    33dc:	0000                	unimp
    33de:	0000                	unimp
    33e0:	3c00                	fld	fs0,56(s0)
    33e2:	a016                	fsd	ft5,0(sp)
    33e4:	0000                	unimp
    33e6:	0000                	unimp
    33e8:	0100                	addi	s0,sp,128
    33ea:	005a                	c.slli	zero,0x16
    33ec:	a015e407          	0xa015e407
    33f0:	0000                	unimp
    33f2:	0000                	unimp
    33f4:	ec00                	sd	s0,24(s0)
    33f6:	a015                	j	341a <_text-0x9fcbe6>
    33f8:	0000                	unimp
    33fa:	0000                	unimp
    33fc:	0100                	addi	s0,sp,128
    33fe:	075a                	slli	a4,a4,0x16
    3400:	15ec                	addi	a1,sp,748
    3402:	00a0                	addi	s0,sp,72
    3404:	0000                	unimp
    3406:	0000                	unimp
    3408:	00a015f3          	csrrw	a1,0xa,zero
    340c:	0000                	unimp
    340e:	0000                	unimp
    3410:	9f707a03          	0x9f707a03
    3414:	0700                	addi	s0,sp,896
    3416:	1614                	addi	a3,sp,800
    3418:	00a0                	addi	s0,sp,72
    341a:	0000                	unimp
    341c:	0000                	unimp
    341e:	1634                	addi	a3,sp,808
    3420:	00a0                	addi	s0,sp,72
    3422:	0000                	unimp
    3424:	0000                	unimp
    3426:	8605                	srai	a2,a2,0x1
    3428:	3400                	fld	fs0,40(s0)
    342a:	9f24                	0x9f24
    342c:	0700                	addi	s0,sp,896
    342e:	1614                	addi	a3,sp,800
    3430:	00a0                	addi	s0,sp,72
    3432:	0000                	unimp
    3434:	0000                	unimp
    3436:	1634                	addi	a3,sp,808
    3438:	00a0                	addi	s0,sp,72
    343a:	0000                	unimp
    343c:	0000                	unimp
    343e:	3002                	fld	ft0,32(sp)
    3440:	009f 1407 a016      	0xa0161407009f
    3446:	0000                	unimp
    3448:	0000                	unimp
    344a:	3400                	fld	fs0,40(s0)
    344c:	a016                	fsd	ft5,0(sp)
    344e:	0000                	unimp
    3450:	0000                	unimp
    3452:	0b00                	addi	s0,sp,400
    3454:	0086                	slli	ra,ra,0x1
    3456:	2434                	fld	fa3,72(s0)
    3458:	2008                	fld	fa0,0(s0)
    345a:	0824                	addi	s1,sp,24
    345c:	2620                	fld	fs0,72(a2)
    345e:	009f 1407 a016      	0xa0161407009f
    3464:	0000                	unimp
    3466:	0000                	unimp
    3468:	3400                	fld	fs0,40(s0)
    346a:	a016                	fsd	ft5,0(sp)
    346c:	0000                	unimp
    346e:	0000                	unimp
    3470:	0200                	addi	s0,sp,256
    3472:	9f3d                	addw	a4,a4,a5
    3474:	0700                	addi	s0,sp,896
    3476:	1448                	addi	a0,sp,548
    3478:	00a0                	addi	s0,sp,72
    347a:	0000                	unimp
    347c:	0000                	unimp
    347e:	147c                	addi	a5,sp,556
    3480:	00a0                	addi	s0,sp,72
    3482:	0000                	unimp
    3484:	0000                	unimp
    3486:	5d01                	li	s10,-32
    3488:	a0147c07          	0xa0147c07
    348c:	0000                	unimp
    348e:	0000                	unimp
    3490:	8000                	0x8000
    3492:	a014                	fsd	fa3,0(s0)
    3494:	0000                	unimp
    3496:	0000                	unimp
    3498:	0300                	addi	s0,sp,384
    349a:	707a                	0x707a
    349c:	079f 1480 00a0      	0xa01480079f
    34a2:	0000                	unimp
    34a4:	0000                	unimp
    34a6:	14d0                	addi	a2,sp,612
    34a8:	00a0                	addi	s0,sp,72
    34aa:	0000                	unimp
    34ac:	0000                	unimp
    34ae:	5d01                	li	s10,-32
    34b0:	a014d007          	0xa014d007
    34b4:	0000                	unimp
    34b6:	0000                	unimp
    34b8:	e800                	sd	s0,16(s0)
    34ba:	a014                	fsd	fa3,0(s0)
    34bc:	0000                	unimp
    34be:	0000                	unimp
    34c0:	0300                	addi	s0,sp,384
    34c2:	707a                	0x707a
    34c4:	009f        	0x9f

Disassembly of section .debug_rnglists:

0000000000000000 <.debug_rnglists>:
   0:	004e                	c.slli	zero,0x13
   2:	0000                	unimp
   4:	0005                	c.nop	1
   6:	0008                	0x8
   8:	0000                	unimp
   a:	0000                	unimp
   c:	7c06                	ld	s8,96(sp)
   e:	a000                	fsd	fs0,0(s0)
  10:	0000                	unimp
  12:	0000                	unimp
  14:	7c00                	ld	s0,56(s0)
  16:	a000                	fsd	fs0,0(s0)
  18:	0000                	unimp
  1a:	0000                	unimp
  1c:	0600                	addi	s0,sp,768
  1e:	0080                	addi	s0,sp,64
  20:	00a0                	addi	s0,sp,72
  22:	0000                	unimp
  24:	0000                	unimp
  26:	009c                	addi	a5,sp,64
  28:	00a0                	addi	s0,sp,72
  2a:	0000                	unimp
  2c:	0000                	unimp
  2e:	0600                	addi	s0,sp,768
  30:	0160                	addi	s0,sp,140
  32:	00a0                	addi	s0,sp,72
  34:	0000                	unimp
  36:	0000                	unimp
  38:	0160                	addi	s0,sp,140
  3a:	00a0                	addi	s0,sp,72
  3c:	0000                	unimp
  3e:	0000                	unimp
  40:	6406                	ld	s0,64(sp)
  42:	a001                	j	42 <_text-0x9fffbe>
  44:	0000                	unimp
  46:	0000                	unimp
  48:	7800                	ld	s0,48(s0)
  4a:	a001                	j	4a <_text-0x9fffb6>
  4c:	0000                	unimp
  4e:	0000                	unimp
  50:	0000                	unimp
  52:	000004ef          	jal	s1,52 <_text-0x9fffae>
  56:	0005                	c.nop	1
  58:	0008                	0x8
  5a:	0000                	unimp
  5c:	0000                	unimp
  5e:	b806                	fsd	ft1,48(sp)
  60:	0000a003          	lw	zero,0(ra)
  64:	0000                	unimp
  66:	dc00                	sw	s0,56(s0)
  68:	0000a003          	lw	zero,0(ra)
  6c:	0000                	unimp
  6e:	0600                	addi	s0,sp,768
  70:	03e4                	addi	s1,sp,460
  72:	00a0                	addi	s0,sp,72
  74:	0000                	unimp
  76:	0000                	unimp
  78:	03e8                	addi	a0,sp,460
  7a:	00a0                	addi	s0,sp,72
  7c:	0000                	unimp
  7e:	0000                	unimp
  80:	e806                	sd	ra,16(sp)
  82:	0000a003          	lw	zero,0(ra)
  86:	0000                	unimp
  88:	1400                	addi	s0,sp,544
  8a:	a004                	fsd	fs1,0(s0)
  8c:	0000                	unimp
  8e:	0000                	unimp
  90:	0000                	unimp
  92:	9806                	add	a6,a6,ra
  94:	a004                	fsd	fs1,0(s0)
  96:	0000                	unimp
  98:	0000                	unimp
  9a:	d800                	sw	s0,48(s0)
  9c:	a004                	fsd	fs1,0(s0)
  9e:	0000                	unimp
  a0:	0000                	unimp
  a2:	0600                	addi	s0,sp,768
  a4:	053c                	addi	a5,sp,648
  a6:	00a0                	addi	s0,sp,72
  a8:	0000                	unimp
  aa:	0000                	unimp
  ac:	0544                	addi	s1,sp,644
  ae:	00a0                	addi	s0,sp,72
  b0:	0000                	unimp
  b2:	0000                	unimp
  b4:	0600                	addi	s0,sp,768
  b6:	0594                	addi	a3,sp,704
  b8:	00a0                	addi	s0,sp,72
  ba:	0000                	unimp
  bc:	0000                	unimp
  be:	05ac                	addi	a1,sp,712
  c0:	00a0                	addi	s0,sp,72
  c2:	0000                	unimp
  c4:	0000                	unimp
  c6:	b806                	fsd	ft1,48(sp)
  c8:	a00d                	j	ea <_text-0x9fff16>
  ca:	0000                	unimp
  cc:	0000                	unimp
  ce:	d400                	sw	s0,40(s0)
  d0:	a00d                	j	f2 <_text-0x9fff0e>
  d2:	0000                	unimp
  d4:	0000                	unimp
  d6:	0600                	addi	s0,sp,768
  d8:	0de0                	addi	s0,sp,732
  da:	00a0                	addi	s0,sp,72
  dc:	0000                	unimp
  de:	0000                	unimp
  e0:	0e8c                	addi	a1,sp,848
  e2:	00a0                	addi	s0,sp,72
  e4:	0000                	unimp
  e6:	0000                	unimp
  e8:	0600                	addi	s0,sp,768
  ea:	0594                	addi	a3,sp,704
  ec:	00a0                	addi	s0,sp,72
  ee:	0000                	unimp
  f0:	0000                	unimp
  f2:	05ac                	addi	a1,sp,712
  f4:	00a0                	addi	s0,sp,72
  f6:	0000                	unimp
  f8:	0000                	unimp
  fa:	cc06                	sw	ra,24(sp)
  fc:	a00d                	j	11e <_text-0x9ffee2>
  fe:	0000                	unimp
 100:	0000                	unimp
 102:	d400                	sw	s0,40(s0)
 104:	a00d                	j	126 <_text-0x9ffeda>
 106:	0000                	unimp
 108:	0000                	unimp
 10a:	0600                	addi	s0,sp,768
 10c:	0de8                	addi	a0,sp,732
 10e:	00a0                	addi	s0,sp,72
 110:	0000                	unimp
 112:	0000                	unimp
 114:	0e04                	addi	s1,sp,784
 116:	00a0                	addi	s0,sp,72
 118:	0000                	unimp
 11a:	0000                	unimp
 11c:	5806                	lw	a6,96(sp)
 11e:	a00e                	fsd	ft3,0(sp)
 120:	0000                	unimp
 122:	0000                	unimp
 124:	8c00                	0x8c00
 126:	a00e                	fsd	ft3,0(sp)
 128:	0000                	unimp
 12a:	0000                	unimp
 12c:	0000                	unimp
 12e:	a406                	fsd	ft1,8(sp)
 130:	a005                	j	150 <_text-0x9ffeb0>
 132:	0000                	unimp
 134:	0000                	unimp
 136:	ac00                	fsd	fs0,24(s0)
 138:	a005                	j	158 <_text-0x9ffea8>
 13a:	0000                	unimp
 13c:	0000                	unimp
 13e:	0600                	addi	s0,sp,768
 140:	0e00                	addi	s0,sp,784
 142:	00a0                	addi	s0,sp,72
 144:	0000                	unimp
 146:	0000                	unimp
 148:	0e04                	addi	s1,sp,784
 14a:	00a0                	addi	s0,sp,72
 14c:	0000                	unimp
 14e:	0000                	unimp
 150:	6006                	0x6006
 152:	a00e                	fsd	ft3,0(sp)
 154:	0000                	unimp
 156:	0000                	unimp
 158:	8c00                	0x8c00
 15a:	a00e                	fsd	ft3,0(sp)
 15c:	0000                	unimp
 15e:	0000                	unimp
 160:	0000                	unimp
 162:	c806                	sw	ra,16(sp)
 164:	a00d                	j	186 <_text-0x9ffe7a>
 166:	0000                	unimp
 168:	0000                	unimp
 16a:	cc00                	sw	s0,24(s0)
 16c:	a00d                	j	18e <_text-0x9ffe72>
 16e:	0000                	unimp
 170:	0000                	unimp
 172:	0600                	addi	s0,sp,768
 174:	0e14                	addi	a3,sp,784
 176:	00a0                	addi	s0,sp,72
 178:	0000                	unimp
 17a:	0000                	unimp
 17c:	0e50                	addi	a2,sp,788
 17e:	00a0                	addi	s0,sp,72
 180:	0000                	unimp
 182:	0000                	unimp
 184:	0600                	addi	s0,sp,768
 186:	05b0                	addi	a2,sp,712
 188:	00a0                	addi	s0,sp,72
 18a:	0000                	unimp
 18c:	0000                	unimp
 18e:	05cc                	addi	a1,sp,708
 190:	00a0                	addi	s0,sp,72
 192:	0000                	unimp
 194:	0000                	unimp
 196:	3406                	fld	fs0,96(sp)
 198:	a006                	fsd	ft1,0(sp)
 19a:	0000                	unimp
 19c:	0000                	unimp
 19e:	6c00                	ld	s0,24(s0)
 1a0:	a006                	fsd	ft1,0(sp)
 1a2:	0000                	unimp
 1a4:	0000                	unimp
 1a6:	0000                	unimp
 1a8:	c806                	sw	ra,16(sp)
 1aa:	a005                	j	1ca <_text-0x9ffe36>
 1ac:	0000                	unimp
 1ae:	0000                	unimp
 1b0:	cc00                	sw	s0,24(s0)
 1b2:	a005                	j	1d2 <_text-0x9ffe2e>
 1b4:	0000                	unimp
 1b6:	0000                	unimp
 1b8:	0600                	addi	s0,sp,768
 1ba:	0640                	addi	s0,sp,772
 1bc:	00a0                	addi	s0,sp,72
 1be:	0000                	unimp
 1c0:	0000                	unimp
 1c2:	066c                	addi	a1,sp,780
 1c4:	00a0                	addi	s0,sp,72
 1c6:	0000                	unimp
 1c8:	0000                	unimp
 1ca:	0600                	addi	s0,sp,768
 1cc:	0808                	addi	a0,sp,16
 1ce:	00a0                	addi	s0,sp,72
 1d0:	0000                	unimp
 1d2:	0000                	unimp
 1d4:	0820                	addi	s0,sp,24
 1d6:	00a0                	addi	s0,sp,72
 1d8:	0000                	unimp
 1da:	0000                	unimp
 1dc:	2406                	fld	fs0,64(sp)
 1de:	a008                	fsd	fa0,0(s0)
 1e0:	0000                	unimp
 1e2:	0000                	unimp
 1e4:	5000                	lw	s0,32(s0)
 1e6:	a008                	fsd	fa0,0(s0)
 1e8:	0000                	unimp
 1ea:	0000                	unimp
 1ec:	0000                	unimp
 1ee:	2006                	fld	ft0,64(sp)
 1f0:	a008                	fsd	fa0,0(s0)
 1f2:	0000                	unimp
 1f4:	0000                	unimp
 1f6:	2000                	fld	fs0,0(s0)
 1f8:	a008                	fsd	fa0,0(s0)
 1fa:	0000                	unimp
 1fc:	0000                	unimp
 1fe:	0600                	addi	s0,sp,768
 200:	0824                	addi	s1,sp,24
 202:	00a0                	addi	s0,sp,72
 204:	0000                	unimp
 206:	0000                	unimp
 208:	0850                	addi	a2,sp,20
 20a:	00a0                	addi	s0,sp,72
 20c:	0000                	unimp
 20e:	0000                	unimp
 210:	0600                	addi	s0,sp,768
 212:	0878                	addi	a4,sp,28
 214:	00a0                	addi	s0,sp,72
 216:	0000                	unimp
 218:	0000                	unimp
 21a:	0894                	addi	a3,sp,80
 21c:	00a0                	addi	s0,sp,72
 21e:	0000                	unimp
 220:	0000                	unimp
 222:	b006                	fsd	ft1,32(sp)
 224:	a008                	fsd	fa0,0(s0)
 226:	0000                	unimp
 228:	0000                	unimp
 22a:	5c00                	lw	s0,56(s0)
 22c:	a009                	j	22e <_text-0x9ffdd2>
 22e:	0000                	unimp
 230:	0000                	unimp
 232:	0000                	unimp
 234:	8806                	mv	a6,ra
 236:	a008                	fsd	fa0,0(s0)
 238:	0000                	unimp
 23a:	0000                	unimp
 23c:	8c00                	0x8c00
 23e:	a008                	fsd	fa0,0(s0)
 240:	0000                	unimp
 242:	0000                	unimp
 244:	0600                	addi	s0,sp,768
 246:	08e4                	addi	s1,sp,92
 248:	00a0                	addi	s0,sp,72
 24a:	0000                	unimp
 24c:	0000                	unimp
 24e:	0920                	addi	s0,sp,152
 250:	00a0                	addi	s0,sp,72
 252:	0000                	unimp
 254:	0000                	unimp
 256:	0600                	addi	s0,sp,768
 258:	088c                	addi	a1,sp,80
 25a:	00a0                	addi	s0,sp,72
 25c:	0000                	unimp
 25e:	0000                	unimp
 260:	0894                	addi	a3,sp,80
 262:	00a0                	addi	s0,sp,72
 264:	0000                	unimp
 266:	0000                	unimp
 268:	b806                	fsd	ft1,48(sp)
 26a:	a008                	fsd	fa0,0(s0)
 26c:	0000                	unimp
 26e:	0000                	unimp
 270:	d400                	sw	s0,40(s0)
 272:	a008                	fsd	fa0,0(s0)
 274:	0000                	unimp
 276:	0000                	unimp
 278:	0600                	addi	s0,sp,768
 27a:	0928                	addi	a0,sp,152
 27c:	00a0                	addi	s0,sp,72
 27e:	0000                	unimp
 280:	0000                	unimp
 282:	095c                	addi	a5,sp,148
 284:	00a0                	addi	s0,sp,72
 286:	0000                	unimp
 288:	0000                	unimp
 28a:	0600                	addi	s0,sp,768
 28c:	08d0                	addi	a2,sp,84
 28e:	00a0                	addi	s0,sp,72
 290:	0000                	unimp
 292:	0000                	unimp
 294:	08d4                	addi	a3,sp,84
 296:	00a0                	addi	s0,sp,72
 298:	0000                	unimp
 29a:	0000                	unimp
 29c:	3006                	fld	ft0,96(sp)
 29e:	a009                	j	2a0 <_text-0x9ffd60>
 2a0:	0000                	unimp
 2a2:	0000                	unimp
 2a4:	5c00                	lw	s0,56(s0)
 2a6:	a009                	j	2a8 <_text-0x9ffd58>
 2a8:	0000                	unimp
 2aa:	0000                	unimp
 2ac:	0000                	unimp
 2ae:	9406                	add	s0,s0,ra
 2b0:	a009                	j	2b2 <_text-0x9ffd4e>
 2b2:	0000                	unimp
 2b4:	0000                	unimp
 2b6:	b000                	fsd	fs0,32(s0)
 2b8:	a009                	j	2ba <_text-0x9ffd46>
 2ba:	0000                	unimp
 2bc:	0000                	unimp
 2be:	0600                	addi	s0,sp,768
 2c0:	09bc                	addi	a5,sp,216
 2c2:	00a0                	addi	s0,sp,72
 2c4:	0000                	unimp
 2c6:	0000                	unimp
 2c8:	0a68                	addi	a0,sp,284
 2ca:	00a0                	addi	s0,sp,72
 2cc:	0000                	unimp
 2ce:	0000                	unimp
 2d0:	0600                	addi	s0,sp,768
 2d2:	09a4                	addi	s1,sp,216
 2d4:	00a0                	addi	s0,sp,72
 2d6:	0000                	unimp
 2d8:	0000                	unimp
 2da:	09a8                	addi	a0,sp,216
 2dc:	00a0                	addi	s0,sp,72
 2de:	0000                	unimp
 2e0:	0000                	unimp
 2e2:	f006                	sd	ra,32(sp)
 2e4:	a009                	j	2e6 <_text-0x9ffd1a>
 2e6:	0000                	unimp
 2e8:	0000                	unimp
 2ea:	2c00                	fld	fs0,24(s0)
 2ec:	a00a                	fsd	ft2,0(sp)
 2ee:	0000                	unimp
 2f0:	0000                	unimp
 2f2:	0000                	unimp
 2f4:	a806                	fsd	ft1,16(sp)
 2f6:	a009                	j	2f8 <_text-0x9ffd08>
 2f8:	0000                	unimp
 2fa:	0000                	unimp
 2fc:	b000                	fsd	fs0,32(s0)
 2fe:	a009                	j	300 <_text-0x9ffd00>
 300:	0000                	unimp
 302:	0000                	unimp
 304:	0600                	addi	s0,sp,768
 306:	09c4                	addi	s1,sp,212
 308:	00a0                	addi	s0,sp,72
 30a:	0000                	unimp
 30c:	0000                	unimp
 30e:	09e0                	addi	s0,sp,220
 310:	00a0                	addi	s0,sp,72
 312:	0000                	unimp
 314:	0000                	unimp
 316:	3406                	fld	fs0,96(sp)
 318:	a00a                	fsd	ft2,0(sp)
 31a:	0000                	unimp
 31c:	0000                	unimp
 31e:	6800                	ld	s0,16(s0)
 320:	a00a                	fsd	ft2,0(sp)
 322:	0000                	unimp
 324:	0000                	unimp
 326:	0000                	unimp
 328:	dc06                	sw	ra,56(sp)
 32a:	a009                	j	32c <_text-0x9ffcd4>
 32c:	0000                	unimp
 32e:	0000                	unimp
 330:	e000                	sd	s0,0(s0)
 332:	a009                	j	334 <_text-0x9ffccc>
 334:	0000                	unimp
 336:	0000                	unimp
 338:	0600                	addi	s0,sp,768
 33a:	0a3c                	addi	a5,sp,280
 33c:	00a0                	addi	s0,sp,72
 33e:	0000                	unimp
 340:	0000                	unimp
 342:	0a68                	addi	a0,sp,284
 344:	00a0                	addi	s0,sp,72
 346:	0000                	unimp
 348:	0000                	unimp
 34a:	0600                	addi	s0,sp,768
 34c:	0aa0                	addi	s0,sp,344
 34e:	00a0                	addi	s0,sp,72
 350:	0000                	unimp
 352:	0000                	unimp
 354:	0abc                	addi	a5,sp,344
 356:	00a0                	addi	s0,sp,72
 358:	0000                	unimp
 35a:	0000                	unimp
 35c:	c806                	sw	ra,16(sp)
 35e:	a00a                	fsd	ft2,0(sp)
 360:	0000                	unimp
 362:	0000                	unimp
 364:	7400                	ld	s0,40(s0)
 366:	0000a00b          	0xa00b
 36a:	0000                	unimp
 36c:	0000                	unimp
 36e:	b006                	fsd	ft1,32(sp)
 370:	a00a                	fsd	ft2,0(sp)
 372:	0000                	unimp
 374:	0000                	unimp
 376:	b400                	fsd	fs0,40(s0)
 378:	a00a                	fsd	ft2,0(sp)
 37a:	0000                	unimp
 37c:	0000                	unimp
 37e:	0600                	addi	s0,sp,768
 380:	0afc                	addi	a5,sp,348
 382:	00a0                	addi	s0,sp,72
 384:	0000                	unimp
 386:	0000                	unimp
 388:	0b38                	addi	a4,sp,408
 38a:	00a0                	addi	s0,sp,72
 38c:	0000                	unimp
 38e:	0000                	unimp
 390:	0600                	addi	s0,sp,768
 392:	0ab4                	addi	a3,sp,344
 394:	00a0                	addi	s0,sp,72
 396:	0000                	unimp
 398:	0000                	unimp
 39a:	0abc                	addi	a5,sp,344
 39c:	00a0                	addi	s0,sp,72
 39e:	0000                	unimp
 3a0:	0000                	unimp
 3a2:	d006                	sw	ra,32(sp)
 3a4:	a00a                	fsd	ft2,0(sp)
 3a6:	0000                	unimp
 3a8:	0000                	unimp
 3aa:	ec00                	sd	s0,24(s0)
 3ac:	a00a                	fsd	ft2,0(sp)
 3ae:	0000                	unimp
 3b0:	0000                	unimp
 3b2:	0600                	addi	s0,sp,768
 3b4:	0b40                	addi	s0,sp,404
 3b6:	00a0                	addi	s0,sp,72
 3b8:	0000                	unimp
 3ba:	0000                	unimp
 3bc:	0b74                	addi	a3,sp,412
 3be:	00a0                	addi	s0,sp,72
 3c0:	0000                	unimp
 3c2:	0000                	unimp
 3c4:	0600                	addi	s0,sp,768
 3c6:	0ae8                	addi	a0,sp,348
 3c8:	00a0                	addi	s0,sp,72
 3ca:	0000                	unimp
 3cc:	0000                	unimp
 3ce:	0aec                	addi	a1,sp,348
 3d0:	00a0                	addi	s0,sp,72
 3d2:	0000                	unimp
 3d4:	0000                	unimp
 3d6:	4806                	lw	a6,64(sp)
 3d8:	0000a00b          	0xa00b
 3dc:	0000                	unimp
 3de:	7400                	ld	s0,40(s0)
 3e0:	0000a00b          	0xa00b
 3e4:	0000                	unimp
 3e6:	0000                	unimp
 3e8:	ac06                	fsd	ft1,24(sp)
 3ea:	0000a00b          	0xa00b
 3ee:	0000                	unimp
 3f0:	c800                	sw	s0,16(s0)
 3f2:	0000a00b          	0xa00b
 3f6:	0000                	unimp
 3f8:	0600                	addi	s0,sp,768
 3fa:	0bd4                	addi	a3,sp,468
 3fc:	00a0                	addi	s0,sp,72
 3fe:	0000                	unimp
 400:	0000                	unimp
 402:	0c80                	addi	s0,sp,592
 404:	00a0                	addi	s0,sp,72
 406:	0000                	unimp
 408:	0000                	unimp
 40a:	0600                	addi	s0,sp,768
 40c:	0bbc                	addi	a5,sp,472
 40e:	00a0                	addi	s0,sp,72
 410:	0000                	unimp
 412:	0000                	unimp
 414:	0bc0                	addi	s0,sp,468
 416:	00a0                	addi	s0,sp,72
 418:	0000                	unimp
 41a:	0000                	unimp
 41c:	0806                	slli	a6,a6,0x1
 41e:	a00c                	fsd	fa1,0(s0)
 420:	0000                	unimp
 422:	0000                	unimp
 424:	4400                	lw	s0,8(s0)
 426:	a00c                	fsd	fa1,0(s0)
 428:	0000                	unimp
 42a:	0000                	unimp
 42c:	0000                	unimp
 42e:	c006                	sw	ra,0(sp)
 430:	0000a00b          	0xa00b
 434:	0000                	unimp
 436:	c800                	sw	s0,16(s0)
 438:	0000a00b          	0xa00b
 43c:	0000                	unimp
 43e:	0600                	addi	s0,sp,768
 440:	0bdc                	addi	a5,sp,468
 442:	00a0                	addi	s0,sp,72
 444:	0000                	unimp
 446:	0000                	unimp
 448:	0bf8                	addi	a4,sp,476
 44a:	00a0                	addi	s0,sp,72
 44c:	0000                	unimp
 44e:	0000                	unimp
 450:	4c06                	lw	s8,64(sp)
 452:	a00c                	fsd	fa1,0(s0)
 454:	0000                	unimp
 456:	0000                	unimp
 458:	8000                	0x8000
 45a:	a00c                	fsd	fa1,0(s0)
 45c:	0000                	unimp
 45e:	0000                	unimp
 460:	0000                	unimp
 462:	f406                	sd	ra,40(sp)
 464:	0000a00b          	0xa00b
 468:	0000                	unimp
 46a:	f800                	sd	s0,48(s0)
 46c:	0000a00b          	0xa00b
 470:	0000                	unimp
 472:	0600                	addi	s0,sp,768
 474:	0c54                	addi	a3,sp,532
 476:	00a0                	addi	s0,sp,72
 478:	0000                	unimp
 47a:	0000                	unimp
 47c:	0c80                	addi	s0,sp,592
 47e:	00a0                	addi	s0,sp,72
 480:	0000                	unimp
 482:	0000                	unimp
 484:	0600                	addi	s0,sp,768
 486:	0cb8                	addi	a4,sp,600
 488:	00a0                	addi	s0,sp,72
 48a:	0000                	unimp
 48c:	0000                	unimp
 48e:	0cd4                	addi	a3,sp,596
 490:	00a0                	addi	s0,sp,72
 492:	0000                	unimp
 494:	0000                	unimp
 496:	e006                	sd	ra,0(sp)
 498:	a00c                	fsd	fa1,0(s0)
 49a:	0000                	unimp
 49c:	0000                	unimp
 49e:	8c00                	0x8c00
 4a0:	a00d                	j	4c2 <_text-0x9ffb3e>
 4a2:	0000                	unimp
 4a4:	0000                	unimp
 4a6:	0000                	unimp
 4a8:	c806                	sw	ra,16(sp)
 4aa:	a00c                	fsd	fa1,0(s0)
 4ac:	0000                	unimp
 4ae:	0000                	unimp
 4b0:	cc00                	sw	s0,24(s0)
 4b2:	a00c                	fsd	fa1,0(s0)
 4b4:	0000                	unimp
 4b6:	0000                	unimp
 4b8:	0600                	addi	s0,sp,768
 4ba:	0d14                	addi	a3,sp,656
 4bc:	00a0                	addi	s0,sp,72
 4be:	0000                	unimp
 4c0:	0000                	unimp
 4c2:	0d50                	addi	a2,sp,660
 4c4:	00a0                	addi	s0,sp,72
 4c6:	0000                	unimp
 4c8:	0000                	unimp
 4ca:	0600                	addi	s0,sp,768
 4cc:	0ccc                	addi	a1,sp,596
 4ce:	00a0                	addi	s0,sp,72
 4d0:	0000                	unimp
 4d2:	0000                	unimp
 4d4:	0cd4                	addi	a3,sp,596
 4d6:	00a0                	addi	s0,sp,72
 4d8:	0000                	unimp
 4da:	0000                	unimp
 4dc:	e806                	sd	ra,16(sp)
 4de:	a00c                	fsd	fa1,0(s0)
 4e0:	0000                	unimp
 4e2:	0000                	unimp
 4e4:	0400                	addi	s0,sp,512
 4e6:	a00d                	j	508 <_text-0x9ffaf8>
 4e8:	0000                	unimp
 4ea:	0000                	unimp
 4ec:	0600                	addi	s0,sp,768
 4ee:	0d58                	addi	a4,sp,660
 4f0:	00a0                	addi	s0,sp,72
 4f2:	0000                	unimp
 4f4:	0000                	unimp
 4f6:	0d8c                	addi	a1,sp,720
 4f8:	00a0                	addi	s0,sp,72
 4fa:	0000                	unimp
 4fc:	0000                	unimp
 4fe:	0600                	addi	s0,sp,768
 500:	0d00                	addi	s0,sp,656
 502:	00a0                	addi	s0,sp,72
 504:	0000                	unimp
 506:	0000                	unimp
 508:	0d04                	addi	s1,sp,656
 50a:	00a0                	addi	s0,sp,72
 50c:	0000                	unimp
 50e:	0000                	unimp
 510:	6006                	0x6006
 512:	a00d                	j	534 <_text-0x9ffacc>
 514:	0000                	unimp
 516:	0000                	unimp
 518:	8c00                	0x8c00
 51a:	a00d                	j	53c <_text-0x9ffac4>
 51c:	0000                	unimp
 51e:	0000                	unimp
 520:	0000                	unimp
 522:	a006                	fsd	ft1,0(sp)
 524:	a00e                	fsd	ft3,0(sp)
 526:	0000                	unimp
 528:	0000                	unimp
 52a:	a000                	fsd	fs0,0(s0)
 52c:	a00e                	fsd	ft3,0(sp)
 52e:	0000                	unimp
 530:	0000                	unimp
 532:	0600                	addi	s0,sp,768
 534:	0ea4                	addi	s1,sp,856
 536:	00a0                	addi	s0,sp,72
 538:	0000                	unimp
 53a:	0000                	unimp
 53c:	0ec0                	addi	s0,sp,852
 53e:	00a0                	addi	s0,sp,72
 540:	0000                	unimp
 542:	0000                	unimp
 544:	2b00                	fld	fs0,16(a4)
 546:	0000                	unimp
 548:	0500                	addi	s0,sp,640
 54a:	0800                	addi	s0,sp,16
 54c:	0000                	unimp
 54e:	0000                	unimp
 550:	0600                	addi	s0,sp,768
 552:	1184                	addi	s1,sp,224
 554:	00a0                	addi	s0,sp,72
 556:	0000                	unimp
 558:	0000                	unimp
 55a:	1190                	addi	a2,sp,224
 55c:	00a0                	addi	s0,sp,72
 55e:	0000                	unimp
 560:	0000                	unimp
 562:	9806                	add	a6,a6,ra
 564:	a011                	j	568 <_text-0x9ffa98>
 566:	0000                	unimp
 568:	0000                	unimp
 56a:	b000                	fsd	fs0,32(s0)
 56c:	a011                	j	570 <_text-0x9ffa90>
 56e:	0000                	unimp
 570:	0000                	unimp
 572:	0000                	unimp
 574:	0070                	addi	a2,sp,12
 576:	0000                	unimp
 578:	0005                	c.nop	1
 57a:	0008                	0x8
 57c:	0000                	unimp
 57e:	0000                	unimp
 580:	5806                	lw	a6,96(sp)
 582:	a015                	j	5a6 <_text-0x9ffa5a>
 584:	0000                	unimp
 586:	0000                	unimp
 588:	5c00                	lw	s0,56(s0)
 58a:	a015                	j	5ae <_text-0x9ffa52>
 58c:	0000                	unimp
 58e:	0000                	unimp
 590:	0600                	addi	s0,sp,768
 592:	1564                	addi	s1,sp,684
 594:	00a0                	addi	s0,sp,72
 596:	0000                	unimp
 598:	0000                	unimp
 59a:	156c                	addi	a1,sp,684
 59c:	00a0                	addi	s0,sp,72
 59e:	0000                	unimp
 5a0:	0000                	unimp
 5a2:	e406                	sd	ra,8(sp)
 5a4:	a015                	j	5c8 <_text-0x9ffa38>
 5a6:	0000                	unimp
 5a8:	0000                	unimp
 5aa:	f800                	sd	s0,48(s0)
 5ac:	a015                	j	5d0 <_text-0x9ffa30>
 5ae:	0000                	unimp
 5b0:	0000                	unimp
 5b2:	0600                	addi	s0,sp,768
 5b4:	1614                	addi	a3,sp,800
 5b6:	00a0                	addi	s0,sp,72
 5b8:	0000                	unimp
 5ba:	0000                	unimp
 5bc:	1638                	addi	a4,sp,808
 5be:	00a0                	addi	s0,sp,72
 5c0:	0000                	unimp
 5c2:	0000                	unimp
 5c4:	0600                	addi	s0,sp,768
 5c6:	1558                	addi	a4,sp,676
 5c8:	00a0                	addi	s0,sp,72
 5ca:	0000                	unimp
 5cc:	0000                	unimp
 5ce:	155c                	addi	a5,sp,676
 5d0:	00a0                	addi	s0,sp,72
 5d2:	0000                	unimp
 5d4:	0000                	unimp
 5d6:	1406                	slli	s0,s0,0x21
 5d8:	a016                	fsd	ft5,0(sp)
 5da:	0000                	unimp
 5dc:	0000                	unimp
 5de:	3400                	fld	fs0,40(s0)
 5e0:	a016                	fsd	ft5,0(sp)
 5e2:	0000                	unimp
 5e4:	0000                	unimp
	...

Disassembly of section .debug_frame:

0000000000000000 <.debug_frame>:
   0:	000c                	0xc
   2:	0000                	unimp
   4:	ffff                	0xffff
   6:	ffff                	0xffff
   8:	7c010003          	lb	zero,1984(sp)
   c:	0d01                	addi	s10,s10,0
   e:	0002                	c.slli64	zero
  10:	0024                	addi	s1,sp,8
  12:	0000                	unimp
  14:	0000                	unimp
  16:	0000                	unimp
  18:	0020                	addi	s0,sp,8
  1a:	00a0                	addi	s0,sp,72
  1c:	0000                	unimp
  1e:	0000                	unimp
  20:	0174                	addi	a3,sp,140
  22:	0000                	unimp
  24:	0000                	unimp
  26:	0000                	unimp
  28:	0e44                	addi	s1,sp,788
  2a:	5040                	lw	s0,36(s0)
  2c:	0281                	addi	t0,t0,0
  2e:	0488                	addi	a0,sp,576
  30:	0689                	addi	a3,a3,2
  32:	0892                	slli	a7,a7,0x4
  34:	0c44                	addi	s1,sp,532
  36:	0008                	0x8
  38:	000c                	0xc
  3a:	0000                	unimp
  3c:	ffff                	0xffff
  3e:	ffff                	0xffff
  40:	7c010003          	lb	zero,1984(sp)
  44:	0d01                	addi	s10,s10,0
  46:	0002                	c.slli64	zero
  48:	002c                	addi	a1,sp,8
  4a:	0000                	unimp
  4c:	0038                	addi	a4,sp,8
  4e:	0000                	unimp
  50:	0194                	addi	a3,sp,192
  52:	00a0                	addi	s0,sp,72
  54:	0000                	unimp
  56:	0000                	unimp
  58:	0044                	addi	s1,sp,4
  5a:	0000                	unimp
  5c:	0000                	unimp
  5e:	0000                	unimp
  60:	0e44                	addi	s1,sp,788
  62:	4810                	lw	a2,16(s0)
  64:	0281                	addi	t0,t0,0
  66:	0488                	addi	a0,sp,576
  68:	0c44                	addi	s1,sp,532
  6a:	0008                	0x8
  6c:	c168                	sw	a0,68(a0)
  6e:	c844                	sw	s1,20(s0)
  70:	020c                	addi	a1,sp,256
  72:	4410                	lw	a2,8(s0)
  74:	000e                	c.slli	zero,0x3
  76:	0000                	unimp
  78:	000c                	0xc
  7a:	0000                	unimp
  7c:	ffff                	0xffff
  7e:	ffff                	0xffff
  80:	7c010003          	lb	zero,1984(sp)
  84:	0d01                	addi	s10,s10,0
  86:	0002                	c.slli64	zero
  88:	002c                	addi	a1,sp,8
  8a:	0000                	unimp
  8c:	0078                	addi	a4,sp,12
  8e:	0000                	unimp
  90:	01d8                	addi	a4,sp,196
  92:	00a0                	addi	s0,sp,72
  94:	0000                	unimp
  96:	0000                	unimp
  98:	0098                	addi	a4,sp,64
  9a:	0000                	unimp
  9c:	0000                	unimp
  9e:	0000                	unimp
  a0:	0e44                	addi	s1,sp,788
  a2:	4410                	lw	a2,8(s0)
  a4:	0288                	addi	a0,sp,320
  a6:	0c44                	addi	s1,sp,532
  a8:	0008                	0x8
  aa:	5402                	lw	s0,32(sp)
  ac:	c80a                	sw	sp,16(sp)
  ae:	020c                	addi	a1,sp,256
  b0:	4410                	lw	a2,8(s0)
  b2:	000e                	c.slli	zero,0x3
  b4:	0b44                	addi	s1,sp,404
  b6:	0000                	unimp
  b8:	002c                	addi	a1,sp,8
  ba:	0000                	unimp
  bc:	0078                	addi	a4,sp,12
  be:	0000                	unimp
  c0:	0270                	addi	a2,sp,268
  c2:	00a0                	addi	s0,sp,72
  c4:	0000                	unimp
  c6:	0000                	unimp
  c8:	0138                	addi	a4,sp,136
  ca:	0000                	unimp
  cc:	0000                	unimp
  ce:	0000                	unimp
  d0:	0e44                	addi	s1,sp,788
  d2:	4410                	lw	a2,8(s0)
  d4:	0288                	addi	a0,sp,320
  d6:	0c44                	addi	s1,sp,532
  d8:	0008                	0x8
  da:	fc02                	sd	zero,56(sp)
  dc:	c80a                	sw	sp,16(sp)
  de:	020c                	addi	a1,sp,256
  e0:	4410                	lw	a2,8(s0)
  e2:	000e                	c.slli	zero,0x3
  e4:	0b44                	addi	s1,sp,404
  e6:	0000                	unimp
  e8:	002c                	addi	a1,sp,8
  ea:	0000                	unimp
  ec:	0078                	addi	a4,sp,12
  ee:	0000                	unimp
  f0:	03a8                	addi	a0,sp,456
  f2:	00a0                	addi	s0,sp,72
  f4:	0000                	unimp
  f6:	0000                	unimp
  f8:	019c                	addi	a5,sp,192
  fa:	0000                	unimp
  fc:	0000                	unimp
  fe:	0000                	unimp
 100:	0e44                	addi	s1,sp,788
 102:	4410                	lw	a2,8(s0)
 104:	0288                	addi	a0,sp,320
 106:	0c44                	addi	s1,sp,532
 108:	0008                	0x8
 10a:	0a013003          	ld	zero,160(sp)
 10e:	0cc8                	addi	a0,sp,596
 110:	1002                	c.slli	zero,0x20
 112:	0e44                	addi	s1,sp,788
 114:	4400                	lw	s0,8(s0)
 116:	0054000b          	0x54000b
 11a:	0000                	unimp
 11c:	0078                	addi	a4,sp,12
 11e:	0000                	unimp
 120:	0544                	addi	s1,sp,644
 122:	00a0                	addi	s0,sp,72
 124:	0000                	unimp
 126:	0000                	unimp
 128:	09c0                	addi	s0,sp,212
 12a:	0000                	unimp
 12c:	0000                	unimp
 12e:	0000                	unimp
 130:	0e4c                	addi	a1,sp,788
 132:	01d0                	addi	a2,sp,196
 134:	8168                	0x8168
 136:	8802                	jr	a6
 138:	8904                	0x8904
 13a:	9206                	add	tp,tp,ra
 13c:	9308                	0x9308
 13e:	940a                	add	s0,s0,sp
 140:	950c                	0x950c
 142:	960e                	add	a2,a2,gp
 144:	9710                	0x9710
 146:	9812                	add	a6,a6,tp
 148:	4414                	lw	a3,8(s0)
 14a:	080c                	addi	a1,sp,16
 14c:	0300                	addi	s0,sp,384
 14e:	0958                	addi	a4,sp,148
 150:	44c1                	li	s1,16
 152:	0cc8                	addi	a0,sp,596
 154:	d002                	sw	zero,32(sp)
 156:	4401                	li	s0,0
 158:	44c9                	li	s1,18
 15a:	44d2                	lw	s1,20(sp)
 15c:	44d444d3          	0x44d444d3
 160:	44d5                	li	s1,21
 162:	44d6                	lw	s1,84(sp)
 164:	44d844d7          	0x44d844d7
 168:	000e                	c.slli	zero,0x3
 16a:	0000                	unimp
 16c:	0000                	unimp
 16e:	0000                	unimp
 170:	002c                	addi	a1,sp,8
 172:	0000                	unimp
 174:	0078                	addi	a4,sp,12
 176:	0000                	unimp
 178:	0f04                	addi	s1,sp,912
 17a:	00a0                	addi	s0,sp,72
 17c:	0000                	unimp
 17e:	0000                	unimp
 180:	0080                	addi	s0,sp,64
 182:	0000                	unimp
 184:	0000                	unimp
 186:	0000                	unimp
 188:	0e44                	addi	s1,sp,788
 18a:	4860                	lw	s0,84(s0)
 18c:	1281                	addi	t0,t0,-32
 18e:	1488                	addi	a0,sp,608
 190:	0c44                	addi	s1,sp,532
 192:	4008                	lw	a0,0(s0)
 194:	6402                	ld	s0,0(sp)
 196:	44c1                	li	s1,16
 198:	0cc8                	addi	a0,sp,596
 19a:	6002                	0x6002
 19c:	0e44                	addi	s1,sp,788
 19e:	0000                	unimp
 1a0:	0024                	addi	s1,sp,8
 1a2:	0000                	unimp
 1a4:	0078                	addi	a4,sp,12
 1a6:	0000                	unimp
 1a8:	0f84                	addi	s1,sp,976
 1aa:	00a0                	addi	s0,sp,72
 1ac:	0000                	unimp
 1ae:	0000                	unimp
 1b0:	007c                	addi	a5,sp,12
 1b2:	0000                	unimp
 1b4:	0000                	unimp
 1b6:	0000                	unimp
 1b8:	0e44                	addi	s1,sp,788
 1ba:	4c60                	lw	s0,92(s0)
 1bc:	0e81                	addi	t4,t4,0
 1be:	1088                	addi	a0,sp,96
 1c0:	1289                	addi	t0,t0,-30
 1c2:	0c44                	addi	s1,sp,532
 1c4:	3008                	fld	fa0,32(s0)
 1c6:	0000                	unimp
 1c8:	0024                	addi	s1,sp,8
 1ca:	0000                	unimp
 1cc:	0078                	addi	a4,sp,12
 1ce:	0000                	unimp
 1d0:	1000                	addi	s0,sp,32
 1d2:	00a0                	addi	s0,sp,72
 1d4:	0000                	unimp
 1d6:	0000                	unimp
 1d8:	0028                	addi	a0,sp,8
 1da:	0000                	unimp
 1dc:	0000                	unimp
 1de:	0000                	unimp
 1e0:	0e4c                	addi	a1,sp,788
 1e2:	4810                	lw	a2,16(s0)
 1e4:	0281                	addi	t0,t0,0
 1e6:	0488                	addi	a0,sp,576
 1e8:	0c44                	addi	s1,sp,532
 1ea:	0008                	0x8
 1ec:	0000                	unimp
 1ee:	0000                	unimp
 1f0:	000c                	0xc
 1f2:	0000                	unimp
 1f4:	ffff                	0xffff
 1f6:	ffff                	0xffff
 1f8:	7c010003          	lb	zero,1984(sp)
 1fc:	0d01                	addi	s10,s10,0
 1fe:	0002                	c.slli64	zero
 200:	002c                	addi	a1,sp,8
 202:	0000                	unimp
 204:	01f0                	addi	a2,sp,204
 206:	0000                	unimp
 208:	1028                	addi	a0,sp,40
 20a:	00a0                	addi	s0,sp,72
 20c:	0000                	unimp
 20e:	0000                	unimp
 210:	0030                	addi	a2,sp,8
 212:	0000                	unimp
 214:	0000                	unimp
 216:	0000                	unimp
 218:	0e44                	addi	s1,sp,788
 21a:	4410                	lw	a2,8(s0)
 21c:	0288                	addi	a0,sp,320
 21e:	0c44                	addi	s1,sp,532
 220:	0008                	0x8
 222:	c85c                	sw	a5,20(s0)
 224:	020c                	addi	a1,sp,256
 226:	4410                	lw	a2,8(s0)
 228:	000e                	c.slli	zero,0x3
 22a:	0000                	unimp
 22c:	0000                	unimp
 22e:	0000                	unimp
 230:	002c                	addi	a1,sp,8
 232:	0000                	unimp
 234:	01f0                	addi	a2,sp,204
 236:	0000                	unimp
 238:	1058                	addi	a4,sp,36
 23a:	00a0                	addi	s0,sp,72
 23c:	0000                	unimp
 23e:	0000                	unimp
 240:	0040                	addi	s0,sp,4
 242:	0000                	unimp
 244:	0000                	unimp
 246:	0000                	unimp
 248:	0e44                	addi	s1,sp,788
 24a:	4410                	lw	a2,8(s0)
 24c:	0288                	addi	a0,sp,320
 24e:	0c44                	addi	s1,sp,532
 250:	0008                	0x8
 252:	c86c                	sw	a1,84(s0)
 254:	020c                	addi	a1,sp,256
 256:	4410                	lw	a2,8(s0)
 258:	000e                	c.slli	zero,0x3
 25a:	0000                	unimp
 25c:	0000                	unimp
 25e:	0000                	unimp
 260:	002c                	addi	a1,sp,8
 262:	0000                	unimp
 264:	01f0                	addi	a2,sp,204
 266:	0000                	unimp
 268:	1098                	addi	a4,sp,96
 26a:	00a0                	addi	s0,sp,72
 26c:	0000                	unimp
 26e:	0000                	unimp
 270:	0048                	addi	a0,sp,4
 272:	0000                	unimp
 274:	0000                	unimp
 276:	0000                	unimp
 278:	0e44                	addi	s1,sp,788
 27a:	4410                	lw	a2,8(s0)
 27c:	0288                	addi	a0,sp,320
 27e:	0c44                	addi	s1,sp,532
 280:	0008                	0x8
 282:	0a6c                	addi	a1,sp,284
 284:	0cc8                	addi	a0,sp,596
 286:	1002                	c.slli	zero,0x20
 288:	0e44                	addi	s1,sp,788
 28a:	4400                	lw	s0,8(s0)
 28c:	0000000b          	0xb
 290:	002c                	addi	a1,sp,8
 292:	0000                	unimp
 294:	01f0                	addi	a2,sp,204
 296:	0000                	unimp
 298:	10e0                	addi	s0,sp,108
 29a:	00a0                	addi	s0,sp,72
 29c:	0000                	unimp
 29e:	0000                	unimp
 2a0:	0038                	addi	a4,sp,8
 2a2:	0000                	unimp
 2a4:	0000                	unimp
 2a6:	0000                	unimp
 2a8:	0e44                	addi	s1,sp,788
 2aa:	4410                	lw	a2,8(s0)
 2ac:	0288                	addi	a0,sp,320
 2ae:	0c44                	addi	s1,sp,532
 2b0:	0008                	0x8
 2b2:	c864                	sw	s1,84(s0)
 2b4:	020c                	addi	a1,sp,256
 2b6:	4410                	lw	a2,8(s0)
 2b8:	000e                	c.slli	zero,0x3
 2ba:	0000                	unimp
 2bc:	0000                	unimp
 2be:	0000                	unimp
 2c0:	002c                	addi	a1,sp,8
 2c2:	0000                	unimp
 2c4:	01f0                	addi	a2,sp,204
 2c6:	0000                	unimp
 2c8:	1118                	addi	a4,sp,160
 2ca:	00a0                	addi	s0,sp,72
 2cc:	0000                	unimp
 2ce:	0000                	unimp
 2d0:	003c                	addi	a5,sp,8
 2d2:	0000                	unimp
 2d4:	0000                	unimp
 2d6:	0000                	unimp
 2d8:	0e44                	addi	s1,sp,788
 2da:	4410                	lw	a2,8(s0)
 2dc:	0288                	addi	a0,sp,320
 2de:	0c44                	addi	s1,sp,532
 2e0:	0008                	0x8
 2e2:	0a60                	addi	s0,sp,284
 2e4:	0cc8                	addi	a0,sp,596
 2e6:	1002                	c.slli	zero,0x20
 2e8:	0e44                	addi	s1,sp,788
 2ea:	4400                	lw	s0,8(s0)
 2ec:	0000000b          	0xb
 2f0:	0034                	addi	a3,sp,8
 2f2:	0000                	unimp
 2f4:	01f0                	addi	a2,sp,204
 2f6:	0000                	unimp
 2f8:	1154                	addi	a3,sp,164
 2fa:	00a0                	addi	s0,sp,72
 2fc:	0000                	unimp
 2fe:	0000                	unimp
 300:	0104                	addi	s1,sp,128
 302:	0000                	unimp
 304:	0000                	unimp
 306:	0000                	unimp
 308:	0e50                	addi	a2,sp,788
 30a:	4420                	lw	s0,72(s0)
 30c:	0288                	addi	a0,sp,320
 30e:	0c44                	addi	s1,sp,532
 310:	0008                	0x8
 312:	c002                	sw	zero,0(sp)
 314:	020d                	addi	tp,tp,3
 316:	50c8                	lw	a0,36(s1)
 318:	080d                	addi	a6,a6,3
 31a:	0288                	addi	a0,sp,320
 31c:	c854                	sw	a3,20(s0)
 31e:	020c                	addi	a1,sp,256
 320:	4420                	lw	s0,72(s0)
 322:	000e                	c.slli	zero,0x3
 324:	0000                	unimp
 326:	0000                	unimp
 328:	002c                	addi	a1,sp,8
 32a:	0000                	unimp
 32c:	01f0                	addi	a2,sp,204
 32e:	0000                	unimp
 330:	1258                	addi	a4,sp,292
 332:	00a0                	addi	s0,sp,72
 334:	0000                	unimp
 336:	0000                	unimp
 338:	007c                	addi	a5,sp,12
 33a:	0000                	unimp
 33c:	0000                	unimp
 33e:	0000                	unimp
 340:	0e44                	addi	s1,sp,788
 342:	4410                	lw	a2,8(s0)
 344:	0288                	addi	a0,sp,320
 346:	0c44                	addi	s1,sp,532
 348:	0008                	0x8
 34a:	6002                	0x6002
 34c:	c80a                	sw	sp,16(sp)
 34e:	020c                	addi	a1,sp,256
 350:	4410                	lw	a2,8(s0)
 352:	000e                	c.slli	zero,0x3
 354:	0b44                	addi	s1,sp,404
 356:	0000                	unimp
 358:	002c                	addi	a1,sp,8
 35a:	0000                	unimp
 35c:	01f0                	addi	a2,sp,204
 35e:	0000                	unimp
 360:	12d4                	addi	a3,sp,356
 362:	00a0                	addi	s0,sp,72
 364:	0000                	unimp
 366:	0000                	unimp
 368:	0064                	addi	s1,sp,12
 36a:	0000                	unimp
 36c:	0000                	unimp
 36e:	0000                	unimp
 370:	0e44                	addi	s1,sp,788
 372:	4410                	lw	a2,8(s0)
 374:	0288                	addi	a0,sp,320
 376:	0c44                	addi	s1,sp,532
 378:	0008                	0x8
 37a:	4802                	lw	a6,0(sp)
 37c:	c80a                	sw	sp,16(sp)
 37e:	020c                	addi	a1,sp,256
 380:	4410                	lw	a2,8(s0)
 382:	000e                	c.slli	zero,0x3
 384:	0b44                	addi	s1,sp,404
 386:	0000                	unimp
 388:	002c                	addi	a1,sp,8
 38a:	0000                	unimp
 38c:	01f0                	addi	a2,sp,204
 38e:	0000                	unimp
 390:	1338                	addi	a4,sp,424
 392:	00a0                	addi	s0,sp,72
 394:	0000                	unimp
 396:	0000                	unimp
 398:	007c                	addi	a5,sp,12
 39a:	0000                	unimp
 39c:	0000                	unimp
 39e:	0000                	unimp
 3a0:	0e44                	addi	s1,sp,788
 3a2:	4410                	lw	a2,8(s0)
 3a4:	0288                	addi	a0,sp,320
 3a6:	0c44                	addi	s1,sp,532
 3a8:	0008                	0x8
 3aa:	0a70                	addi	a2,sp,284
 3ac:	0cc8                	addi	a0,sp,596
 3ae:	1002                	c.slli	zero,0x20
 3b0:	0e44                	addi	s1,sp,788
 3b2:	4400                	lw	s0,8(s0)
 3b4:	0000000b          	0xb
 3b8:	002c                	addi	a1,sp,8
 3ba:	0000                	unimp
 3bc:	01f0                	addi	a2,sp,204
 3be:	0000                	unimp
 3c0:	13b4                	addi	a3,sp,488
 3c2:	00a0                	addi	s0,sp,72
 3c4:	0000                	unimp
 3c6:	0000                	unimp
 3c8:	005c                	addi	a5,sp,4
 3ca:	0000                	unimp
 3cc:	0000                	unimp
 3ce:	0000                	unimp
 3d0:	0e44                	addi	s1,sp,788
 3d2:	4410                	lw	a2,8(s0)
 3d4:	0288                	addi	a0,sp,320
 3d6:	0c44                	addi	s1,sp,532
 3d8:	0008                	0x8
 3da:	4002                	0x4002
 3dc:	c80a                	sw	sp,16(sp)
 3de:	020c                	addi	a1,sp,256
 3e0:	4410                	lw	a2,8(s0)
 3e2:	000e                	c.slli	zero,0x3
 3e4:	0b44                	addi	s1,sp,404
 3e6:	0000                	unimp
 3e8:	002c                	addi	a1,sp,8
 3ea:	0000                	unimp
 3ec:	01f0                	addi	a2,sp,204
 3ee:	0000                	unimp
 3f0:	1410                	addi	a2,sp,544
 3f2:	00a0                	addi	s0,sp,72
 3f4:	0000                	unimp
 3f6:	0000                	unimp
 3f8:	0028                	addi	a0,sp,8
 3fa:	0000                	unimp
 3fc:	0000                	unimp
 3fe:	0000                	unimp
 400:	0e44                	addi	s1,sp,788
 402:	4810                	lw	a2,16(s0)
 404:	0281                	addi	t0,t0,0
 406:	0488                	addi	a0,sp,576
 408:	0c44                	addi	s1,sp,532
 40a:	0008                	0x8
 40c:	c14c                	sw	a1,4(a0)
 40e:	c844                	sw	s1,20(s0)
 410:	020c                	addi	a1,sp,256
 412:	4410                	lw	a2,8(s0)
 414:	000e                	c.slli	zero,0x3
 416:	0000                	unimp
 418:	000c                	0xc
 41a:	0000                	unimp
 41c:	ffff                	0xffff
 41e:	ffff                	0xffff
 420:	7c010003          	lb	zero,1984(sp)
 424:	0d01                	addi	s10,s10,0
 426:	0002                	c.slli64	zero
 428:	002c                	addi	a1,sp,8
 42a:	0000                	unimp
 42c:	0418                	addi	a4,sp,512
 42e:	0000                	unimp
 430:	1438                	addi	a4,sp,552
 432:	00a0                	addi	s0,sp,72
 434:	0000                	unimp
 436:	0000                	unimp
 438:	00b0                	addi	a2,sp,72
 43a:	0000                	unimp
 43c:	0000                	unimp
 43e:	0000                	unimp
 440:	0e44                	addi	s1,sp,788
 442:	4410                	lw	a2,8(s0)
 444:	0288                	addi	a0,sp,320
 446:	0c44                	addi	s1,sp,532
 448:	0008                	0x8
 44a:	9c02                	jalr	s8
 44c:	0cc8                	addi	a0,sp,596
 44e:	1002                	c.slli	zero,0x20
 450:	0e44                	addi	s1,sp,788
 452:	0000                	unimp
 454:	0000                	unimp
 456:	0000                	unimp
 458:	004c                	addi	a1,sp,4
 45a:	0000                	unimp
 45c:	0418                	addi	a4,sp,512
 45e:	0000                	unimp
 460:	14e8                	addi	a0,sp,620
 462:	00a0                	addi	s0,sp,72
 464:	0000                	unimp
 466:	0000                	unimp
 468:	0158                	addi	a4,sp,132
 46a:	0000                	unimp
 46c:	0000                	unimp
 46e:	0000                	unimp
 470:	0e44                	addi	s1,sp,788
 472:	6040                	ld	s0,128(s0)
 474:	0281                	addi	t0,t0,0
 476:	0488                	addi	a0,sp,576
 478:	0689                	addi	a3,a3,2
 47a:	0892                	slli	a7,a7,0x4
 47c:	0c940a93          	addi	s5,s0,201
 480:	0e95                	addi	t4,t4,5
 482:	1096                	slli	ra,ra,0x25
 484:	0c44                	addi	s1,sp,532
 486:	0008                	0x8
 488:	a402                	fsd	ft0,8(sp)
 48a:	c10a                	sw	sp,128(sp)
 48c:	c844                	sw	s1,20(s0)
 48e:	020c                	addi	a1,sp,256
 490:	4440                	lw	s0,12(s0)
 492:	44c9                	li	s1,18
 494:	44d2                	lw	s1,20(sp)
 496:	44d444d3          	0x44d444d3
 49a:	44d5                	li	s1,21
 49c:	44d6                	lw	s1,84(sp)
 49e:	000e                	c.slli	zero,0x3
 4a0:	0b44                	addi	s1,sp,404
 4a2:	0000                	unimp
 4a4:	0000                	unimp
	...
